(dp1
S'output'
p2
S''
sS'layer'
p3
S'D:\\Workbench\\web2py_src\\applications\\compound_interest\\views\\default/index.html'
p4
sS'code'
p5
S'response.write(\'<!DOCTYPE html>\\r\\n<html>\\r\\n<head></head>\\r\\n<body>\\r\\n<h1><a href="=\', escape=False)\nURL(\\\'index\\\')\nresponse.write(\'">\\xe5\\xa4\\x8d\\xe5\\x88\\xa9\\xe8\\xae\\xa1\\xe7\\xae\\x97\\xe5\\x99\\xa8</a></h1>\\r\\n\\xe4\\xbb\\x80\\xe4\\xb9\\x88\\xe6\\x98\\xaf\\xe5\\xa4\\x8d\\xe5\\x88\\xa9: wikipedia,\\r\\n<a href="http://zh.wikipedia.org/wiki/%E5%A4%8D%E5%88%A9" target=_blank>zh</a>\\r\\n<a href="http://en.wikipedia.org/wiki/Compound_interest" target=_blank>en</a>\\r\\n<p>\\xe5\\x85\\xac\\xe5\\xbc\\x8f: <img src="http://upload.wikimedia.org/wikipedia/en/math/e/0/c/e0ca87a82c591a0e0610792963751fd5.png" /></p>\\r\\n<p>\\xe8\\xa7\\xa3\\xe9\\x87\\x8a: \\xe6\\x9c\\xaa\\xe6\\x9d\\xa5\\xe4\\xbb\\xb7\\xe5\\x80\\xbc = \\xe5\\xbd\\x93\\xe5\\x89\\x8d\\xe4\\xbb\\xb7\\xe5\\x80\\xbc  * (1+\\xe5\\x9b\\xba\\xe5\\xae\\x9a\\xe5\\xb9\\xb4\\xe6\\x94\\xb6\\xe7\\x9b\\x8a\\xe7\\x8e\\x87) ** \\xe6\\x94\\xb6\\xe7\\x9b\\x8a\\xe5\\xb9\\xb4\\xe9\\x99\\x90</p>\\r\\n\\r\\n<form action="=\', escape=False)\nURL(\'index\')\nresponse.write(\'" method="get">\\r\\n\\xe6\\x8a\\x95\\xe8\\xb5\\x84\\xe6\\xa8\\xa1\\xe5\\xbc\\x8f : <input type="radio" name="invest_per_year" value="true" />\\xe6\\xaf\\x8f\\xe5\\xb9\\xb4\\xe5\\xae\\x9a\\xe6\\x8a\\x95\\r\\n<input type="radio" name="invest_per_year" value="false"  />\\xe4\\xb8\\x80\\xe6\\xac\\xa1\\xe6\\x80\\xa7\\xe6\\x8a\\x95\\xe5\\x85\\xa5 <p/>\\r\\n\\xe5\\xbd\\x93\\xe5\\x89\\x8d\\xe4\\xbb\\xb7\\xe5\\x80\\xbc(\\xe4\\xb8\\x80\\xe6\\xac\\xa1\\xe6\\x80\\xa7\\xe6\\x8a\\x95\\xe5\\x85\\xa5\\xe9\\x87\\x91\\xe9\\xa2\\x9d/\\xe6\\xaf\\x8f\\xe5\\xb9\\xb4\\xe6\\x8a\\x95\\xe5\\x85\\xa5\\xe9\\x87\\x91\\xe9\\xa2\\x9d) : <input type="text" name="pv" value="\', escape=False)\nresponse.write(pv)\nresponse.write(\'" /><p/>\\r\\n \\xe5\\x9b\\xba\\xe5\\xae\\x9a\\xe5\\xb9\\xb4\\xe6\\x94\\xb6\\xe7\\x9b\\x8a\\xe7\\x8e\\x87 : <input type="text" name="fi" value="\', escape=False)\nresponse.write(fi)\nresponse.write(\'" /><p/>\\r\\n\\xe6\\x94\\xb6\\xe7\\x9b\\x8a\\xe5\\xb9\\xb4\\xe9\\x99\\x90(\\xe6\\x8a\\x95\\xe8\\xb5\\x84\\xe5\\xb9\\xb4\\xe9\\x99\\x90) : <input type="text" name="np" value="\', escape=False)\nresponse.write(np)\nresponse.write(\'" /><p/>\\r\\n\\xe6\\x9c\\xaa\\xe6\\x9d\\xa5\\xe4\\xbb\\xb7\\xe5\\x80\\xbc (\\xe5\\x88\\xb0\\xe6\\x9c\\x9f\\xe9\\x87\\x91\\xe9\\xa2\\x9d) : <input type="text" name=fv value="\', escape=False)\nresponse.write(fv)\nresponse.write(\'" /><p/>\\r\\n<input type="submit" value="\\xe8\\xae\\xa1\\xe7\\xae\\x97" /><p/>\\r\\n</form>\\r\\n</body>\\r\\n</html>\', escape=False)'
p6
sS'snapshot'
p7
(dp8
S'exception'
p9
(dp10
S'__getslice__'
p11
S"<method-wrapper '__getslice__' of exceptions.SyntaxError object>"
p12
sS'text'
p13
S'"URL(\\\\\'index\\\\\')\\n"'
p14
sS'__str__'
p15
S"<method-wrapper '__str__' of exceptions.SyntaxError object>"
p16
sS'__reduce__'
p17
S'<built-in method __reduce__ of exceptions.SyntaxError object>'
p18
sS'__dict__'
p19
S'{}'
p20
sS'__sizeof__'
p21
S'<built-in method __sizeof__ of exceptions.SyntaxError object>'
p22
sS'__init__'
p23
S"<method-wrapper '__init__' of exceptions.SyntaxError object>"
p24
sS'__setattr__'
p25
S"<method-wrapper '__setattr__' of exceptions.SyntaxError object>"
p26
sS'__reduce_ex__'
p27
S'<built-in method __reduce_ex__ of exceptions.SyntaxError object>'
p28
sS'__new__'
p29
S'<built-in method __new__ of type object>'
p30
sS'__format__'
p31
S'<built-in method __format__ of exceptions.SyntaxError object>'
p32
sS'__class__'
p33
S"<type 'exceptions.SyntaxError'>"
p34
sS'filename'
p35
S"r'D:\\Workbench\\web2py_src\\applications\\compound_interest\\views\\default/index.html'"
p36
sS'lineno'
p37
S'2'
sS'msg'
p38
S"'unexpected character after line continuation character'"
p39
sS'__doc__'
p40
S"'Invalid syntax.'"
p41
sS'__getitem__'
p42
S"<method-wrapper '__getitem__' of exceptions.SyntaxError object>"
p43
sS'__setstate__'
p44
S'<built-in method __setstate__ of exceptions.SyntaxError object>'
p45
sS'__getattribute__'
p46
S"<method-wrapper '__getattribute__' of exceptions.SyntaxError object>"
p47
sS'print_file_and_line'
p48
S'None'
p49
sS'args'
p50
S'(\'unexpected character after line continuation character\', (r\'D:\\Workbench\\web2py_src\\applications\\compound_interest\\views\\default/index.html\', 2, 15, "URL(\\\\\'index\\\\\')\\n"))'
p51
sS'__subclasshook__'
p52
S'<built-in method __subclasshook__ of type object>'
p53
sS'offset'
p54
S'15'
p55
sS'__unicode__'
p56
S'<built-in method __unicode__ of exceptions.SyntaxError object>'
p57
sS'__delattr__'
p58
S"<method-wrapper '__delattr__' of exceptions.SyntaxError object>"
p59
sS'__repr__'
p60
S"<method-wrapper '__repr__' of exceptions.SyntaxError object>"
p61
sS'__hash__'
p62
S"<method-wrapper '__hash__' of exceptions.SyntaxError object>"
p63
ssS'evalue'
p64
S'unexpected character after line continuation character (default/index.html, line 2)'
p65
sS'request'
p66
ccopy_reg
_reconstructor
p67
(cgluon.html
BEAUTIFY
p68
c__builtin__
object
p69
NtRp70
(dp71
S'attributes'
p72
(dp73
sS'components'
p74
(lp75
g67
(cgluon.html
TABLE
p76
g69
NtRp77
(dp78
g72
(dp79
S'level'
p80
I5
ssS'parent'
p81
Nsg74
(lp82
g67
(cgluon.html
TR
p83
g69
NtRp84
(dp85
g72
(dp86
sg81
g77
sg74
(lp87
g67
(cgluon.html
TD
p88
g69
NtRp89
(dp90
g72
(dp91
S'_style'
p92
S'font-weight:bold;'
p93
ssg81
g84
sg74
(lp94
S'ajax'
p95
asbag67
(g88
g69
NtRp96
(dp97
g72
(dp98
S'_valign'
p99
S'top'
p100
ssg81
g84
sg74
(lp101
S':'
asbag67
(g88
g69
NtRp102
(dp103
g72
(dp104
sg81
g84
sg74
(lp105
g67
(g68
g69
NtRp106
(dp107
g72
(dp108
g80
I5
ssg81
g102
sg74
(lp109
S'False'
p110
asbasbasbag67
(g83
g69
NtRp111
(dp112
g72
(dp113
sg81
g77
sg74
(lp114
g67
(g88
g69
NtRp115
(dp116
g72
(dp117
g92
g93
ssg81
g111
sg74
(lp118
S'application'
p119
asbag67
(g88
g69
NtRp120
(dp121
g72
(dp122
g99
g100
ssg81
g111
sg74
(lp123
S':'
asbag67
(g88
g69
NtRp124
(dp125
g72
(dp126
sg81
g111
sg74
(lp127
g67
(g68
g69
NtRp128
(dp129
g72
(dp130
g80
I5
ssg81
g124
sg74
(lp131
S'compound_interest'
p132
asbasbasbag67
(g83
g69
NtRp133
(dp134
g72
(dp135
sg81
g77
sg74
(lp136
g67
(g88
g69
NtRp137
(dp138
g72
(dp139
g92
g93
ssg81
g133
sg74
(lp140
g50
asbag67
(g88
g69
NtRp141
(dp142
g72
(dp143
g99
g100
ssg81
g133
sg74
(lp144
S':'
asbag67
(g88
g69
NtRp145
(dp146
g72
(dp147
sg81
g133
sg74
(lp148
g67
(g68
g69
NtRp149
(dp150
g72
(dp151
g80
I5
ssg81
g145
sg74
(lp152
g67
(g76
g69
NtRp153
(dp154
g72
(dp155
g80
I4
ssg81
Nsg74
(lp156
sbasbasbasbag67
(g83
g69
NtRp157
(dp158
g72
(dp159
sg81
g77
sg74
(lp160
g67
(g88
g69
NtRp161
(dp162
g72
(dp163
g92
g93
ssg81
g157
sg74
(lp164
S'body'
p165
asbag67
(g88
g69
NtRp166
(dp167
g72
(dp168
g99
g100
ssg81
g157
sg74
(lp169
S':'
asbag67
(g88
g69
NtRp170
(dp171
g72
(dp172
sg81
g157
sg74
(lp173
g67
(g68
g69
NtRp174
(dp175
g72
(dp176
g80
I5
ssg81
g170
sg74
(lp177
S'<cStringIO.StringO object at 0x03417500>'
p178
asbasbasbag67
(g83
g69
NtRp179
(dp180
g72
(dp181
sg81
g77
sg74
(lp182
g67
(g88
g69
NtRp183
(dp184
g72
(dp185
g92
g93
ssg81
g179
sg74
(lp186
S'client'
p187
asbag67
(g88
g69
NtRp188
(dp189
g72
(dp190
g99
g100
ssg81
g179
sg74
(lp191
S':'
asbag67
(g88
g69
NtRp192
(dp193
g72
(dp194
sg81
g179
sg74
(lp195
g67
(g68
g69
NtRp196
(dp197
g72
(dp198
g80
I5
ssg81
g192
sg74
(lp199
S'127.0.0.1'
p200
asbasbasbag67
(g83
g69
NtRp201
(dp202
g72
(dp203
sg81
g77
sg74
(lp204
g67
(g88
g69
NtRp205
(dp206
g72
(dp207
g92
g93
ssg81
g201
sg74
(lp208
S'controller'
p209
asbag67
(g88
g69
NtRp210
(dp211
g72
(dp212
g99
g100
ssg81
g201
sg74
(lp213
S':'
asbag67
(g88
g69
NtRp214
(dp215
g72
(dp216
sg81
g201
sg74
(lp217
g67
(g68
g69
NtRp218
(dp219
g72
(dp220
g80
I5
ssg81
g214
sg74
(lp221
S'default'
p222
asbasbasbag67
(g83
g69
NtRp223
(dp224
g72
(dp225
sg81
g77
sg74
(lp226
g67
(g88
g69
NtRp227
(dp228
g72
(dp229
g92
g93
ssg81
g223
sg74
(lp230
S'cookies'
p231
asbag67
(g88
g69
NtRp232
(dp233
g72
(dp234
g99
g100
ssg81
g223
sg74
(lp235
S':'
asbag67
(g88
g69
NtRp236
(dp237
g72
(dp238
sg81
g223
sg74
(lp239
g67
(g68
g69
NtRp240
(dp241
g72
(dp242
g80
I5
ssg81
g236
sg74
(lp243
g67
(g76
g69
NtRp244
(dp245
g72
(dp246
g80
I4
ssg81
Nsg74
(lp247
g67
(g83
g69
NtRp248
(dp249
g72
(dp250
sg81
g244
sg74
(lp251
g67
(g88
g69
NtRp252
(dp253
g72
(dp254
g92
g93
ssg81
g248
sg74
(lp255
S'session_id_admin'
p256
asbag67
(g88
g69
NtRp257
(dp258
g72
(dp259
g99
g100
ssg81
g248
sg74
(lp260
S':'
asbag67
(g88
g69
NtRp261
(dp262
g72
(dp263
sg81
g248
sg74
(lp264
g67
(g68
g69
NtRp265
(dp266
g72
(dp267
g80
I4
ssg81
g261
sg74
(lp268
g67
(g76
g69
NtRp269
(dp270
g72
(dp271
g80
I3
ssg81
Nsg74
(lp272
g67
(g83
g69
NtRp273
(dp274
g72
(dp275
sg81
g269
sg74
(lp276
g67
(g88
g69
NtRp277
(dp278
g72
(dp279
g92
g93
ssg81
g273
sg74
(lp280
S'comment'
p281
asbag67
(g88
g69
NtRp282
(dp283
g72
(dp284
g99
g100
ssg81
g273
sg74
(lp285
S':'
asbag67
(g88
g69
NtRp286
(dp287
g72
(dp288
sg81
g273
sg74
(lp289
g67
(g68
g69
NtRp290
(dp291
g72
(dp292
g80
I3
ssg81
g286
sg74
(lp293
S''
asbasbasbag67
(g83
g69
NtRp294
(dp295
g72
(dp296
sg81
g269
sg74
(lp297
g67
(g88
g69
NtRp298
(dp299
g72
(dp300
g92
g93
ssg81
g294
sg74
(lp301
S'domain'
p302
asbag67
(g88
g69
NtRp303
(dp304
g72
(dp305
g99
g100
ssg81
g294
sg74
(lp306
S':'
asbag67
(g88
g69
NtRp307
(dp308
g72
(dp309
sg81
g294
sg74
(lp310
g67
(g68
g69
NtRp311
(dp312
g72
(dp313
g80
I3
ssg81
g307
sg74
(lp314
S''
asbasbasbag67
(g83
g69
NtRp315
(dp316
g72
(dp317
sg81
g269
sg74
(lp318
g67
(g88
g69
NtRp319
(dp320
g72
(dp321
g92
g93
ssg81
g315
sg74
(lp322
S'expires'
p323
asbag67
(g88
g69
NtRp324
(dp325
g72
(dp326
g99
g100
ssg81
g315
sg74
(lp327
S':'
asbag67
(g88
g69
NtRp328
(dp329
g72
(dp330
sg81
g315
sg74
(lp331
g67
(g68
g69
NtRp332
(dp333
g72
(dp334
g80
I3
ssg81
g328
sg74
(lp335
S''
asbasbasbag67
(g83
g69
NtRp336
(dp337
g72
(dp338
sg81
g269
sg74
(lp339
g67
(g88
g69
NtRp340
(dp341
g72
(dp342
g92
g93
ssg81
g336
sg74
(lp343
S'httponly'
p344
asbag67
(g88
g69
NtRp345
(dp346
g72
(dp347
g99
g100
ssg81
g336
sg74
(lp348
S':'
asbag67
(g88
g69
NtRp349
(dp350
g72
(dp351
sg81
g336
sg74
(lp352
g67
(g68
g69
NtRp353
(dp354
g72
(dp355
g80
I3
ssg81
g349
sg74
(lp356
S''
asbasbasbag67
(g83
g69
NtRp357
(dp358
g72
(dp359
sg81
g269
sg74
(lp360
g67
(g88
g69
NtRp361
(dp362
g72
(dp363
g92
g93
ssg81
g357
sg74
(lp364
S'max-age'
p365
asbag67
(g88
g69
NtRp366
(dp367
g72
(dp368
g99
g100
ssg81
g357
sg74
(lp369
S':'
asbag67
(g88
g69
NtRp370
(dp371
g72
(dp372
sg81
g357
sg74
(lp373
g67
(g68
g69
NtRp374
(dp375
g72
(dp376
g80
I3
ssg81
g370
sg74
(lp377
S''
asbasbasbag67
(g83
g69
NtRp378
(dp379
g72
(dp380
sg81
g269
sg74
(lp381
g67
(g88
g69
NtRp382
(dp383
g72
(dp384
g92
g93
ssg81
g378
sg74
(lp385
S'path'
p386
asbag67
(g88
g69
NtRp387
(dp388
g72
(dp389
g99
g100
ssg81
g378
sg74
(lp390
S':'
asbag67
(g88
g69
NtRp391
(dp392
g72
(dp393
sg81
g378
sg74
(lp394
g67
(g68
g69
NtRp395
(dp396
g72
(dp397
g80
I3
ssg81
g391
sg74
(lp398
S''
asbasbasbag67
(g83
g69
NtRp399
(dp400
g72
(dp401
sg81
g269
sg74
(lp402
g67
(g88
g69
NtRp403
(dp404
g72
(dp405
g92
g93
ssg81
g399
sg74
(lp406
S'secure'
p407
asbag67
(g88
g69
NtRp408
(dp409
g72
(dp410
g99
g100
ssg81
g399
sg74
(lp411
S':'
asbag67
(g88
g69
NtRp412
(dp413
g72
(dp414
sg81
g399
sg74
(lp415
g67
(g68
g69
NtRp416
(dp417
g72
(dp418
g80
I3
ssg81
g412
sg74
(lp419
S''
asbasbasbag67
(g83
g69
NtRp420
(dp421
g72
(dp422
sg81
g269
sg74
(lp423
g67
(g88
g69
NtRp424
(dp425
g72
(dp426
g92
g93
ssg81
g420
sg74
(lp427
S'version'
p428
asbag67
(g88
g69
NtRp429
(dp430
g72
(dp431
g99
g100
ssg81
g420
sg74
(lp432
S':'
asbag67
(g88
g69
NtRp433
(dp434
g72
(dp435
sg81
g420
sg74
(lp436
g67
(g68
g69
NtRp437
(dp438
g72
(dp439
g80
I3
ssg81
g433
sg74
(lp440
S''
asbasbasbasbasbasbasbag67
(g83
g69
NtRp441
(dp442
g72
(dp443
sg81
g244
sg74
(lp444
g67
(g88
g69
NtRp445
(dp446
g72
(dp447
g92
g93
ssg81
g441
sg74
(lp448
S'session_id_compound_interest'
p449
asbag67
(g88
g69
NtRp450
(dp451
g72
(dp452
g99
g100
ssg81
g441
sg74
(lp453
S':'
asbag67
(g88
g69
NtRp454
(dp455
g72
(dp456
sg81
g441
sg74
(lp457
g67
(g68
g69
NtRp458
(dp459
g72
(dp460
g80
I4
ssg81
g454
sg74
(lp461
g67
(g76
g69
NtRp462
(dp463
g72
(dp464
g80
I3
ssg81
Nsg74
(lp465
g67
(g83
g69
NtRp466
(dp467
g72
(dp468
sg81
g462
sg74
(lp469
g67
(g88
g69
NtRp470
(dp471
g72
(dp472
g92
g93
ssg81
g466
sg74
(lp473
g281
asbag67
(g88
g69
NtRp474
(dp475
g72
(dp476
g99
g100
ssg81
g466
sg74
(lp477
S':'
asbag67
(g88
g69
NtRp478
(dp479
g72
(dp480
sg81
g466
sg74
(lp481
g67
(g68
g69
NtRp482
(dp483
g72
(dp484
g80
I3
ssg81
g478
sg74
(lp485
S''
asbasbasbag67
(g83
g69
NtRp486
(dp487
g72
(dp488
sg81
g462
sg74
(lp489
g67
(g88
g69
NtRp490
(dp491
g72
(dp492
g92
g93
ssg81
g486
sg74
(lp493
g302
asbag67
(g88
g69
NtRp494
(dp495
g72
(dp496
g99
g100
ssg81
g486
sg74
(lp497
S':'
asbag67
(g88
g69
NtRp498
(dp499
g72
(dp500
sg81
g486
sg74
(lp501
g67
(g68
g69
NtRp502
(dp503
g72
(dp504
g80
I3
ssg81
g498
sg74
(lp505
S''
asbasbasbag67
(g83
g69
NtRp506
(dp507
g72
(dp508
sg81
g462
sg74
(lp509
g67
(g88
g69
NtRp510
(dp511
g72
(dp512
g92
g93
ssg81
g506
sg74
(lp513
g323
asbag67
(g88
g69
NtRp514
(dp515
g72
(dp516
g99
g100
ssg81
g506
sg74
(lp517
S':'
asbag67
(g88
g69
NtRp518
(dp519
g72
(dp520
sg81
g506
sg74
(lp521
g67
(g68
g69
NtRp522
(dp523
g72
(dp524
g80
I3
ssg81
g518
sg74
(lp525
S''
asbasbasbag67
(g83
g69
NtRp526
(dp527
g72
(dp528
sg81
g462
sg74
(lp529
g67
(g88
g69
NtRp530
(dp531
g72
(dp532
g92
g93
ssg81
g526
sg74
(lp533
g344
asbag67
(g88
g69
NtRp534
(dp535
g72
(dp536
g99
g100
ssg81
g526
sg74
(lp537
S':'
asbag67
(g88
g69
NtRp538
(dp539
g72
(dp540
sg81
g526
sg74
(lp541
g67
(g68
g69
NtRp542
(dp543
g72
(dp544
g80
I3
ssg81
g538
sg74
(lp545
S''
asbasbasbag67
(g83
g69
NtRp546
(dp547
g72
(dp548
sg81
g462
sg74
(lp549
g67
(g88
g69
NtRp550
(dp551
g72
(dp552
g92
g93
ssg81
g546
sg74
(lp553
g365
asbag67
(g88
g69
NtRp554
(dp555
g72
(dp556
g99
g100
ssg81
g546
sg74
(lp557
S':'
asbag67
(g88
g69
NtRp558
(dp559
g72
(dp560
sg81
g546
sg74
(lp561
g67
(g68
g69
NtRp562
(dp563
g72
(dp564
g80
I3
ssg81
g558
sg74
(lp565
S''
asbasbasbag67
(g83
g69
NtRp566
(dp567
g72
(dp568
sg81
g462
sg74
(lp569
g67
(g88
g69
NtRp570
(dp571
g72
(dp572
g92
g93
ssg81
g566
sg74
(lp573
g386
asbag67
(g88
g69
NtRp574
(dp575
g72
(dp576
g99
g100
ssg81
g566
sg74
(lp577
S':'
asbag67
(g88
g69
NtRp578
(dp579
g72
(dp580
sg81
g566
sg74
(lp581
g67
(g68
g69
NtRp582
(dp583
g72
(dp584
g80
I3
ssg81
g578
sg74
(lp585
S''
asbasbasbag67
(g83
g69
NtRp586
(dp587
g72
(dp588
sg81
g462
sg74
(lp589
g67
(g88
g69
NtRp590
(dp591
g72
(dp592
g92
g93
ssg81
g586
sg74
(lp593
g407
asbag67
(g88
g69
NtRp594
(dp595
g72
(dp596
g99
g100
ssg81
g586
sg74
(lp597
S':'
asbag67
(g88
g69
NtRp598
(dp599
g72
(dp600
sg81
g586
sg74
(lp601
g67
(g68
g69
NtRp602
(dp603
g72
(dp604
g80
I3
ssg81
g598
sg74
(lp605
S''
asbasbasbag67
(g83
g69
NtRp606
(dp607
g72
(dp608
sg81
g462
sg74
(lp609
g67
(g88
g69
NtRp610
(dp611
g72
(dp612
g92
g93
ssg81
g606
sg74
(lp613
g428
asbag67
(g88
g69
NtRp614
(dp615
g72
(dp616
g99
g100
ssg81
g606
sg74
(lp617
S':'
asbag67
(g88
g69
NtRp618
(dp619
g72
(dp620
sg81
g606
sg74
(lp621
g67
(g68
g69
NtRp622
(dp623
g72
(dp624
g80
I3
ssg81
g618
sg74
(lp625
S''
asbasbasbasbasbasbasbag67
(g83
g69
NtRp626
(dp627
g72
(dp628
sg81
g244
sg74
(lp629
g67
(g88
g69
NtRp630
(dp631
g72
(dp632
g92
g93
ssg81
g626
sg74
(lp633
S'session_id_dummy'
p634
asbag67
(g88
g69
NtRp635
(dp636
g72
(dp637
g99
g100
ssg81
g626
sg74
(lp638
S':'
asbag67
(g88
g69
NtRp639
(dp640
g72
(dp641
sg81
g626
sg74
(lp642
g67
(g68
g69
NtRp643
(dp644
g72
(dp645
g80
I4
ssg81
g639
sg74
(lp646
g67
(g76
g69
NtRp647
(dp648
g72
(dp649
g80
I3
ssg81
Nsg74
(lp650
g67
(g83
g69
NtRp651
(dp652
g72
(dp653
sg81
g647
sg74
(lp654
g67
(g88
g69
NtRp655
(dp656
g72
(dp657
g92
g93
ssg81
g651
sg74
(lp658
g281
asbag67
(g88
g69
NtRp659
(dp660
g72
(dp661
g99
g100
ssg81
g651
sg74
(lp662
S':'
asbag67
(g88
g69
NtRp663
(dp664
g72
(dp665
sg81
g651
sg74
(lp666
g67
(g68
g69
NtRp667
(dp668
g72
(dp669
g80
I3
ssg81
g663
sg74
(lp670
S''
asbasbasbag67
(g83
g69
NtRp671
(dp672
g72
(dp673
sg81
g647
sg74
(lp674
g67
(g88
g69
NtRp675
(dp676
g72
(dp677
g92
g93
ssg81
g671
sg74
(lp678
g302
asbag67
(g88
g69
NtRp679
(dp680
g72
(dp681
g99
g100
ssg81
g671
sg74
(lp682
S':'
asbag67
(g88
g69
NtRp683
(dp684
g72
(dp685
sg81
g671
sg74
(lp686
g67
(g68
g69
NtRp687
(dp688
g72
(dp689
g80
I3
ssg81
g683
sg74
(lp690
S''
asbasbasbag67
(g83
g69
NtRp691
(dp692
g72
(dp693
sg81
g647
sg74
(lp694
g67
(g88
g69
NtRp695
(dp696
g72
(dp697
g92
g93
ssg81
g691
sg74
(lp698
g323
asbag67
(g88
g69
NtRp699
(dp700
g72
(dp701
g99
g100
ssg81
g691
sg74
(lp702
S':'
asbag67
(g88
g69
NtRp703
(dp704
g72
(dp705
sg81
g691
sg74
(lp706
g67
(g68
g69
NtRp707
(dp708
g72
(dp709
g80
I3
ssg81
g703
sg74
(lp710
S''
asbasbasbag67
(g83
g69
NtRp711
(dp712
g72
(dp713
sg81
g647
sg74
(lp714
g67
(g88
g69
NtRp715
(dp716
g72
(dp717
g92
g93
ssg81
g711
sg74
(lp718
g344
asbag67
(g88
g69
NtRp719
(dp720
g72
(dp721
g99
g100
ssg81
g711
sg74
(lp722
S':'
asbag67
(g88
g69
NtRp723
(dp724
g72
(dp725
sg81
g711
sg74
(lp726
g67
(g68
g69
NtRp727
(dp728
g72
(dp729
g80
I3
ssg81
g723
sg74
(lp730
S''
asbasbasbag67
(g83
g69
NtRp731
(dp732
g72
(dp733
sg81
g647
sg74
(lp734
g67
(g88
g69
NtRp735
(dp736
g72
(dp737
g92
g93
ssg81
g731
sg74
(lp738
g365
asbag67
(g88
g69
NtRp739
(dp740
g72
(dp741
g99
g100
ssg81
g731
sg74
(lp742
S':'
asbag67
(g88
g69
NtRp743
(dp744
g72
(dp745
sg81
g731
sg74
(lp746
g67
(g68
g69
NtRp747
(dp748
g72
(dp749
g80
I3
ssg81
g743
sg74
(lp750
S''
asbasbasbag67
(g83
g69
NtRp751
(dp752
g72
(dp753
sg81
g647
sg74
(lp754
g67
(g88
g69
NtRp755
(dp756
g72
(dp757
g92
g93
ssg81
g751
sg74
(lp758
g386
asbag67
(g88
g69
NtRp759
(dp760
g72
(dp761
g99
g100
ssg81
g751
sg74
(lp762
S':'
asbag67
(g88
g69
NtRp763
(dp764
g72
(dp765
sg81
g751
sg74
(lp766
g67
(g68
g69
NtRp767
(dp768
g72
(dp769
g80
I3
ssg81
g763
sg74
(lp770
S''
asbasbasbag67
(g83
g69
NtRp771
(dp772
g72
(dp773
sg81
g647
sg74
(lp774
g67
(g88
g69
NtRp775
(dp776
g72
(dp777
g92
g93
ssg81
g771
sg74
(lp778
g407
asbag67
(g88
g69
NtRp779
(dp780
g72
(dp781
g99
g100
ssg81
g771
sg74
(lp782
S':'
asbag67
(g88
g69
NtRp783
(dp784
g72
(dp785
sg81
g771
sg74
(lp786
g67
(g68
g69
NtRp787
(dp788
g72
(dp789
g80
I3
ssg81
g783
sg74
(lp790
S''
asbasbasbag67
(g83
g69
NtRp791
(dp792
g72
(dp793
sg81
g647
sg74
(lp794
g67
(g88
g69
NtRp795
(dp796
g72
(dp797
g92
g93
ssg81
g791
sg74
(lp798
g428
asbag67
(g88
g69
NtRp799
(dp800
g72
(dp801
g99
g100
ssg81
g791
sg74
(lp802
S':'
asbag67
(g88
g69
NtRp803
(dp804
g72
(dp805
sg81
g791
sg74
(lp806
g67
(g68
g69
NtRp807
(dp808
g72
(dp809
g80
I3
ssg81
g803
sg74
(lp810
S''
asbasbasbasbasbasbasbag67
(g83
g69
NtRp811
(dp812
g72
(dp813
sg81
g244
sg74
(lp814
g67
(g88
g69
NtRp815
(dp816
g72
(dp817
g92
g93
ssg81
g811
sg74
(lp818
S'session_id_toolbox'
p819
asbag67
(g88
g69
NtRp820
(dp821
g72
(dp822
g99
g100
ssg81
g811
sg74
(lp823
S':'
asbag67
(g88
g69
NtRp824
(dp825
g72
(dp826
sg81
g811
sg74
(lp827
g67
(g68
g69
NtRp828
(dp829
g72
(dp830
g80
I4
ssg81
g824
sg74
(lp831
g67
(g76
g69
NtRp832
(dp833
g72
(dp834
g80
I3
ssg81
Nsg74
(lp835
g67
(g83
g69
NtRp836
(dp837
g72
(dp838
sg81
g832
sg74
(lp839
g67
(g88
g69
NtRp840
(dp841
g72
(dp842
g92
g93
ssg81
g836
sg74
(lp843
g281
asbag67
(g88
g69
NtRp844
(dp845
g72
(dp846
g99
g100
ssg81
g836
sg74
(lp847
S':'
asbag67
(g88
g69
NtRp848
(dp849
g72
(dp850
sg81
g836
sg74
(lp851
g67
(g68
g69
NtRp852
(dp853
g72
(dp854
g80
I3
ssg81
g848
sg74
(lp855
S''
asbasbasbag67
(g83
g69
NtRp856
(dp857
g72
(dp858
sg81
g832
sg74
(lp859
g67
(g88
g69
NtRp860
(dp861
g72
(dp862
g92
g93
ssg81
g856
sg74
(lp863
g302
asbag67
(g88
g69
NtRp864
(dp865
g72
(dp866
g99
g100
ssg81
g856
sg74
(lp867
S':'
asbag67
(g88
g69
NtRp868
(dp869
g72
(dp870
sg81
g856
sg74
(lp871
g67
(g68
g69
NtRp872
(dp873
g72
(dp874
g80
I3
ssg81
g868
sg74
(lp875
S''
asbasbasbag67
(g83
g69
NtRp876
(dp877
g72
(dp878
sg81
g832
sg74
(lp879
g67
(g88
g69
NtRp880
(dp881
g72
(dp882
g92
g93
ssg81
g876
sg74
(lp883
g323
asbag67
(g88
g69
NtRp884
(dp885
g72
(dp886
g99
g100
ssg81
g876
sg74
(lp887
S':'
asbag67
(g88
g69
NtRp888
(dp889
g72
(dp890
sg81
g876
sg74
(lp891
g67
(g68
g69
NtRp892
(dp893
g72
(dp894
g80
I3
ssg81
g888
sg74
(lp895
S''
asbasbasbag67
(g83
g69
NtRp896
(dp897
g72
(dp898
sg81
g832
sg74
(lp899
g67
(g88
g69
NtRp900
(dp901
g72
(dp902
g92
g93
ssg81
g896
sg74
(lp903
g344
asbag67
(g88
g69
NtRp904
(dp905
g72
(dp906
g99
g100
ssg81
g896
sg74
(lp907
S':'
asbag67
(g88
g69
NtRp908
(dp909
g72
(dp910
sg81
g896
sg74
(lp911
g67
(g68
g69
NtRp912
(dp913
g72
(dp914
g80
I3
ssg81
g908
sg74
(lp915
S''
asbasbasbag67
(g83
g69
NtRp916
(dp917
g72
(dp918
sg81
g832
sg74
(lp919
g67
(g88
g69
NtRp920
(dp921
g72
(dp922
g92
g93
ssg81
g916
sg74
(lp923
g365
asbag67
(g88
g69
NtRp924
(dp925
g72
(dp926
g99
g100
ssg81
g916
sg74
(lp927
S':'
asbag67
(g88
g69
NtRp928
(dp929
g72
(dp930
sg81
g916
sg74
(lp931
g67
(g68
g69
NtRp932
(dp933
g72
(dp934
g80
I3
ssg81
g928
sg74
(lp935
S''
asbasbasbag67
(g83
g69
NtRp936
(dp937
g72
(dp938
sg81
g832
sg74
(lp939
g67
(g88
g69
NtRp940
(dp941
g72
(dp942
g92
g93
ssg81
g936
sg74
(lp943
g386
asbag67
(g88
g69
NtRp944
(dp945
g72
(dp946
g99
g100
ssg81
g936
sg74
(lp947
S':'
asbag67
(g88
g69
NtRp948
(dp949
g72
(dp950
sg81
g936
sg74
(lp951
g67
(g68
g69
NtRp952
(dp953
g72
(dp954
g80
I3
ssg81
g948
sg74
(lp955
S''
asbasbasbag67
(g83
g69
NtRp956
(dp957
g72
(dp958
sg81
g832
sg74
(lp959
g67
(g88
g69
NtRp960
(dp961
g72
(dp962
g92
g93
ssg81
g956
sg74
(lp963
g407
asbag67
(g88
g69
NtRp964
(dp965
g72
(dp966
g99
g100
ssg81
g956
sg74
(lp967
S':'
asbag67
(g88
g69
NtRp968
(dp969
g72
(dp970
sg81
g956
sg74
(lp971
g67
(g68
g69
NtRp972
(dp973
g72
(dp974
g80
I3
ssg81
g968
sg74
(lp975
S''
asbasbasbag67
(g83
g69
NtRp976
(dp977
g72
(dp978
sg81
g832
sg74
(lp979
g67
(g88
g69
NtRp980
(dp981
g72
(dp982
g92
g93
ssg81
g976
sg74
(lp983
g428
asbag67
(g88
g69
NtRp984
(dp985
g72
(dp986
g99
g100
ssg81
g976
sg74
(lp987
S':'
asbag67
(g88
g69
NtRp988
(dp989
g72
(dp990
sg81
g976
sg74
(lp991
g67
(g68
g69
NtRp992
(dp993
g72
(dp994
g80
I3
ssg81
g988
sg74
(lp995
S''
asbasbasbasbasbasbasbag67
(g83
g69
NtRp996
(dp997
g72
(dp998
sg81
g244
sg74
(lp999
g67
(g88
g69
NtRp1000
(dp1001
g72
(dp1002
g92
g93
ssg81
g996
sg74
(lp1003
S'session_id_welcome'
p1004
asbag67
(g88
g69
NtRp1005
(dp1006
g72
(dp1007
g99
g100
ssg81
g996
sg74
(lp1008
S':'
asbag67
(g88
g69
NtRp1009
(dp1010
g72
(dp1011
sg81
g996
sg74
(lp1012
g67
(g68
g69
NtRp1013
(dp1014
g72
(dp1015
g80
I4
ssg81
g1009
sg74
(lp1016
g67
(g76
g69
NtRp1017
(dp1018
g72
(dp1019
g80
I3
ssg81
Nsg74
(lp1020
g67
(g83
g69
NtRp1021
(dp1022
g72
(dp1023
sg81
g1017
sg74
(lp1024
g67
(g88
g69
NtRp1025
(dp1026
g72
(dp1027
g92
g93
ssg81
g1021
sg74
(lp1028
g281
asbag67
(g88
g69
NtRp1029
(dp1030
g72
(dp1031
g99
g100
ssg81
g1021
sg74
(lp1032
S':'
asbag67
(g88
g69
NtRp1033
(dp1034
g72
(dp1035
sg81
g1021
sg74
(lp1036
g67
(g68
g69
NtRp1037
(dp1038
g72
(dp1039
g80
I3
ssg81
g1033
sg74
(lp1040
S''
asbasbasbag67
(g83
g69
NtRp1041
(dp1042
g72
(dp1043
sg81
g1017
sg74
(lp1044
g67
(g88
g69
NtRp1045
(dp1046
g72
(dp1047
g92
g93
ssg81
g1041
sg74
(lp1048
g302
asbag67
(g88
g69
NtRp1049
(dp1050
g72
(dp1051
g99
g100
ssg81
g1041
sg74
(lp1052
S':'
asbag67
(g88
g69
NtRp1053
(dp1054
g72
(dp1055
sg81
g1041
sg74
(lp1056
g67
(g68
g69
NtRp1057
(dp1058
g72
(dp1059
g80
I3
ssg81
g1053
sg74
(lp1060
S''
asbasbasbag67
(g83
g69
NtRp1061
(dp1062
g72
(dp1063
sg81
g1017
sg74
(lp1064
g67
(g88
g69
NtRp1065
(dp1066
g72
(dp1067
g92
g93
ssg81
g1061
sg74
(lp1068
g323
asbag67
(g88
g69
NtRp1069
(dp1070
g72
(dp1071
g99
g100
ssg81
g1061
sg74
(lp1072
S':'
asbag67
(g88
g69
NtRp1073
(dp1074
g72
(dp1075
sg81
g1061
sg74
(lp1076
g67
(g68
g69
NtRp1077
(dp1078
g72
(dp1079
g80
I3
ssg81
g1073
sg74
(lp1080
S''
asbasbasbag67
(g83
g69
NtRp1081
(dp1082
g72
(dp1083
sg81
g1017
sg74
(lp1084
g67
(g88
g69
NtRp1085
(dp1086
g72
(dp1087
g92
g93
ssg81
g1081
sg74
(lp1088
g344
asbag67
(g88
g69
NtRp1089
(dp1090
g72
(dp1091
g99
g100
ssg81
g1081
sg74
(lp1092
S':'
asbag67
(g88
g69
NtRp1093
(dp1094
g72
(dp1095
sg81
g1081
sg74
(lp1096
g67
(g68
g69
NtRp1097
(dp1098
g72
(dp1099
g80
I3
ssg81
g1093
sg74
(lp1100
S''
asbasbasbag67
(g83
g69
NtRp1101
(dp1102
g72
(dp1103
sg81
g1017
sg74
(lp1104
g67
(g88
g69
NtRp1105
(dp1106
g72
(dp1107
g92
g93
ssg81
g1101
sg74
(lp1108
g365
asbag67
(g88
g69
NtRp1109
(dp1110
g72
(dp1111
g99
g100
ssg81
g1101
sg74
(lp1112
S':'
asbag67
(g88
g69
NtRp1113
(dp1114
g72
(dp1115
sg81
g1101
sg74
(lp1116
g67
(g68
g69
NtRp1117
(dp1118
g72
(dp1119
g80
I3
ssg81
g1113
sg74
(lp1120
S''
asbasbasbag67
(g83
g69
NtRp1121
(dp1122
g72
(dp1123
sg81
g1017
sg74
(lp1124
g67
(g88
g69
NtRp1125
(dp1126
g72
(dp1127
g92
g93
ssg81
g1121
sg74
(lp1128
g386
asbag67
(g88
g69
NtRp1129
(dp1130
g72
(dp1131
g99
g100
ssg81
g1121
sg74
(lp1132
S':'
asbag67
(g88
g69
NtRp1133
(dp1134
g72
(dp1135
sg81
g1121
sg74
(lp1136
g67
(g68
g69
NtRp1137
(dp1138
g72
(dp1139
g80
I3
ssg81
g1133
sg74
(lp1140
S''
asbasbasbag67
(g83
g69
NtRp1141
(dp1142
g72
(dp1143
sg81
g1017
sg74
(lp1144
g67
(g88
g69
NtRp1145
(dp1146
g72
(dp1147
g92
g93
ssg81
g1141
sg74
(lp1148
g407
asbag67
(g88
g69
NtRp1149
(dp1150
g72
(dp1151
g99
g100
ssg81
g1141
sg74
(lp1152
S':'
asbag67
(g88
g69
NtRp1153
(dp1154
g72
(dp1155
sg81
g1141
sg74
(lp1156
g67
(g68
g69
NtRp1157
(dp1158
g72
(dp1159
g80
I3
ssg81
g1153
sg74
(lp1160
S''
asbasbasbag67
(g83
g69
NtRp1161
(dp1162
g72
(dp1163
sg81
g1017
sg74
(lp1164
g67
(g88
g69
NtRp1165
(dp1166
g72
(dp1167
g92
g93
ssg81
g1161
sg74
(lp1168
g428
asbag67
(g88
g69
NtRp1169
(dp1170
g72
(dp1171
g99
g100
ssg81
g1161
sg74
(lp1172
S':'
asbag67
(g88
g69
NtRp1173
(dp1174
g72
(dp1175
sg81
g1161
sg74
(lp1176
g67
(g68
g69
NtRp1177
(dp1178
g72
(dp1179
g80
I3
ssg81
g1173
sg74
(lp1180
S''
asbasbasbasbasbasbasbasbasbasbasbag67
(g83
g69
NtRp1181
(dp1182
g72
(dp1183
sg81
g77
sg74
(lp1184
g67
(g88
g69
NtRp1185
(dp1186
g72
(dp1187
g92
g93
ssg81
g1181
sg74
(lp1188
S'env'
p1189
asbag67
(g88
g69
NtRp1190
(dp1191
g72
(dp1192
g99
g100
ssg81
g1181
sg74
(lp1193
S':'
asbag67
(g88
g69
NtRp1194
(dp1195
g72
(dp1196
sg81
g1181
sg74
(lp1197
g67
(g68
g69
NtRp1198
(dp1199
g72
(dp1200
g80
I5
ssg81
g1194
sg74
(lp1201
g67
(g76
g69
NtRp1202
(dp1203
g72
(dp1204
g80
I4
ssg81
Nsg74
(lp1205
g67
(g83
g69
NtRp1206
(dp1207
g72
(dp1208
sg81
g1202
sg74
(lp1209
g67
(g88
g69
NtRp1210
(dp1211
g72
(dp1212
g92
g93
ssg81
g1206
sg74
(lp1213
S'app_folders'
p1214
asbag67
(g88
g69
NtRp1215
(dp1216
g72
(dp1217
g99
g100
ssg81
g1206
sg74
(lp1218
S':'
asbag67
(g88
g69
NtRp1219
(dp1220
g72
(dp1221
sg81
g1206
sg74
(lp1222
g67
(g68
g69
NtRp1223
(dp1224
g72
(dp1225
g80
I4
ssg81
g1219
sg74
(lp1226
S"set(['D:\\\\Workbench\\\\web2py_src\\\\applications\\\\compound_interest\\\\'])"
p1227
asbasbasbag67
(g83
g69
NtRp1228
(dp1229
g72
(dp1230
sg81
g1202
sg74
(lp1231
g67
(g88
g69
NtRp1232
(dp1233
g72
(dp1234
g92
g93
ssg81
g1228
sg74
(lp1235
S'applications_parent'
p1236
asbag67
(g88
g69
NtRp1237
(dp1238
g72
(dp1239
g99
g100
ssg81
g1228
sg74
(lp1240
S':'
asbag67
(g88
g69
NtRp1241
(dp1242
g72
(dp1243
sg81
g1228
sg74
(lp1244
g67
(g68
g69
NtRp1245
(dp1246
g72
(dp1247
g80
I4
ssg81
g1241
sg74
(lp1248
S'D:\\Workbench\\web2py_src'
p1249
asbasbasbag67
(g83
g69
NtRp1250
(dp1251
g72
(dp1252
sg81
g1202
sg74
(lp1253
g67
(g88
g69
NtRp1254
(dp1255
g72
(dp1256
g92
g93
ssg81
g1250
sg74
(lp1257
S'comspec'
p1258
asbag67
(g88
g69
NtRp1259
(dp1260
g72
(dp1261
g99
g100
ssg81
g1250
sg74
(lp1262
S':'
asbag67
(g88
g69
NtRp1263
(dp1264
g72
(dp1265
sg81
g1250
sg74
(lp1266
g67
(g68
g69
NtRp1267
(dp1268
g72
(dp1269
g80
I4
ssg81
g1263
sg74
(lp1270
S'C:\\Windows\\system32\\cmd.exe'
p1271
asbasbasbag67
(g83
g69
NtRp1272
(dp1273
g72
(dp1274
sg81
g1202
sg74
(lp1275
g67
(g88
g69
NtRp1276
(dp1277
g72
(dp1278
g92
g93
ssg81
g1272
sg74
(lp1279
S'db_sessions'
p1280
asbag67
(g88
g69
NtRp1281
(dp1282
g72
(dp1283
g99
g100
ssg81
g1272
sg74
(lp1284
S':'
asbag67
(g88
g69
NtRp1285
(dp1286
g72
(dp1287
sg81
g1272
sg74
(lp1288
g67
(g68
g69
NtRp1289
(dp1290
g72
(dp1291
g80
I4
ssg81
g1285
sg74
(lp1292
S'set([])'
p1293
asbasbasbag67
(g83
g69
NtRp1294
(dp1295
g72
(dp1296
sg81
g1202
sg74
(lp1297
g67
(g88
g69
NtRp1298
(dp1299
g72
(dp1300
g92
g93
ssg81
g1294
sg74
(lp1301
S'debugging'
p1302
asbag67
(g88
g69
NtRp1303
(dp1304
g72
(dp1305
g99
g100
ssg81
g1294
sg74
(lp1306
S':'
asbag67
(g88
g69
NtRp1307
(dp1308
g72
(dp1309
sg81
g1294
sg74
(lp1310
g67
(g68
g69
NtRp1311
(dp1312
g72
(dp1313
g80
I4
ssg81
g1307
sg74
(lp1314
g110
asbasbasbag67
(g83
g69
NtRp1315
(dp1316
g72
(dp1317
sg81
g1202
sg74
(lp1318
g67
(g88
g69
NtRp1319
(dp1320
g72
(dp1321
g92
g93
ssg81
g1315
sg74
(lp1322
S'document_root'
p1323
asbag67
(g88
g69
NtRp1324
(dp1325
g72
(dp1326
g99
g100
ssg81
g1315
sg74
(lp1327
S':'
asbag67
(g88
g69
NtRp1328
(dp1329
g72
(dp1330
sg81
g1315
sg74
(lp1331
g67
(g68
g69
NtRp1332
(dp1333
g72
(dp1334
g80
I4
ssg81
g1328
sg74
(lp1335
S'D:/Workbench/documentroot'
p1336
asbasbasbag67
(g83
g69
NtRp1337
(dp1338
g72
(dp1339
sg81
g1202
sg74
(lp1340
g67
(g88
g69
NtRp1341
(dp1342
g72
(dp1343
g92
g93
ssg81
g1337
sg74
(lp1344
S'gateway_interface'
p1345
asbag67
(g88
g69
NtRp1346
(dp1347
g72
(dp1348
g99
g100
ssg81
g1337
sg74
(lp1349
S':'
asbag67
(g88
g69
NtRp1350
(dp1351
g72
(dp1352
sg81
g1337
sg74
(lp1353
g67
(g68
g69
NtRp1354
(dp1355
g72
(dp1356
g80
I4
ssg81
g1350
sg74
(lp1357
S'CGI/1.1'
p1358
asbasbasbag67
(g83
g69
NtRp1359
(dp1360
g72
(dp1361
sg81
g1202
sg74
(lp1362
g67
(g88
g69
NtRp1363
(dp1364
g72
(dp1365
g92
g93
ssg81
g1359
sg74
(lp1366
S'gluon_parent'
p1367
asbag67
(g88
g69
NtRp1368
(dp1369
g72
(dp1370
g99
g100
ssg81
g1359
sg74
(lp1371
S':'
asbag67
(g88
g69
NtRp1372
(dp1373
g72
(dp1374
sg81
g1359
sg74
(lp1375
g67
(g68
g69
NtRp1376
(dp1377
g72
(dp1378
g80
I4
ssg81
g1372
sg74
(lp1379
g1249
asbasbasbag67
(g83
g69
NtRp1380
(dp1381
g72
(dp1382
sg81
g1202
sg74
(lp1383
g67
(g88
g69
NtRp1384
(dp1385
g72
(dp1386
g92
g93
ssg81
g1380
sg74
(lp1387
S'http_accept'
p1388
asbag67
(g88
g69
NtRp1389
(dp1390
g72
(dp1391
g99
g100
ssg81
g1380
sg74
(lp1392
S':'
asbag67
(g88
g69
NtRp1393
(dp1394
g72
(dp1395
sg81
g1380
sg74
(lp1396
g67
(g68
g69
NtRp1397
(dp1398
g72
(dp1399
g80
I4
ssg81
g1393
sg74
(lp1400
S'text/html,application/xhtml+xml,application/xml;q=0.9,*/*;q=0.8'
p1401
asbasbasbag67
(g83
g69
NtRp1402
(dp1403
g72
(dp1404
sg81
g1202
sg74
(lp1405
g67
(g88
g69
NtRp1406
(dp1407
g72
(dp1408
g92
g93
ssg81
g1402
sg74
(lp1409
S'http_accept_charset'
p1410
asbag67
(g88
g69
NtRp1411
(dp1412
g72
(dp1413
g99
g100
ssg81
g1402
sg74
(lp1414
S':'
asbag67
(g88
g69
NtRp1415
(dp1416
g72
(dp1417
sg81
g1402
sg74
(lp1418
g67
(g68
g69
NtRp1419
(dp1420
g72
(dp1421
g80
I4
ssg81
g1415
sg74
(lp1422
S'GBK,utf-8;q=0.7,*;q=0.3'
p1423
asbasbasbag67
(g83
g69
NtRp1424
(dp1425
g72
(dp1426
sg81
g1202
sg74
(lp1427
g67
(g88
g69
NtRp1428
(dp1429
g72
(dp1430
g92
g93
ssg81
g1424
sg74
(lp1431
S'http_accept_encoding'
p1432
asbag67
(g88
g69
NtRp1433
(dp1434
g72
(dp1435
g99
g100
ssg81
g1424
sg74
(lp1436
S':'
asbag67
(g88
g69
NtRp1437
(dp1438
g72
(dp1439
sg81
g1424
sg74
(lp1440
g67
(g68
g69
NtRp1441
(dp1442
g72
(dp1443
g80
I4
ssg81
g1437
sg74
(lp1444
S'gzip,deflate,sdch'
p1445
asbasbasbag67
(g83
g69
NtRp1446
(dp1447
g72
(dp1448
sg81
g1202
sg74
(lp1449
g67
(g88
g69
NtRp1450
(dp1451
g72
(dp1452
g92
g93
ssg81
g1446
sg74
(lp1453
S'http_accept_language'
p1454
asbag67
(g88
g69
NtRp1455
(dp1456
g72
(dp1457
g99
g100
ssg81
g1446
sg74
(lp1458
S':'
asbag67
(g88
g69
NtRp1459
(dp1460
g72
(dp1461
sg81
g1446
sg74
(lp1462
g67
(g68
g69
NtRp1463
(dp1464
g72
(dp1465
g80
I4
ssg81
g1459
sg74
(lp1466
S'zh-CN,zh;q=0.8'
p1467
asbasbasbag67
(g83
g69
NtRp1468
(dp1469
g72
(dp1470
sg81
g1202
sg74
(lp1471
g67
(g88
g69
NtRp1472
(dp1473
g72
(dp1474
g92
g93
ssg81
g1468
sg74
(lp1475
S'http_cache_control'
p1476
asbag67
(g88
g69
NtRp1477
(dp1478
g72
(dp1479
g99
g100
ssg81
g1468
sg74
(lp1480
S':'
asbag67
(g88
g69
NtRp1481
(dp1482
g72
(dp1483
sg81
g1468
sg74
(lp1484
g67
(g68
g69
NtRp1485
(dp1486
g72
(dp1487
g80
I4
ssg81
g1481
sg74
(lp1488
S'max-age=0'
p1489
asbasbasbag67
(g83
g69
NtRp1490
(dp1491
g72
(dp1492
sg81
g1202
sg74
(lp1493
g67
(g88
g69
NtRp1494
(dp1495
g72
(dp1496
g92
g93
ssg81
g1490
sg74
(lp1497
S'http_connection'
p1498
asbag67
(g88
g69
NtRp1499
(dp1500
g72
(dp1501
g99
g100
ssg81
g1490
sg74
(lp1502
S':'
asbag67
(g88
g69
NtRp1503
(dp1504
g72
(dp1505
sg81
g1490
sg74
(lp1506
g67
(g68
g69
NtRp1507
(dp1508
g72
(dp1509
g80
I4
ssg81
g1503
sg74
(lp1510
S'keep-alive'
p1511
asbasbasbag67
(g83
g69
NtRp1512
(dp1513
g72
(dp1514
sg81
g1202
sg74
(lp1515
g67
(g88
g69
NtRp1516
(dp1517
g72
(dp1518
g92
g93
ssg81
g1512
sg74
(lp1519
S'http_cookie'
p1520
asbag67
(g88
g69
NtRp1521
(dp1522
g72
(dp1523
g99
g100
ssg81
g1512
sg74
(lp1524
S':'
asbag67
(g88
g69
NtRp1525
(dp1526
g72
(dp1527
sg81
g1512
sg74
(lp1528
g67
(g68
g69
NtRp1529
(dp1530
g72
(dp1531
g80
I4
ssg81
g1525
sg74
(lp1532
S'session_id_toolbox=127.0.0.1-f96bdd5f-0f12-48d3-83bc-409874b2908c; session_id_welcome=127.0.0.1-a00d55a2-2c68-4c62-a25e-a20e6e356732; session_id_dummy=127.0.0.1-2c9bf195-6d6a-48ba-8835-cce87b9ad4aa; session_id_admin=127.0.0.1-afefa9db-4bf4-47a5-970c-a24d6228b14c; session_id_compound_interest=127.0.0.1-f5307aee-f297-4e82-8fe6-aa2792e8954d'
p1533
asbasbasbag67
(g83
g69
NtRp1534
(dp1535
g72
(dp1536
sg81
g1202
sg74
(lp1537
g67
(g88
g69
NtRp1538
(dp1539
g72
(dp1540
g92
g93
ssg81
g1534
sg74
(lp1541
S'http_host'
p1542
asbag67
(g88
g69
NtRp1543
(dp1544
g72
(dp1545
g99
g100
ssg81
g1534
sg74
(lp1546
S':'
asbag67
(g88
g69
NtRp1547
(dp1548
g72
(dp1549
sg81
g1534
sg74
(lp1550
g67
(g68
g69
NtRp1551
(dp1552
g72
(dp1553
g80
I4
ssg81
g1547
sg74
(lp1554
S'localhost'
p1555
asbasbasbag67
(g83
g69
NtRp1556
(dp1557
g72
(dp1558
sg81
g1202
sg74
(lp1559
g67
(g88
g69
NtRp1560
(dp1561
g72
(dp1562
g92
g93
ssg81
g1556
sg74
(lp1563
S'http_user_agent'
p1564
asbag67
(g88
g69
NtRp1565
(dp1566
g72
(dp1567
g99
g100
ssg81
g1556
sg74
(lp1568
S':'
asbag67
(g88
g69
NtRp1569
(dp1570
g72
(dp1571
sg81
g1556
sg74
(lp1572
g67
(g68
g69
NtRp1573
(dp1574
g72
(dp1575
g80
I4
ssg81
g1569
sg74
(lp1576
S'Mozilla/5.0 (Windows NT 6.1) AppleWebKit/535.7 (KHTML, like Gecko) Chrome/16.0.912.63 Safari/535.7'
p1577
asbasbasbag67
(g83
g69
NtRp1578
(dp1579
g72
(dp1580
sg81
g1202
sg74
(lp1581
g67
(g88
g69
NtRp1582
(dp1583
g72
(dp1584
g92
g93
ssg81
g1578
sg74
(lp1585
S'is_jython'
p1586
asbag67
(g88
g69
NtRp1587
(dp1588
g72
(dp1589
g99
g100
ssg81
g1578
sg74
(lp1590
S':'
asbag67
(g88
g69
NtRp1591
(dp1592
g72
(dp1593
sg81
g1578
sg74
(lp1594
g67
(g68
g69
NtRp1595
(dp1596
g72
(dp1597
g80
I4
ssg81
g1591
sg74
(lp1598
g110
asbasbasbag67
(g83
g69
NtRp1599
(dp1600
g72
(dp1601
sg81
g1202
sg74
(lp1602
g67
(g88
g69
NtRp1603
(dp1604
g72
(dp1605
g92
g93
ssg81
g1599
sg74
(lp1606
S'mod_wsgi_application_group'
p1607
asbag67
(g88
g69
NtRp1608
(dp1609
g72
(dp1610
g99
g100
ssg81
g1599
sg74
(lp1611
S':'
asbag67
(g88
g69
NtRp1612
(dp1613
g72
(dp1614
sg81
g1599
sg74
(lp1615
g67
(g68
g69
NtRp1616
(dp1617
g72
(dp1618
g80
I4
ssg81
g1612
sg74
(lp1619
S'XIAOFTANG-NB.tencent.com|'
p1620
asbasbasbag67
(g83
g69
NtRp1621
(dp1622
g72
(dp1623
sg81
g1202
sg74
(lp1624
g67
(g88
g69
NtRp1625
(dp1626
g72
(dp1627
g92
g93
ssg81
g1621
sg74
(lp1628
S'mod_wsgi_callable_object'
p1629
asbag67
(g88
g69
NtRp1630
(dp1631
g72
(dp1632
g99
g100
ssg81
g1621
sg74
(lp1633
S':'
asbag67
(g88
g69
NtRp1634
(dp1635
g72
(dp1636
sg81
g1621
sg74
(lp1637
g67
(g68
g69
NtRp1638
(dp1639
g72
(dp1640
g80
I4
ssg81
g1634
sg74
(lp1641
S'application'
p1642
asbasbasbag67
(g83
g69
NtRp1643
(dp1644
g72
(dp1645
sg81
g1202
sg74
(lp1646
g67
(g88
g69
NtRp1647
(dp1648
g72
(dp1649
g92
g93
ssg81
g1643
sg74
(lp1650
S'mod_wsgi_handler_script'
p1651
asbag67
(g88
g69
NtRp1652
(dp1653
g72
(dp1654
g99
g100
ssg81
g1643
sg74
(lp1655
S':'
asbag67
(g88
g69
NtRp1656
(dp1657
g72
(dp1658
sg81
g1643
sg74
(lp1659
g67
(g68
g69
NtRp1660
(dp1661
g72
(dp1662
g80
I4
ssg81
g1656
sg74
(lp1663
S''
asbasbasbag67
(g83
g69
NtRp1664
(dp1665
g72
(dp1666
sg81
g1202
sg74
(lp1667
g67
(g88
g69
NtRp1668
(dp1669
g72
(dp1670
g92
g93
ssg81
g1664
sg74
(lp1671
S'mod_wsgi_input_chunked'
p1672
asbag67
(g88
g69
NtRp1673
(dp1674
g72
(dp1675
g99
g100
ssg81
g1664
sg74
(lp1676
S':'
asbag67
(g88
g69
NtRp1677
(dp1678
g72
(dp1679
sg81
g1664
sg74
(lp1680
g67
(g68
g69
NtRp1681
(dp1682
g72
(dp1683
g80
I4
ssg81
g1677
sg74
(lp1684
S'0'
asbasbasbag67
(g83
g69
NtRp1685
(dp1686
g72
(dp1687
sg81
g1202
sg74
(lp1688
g67
(g88
g69
NtRp1689
(dp1690
g72
(dp1691
g92
g93
ssg81
g1685
sg74
(lp1692
S'mod_wsgi_process_group'
p1693
asbag67
(g88
g69
NtRp1694
(dp1695
g72
(dp1696
g99
g100
ssg81
g1685
sg74
(lp1697
S':'
asbag67
(g88
g69
NtRp1698
(dp1699
g72
(dp1700
sg81
g1685
sg74
(lp1701
g67
(g68
g69
NtRp1702
(dp1703
g72
(dp1704
g80
I4
ssg81
g1698
sg74
(lp1705
S''
asbasbasbag67
(g83
g69
NtRp1706
(dp1707
g72
(dp1708
sg81
g1202
sg74
(lp1709
g67
(g88
g69
NtRp1710
(dp1711
g72
(dp1712
g92
g93
ssg81
g1706
sg74
(lp1713
S'mod_wsgi_request_handler'
p1714
asbag67
(g88
g69
NtRp1715
(dp1716
g72
(dp1717
g99
g100
ssg81
g1706
sg74
(lp1718
S':'
asbag67
(g88
g69
NtRp1719
(dp1720
g72
(dp1721
sg81
g1706
sg74
(lp1722
g67
(g68
g69
NtRp1723
(dp1724
g72
(dp1725
g80
I4
ssg81
g1719
sg74
(lp1726
S'wsgi-script'
p1727
asbasbasbag67
(g83
g69
NtRp1728
(dp1729
g72
(dp1730
sg81
g1202
sg74
(lp1731
g67
(g88
g69
NtRp1732
(dp1733
g72
(dp1734
g92
g93
ssg81
g1728
sg74
(lp1735
S'mod_wsgi_script_reloading'
p1736
asbag67
(g88
g69
NtRp1737
(dp1738
g72
(dp1739
g99
g100
ssg81
g1728
sg74
(lp1740
S':'
asbag67
(g88
g69
NtRp1741
(dp1742
g72
(dp1743
sg81
g1728
sg74
(lp1744
g67
(g68
g69
NtRp1745
(dp1746
g72
(dp1747
g80
I4
ssg81
g1741
sg74
(lp1748
S'1'
asbasbasbag67
(g83
g69
NtRp1749
(dp1750
g72
(dp1751
sg81
g1202
sg74
(lp1752
g67
(g88
g69
NtRp1753
(dp1754
g72
(dp1755
g92
g93
ssg81
g1749
sg74
(lp1756
S'mod_wsgi_version'
p1757
asbag67
(g88
g69
NtRp1758
(dp1759
g72
(dp1760
g99
g100
ssg81
g1749
sg74
(lp1761
S':'
asbag67
(g88
g69
NtRp1762
(dp1763
g72
(dp1764
sg81
g1749
sg74
(lp1765
g67
(g68
g69
NtRp1766
(dp1767
g72
(dp1768
g80
I4
ssg81
g1762
sg74
(lp1769
g67
(g76
g69
NtRp1770
(dp1771
g72
(dp1772
g80
I3
ssg81
Nsg74
(lp1773
g67
(g83
g69
NtRp1774
(dp1775
g72
(dp1776
sg81
g1770
sg74
(lp1777
g67
(g88
g69
NtRp1778
(dp1779
g72
(dp1780
sg81
g1774
sg74
(lp1781
g67
(g68
g69
NtRp1782
(dp1783
g72
(dp1784
g80
I3
ssg81
g1778
sg74
(lp1785
S'3'
asbasbasbag67
(g83
g69
NtRp1786
(dp1787
g72
(dp1788
sg81
g1770
sg74
(lp1789
g67
(g88
g69
NtRp1790
(dp1791
g72
(dp1792
sg81
g1786
sg74
(lp1793
g67
(g68
g69
NtRp1794
(dp1795
g72
(dp1796
g80
I3
ssg81
g1790
sg74
(lp1797
S'3'
asbasbasbasbasbasbasbag67
(g83
g69
NtRp1798
(dp1799
g72
(dp1800
sg81
g1202
sg74
(lp1801
g67
(g88
g69
NtRp1802
(dp1803
g72
(dp1804
g92
g93
ssg81
g1798
sg74
(lp1805
S'path_info'
p1806
asbag67
(g88
g69
NtRp1807
(dp1808
g72
(dp1809
g99
g100
ssg81
g1798
sg74
(lp1810
S':'
asbag67
(g88
g69
NtRp1811
(dp1812
g72
(dp1813
sg81
g1798
sg74
(lp1814
g67
(g68
g69
NtRp1815
(dp1816
g72
(dp1817
g80
I4
ssg81
g1811
sg74
(lp1818
S'/compound_interest/'
p1819
asbasbasbag67
(g83
g69
NtRp1820
(dp1821
g72
(dp1822
sg81
g1202
sg74
(lp1823
g67
(g88
g69
NtRp1824
(dp1825
g72
(dp1826
g92
g93
ssg81
g1820
sg74
(lp1827
S'path_translated'
p1828
asbag67
(g88
g69
NtRp1829
(dp1830
g72
(dp1831
g99
g100
ssg81
g1820
sg74
(lp1832
S':'
asbag67
(g88
g69
NtRp1833
(dp1834
g72
(dp1835
sg81
g1820
sg74
(lp1836
g67
(g68
g69
NtRp1837
(dp1838
g72
(dp1839
g80
I4
ssg81
g1833
sg74
(lp1840
S'D:\\Workbench\\web2py_src\\wsgihandler.py\\compound_interest\\'
p1841
asbasbasbag67
(g83
g69
NtRp1842
(dp1843
g72
(dp1844
sg81
g1202
sg74
(lp1845
g67
(g88
g69
NtRp1846
(dp1847
g72
(dp1848
g92
g93
ssg81
g1842
sg74
(lp1849
S'pathext'
p1850
asbag67
(g88
g69
NtRp1851
(dp1852
g72
(dp1853
g99
g100
ssg81
g1842
sg74
(lp1854
S':'
asbag67
(g88
g69
NtRp1855
(dp1856
g72
(dp1857
sg81
g1842
sg74
(lp1858
g67
(g68
g69
NtRp1859
(dp1860
g72
(dp1861
g80
I4
ssg81
g1855
sg74
(lp1862
S'.COM;.EXE;.BAT;.CMD;.VBS;.VBE;.JS;.JSE;.WSF;.WSH;.MSC;.py;.pyw'
p1863
asbasbasbag67
(g83
g69
NtRp1864
(dp1865
g72
(dp1866
sg81
g1202
sg74
(lp1867
g67
(g88
g69
NtRp1868
(dp1869
g72
(dp1870
g92
g93
ssg81
g1864
sg74
(lp1871
S'query_string'
p1872
asbag67
(g88
g69
NtRp1873
(dp1874
g72
(dp1875
g99
g100
ssg81
g1864
sg74
(lp1876
S':'
asbag67
(g88
g69
NtRp1877
(dp1878
g72
(dp1879
sg81
g1864
sg74
(lp1880
g67
(g68
g69
NtRp1881
(dp1882
g72
(dp1883
g80
I4
ssg81
g1877
sg74
(lp1884
S''
asbasbasbag67
(g83
g69
NtRp1885
(dp1886
g72
(dp1887
sg81
g1202
sg74
(lp1888
g67
(g88
g69
NtRp1889
(dp1890
g72
(dp1891
g92
g93
ssg81
g1885
sg74
(lp1892
S'remote_addr'
p1893
asbag67
(g88
g69
NtRp1894
(dp1895
g72
(dp1896
g99
g100
ssg81
g1885
sg74
(lp1897
S':'
asbag67
(g88
g69
NtRp1898
(dp1899
g72
(dp1900
sg81
g1885
sg74
(lp1901
g67
(g68
g69
NtRp1902
(dp1903
g72
(dp1904
g80
I4
ssg81
g1898
sg74
(lp1905
g200
asbasbasbag67
(g83
g69
NtRp1906
(dp1907
g72
(dp1908
sg81
g1202
sg74
(lp1909
g67
(g88
g69
NtRp1910
(dp1911
g72
(dp1912
g92
g93
ssg81
g1906
sg74
(lp1913
S'remote_port'
p1914
asbag67
(g88
g69
NtRp1915
(dp1916
g72
(dp1917
g99
g100
ssg81
g1906
sg74
(lp1918
S':'
asbag67
(g88
g69
NtRp1919
(dp1920
g72
(dp1921
sg81
g1906
sg74
(lp1922
g67
(g68
g69
NtRp1923
(dp1924
g72
(dp1925
g80
I4
ssg81
g1919
sg74
(lp1926
S'35592'
p1927
asbasbasbag67
(g83
g69
NtRp1928
(dp1929
g72
(dp1930
sg81
g1202
sg74
(lp1931
g67
(g88
g69
NtRp1932
(dp1933
g72
(dp1934
g92
g93
ssg81
g1928
sg74
(lp1935
S'request_method'
p1936
asbag67
(g88
g69
NtRp1937
(dp1938
g72
(dp1939
g99
g100
ssg81
g1928
sg74
(lp1940
S':'
asbag67
(g88
g69
NtRp1941
(dp1942
g72
(dp1943
sg81
g1928
sg74
(lp1944
g67
(g68
g69
NtRp1945
(dp1946
g72
(dp1947
g80
I4
ssg81
g1941
sg74
(lp1948
S'GET'
p1949
asbasbasbag67
(g83
g69
NtRp1950
(dp1951
g72
(dp1952
sg81
g1202
sg74
(lp1953
g67
(g88
g69
NtRp1954
(dp1955
g72
(dp1956
g92
g93
ssg81
g1950
sg74
(lp1957
S'request_uri'
p1958
asbag67
(g88
g69
NtRp1959
(dp1960
g72
(dp1961
g99
g100
ssg81
g1950
sg74
(lp1962
S':'
asbag67
(g88
g69
NtRp1963
(dp1964
g72
(dp1965
sg81
g1950
sg74
(lp1966
g67
(g68
g69
NtRp1967
(dp1968
g72
(dp1969
g80
I4
ssg81
g1963
sg74
(lp1970
S'/compound_interest/'
p1971
asbasbasbag67
(g83
g69
NtRp1972
(dp1973
g72
(dp1974
sg81
g1202
sg74
(lp1975
g67
(g88
g69
NtRp1976
(dp1977
g72
(dp1978
g92
g93
ssg81
g1972
sg74
(lp1979
S'script_filename'
p1980
asbag67
(g88
g69
NtRp1981
(dp1982
g72
(dp1983
g99
g100
ssg81
g1972
sg74
(lp1984
S':'
asbag67
(g88
g69
NtRp1985
(dp1986
g72
(dp1987
sg81
g1972
sg74
(lp1988
g67
(g68
g69
NtRp1989
(dp1990
g72
(dp1991
g80
I4
ssg81
g1985
sg74
(lp1992
S'D:/Workbench/web2py_src/wsgihandler.py'
p1993
asbasbasbag67
(g83
g69
NtRp1994
(dp1995
g72
(dp1996
sg81
g1202
sg74
(lp1997
g67
(g88
g69
NtRp1998
(dp1999
g72
(dp2000
g92
g93
ssg81
g1994
sg74
(lp2001
S'script_name'
p2002
asbag67
(g88
g69
NtRp2003
(dp2004
g72
(dp2005
g99
g100
ssg81
g1994
sg74
(lp2006
S':'
asbag67
(g88
g69
NtRp2007
(dp2008
g72
(dp2009
sg81
g1994
sg74
(lp2010
g67
(g68
g69
NtRp2011
(dp2012
g72
(dp2013
g80
I4
ssg81
g2007
sg74
(lp2014
S''
asbasbasbag67
(g83
g69
NtRp2015
(dp2016
g72
(dp2017
sg81
g1202
sg74
(lp2018
g67
(g88
g69
NtRp2019
(dp2020
g72
(dp2021
g92
g93
ssg81
g2015
sg74
(lp2022
S'server_addr'
p2023
asbag67
(g88
g69
NtRp2024
(dp2025
g72
(dp2026
g99
g100
ssg81
g2015
sg74
(lp2027
S':'
asbag67
(g88
g69
NtRp2028
(dp2029
g72
(dp2030
sg81
g2015
sg74
(lp2031
g67
(g68
g69
NtRp2032
(dp2033
g72
(dp2034
g80
I4
ssg81
g2028
sg74
(lp2035
S'127.0.0.1'
p2036
asbasbasbag67
(g83
g69
NtRp2037
(dp2038
g72
(dp2039
sg81
g1202
sg74
(lp2040
g67
(g88
g69
NtRp2041
(dp2042
g72
(dp2043
g92
g93
ssg81
g2037
sg74
(lp2044
S'server_admin'
p2045
asbag67
(g88
g69
NtRp2046
(dp2047
g72
(dp2048
g99
g100
ssg81
g2037
sg74
(lp2049
S':'
asbag67
(g88
g69
NtRp2050
(dp2051
g72
(dp2052
sg81
g2037
sg74
(lp2053
g67
(g68
g69
NtRp2054
(dp2055
g72
(dp2056
g80
I4
ssg81
g2050
sg74
(lp2057
S'admin@tencent.com'
p2058
asbasbasbag67
(g83
g69
NtRp2059
(dp2060
g72
(dp2061
sg81
g1202
sg74
(lp2062
g67
(g88
g69
NtRp2063
(dp2064
g72
(dp2065
g92
g93
ssg81
g2059
sg74
(lp2066
S'server_name'
p2067
asbag67
(g88
g69
NtRp2068
(dp2069
g72
(dp2070
g99
g100
ssg81
g2059
sg74
(lp2071
S':'
asbag67
(g88
g69
NtRp2072
(dp2073
g72
(dp2074
sg81
g2059
sg74
(lp2075
g67
(g68
g69
NtRp2076
(dp2077
g72
(dp2078
g80
I4
ssg81
g2072
sg74
(lp2079
S'localhost'
p2080
asbasbasbag67
(g83
g69
NtRp2081
(dp2082
g72
(dp2083
sg81
g1202
sg74
(lp2084
g67
(g88
g69
NtRp2085
(dp2086
g72
(dp2087
g92
g93
ssg81
g2081
sg74
(lp2088
S'server_port'
p2089
asbag67
(g88
g69
NtRp2090
(dp2091
g72
(dp2092
g99
g100
ssg81
g2081
sg74
(lp2093
S':'
asbag67
(g88
g69
NtRp2094
(dp2095
g72
(dp2096
sg81
g2081
sg74
(lp2097
g67
(g68
g69
NtRp2098
(dp2099
g72
(dp2100
g80
I4
ssg81
g2094
sg74
(lp2101
S'80'
p2102
asbasbasbag67
(g83
g69
NtRp2103
(dp2104
g72
(dp2105
sg81
g1202
sg74
(lp2106
g67
(g88
g69
NtRp2107
(dp2108
g72
(dp2109
g92
g93
ssg81
g2103
sg74
(lp2110
S'server_protocol'
p2111
asbag67
(g88
g69
NtRp2112
(dp2113
g72
(dp2114
g99
g100
ssg81
g2103
sg74
(lp2115
S':'
asbag67
(g88
g69
NtRp2116
(dp2117
g72
(dp2118
sg81
g2103
sg74
(lp2119
g67
(g68
g69
NtRp2120
(dp2121
g72
(dp2122
g80
I4
ssg81
g2116
sg74
(lp2123
S'HTTP/1.1'
p2124
asbasbasbag67
(g83
g69
NtRp2125
(dp2126
g72
(dp2127
sg81
g1202
sg74
(lp2128
g67
(g88
g69
NtRp2129
(dp2130
g72
(dp2131
g92
g93
ssg81
g2125
sg74
(lp2132
S'server_signature'
p2133
asbag67
(g88
g69
NtRp2134
(dp2135
g72
(dp2136
g99
g100
ssg81
g2125
sg74
(lp2137
S':'
asbag67
(g88
g69
NtRp2138
(dp2139
g72
(dp2140
sg81
g2125
sg74
(lp2141
g67
(g68
g69
NtRp2142
(dp2143
g72
(dp2144
g80
I4
ssg81
g2138
sg74
(lp2145
S''
asbasbasbag67
(g83
g69
NtRp2146
(dp2147
g72
(dp2148
sg81
g1202
sg74
(lp2149
g67
(g88
g69
NtRp2150
(dp2151
g72
(dp2152
g92
g93
ssg81
g2146
sg74
(lp2153
S'server_software'
p2154
asbag67
(g88
g69
NtRp2155
(dp2156
g72
(dp2157
g99
g100
ssg81
g2146
sg74
(lp2158
S':'
asbag67
(g88
g69
NtRp2159
(dp2160
g72
(dp2161
sg81
g2146
sg74
(lp2162
g67
(g68
g69
NtRp2163
(dp2164
g72
(dp2165
g80
I4
ssg81
g2159
sg74
(lp2166
S'Apache/2.2.21 (Win32) PHP/5.2.17 mod_wsgi/3.3 Python/2.7.2'
p2167
asbasbasbag67
(g83
g69
NtRp2168
(dp2169
g72
(dp2170
sg81
g1202
sg74
(lp2171
g67
(g88
g69
NtRp2172
(dp2173
g72
(dp2174
g92
g93
ssg81
g2168
sg74
(lp2175
S'systemroot'
p2176
asbag67
(g88
g69
NtRp2177
(dp2178
g72
(dp2179
g99
g100
ssg81
g2168
sg74
(lp2180
S':'
asbag67
(g88
g69
NtRp2181
(dp2182
g72
(dp2183
sg81
g2168
sg74
(lp2184
g67
(g68
g69
NtRp2185
(dp2186
g72
(dp2187
g80
I4
ssg81
g2181
sg74
(lp2188
S'C:\\Windows'
p2189
asbasbasbag67
(g83
g69
NtRp2190
(dp2191
g72
(dp2192
sg81
g1202
sg74
(lp2193
g67
(g88
g69
NtRp2194
(dp2195
g72
(dp2196
g92
g93
ssg81
g2190
sg74
(lp2197
S'web2py_path'
p2198
asbag67
(g88
g69
NtRp2199
(dp2200
g72
(dp2201
g99
g100
ssg81
g2190
sg74
(lp2202
S':'
asbag67
(g88
g69
NtRp2203
(dp2204
g72
(dp2205
sg81
g2190
sg74
(lp2206
g67
(g68
g69
NtRp2207
(dp2208
g72
(dp2209
g80
I4
ssg81
g2203
sg74
(lp2210
g1249
asbasbasbag67
(g83
g69
NtRp2211
(dp2212
g72
(dp2213
sg81
g1202
sg74
(lp2214
g67
(g88
g69
NtRp2215
(dp2216
g72
(dp2217
g92
g93
ssg81
g2211
sg74
(lp2218
S'web2py_version'
p2219
asbag67
(g88
g69
NtRp2220
(dp2221
g72
(dp2222
g99
g100
ssg81
g2211
sg74
(lp2223
S':'
asbag67
(g88
g69
NtRp2224
(dp2225
g72
(dp2226
sg81
g2211
sg74
(lp2227
g67
(g68
g69
NtRp2228
(dp2229
g72
(dp2230
g80
I4
ssg81
g2224
sg74
(lp2231
g67
(g76
g69
NtRp2232
(dp2233
g72
(dp2234
g80
I3
ssg81
Nsg74
(lp2235
g67
(g83
g69
NtRp2236
(dp2237
g72
(dp2238
sg81
g2232
sg74
(lp2239
g67
(g88
g69
NtRp2240
(dp2241
g72
(dp2242
sg81
g2236
sg74
(lp2243
g67
(g68
g69
NtRp2244
(dp2245
g72
(dp2246
g80
I3
ssg81
g2240
sg74
(lp2247
S'1'
asbasbasbag67
(g83
g69
NtRp2248
(dp2249
g72
(dp2250
sg81
g2232
sg74
(lp2251
g67
(g88
g69
NtRp2252
(dp2253
g72
(dp2254
sg81
g2248
sg74
(lp2255
g67
(g68
g69
NtRp2256
(dp2257
g72
(dp2258
g80
I3
ssg81
g2252
sg74
(lp2259
S'99'
p2260
asbasbasbag67
(g83
g69
NtRp2261
(dp2262
g72
(dp2263
sg81
g2232
sg74
(lp2264
g67
(g88
g69
NtRp2265
(dp2266
g72
(dp2267
sg81
g2261
sg74
(lp2268
g67
(g68
g69
NtRp2269
(dp2270
g72
(dp2271
g80
I3
ssg81
g2265
sg74
(lp2272
S'2'
asbasbasbag67
(g83
g69
NtRp2273
(dp2274
g72
(dp2275
sg81
g2232
sg74
(lp2276
g67
(g88
g69
NtRp2277
(dp2278
g72
(dp2279
sg81
g2273
sg74
(lp2280
g67
(g68
g69
NtRp2281
(dp2282
g72
(dp2283
g80
I3
ssg81
g2277
sg74
(lp2284
S'datetime.datetime(2011, 9, 26, 6, 55, 33)'
p2285
asbasbasbag67
(g83
g69
NtRp2286
(dp2287
g72
(dp2288
sg81
g2232
sg74
(lp2289
g67
(g88
g69
NtRp2290
(dp2291
g72
(dp2292
sg81
g2286
sg74
(lp2293
g67
(g68
g69
NtRp2294
(dp2295
g72
(dp2296
g80
I3
ssg81
g2290
sg74
(lp2297
S'stable'
p2298
asbasbasbasbasbasbasbag67
(g83
g69
NtRp2299
(dp2300
g72
(dp2301
sg81
g1202
sg74
(lp2302
g67
(g88
g69
NtRp2303
(dp2304
g72
(dp2305
g92
g93
ssg81
g2299
sg74
(lp2306
S'windir'
p2307
asbag67
(g88
g69
NtRp2308
(dp2309
g72
(dp2310
g99
g100
ssg81
g2299
sg74
(lp2311
S':'
asbag67
(g88
g69
NtRp2312
(dp2313
g72
(dp2314
sg81
g2299
sg74
(lp2315
g67
(g68
g69
NtRp2316
(dp2317
g72
(dp2318
g80
I4
ssg81
g2312
sg74
(lp2319
S'C:\\Windows'
p2320
asbasbasbag67
(g83
g69
NtRp2321
(dp2322
g72
(dp2323
sg81
g1202
sg74
(lp2324
g67
(g88
g69
NtRp2325
(dp2326
g72
(dp2327
g92
g93
ssg81
g2321
sg74
(lp2328
S'wsgi_errors'
p2329
asbag67
(g88
g69
NtRp2330
(dp2331
g72
(dp2332
g99
g100
ssg81
g2321
sg74
(lp2333
S':'
asbag67
(g88
g69
NtRp2334
(dp2335
g72
(dp2336
sg81
g2321
sg74
(lp2337
g67
(g68
g69
NtRp2338
(dp2339
g72
(dp2340
g80
I4
ssg81
g2334
sg74
(lp2341
S'<mod_wsgi.Log object at 0x03413D18>'
p2342
asbasbasbag67
(g83
g69
NtRp2343
(dp2344
g72
(dp2345
sg81
g1202
sg74
(lp2346
g67
(g88
g69
NtRp2347
(dp2348
g72
(dp2349
g92
g93
ssg81
g2343
sg74
(lp2350
S'wsgi_file_wrapper'
p2351
asbag67
(g88
g69
NtRp2352
(dp2353
g72
(dp2354
g99
g100
ssg81
g2343
sg74
(lp2355
S':'
asbag67
(g88
g69
NtRp2356
(dp2357
g72
(dp2358
sg81
g2343
sg74
(lp2359
g67
(g68
g69
NtRp2360
(dp2361
g72
(dp2362
g80
I4
ssg81
g2356
sg74
(lp2363
S'<built-in method file_wrapper of mod_wsgi.Adapter object at 0x03400848>'
p2364
asbasbasbag67
(g83
g69
NtRp2365
(dp2366
g72
(dp2367
sg81
g1202
sg74
(lp2368
g67
(g88
g69
NtRp2369
(dp2370
g72
(dp2371
g92
g93
ssg81
g2365
sg74
(lp2372
S'wsgi_input'
p2373
asbag67
(g88
g69
NtRp2374
(dp2375
g72
(dp2376
g99
g100
ssg81
g2365
sg74
(lp2377
S':'
asbag67
(g88
g69
NtRp2378
(dp2379
g72
(dp2380
sg81
g2365
sg74
(lp2381
g67
(g68
g69
NtRp2382
(dp2383
g72
(dp2384
g80
I4
ssg81
g2378
sg74
(lp2385
S'<mod_wsgi.Input object at 0x03413CC8>'
p2386
asbasbasbag67
(g83
g69
NtRp2387
(dp2388
g72
(dp2389
sg81
g1202
sg74
(lp2390
g67
(g88
g69
NtRp2391
(dp2392
g72
(dp2393
g92
g93
ssg81
g2387
sg74
(lp2394
S'wsgi_multiprocess'
p2395
asbag67
(g88
g69
NtRp2396
(dp2397
g72
(dp2398
g99
g100
ssg81
g2387
sg74
(lp2399
S':'
asbag67
(g88
g69
NtRp2400
(dp2401
g72
(dp2402
sg81
g2387
sg74
(lp2403
g67
(g68
g69
NtRp2404
(dp2405
g72
(dp2406
g80
I4
ssg81
g2400
sg74
(lp2407
g110
asbasbasbag67
(g83
g69
NtRp2408
(dp2409
g72
(dp2410
sg81
g1202
sg74
(lp2411
g67
(g88
g69
NtRp2412
(dp2413
g72
(dp2414
g92
g93
ssg81
g2408
sg74
(lp2415
S'wsgi_multithread'
p2416
asbag67
(g88
g69
NtRp2417
(dp2418
g72
(dp2419
g99
g100
ssg81
g2408
sg74
(lp2420
S':'
asbag67
(g88
g69
NtRp2421
(dp2422
g72
(dp2423
sg81
g2408
sg74
(lp2424
g67
(g68
g69
NtRp2425
(dp2426
g72
(dp2427
g80
I4
ssg81
g2421
sg74
(lp2428
S'True'
p2429
asbasbasbag67
(g83
g69
NtRp2430
(dp2431
g72
(dp2432
sg81
g1202
sg74
(lp2433
g67
(g88
g69
NtRp2434
(dp2435
g72
(dp2436
g92
g93
ssg81
g2430
sg74
(lp2437
S'wsgi_run_once'
p2438
asbag67
(g88
g69
NtRp2439
(dp2440
g72
(dp2441
g99
g100
ssg81
g2430
sg74
(lp2442
S':'
asbag67
(g88
g69
NtRp2443
(dp2444
g72
(dp2445
sg81
g2430
sg74
(lp2446
g67
(g68
g69
NtRp2447
(dp2448
g72
(dp2449
g80
I4
ssg81
g2443
sg74
(lp2450
g110
asbasbasbag67
(g83
g69
NtRp2451
(dp2452
g72
(dp2453
sg81
g1202
sg74
(lp2454
g67
(g88
g69
NtRp2455
(dp2456
g72
(dp2457
g92
g93
ssg81
g2451
sg74
(lp2458
S'wsgi_url_scheme'
p2459
asbag67
(g88
g69
NtRp2460
(dp2461
g72
(dp2462
g99
g100
ssg81
g2451
sg74
(lp2463
S':'
asbag67
(g88
g69
NtRp2464
(dp2465
g72
(dp2466
sg81
g2451
sg74
(lp2467
g67
(g68
g69
NtRp2468
(dp2469
g72
(dp2470
g80
I4
ssg81
g2464
sg74
(lp2471
S'http'
p2472
asbasbasbag67
(g83
g69
NtRp2473
(dp2474
g72
(dp2475
sg81
g1202
sg74
(lp2476
g67
(g88
g69
NtRp2477
(dp2478
g72
(dp2479
g92
g93
ssg81
g2473
sg74
(lp2480
S'wsgi_version'
p2481
asbag67
(g88
g69
NtRp2482
(dp2483
g72
(dp2484
g99
g100
ssg81
g2473
sg74
(lp2485
S':'
asbag67
(g88
g69
NtRp2486
(dp2487
g72
(dp2488
sg81
g2473
sg74
(lp2489
g67
(g68
g69
NtRp2490
(dp2491
g72
(dp2492
g80
I4
ssg81
g2486
sg74
(lp2493
g67
(g76
g69
NtRp2494
(dp2495
g72
(dp2496
g80
I3
ssg81
Nsg74
(lp2497
g67
(g83
g69
NtRp2498
(dp2499
g72
(dp2500
sg81
g2494
sg74
(lp2501
g67
(g88
g69
NtRp2502
(dp2503
g72
(dp2504
sg81
g2498
sg74
(lp2505
g67
(g68
g69
NtRp2506
(dp2507
g72
(dp2508
g80
I3
ssg81
g2502
sg74
(lp2509
S'1'
asbasbasbag67
(g83
g69
NtRp2510
(dp2511
g72
(dp2512
sg81
g2494
sg74
(lp2513
g67
(g88
g69
NtRp2514
(dp2515
g72
(dp2516
sg81
g2510
sg74
(lp2517
g67
(g68
g69
NtRp2518
(dp2519
g72
(dp2520
g80
I3
ssg81
g2514
sg74
(lp2521
S'1'
asbasbasbasbasbasbasbasbasbasbasbag67
(g83
g69
NtRp2522
(dp2523
g72
(dp2524
sg81
g77
sg74
(lp2525
g67
(g88
g69
NtRp2526
(dp2527
g72
(dp2528
g92
g93
ssg81
g2522
sg74
(lp2529
S'extension'
p2530
asbag67
(g88
g69
NtRp2531
(dp2532
g72
(dp2533
g99
g100
ssg81
g2522
sg74
(lp2534
S':'
asbag67
(g88
g69
NtRp2535
(dp2536
g72
(dp2537
sg81
g2522
sg74
(lp2538
g67
(g68
g69
NtRp2539
(dp2540
g72
(dp2541
g80
I5
ssg81
g2535
sg74
(lp2542
S'html'
p2543
asbasbasbag67
(g83
g69
NtRp2544
(dp2545
g72
(dp2546
sg81
g77
sg74
(lp2547
g67
(g88
g69
NtRp2548
(dp2549
g72
(dp2550
g92
g93
ssg81
g2544
sg74
(lp2551
S'folder'
p2552
asbag67
(g88
g69
NtRp2553
(dp2554
g72
(dp2555
g99
g100
ssg81
g2544
sg74
(lp2556
S':'
asbag67
(g88
g69
NtRp2557
(dp2558
g72
(dp2559
sg81
g2544
sg74
(lp2560
g67
(g68
g69
NtRp2561
(dp2562
g72
(dp2563
g80
I5
ssg81
g2557
sg74
(lp2564
S'D:\\Workbench\\web2py_src\\applications\\compound_interest\\'
p2565
asbasbasbag67
(g83
g69
NtRp2566
(dp2567
g72
(dp2568
sg81
g77
sg74
(lp2569
g67
(g88
g69
NtRp2570
(dp2571
g72
(dp2572
g92
g93
ssg81
g2566
sg74
(lp2573
S'function'
p2574
asbag67
(g88
g69
NtRp2575
(dp2576
g72
(dp2577
g99
g100
ssg81
g2566
sg74
(lp2578
S':'
asbag67
(g88
g69
NtRp2579
(dp2580
g72
(dp2581
sg81
g2566
sg74
(lp2582
g67
(g68
g69
NtRp2583
(dp2584
g72
(dp2585
g80
I5
ssg81
g2579
sg74
(lp2586
S'index'
p2587
asbasbasbag67
(g83
g69
NtRp2588
(dp2589
g72
(dp2590
sg81
g77
sg74
(lp2591
g67
(g88
g69
NtRp2592
(dp2593
g72
(dp2594
g92
g93
ssg81
g2588
sg74
(lp2595
S'get_vars'
p2596
asbag67
(g88
g69
NtRp2597
(dp2598
g72
(dp2599
g99
g100
ssg81
g2588
sg74
(lp2600
S':'
asbag67
(g88
g69
NtRp2601
(dp2602
g72
(dp2603
sg81
g2588
sg74
(lp2604
g67
(g68
g69
NtRp2605
(dp2606
g72
(dp2607
g80
I5
ssg81
g2601
sg74
(lp2608
g67
(g76
g69
NtRp2609
(dp2610
g72
(dp2611
g80
I4
ssg81
Nsg74
(lp2612
sbasbasbasbag67
(g83
g69
NtRp2613
(dp2614
g72
(dp2615
sg81
g77
sg74
(lp2616
g67
(g88
g69
NtRp2617
(dp2618
g72
(dp2619
g92
g93
ssg81
g2613
sg74
(lp2620
S'global_settings'
p2621
asbag67
(g88
g69
NtRp2622
(dp2623
g72
(dp2624
g99
g100
ssg81
g2613
sg74
(lp2625
S':'
asbag67
(g88
g69
NtRp2626
(dp2627
g72
(dp2628
sg81
g2613
sg74
(lp2629
g67
(g68
g69
NtRp2630
(dp2631
g72
(dp2632
g80
I5
ssg81
g2626
sg74
(lp2633
g67
(g76
g69
NtRp2634
(dp2635
g72
(dp2636
g80
I4
ssg81
Nsg74
(lp2637
g67
(g83
g69
NtRp2638
(dp2639
g72
(dp2640
sg81
g2634
sg74
(lp2641
g67
(g88
g69
NtRp2642
(dp2643
g72
(dp2644
g92
g93
ssg81
g2638
sg74
(lp2645
g1214
asbag67
(g88
g69
NtRp2646
(dp2647
g72
(dp2648
g99
g100
ssg81
g2638
sg74
(lp2649
S':'
asbag67
(g88
g69
NtRp2650
(dp2651
g72
(dp2652
sg81
g2638
sg74
(lp2653
g67
(g68
g69
NtRp2654
(dp2655
g72
(dp2656
g80
I4
ssg81
g2650
sg74
(lp2657
S"set(['D:\\\\Workbench\\\\web2py_src\\\\applications\\\\compound_interest\\\\'])"
p2658
asbasbasbag67
(g83
g69
NtRp2659
(dp2660
g72
(dp2661
sg81
g2634
sg74
(lp2662
g67
(g88
g69
NtRp2663
(dp2664
g72
(dp2665
g92
g93
ssg81
g2659
sg74
(lp2666
g1236
asbag67
(g88
g69
NtRp2667
(dp2668
g72
(dp2669
g99
g100
ssg81
g2659
sg74
(lp2670
S':'
asbag67
(g88
g69
NtRp2671
(dp2672
g72
(dp2673
sg81
g2659
sg74
(lp2674
g67
(g68
g69
NtRp2675
(dp2676
g72
(dp2677
g80
I4
ssg81
g2671
sg74
(lp2678
g1249
asbasbasbag67
(g83
g69
NtRp2679
(dp2680
g72
(dp2681
sg81
g2634
sg74
(lp2682
g67
(g88
g69
NtRp2683
(dp2684
g72
(dp2685
g92
g93
ssg81
g2679
sg74
(lp2686
g1280
asbag67
(g88
g69
NtRp2687
(dp2688
g72
(dp2689
g99
g100
ssg81
g2679
sg74
(lp2690
S':'
asbag67
(g88
g69
NtRp2691
(dp2692
g72
(dp2693
sg81
g2679
sg74
(lp2694
g67
(g68
g69
NtRp2695
(dp2696
g72
(dp2697
g80
I4
ssg81
g2691
sg74
(lp2698
S'set([])'
p2699
asbasbasbag67
(g83
g69
NtRp2700
(dp2701
g72
(dp2702
sg81
g2634
sg74
(lp2703
g67
(g88
g69
NtRp2704
(dp2705
g72
(dp2706
g92
g93
ssg81
g2700
sg74
(lp2707
g1302
asbag67
(g88
g69
NtRp2708
(dp2709
g72
(dp2710
g99
g100
ssg81
g2700
sg74
(lp2711
S':'
asbag67
(g88
g69
NtRp2712
(dp2713
g72
(dp2714
sg81
g2700
sg74
(lp2715
g67
(g68
g69
NtRp2716
(dp2717
g72
(dp2718
g80
I4
ssg81
g2712
sg74
(lp2719
g110
asbasbasbag67
(g83
g69
NtRp2720
(dp2721
g72
(dp2722
sg81
g2634
sg74
(lp2723
g67
(g88
g69
NtRp2724
(dp2725
g72
(dp2726
g92
g93
ssg81
g2720
sg74
(lp2727
g1367
asbag67
(g88
g69
NtRp2728
(dp2729
g72
(dp2730
g99
g100
ssg81
g2720
sg74
(lp2731
S':'
asbag67
(g88
g69
NtRp2732
(dp2733
g72
(dp2734
sg81
g2720
sg74
(lp2735
g67
(g68
g69
NtRp2736
(dp2737
g72
(dp2738
g80
I4
ssg81
g2732
sg74
(lp2739
g1249
asbasbasbag67
(g83
g69
NtRp2740
(dp2741
g72
(dp2742
sg81
g2634
sg74
(lp2743
g67
(g88
g69
NtRp2744
(dp2745
g72
(dp2746
g92
g93
ssg81
g2740
sg74
(lp2747
g1586
asbag67
(g88
g69
NtRp2748
(dp2749
g72
(dp2750
g99
g100
ssg81
g2740
sg74
(lp2751
S':'
asbag67
(g88
g69
NtRp2752
(dp2753
g72
(dp2754
sg81
g2740
sg74
(lp2755
g67
(g68
g69
NtRp2756
(dp2757
g72
(dp2758
g80
I4
ssg81
g2752
sg74
(lp2759
g110
asbasbasbag67
(g83
g69
NtRp2760
(dp2761
g72
(dp2762
sg81
g2634
sg74
(lp2763
g67
(g88
g69
NtRp2764
(dp2765
g72
(dp2766
g92
g93
ssg81
g2760
sg74
(lp2767
g2219
asbag67
(g88
g69
NtRp2768
(dp2769
g72
(dp2770
g99
g100
ssg81
g2760
sg74
(lp2771
S':'
asbag67
(g88
g69
NtRp2772
(dp2773
g72
(dp2774
sg81
g2760
sg74
(lp2775
g67
(g68
g69
NtRp2776
(dp2777
g72
(dp2778
g80
I4
ssg81
g2772
sg74
(lp2779
g67
(g76
g69
NtRp2780
(dp2781
g72
(dp2782
g80
I3
ssg81
Nsg74
(lp2783
g67
(g83
g69
NtRp2784
(dp2785
g72
(dp2786
sg81
g2780
sg74
(lp2787
g67
(g88
g69
NtRp2788
(dp2789
g72
(dp2790
sg81
g2784
sg74
(lp2791
g67
(g68
g69
NtRp2792
(dp2793
g72
(dp2794
g80
I3
ssg81
g2788
sg74
(lp2795
S'1'
asbasbasbag67
(g83
g69
NtRp2796
(dp2797
g72
(dp2798
sg81
g2780
sg74
(lp2799
g67
(g88
g69
NtRp2800
(dp2801
g72
(dp2802
sg81
g2796
sg74
(lp2803
g67
(g68
g69
NtRp2804
(dp2805
g72
(dp2806
g80
I3
ssg81
g2800
sg74
(lp2807
S'99'
p2808
asbasbasbag67
(g83
g69
NtRp2809
(dp2810
g72
(dp2811
sg81
g2780
sg74
(lp2812
g67
(g88
g69
NtRp2813
(dp2814
g72
(dp2815
sg81
g2809
sg74
(lp2816
g67
(g68
g69
NtRp2817
(dp2818
g72
(dp2819
g80
I3
ssg81
g2813
sg74
(lp2820
S'2'
asbasbasbag67
(g83
g69
NtRp2821
(dp2822
g72
(dp2823
sg81
g2780
sg74
(lp2824
g67
(g88
g69
NtRp2825
(dp2826
g72
(dp2827
sg81
g2821
sg74
(lp2828
g67
(g68
g69
NtRp2829
(dp2830
g72
(dp2831
g80
I3
ssg81
g2825
sg74
(lp2832
S'datetime.datetime(2011, 9, 26, 6, 55, 33)'
p2833
asbasbasbag67
(g83
g69
NtRp2834
(dp2835
g72
(dp2836
sg81
g2780
sg74
(lp2837
g67
(g88
g69
NtRp2838
(dp2839
g72
(dp2840
sg81
g2834
sg74
(lp2841
g67
(g68
g69
NtRp2842
(dp2843
g72
(dp2844
g80
I3
ssg81
g2838
sg74
(lp2845
g2298
asbasbasbasbasbasbasbasbasbasbasbag67
(g83
g69
NtRp2846
(dp2847
g72
(dp2848
sg81
g77
sg74
(lp2849
g67
(g88
g69
NtRp2850
(dp2851
g72
(dp2852
g92
g93
ssg81
g2846
sg74
(lp2853
S'is_https'
p2854
asbag67
(g88
g69
NtRp2855
(dp2856
g72
(dp2857
g99
g100
ssg81
g2846
sg74
(lp2858
S':'
asbag67
(g88
g69
NtRp2859
(dp2860
g72
(dp2861
sg81
g2846
sg74
(lp2862
g67
(g68
g69
NtRp2863
(dp2864
g72
(dp2865
g80
I5
ssg81
g2859
sg74
(lp2866
g110
asbasbasbag67
(g83
g69
NtRp2867
(dp2868
g72
(dp2869
sg81
g77
sg74
(lp2870
g67
(g88
g69
NtRp2871
(dp2872
g72
(dp2873
g92
g93
ssg81
g2867
sg74
(lp2874
S'is_local'
p2875
asbag67
(g88
g69
NtRp2876
(dp2877
g72
(dp2878
g99
g100
ssg81
g2867
sg74
(lp2879
S':'
asbag67
(g88
g69
NtRp2880
(dp2881
g72
(dp2882
sg81
g2867
sg74
(lp2883
g67
(g68
g69
NtRp2884
(dp2885
g72
(dp2886
g80
I5
ssg81
g2880
sg74
(lp2887
g2429
asbasbasbag67
(g83
g69
NtRp2888
(dp2889
g72
(dp2890
sg81
g77
sg74
(lp2891
g67
(g88
g69
NtRp2892
(dp2893
g72
(dp2894
g92
g93
ssg81
g2888
sg74
(lp2895
S'is_restful'
p2896
asbag67
(g88
g69
NtRp2897
(dp2898
g72
(dp2899
g99
g100
ssg81
g2888
sg74
(lp2900
S':'
asbag67
(g88
g69
NtRp2901
(dp2902
g72
(dp2903
sg81
g2888
sg74
(lp2904
g67
(g68
g69
NtRp2905
(dp2906
g72
(dp2907
g80
I5
ssg81
g2901
sg74
(lp2908
g110
asbasbasbag67
(g83
g69
NtRp2909
(dp2910
g72
(dp2911
sg81
g77
sg74
(lp2912
g67
(g88
g69
NtRp2913
(dp2914
g72
(dp2915
g92
g93
ssg81
g2909
sg74
(lp2916
S'now'
p2917
asbag67
(g88
g69
NtRp2918
(dp2919
g72
(dp2920
g99
g100
ssg81
g2909
sg74
(lp2921
S':'
asbag67
(g88
g69
NtRp2922
(dp2923
g72
(dp2924
sg81
g2909
sg74
(lp2925
g67
(g68
g69
NtRp2926
(dp2927
g72
(dp2928
g80
I5
ssg81
g2922
sg74
(lp2929
S'datetime.datetime(2012, 1, 3, 16, 1, 10, 905000)'
p2930
asbasbasbag67
(g83
g69
NtRp2931
(dp2932
g72
(dp2933
sg81
g77
sg74
(lp2934
g67
(g88
g69
NtRp2935
(dp2936
g72
(dp2937
g92
g93
ssg81
g2931
sg74
(lp2938
S'post_vars'
p2939
asbag67
(g88
g69
NtRp2940
(dp2941
g72
(dp2942
g99
g100
ssg81
g2931
sg74
(lp2943
S':'
asbag67
(g88
g69
NtRp2944
(dp2945
g72
(dp2946
sg81
g2931
sg74
(lp2947
g67
(g68
g69
NtRp2948
(dp2949
g72
(dp2950
g80
I5
ssg81
g2944
sg74
(lp2951
g67
(g76
g69
NtRp2952
(dp2953
g72
(dp2954
g80
I4
ssg81
Nsg74
(lp2955
sbasbasbasbag67
(g83
g69
NtRp2956
(dp2957
g72
(dp2958
sg81
g77
sg74
(lp2959
g67
(g88
g69
NtRp2960
(dp2961
g72
(dp2962
g92
g93
ssg81
g2956
sg74
(lp2963
S'url'
p2964
asbag67
(g88
g69
NtRp2965
(dp2966
g72
(dp2967
g99
g100
ssg81
g2956
sg74
(lp2968
S':'
asbag67
(g88
g69
NtRp2969
(dp2970
g72
(dp2971
sg81
g2956
sg74
(lp2972
g67
(g68
g69
NtRp2973
(dp2974
g72
(dp2975
g80
I5
ssg81
g2969
sg74
(lp2976
S'/compound_interest/default/index'
p2977
asbasbasbag67
(g83
g69
NtRp2978
(dp2979
g72
(dp2980
sg81
g77
sg74
(lp2981
g67
(g88
g69
NtRp2982
(dp2983
g72
(dp2984
g92
g93
ssg81
g2978
sg74
(lp2985
S'utcnow'
p2986
asbag67
(g88
g69
NtRp2987
(dp2988
g72
(dp2989
g99
g100
ssg81
g2978
sg74
(lp2990
S':'
asbag67
(g88
g69
NtRp2991
(dp2992
g72
(dp2993
sg81
g2978
sg74
(lp2994
g67
(g68
g69
NtRp2995
(dp2996
g72
(dp2997
g80
I5
ssg81
g2991
sg74
(lp2998
S'datetime.datetime(2012, 1, 3, 8, 1, 10, 905000)'
p2999
asbasbasbag67
(g83
g69
NtRp3000
(dp3001
g72
(dp3002
sg81
g77
sg74
(lp3003
g67
(g88
g69
NtRp3004
(dp3005
g72
(dp3006
g92
g93
ssg81
g3000
sg74
(lp3007
S'uuid'
p3008
asbag67
(g88
g69
NtRp3009
(dp3010
g72
(dp3011
g99
g100
ssg81
g3000
sg74
(lp3012
S':'
asbag67
(g88
g69
NtRp3013
(dp3014
g72
(dp3015
sg81
g3000
sg74
(lp3016
g67
(g68
g69
NtRp3017
(dp3018
g72
(dp3019
g80
I5
ssg81
g3013
sg74
(lp3020
S'compound_interest/127.0.0.1.2012-01-03.16-01-10.c6fadad4-ec96-4e6a-82cc-0e57c8d2e2fc'
p3021
asbasbasbag67
(g83
g69
NtRp3022
(dp3023
g72
(dp3024
sg81
g77
sg74
(lp3025
g67
(g88
g69
NtRp3026
(dp3027
g72
(dp3028
g92
g93
ssg81
g3022
sg74
(lp3029
S'vars'
p3030
asbag67
(g88
g69
NtRp3031
(dp3032
g72
(dp3033
g99
g100
ssg81
g3022
sg74
(lp3034
S':'
asbag67
(g88
g69
NtRp3035
(dp3036
g72
(dp3037
sg81
g3022
sg74
(lp3038
g67
(g68
g69
NtRp3039
(dp3040
g72
(dp3041
g80
I5
ssg81
g3035
sg74
(lp3042
g67
(g76
g69
NtRp3043
(dp3044
g72
(dp3045
g80
I4
ssg81
Nsg74
(lp3046
sbasbasbasbag67
(g83
g69
NtRp3047
(dp3048
g72
(dp3049
sg81
g77
sg74
(lp3050
g67
(g88
g69
NtRp3051
(dp3052
g72
(dp3053
g92
g93
ssg81
g3047
sg74
(lp3054
S'wsgi'
p3055
asbag67
(g88
g69
NtRp3056
(dp3057
g72
(dp3058
g99
g100
ssg81
g3047
sg74
(lp3059
S':'
asbag67
(g88
g69
NtRp3060
(dp3061
g72
(dp3062
sg81
g3047
sg74
(lp3063
g67
(g68
g69
NtRp3064
(dp3065
g72
(dp3066
g80
I5
ssg81
g3060
sg74
(lp3067
g67
(g76
g69
NtRp3068
(dp3069
g72
(dp3070
g80
I4
ssg81
Nsg74
(lp3071
g67
(g83
g69
NtRp3072
(dp3073
g72
(dp3074
sg81
g3068
sg74
(lp3075
g67
(g88
g69
NtRp3076
(dp3077
g72
(dp3078
g92
g93
ssg81
g3072
sg74
(lp3079
S'environ'
p3080
asbag67
(g88
g69
NtRp3081
(dp3082
g72
(dp3083
g99
g100
ssg81
g3072
sg74
(lp3084
S':'
asbag67
(g88
g69
NtRp3085
(dp3086
g72
(dp3087
sg81
g3072
sg74
(lp3088
g67
(g68
g69
NtRp3089
(dp3090
g72
(dp3091
g80
I4
ssg81
g3085
sg74
(lp3092
g67
(g76
g69
NtRp3093
(dp3094
g72
(dp3095
g80
I3
ssg81
Nsg74
(lp3096
g67
(g83
g69
NtRp3097
(dp3098
g72
(dp3099
sg81
g3093
sg74
(lp3100
g67
(g88
g69
NtRp3101
(dp3102
g72
(dp3103
g92
g93
ssg81
g3097
sg74
(lp3104
S'COMSPEC'
p3105
asbag67
(g88
g69
NtRp3106
(dp3107
g72
(dp3108
g99
g100
ssg81
g3097
sg74
(lp3109
S':'
asbag67
(g88
g69
NtRp3110
(dp3111
g72
(dp3112
sg81
g3097
sg74
(lp3113
g67
(g68
g69
NtRp3114
(dp3115
g72
(dp3116
g80
I3
ssg81
g3110
sg74
(lp3117
g1271
asbasbasbag67
(g83
g69
NtRp3118
(dp3119
g72
(dp3120
sg81
g3093
sg74
(lp3121
g67
(g88
g69
NtRp3122
(dp3123
g72
(dp3124
g92
g93
ssg81
g3118
sg74
(lp3125
S'DOCUMENT_ROOT'
p3126
asbag67
(g88
g69
NtRp3127
(dp3128
g72
(dp3129
g99
g100
ssg81
g3118
sg74
(lp3130
S':'
asbag67
(g88
g69
NtRp3131
(dp3132
g72
(dp3133
sg81
g3118
sg74
(lp3134
g67
(g68
g69
NtRp3135
(dp3136
g72
(dp3137
g80
I3
ssg81
g3131
sg74
(lp3138
g1336
asbasbasbag67
(g83
g69
NtRp3139
(dp3140
g72
(dp3141
sg81
g3093
sg74
(lp3142
g67
(g88
g69
NtRp3143
(dp3144
g72
(dp3145
g92
g93
ssg81
g3139
sg74
(lp3146
S'GATEWAY_INTERFACE'
p3147
asbag67
(g88
g69
NtRp3148
(dp3149
g72
(dp3150
g99
g100
ssg81
g3139
sg74
(lp3151
S':'
asbag67
(g88
g69
NtRp3152
(dp3153
g72
(dp3154
sg81
g3139
sg74
(lp3155
g67
(g68
g69
NtRp3156
(dp3157
g72
(dp3158
g80
I3
ssg81
g3152
sg74
(lp3159
g1358
asbasbasbag67
(g83
g69
NtRp3160
(dp3161
g72
(dp3162
sg81
g3093
sg74
(lp3163
g67
(g88
g69
NtRp3164
(dp3165
g72
(dp3166
g92
g93
ssg81
g3160
sg74
(lp3167
S'HTTP_ACCEPT'
p3168
asbag67
(g88
g69
NtRp3169
(dp3170
g72
(dp3171
g99
g100
ssg81
g3160
sg74
(lp3172
S':'
asbag67
(g88
g69
NtRp3173
(dp3174
g72
(dp3175
sg81
g3160
sg74
(lp3176
g67
(g68
g69
NtRp3177
(dp3178
g72
(dp3179
g80
I3
ssg81
g3173
sg74
(lp3180
g1401
asbasbasbag67
(g83
g69
NtRp3181
(dp3182
g72
(dp3183
sg81
g3093
sg74
(lp3184
g67
(g88
g69
NtRp3185
(dp3186
g72
(dp3187
g92
g93
ssg81
g3181
sg74
(lp3188
S'HTTP_ACCEPT_CHARSET'
p3189
asbag67
(g88
g69
NtRp3190
(dp3191
g72
(dp3192
g99
g100
ssg81
g3181
sg74
(lp3193
S':'
asbag67
(g88
g69
NtRp3194
(dp3195
g72
(dp3196
sg81
g3181
sg74
(lp3197
g67
(g68
g69
NtRp3198
(dp3199
g72
(dp3200
g80
I3
ssg81
g3194
sg74
(lp3201
g1423
asbasbasbag67
(g83
g69
NtRp3202
(dp3203
g72
(dp3204
sg81
g3093
sg74
(lp3205
g67
(g88
g69
NtRp3206
(dp3207
g72
(dp3208
g92
g93
ssg81
g3202
sg74
(lp3209
S'HTTP_ACCEPT_ENCODING'
p3210
asbag67
(g88
g69
NtRp3211
(dp3212
g72
(dp3213
g99
g100
ssg81
g3202
sg74
(lp3214
S':'
asbag67
(g88
g69
NtRp3215
(dp3216
g72
(dp3217
sg81
g3202
sg74
(lp3218
g67
(g68
g69
NtRp3219
(dp3220
g72
(dp3221
g80
I3
ssg81
g3215
sg74
(lp3222
g1445
asbasbasbag67
(g83
g69
NtRp3223
(dp3224
g72
(dp3225
sg81
g3093
sg74
(lp3226
g67
(g88
g69
NtRp3227
(dp3228
g72
(dp3229
g92
g93
ssg81
g3223
sg74
(lp3230
S'HTTP_ACCEPT_LANGUAGE'
p3231
asbag67
(g88
g69
NtRp3232
(dp3233
g72
(dp3234
g99
g100
ssg81
g3223
sg74
(lp3235
S':'
asbag67
(g88
g69
NtRp3236
(dp3237
g72
(dp3238
sg81
g3223
sg74
(lp3239
g67
(g68
g69
NtRp3240
(dp3241
g72
(dp3242
g80
I3
ssg81
g3236
sg74
(lp3243
g1467
asbasbasbag67
(g83
g69
NtRp3244
(dp3245
g72
(dp3246
sg81
g3093
sg74
(lp3247
g67
(g88
g69
NtRp3248
(dp3249
g72
(dp3250
g92
g93
ssg81
g3244
sg74
(lp3251
S'HTTP_CACHE_CONTROL'
p3252
asbag67
(g88
g69
NtRp3253
(dp3254
g72
(dp3255
g99
g100
ssg81
g3244
sg74
(lp3256
S':'
asbag67
(g88
g69
NtRp3257
(dp3258
g72
(dp3259
sg81
g3244
sg74
(lp3260
g67
(g68
g69
NtRp3261
(dp3262
g72
(dp3263
g80
I3
ssg81
g3257
sg74
(lp3264
g1489
asbasbasbag67
(g83
g69
NtRp3265
(dp3266
g72
(dp3267
sg81
g3093
sg74
(lp3268
g67
(g88
g69
NtRp3269
(dp3270
g72
(dp3271
g92
g93
ssg81
g3265
sg74
(lp3272
S'HTTP_CONNECTION'
p3273
asbag67
(g88
g69
NtRp3274
(dp3275
g72
(dp3276
g99
g100
ssg81
g3265
sg74
(lp3277
S':'
asbag67
(g88
g69
NtRp3278
(dp3279
g72
(dp3280
sg81
g3265
sg74
(lp3281
g67
(g68
g69
NtRp3282
(dp3283
g72
(dp3284
g80
I3
ssg81
g3278
sg74
(lp3285
g1511
asbasbasbag67
(g83
g69
NtRp3286
(dp3287
g72
(dp3288
sg81
g3093
sg74
(lp3289
g67
(g88
g69
NtRp3290
(dp3291
g72
(dp3292
g92
g93
ssg81
g3286
sg74
(lp3293
S'HTTP_COOKIE'
p3294
asbag67
(g88
g69
NtRp3295
(dp3296
g72
(dp3297
g99
g100
ssg81
g3286
sg74
(lp3298
S':'
asbag67
(g88
g69
NtRp3299
(dp3300
g72
(dp3301
sg81
g3286
sg74
(lp3302
g67
(g68
g69
NtRp3303
(dp3304
g72
(dp3305
g80
I3
ssg81
g3299
sg74
(lp3306
g1533
asbasbasbag67
(g83
g69
NtRp3307
(dp3308
g72
(dp3309
sg81
g3093
sg74
(lp3310
g67
(g88
g69
NtRp3311
(dp3312
g72
(dp3313
g92
g93
ssg81
g3307
sg74
(lp3314
S'HTTP_HOST'
p3315
asbag67
(g88
g69
NtRp3316
(dp3317
g72
(dp3318
g99
g100
ssg81
g3307
sg74
(lp3319
S':'
asbag67
(g88
g69
NtRp3320
(dp3321
g72
(dp3322
sg81
g3307
sg74
(lp3323
g67
(g68
g69
NtRp3324
(dp3325
g72
(dp3326
g80
I3
ssg81
g3320
sg74
(lp3327
g1555
asbasbasbag67
(g83
g69
NtRp3328
(dp3329
g72
(dp3330
sg81
g3093
sg74
(lp3331
g67
(g88
g69
NtRp3332
(dp3333
g72
(dp3334
g92
g93
ssg81
g3328
sg74
(lp3335
S'HTTP_USER_AGENT'
p3336
asbag67
(g88
g69
NtRp3337
(dp3338
g72
(dp3339
g99
g100
ssg81
g3328
sg74
(lp3340
S':'
asbag67
(g88
g69
NtRp3341
(dp3342
g72
(dp3343
sg81
g3328
sg74
(lp3344
g67
(g68
g69
NtRp3345
(dp3346
g72
(dp3347
g80
I3
ssg81
g3341
sg74
(lp3348
g1577
asbasbasbag67
(g83
g69
NtRp3349
(dp3350
g72
(dp3351
sg81
g3093
sg74
(lp3352
g67
(g88
g69
NtRp3353
(dp3354
g72
(dp3355
g92
g93
ssg81
g3349
sg74
(lp3356
S'PATHEXT'
p3357
asbag67
(g88
g69
NtRp3358
(dp3359
g72
(dp3360
g99
g100
ssg81
g3349
sg74
(lp3361
S':'
asbag67
(g88
g69
NtRp3362
(dp3363
g72
(dp3364
sg81
g3349
sg74
(lp3365
g67
(g68
g69
NtRp3366
(dp3367
g72
(dp3368
g80
I3
ssg81
g3362
sg74
(lp3369
g1863
asbasbasbag67
(g83
g69
NtRp3370
(dp3371
g72
(dp3372
sg81
g3093
sg74
(lp3373
g67
(g88
g69
NtRp3374
(dp3375
g72
(dp3376
g92
g93
ssg81
g3370
sg74
(lp3377
S'PATH_INFO'
p3378
asbag67
(g88
g69
NtRp3379
(dp3380
g72
(dp3381
g99
g100
ssg81
g3370
sg74
(lp3382
S':'
asbag67
(g88
g69
NtRp3383
(dp3384
g72
(dp3385
sg81
g3370
sg74
(lp3386
g67
(g68
g69
NtRp3387
(dp3388
g72
(dp3389
g80
I3
ssg81
g3383
sg74
(lp3390
g1819
asbasbasbag67
(g83
g69
NtRp3391
(dp3392
g72
(dp3393
sg81
g3093
sg74
(lp3394
g67
(g88
g69
NtRp3395
(dp3396
g72
(dp3397
g92
g93
ssg81
g3391
sg74
(lp3398
S'PATH_TRANSLATED'
p3399
asbag67
(g88
g69
NtRp3400
(dp3401
g72
(dp3402
g99
g100
ssg81
g3391
sg74
(lp3403
S':'
asbag67
(g88
g69
NtRp3404
(dp3405
g72
(dp3406
sg81
g3391
sg74
(lp3407
g67
(g68
g69
NtRp3408
(dp3409
g72
(dp3410
g80
I3
ssg81
g3404
sg74
(lp3411
g1841
asbasbasbag67
(g83
g69
NtRp3412
(dp3413
g72
(dp3414
sg81
g3093
sg74
(lp3415
g67
(g88
g69
NtRp3416
(dp3417
g72
(dp3418
g92
g93
ssg81
g3412
sg74
(lp3419
S'QUERY_STRING'
p3420
asbag67
(g88
g69
NtRp3421
(dp3422
g72
(dp3423
g99
g100
ssg81
g3412
sg74
(lp3424
S':'
asbag67
(g88
g69
NtRp3425
(dp3426
g72
(dp3427
sg81
g3412
sg74
(lp3428
g67
(g68
g69
NtRp3429
(dp3430
g72
(dp3431
g80
I3
ssg81
g3425
sg74
(lp3432
S''
asbasbasbag67
(g83
g69
NtRp3433
(dp3434
g72
(dp3435
sg81
g3093
sg74
(lp3436
g67
(g88
g69
NtRp3437
(dp3438
g72
(dp3439
g92
g93
ssg81
g3433
sg74
(lp3440
S'REMOTE_ADDR'
p3441
asbag67
(g88
g69
NtRp3442
(dp3443
g72
(dp3444
g99
g100
ssg81
g3433
sg74
(lp3445
S':'
asbag67
(g88
g69
NtRp3446
(dp3447
g72
(dp3448
sg81
g3433
sg74
(lp3449
g67
(g68
g69
NtRp3450
(dp3451
g72
(dp3452
g80
I3
ssg81
g3446
sg74
(lp3453
g200
asbasbasbag67
(g83
g69
NtRp3454
(dp3455
g72
(dp3456
sg81
g3093
sg74
(lp3457
g67
(g88
g69
NtRp3458
(dp3459
g72
(dp3460
g92
g93
ssg81
g3454
sg74
(lp3461
S'REMOTE_PORT'
p3462
asbag67
(g88
g69
NtRp3463
(dp3464
g72
(dp3465
g99
g100
ssg81
g3454
sg74
(lp3466
S':'
asbag67
(g88
g69
NtRp3467
(dp3468
g72
(dp3469
sg81
g3454
sg74
(lp3470
g67
(g68
g69
NtRp3471
(dp3472
g72
(dp3473
g80
I3
ssg81
g3467
sg74
(lp3474
g1927
asbasbasbag67
(g83
g69
NtRp3475
(dp3476
g72
(dp3477
sg81
g3093
sg74
(lp3478
g67
(g88
g69
NtRp3479
(dp3480
g72
(dp3481
g92
g93
ssg81
g3475
sg74
(lp3482
S'REQUEST_METHOD'
p3483
asbag67
(g88
g69
NtRp3484
(dp3485
g72
(dp3486
g99
g100
ssg81
g3475
sg74
(lp3487
S':'
asbag67
(g88
g69
NtRp3488
(dp3489
g72
(dp3490
sg81
g3475
sg74
(lp3491
g67
(g68
g69
NtRp3492
(dp3493
g72
(dp3494
g80
I3
ssg81
g3488
sg74
(lp3495
g1949
asbasbasbag67
(g83
g69
NtRp3496
(dp3497
g72
(dp3498
sg81
g3093
sg74
(lp3499
g67
(g88
g69
NtRp3500
(dp3501
g72
(dp3502
g92
g93
ssg81
g3496
sg74
(lp3503
S'REQUEST_URI'
p3504
asbag67
(g88
g69
NtRp3505
(dp3506
g72
(dp3507
g99
g100
ssg81
g3496
sg74
(lp3508
S':'
asbag67
(g88
g69
NtRp3509
(dp3510
g72
(dp3511
sg81
g3496
sg74
(lp3512
g67
(g68
g69
NtRp3513
(dp3514
g72
(dp3515
g80
I3
ssg81
g3509
sg74
(lp3516
g1971
asbasbasbag67
(g83
g69
NtRp3517
(dp3518
g72
(dp3519
sg81
g3093
sg74
(lp3520
g67
(g88
g69
NtRp3521
(dp3522
g72
(dp3523
g92
g93
ssg81
g3517
sg74
(lp3524
S'SCRIPT_FILENAME'
p3525
asbag67
(g88
g69
NtRp3526
(dp3527
g72
(dp3528
g99
g100
ssg81
g3517
sg74
(lp3529
S':'
asbag67
(g88
g69
NtRp3530
(dp3531
g72
(dp3532
sg81
g3517
sg74
(lp3533
g67
(g68
g69
NtRp3534
(dp3535
g72
(dp3536
g80
I3
ssg81
g3530
sg74
(lp3537
g1993
asbasbasbag67
(g83
g69
NtRp3538
(dp3539
g72
(dp3540
sg81
g3093
sg74
(lp3541
g67
(g88
g69
NtRp3542
(dp3543
g72
(dp3544
g92
g93
ssg81
g3538
sg74
(lp3545
S'SCRIPT_NAME'
p3546
asbag67
(g88
g69
NtRp3547
(dp3548
g72
(dp3549
g99
g100
ssg81
g3538
sg74
(lp3550
S':'
asbag67
(g88
g69
NtRp3551
(dp3552
g72
(dp3553
sg81
g3538
sg74
(lp3554
g67
(g68
g69
NtRp3555
(dp3556
g72
(dp3557
g80
I3
ssg81
g3551
sg74
(lp3558
S''
asbasbasbag67
(g83
g69
NtRp3559
(dp3560
g72
(dp3561
sg81
g3093
sg74
(lp3562
g67
(g88
g69
NtRp3563
(dp3564
g72
(dp3565
g92
g93
ssg81
g3559
sg74
(lp3566
S'SERVER_ADDR'
p3567
asbag67
(g88
g69
NtRp3568
(dp3569
g72
(dp3570
g99
g100
ssg81
g3559
sg74
(lp3571
S':'
asbag67
(g88
g69
NtRp3572
(dp3573
g72
(dp3574
sg81
g3559
sg74
(lp3575
g67
(g68
g69
NtRp3576
(dp3577
g72
(dp3578
g80
I3
ssg81
g3572
sg74
(lp3579
g2036
asbasbasbag67
(g83
g69
NtRp3580
(dp3581
g72
(dp3582
sg81
g3093
sg74
(lp3583
g67
(g88
g69
NtRp3584
(dp3585
g72
(dp3586
g92
g93
ssg81
g3580
sg74
(lp3587
S'SERVER_ADMIN'
p3588
asbag67
(g88
g69
NtRp3589
(dp3590
g72
(dp3591
g99
g100
ssg81
g3580
sg74
(lp3592
S':'
asbag67
(g88
g69
NtRp3593
(dp3594
g72
(dp3595
sg81
g3580
sg74
(lp3596
g67
(g68
g69
NtRp3597
(dp3598
g72
(dp3599
g80
I3
ssg81
g3593
sg74
(lp3600
g2058
asbasbasbag67
(g83
g69
NtRp3601
(dp3602
g72
(dp3603
sg81
g3093
sg74
(lp3604
g67
(g88
g69
NtRp3605
(dp3606
g72
(dp3607
g92
g93
ssg81
g3601
sg74
(lp3608
S'SERVER_NAME'
p3609
asbag67
(g88
g69
NtRp3610
(dp3611
g72
(dp3612
g99
g100
ssg81
g3601
sg74
(lp3613
S':'
asbag67
(g88
g69
NtRp3614
(dp3615
g72
(dp3616
sg81
g3601
sg74
(lp3617
g67
(g68
g69
NtRp3618
(dp3619
g72
(dp3620
g80
I3
ssg81
g3614
sg74
(lp3621
g2080
asbasbasbag67
(g83
g69
NtRp3622
(dp3623
g72
(dp3624
sg81
g3093
sg74
(lp3625
g67
(g88
g69
NtRp3626
(dp3627
g72
(dp3628
g92
g93
ssg81
g3622
sg74
(lp3629
S'SERVER_PORT'
p3630
asbag67
(g88
g69
NtRp3631
(dp3632
g72
(dp3633
g99
g100
ssg81
g3622
sg74
(lp3634
S':'
asbag67
(g88
g69
NtRp3635
(dp3636
g72
(dp3637
sg81
g3622
sg74
(lp3638
g67
(g68
g69
NtRp3639
(dp3640
g72
(dp3641
g80
I3
ssg81
g3635
sg74
(lp3642
g2102
asbasbasbag67
(g83
g69
NtRp3643
(dp3644
g72
(dp3645
sg81
g3093
sg74
(lp3646
g67
(g88
g69
NtRp3647
(dp3648
g72
(dp3649
g92
g93
ssg81
g3643
sg74
(lp3650
S'SERVER_PROTOCOL'
p3651
asbag67
(g88
g69
NtRp3652
(dp3653
g72
(dp3654
g99
g100
ssg81
g3643
sg74
(lp3655
S':'
asbag67
(g88
g69
NtRp3656
(dp3657
g72
(dp3658
sg81
g3643
sg74
(lp3659
g67
(g68
g69
NtRp3660
(dp3661
g72
(dp3662
g80
I3
ssg81
g3656
sg74
(lp3663
g2124
asbasbasbag67
(g83
g69
NtRp3664
(dp3665
g72
(dp3666
sg81
g3093
sg74
(lp3667
g67
(g88
g69
NtRp3668
(dp3669
g72
(dp3670
g92
g93
ssg81
g3664
sg74
(lp3671
S'SERVER_SIGNATURE'
p3672
asbag67
(g88
g69
NtRp3673
(dp3674
g72
(dp3675
g99
g100
ssg81
g3664
sg74
(lp3676
S':'
asbag67
(g88
g69
NtRp3677
(dp3678
g72
(dp3679
sg81
g3664
sg74
(lp3680
g67
(g68
g69
NtRp3681
(dp3682
g72
(dp3683
g80
I3
ssg81
g3677
sg74
(lp3684
S''
asbasbasbag67
(g83
g69
NtRp3685
(dp3686
g72
(dp3687
sg81
g3093
sg74
(lp3688
g67
(g88
g69
NtRp3689
(dp3690
g72
(dp3691
g92
g93
ssg81
g3685
sg74
(lp3692
S'SERVER_SOFTWARE'
p3693
asbag67
(g88
g69
NtRp3694
(dp3695
g72
(dp3696
g99
g100
ssg81
g3685
sg74
(lp3697
S':'
asbag67
(g88
g69
NtRp3698
(dp3699
g72
(dp3700
sg81
g3685
sg74
(lp3701
g67
(g68
g69
NtRp3702
(dp3703
g72
(dp3704
g80
I3
ssg81
g3698
sg74
(lp3705
g2167
asbasbasbag67
(g83
g69
NtRp3706
(dp3707
g72
(dp3708
sg81
g3093
sg74
(lp3709
g67
(g88
g69
NtRp3710
(dp3711
g72
(dp3712
g92
g93
ssg81
g3706
sg74
(lp3713
S'SystemRoot'
p3714
asbag67
(g88
g69
NtRp3715
(dp3716
g72
(dp3717
g99
g100
ssg81
g3706
sg74
(lp3718
S':'
asbag67
(g88
g69
NtRp3719
(dp3720
g72
(dp3721
sg81
g3706
sg74
(lp3722
g67
(g68
g69
NtRp3723
(dp3724
g72
(dp3725
g80
I3
ssg81
g3719
sg74
(lp3726
g2189
asbasbasbag67
(g83
g69
NtRp3727
(dp3728
g72
(dp3729
sg81
g3093
sg74
(lp3730
g67
(g88
g69
NtRp3731
(dp3732
g72
(dp3733
g92
g93
ssg81
g3727
sg74
(lp3734
S'WINDIR'
p3735
asbag67
(g88
g69
NtRp3736
(dp3737
g72
(dp3738
g99
g100
ssg81
g3727
sg74
(lp3739
S':'
asbag67
(g88
g69
NtRp3740
(dp3741
g72
(dp3742
sg81
g3727
sg74
(lp3743
g67
(g68
g69
NtRp3744
(dp3745
g72
(dp3746
g80
I3
ssg81
g3740
sg74
(lp3747
g2320
asbasbasbag67
(g83
g69
NtRp3748
(dp3749
g72
(dp3750
sg81
g3093
sg74
(lp3751
g67
(g88
g69
NtRp3752
(dp3753
g72
(dp3754
g92
g93
ssg81
g3748
sg74
(lp3755
S'mod_wsgi.application_group'
p3756
asbag67
(g88
g69
NtRp3757
(dp3758
g72
(dp3759
g99
g100
ssg81
g3748
sg74
(lp3760
S':'
asbag67
(g88
g69
NtRp3761
(dp3762
g72
(dp3763
sg81
g3748
sg74
(lp3764
g67
(g68
g69
NtRp3765
(dp3766
g72
(dp3767
g80
I3
ssg81
g3761
sg74
(lp3768
g1620
asbasbasbag67
(g83
g69
NtRp3769
(dp3770
g72
(dp3771
sg81
g3093
sg74
(lp3772
g67
(g88
g69
NtRp3773
(dp3774
g72
(dp3775
g92
g93
ssg81
g3769
sg74
(lp3776
S'mod_wsgi.callable_object'
p3777
asbag67
(g88
g69
NtRp3778
(dp3779
g72
(dp3780
g99
g100
ssg81
g3769
sg74
(lp3781
S':'
asbag67
(g88
g69
NtRp3782
(dp3783
g72
(dp3784
sg81
g3769
sg74
(lp3785
g67
(g68
g69
NtRp3786
(dp3787
g72
(dp3788
g80
I3
ssg81
g3782
sg74
(lp3789
g1642
asbasbasbag67
(g83
g69
NtRp3790
(dp3791
g72
(dp3792
sg81
g3093
sg74
(lp3793
g67
(g88
g69
NtRp3794
(dp3795
g72
(dp3796
g92
g93
ssg81
g3790
sg74
(lp3797
S'mod_wsgi.handler_script'
p3798
asbag67
(g88
g69
NtRp3799
(dp3800
g72
(dp3801
g99
g100
ssg81
g3790
sg74
(lp3802
S':'
asbag67
(g88
g69
NtRp3803
(dp3804
g72
(dp3805
sg81
g3790
sg74
(lp3806
g67
(g68
g69
NtRp3807
(dp3808
g72
(dp3809
g80
I3
ssg81
g3803
sg74
(lp3810
S''
asbasbasbag67
(g83
g69
NtRp3811
(dp3812
g72
(dp3813
sg81
g3093
sg74
(lp3814
g67
(g88
g69
NtRp3815
(dp3816
g72
(dp3817
g92
g93
ssg81
g3811
sg74
(lp3818
S'mod_wsgi.input_chunked'
p3819
asbag67
(g88
g69
NtRp3820
(dp3821
g72
(dp3822
g99
g100
ssg81
g3811
sg74
(lp3823
S':'
asbag67
(g88
g69
NtRp3824
(dp3825
g72
(dp3826
sg81
g3811
sg74
(lp3827
g67
(g68
g69
NtRp3828
(dp3829
g72
(dp3830
g80
I3
ssg81
g3824
sg74
(lp3831
S'0'
asbasbasbag67
(g83
g69
NtRp3832
(dp3833
g72
(dp3834
sg81
g3093
sg74
(lp3835
g67
(g88
g69
NtRp3836
(dp3837
g72
(dp3838
g92
g93
ssg81
g3832
sg74
(lp3839
S'mod_wsgi.process_group'
p3840
asbag67
(g88
g69
NtRp3841
(dp3842
g72
(dp3843
g99
g100
ssg81
g3832
sg74
(lp3844
S':'
asbag67
(g88
g69
NtRp3845
(dp3846
g72
(dp3847
sg81
g3832
sg74
(lp3848
g67
(g68
g69
NtRp3849
(dp3850
g72
(dp3851
g80
I3
ssg81
g3845
sg74
(lp3852
S''
asbasbasbag67
(g83
g69
NtRp3853
(dp3854
g72
(dp3855
sg81
g3093
sg74
(lp3856
g67
(g88
g69
NtRp3857
(dp3858
g72
(dp3859
g92
g93
ssg81
g3853
sg74
(lp3860
S'mod_wsgi.request_handler'
p3861
asbag67
(g88
g69
NtRp3862
(dp3863
g72
(dp3864
g99
g100
ssg81
g3853
sg74
(lp3865
S':'
asbag67
(g88
g69
NtRp3866
(dp3867
g72
(dp3868
sg81
g3853
sg74
(lp3869
g67
(g68
g69
NtRp3870
(dp3871
g72
(dp3872
g80
I3
ssg81
g3866
sg74
(lp3873
g1727
asbasbasbag67
(g83
g69
NtRp3874
(dp3875
g72
(dp3876
sg81
g3093
sg74
(lp3877
g67
(g88
g69
NtRp3878
(dp3879
g72
(dp3880
g92
g93
ssg81
g3874
sg74
(lp3881
S'mod_wsgi.script_reloading'
p3882
asbag67
(g88
g69
NtRp3883
(dp3884
g72
(dp3885
g99
g100
ssg81
g3874
sg74
(lp3886
S':'
asbag67
(g88
g69
NtRp3887
(dp3888
g72
(dp3889
sg81
g3874
sg74
(lp3890
g67
(g68
g69
NtRp3891
(dp3892
g72
(dp3893
g80
I3
ssg81
g3887
sg74
(lp3894
S'1'
asbasbasbag67
(g83
g69
NtRp3895
(dp3896
g72
(dp3897
sg81
g3093
sg74
(lp3898
g67
(g88
g69
NtRp3899
(dp3900
g72
(dp3901
g92
g93
ssg81
g3895
sg74
(lp3902
S'mod_wsgi.version'
p3903
asbag67
(g88
g69
NtRp3904
(dp3905
g72
(dp3906
g99
g100
ssg81
g3895
sg74
(lp3907
S':'
asbag67
(g88
g69
NtRp3908
(dp3909
g72
(dp3910
sg81
g3895
sg74
(lp3911
g67
(g68
g69
NtRp3912
(dp3913
g72
(dp3914
g80
I3
ssg81
g3908
sg74
(lp3915
g67
(g76
g69
NtRp3916
(dp3917
g72
(dp3918
g80
I2
ssg81
Nsg74
(lp3919
g67
(g83
g69
NtRp3920
(dp3921
g72
(dp3922
sg81
g3916
sg74
(lp3923
g67
(g88
g69
NtRp3924
(dp3925
g72
(dp3926
sg81
g3920
sg74
(lp3927
g67
(g68
g69
NtRp3928
(dp3929
g72
(dp3930
g80
I2
ssg81
g3924
sg74
(lp3931
S'3'
asbasbasbag67
(g83
g69
NtRp3932
(dp3933
g72
(dp3934
sg81
g3916
sg74
(lp3935
g67
(g88
g69
NtRp3936
(dp3937
g72
(dp3938
sg81
g3932
sg74
(lp3939
g67
(g68
g69
NtRp3940
(dp3941
g72
(dp3942
g80
I2
ssg81
g3936
sg74
(lp3943
S'3'
asbasbasbasbasbasbasbag67
(g83
g69
NtRp3944
(dp3945
g72
(dp3946
sg81
g3093
sg74
(lp3947
g67
(g88
g69
NtRp3948
(dp3949
g72
(dp3950
g92
g93
ssg81
g3944
sg74
(lp3951
S'wsgi.errors'
p3952
asbag67
(g88
g69
NtRp3953
(dp3954
g72
(dp3955
g99
g100
ssg81
g3944
sg74
(lp3956
S':'
asbag67
(g88
g69
NtRp3957
(dp3958
g72
(dp3959
sg81
g3944
sg74
(lp3960
g67
(g68
g69
NtRp3961
(dp3962
g72
(dp3963
g80
I3
ssg81
g3957
sg74
(lp3964
S'<mod_wsgi.Log object at 0x03413D18>'
p3965
asbasbasbag67
(g83
g69
NtRp3966
(dp3967
g72
(dp3968
sg81
g3093
sg74
(lp3969
g67
(g88
g69
NtRp3970
(dp3971
g72
(dp3972
g92
g93
ssg81
g3966
sg74
(lp3973
S'wsgi.file_wrapper'
p3974
asbag67
(g88
g69
NtRp3975
(dp3976
g72
(dp3977
g99
g100
ssg81
g3966
sg74
(lp3978
S':'
asbag67
(g88
g69
NtRp3979
(dp3980
g72
(dp3981
sg81
g3966
sg74
(lp3982
g67
(g68
g69
NtRp3983
(dp3984
g72
(dp3985
g80
I3
ssg81
g3979
sg74
(lp3986
S'<built-in method file_wrapper of mod_wsgi.Adapter object at 0x03400848>'
p3987
asbasbasbag67
(g83
g69
NtRp3988
(dp3989
g72
(dp3990
sg81
g3093
sg74
(lp3991
g67
(g88
g69
NtRp3992
(dp3993
g72
(dp3994
g92
g93
ssg81
g3988
sg74
(lp3995
S'wsgi.input'
p3996
asbag67
(g88
g69
NtRp3997
(dp3998
g72
(dp3999
g99
g100
ssg81
g3988
sg74
(lp4000
S':'
asbag67
(g88
g69
NtRp4001
(dp4002
g72
(dp4003
sg81
g3988
sg74
(lp4004
g67
(g68
g69
NtRp4005
(dp4006
g72
(dp4007
g80
I3
ssg81
g4001
sg74
(lp4008
S'<cStringIO.StringO object at 0x03417500>'
p4009
asbasbasbag67
(g83
g69
NtRp4010
(dp4011
g72
(dp4012
sg81
g3093
sg74
(lp4013
g67
(g88
g69
NtRp4014
(dp4015
g72
(dp4016
g92
g93
ssg81
g4010
sg74
(lp4017
S'wsgi.multiprocess'
p4018
asbag67
(g88
g69
NtRp4019
(dp4020
g72
(dp4021
g99
g100
ssg81
g4010
sg74
(lp4022
S':'
asbag67
(g88
g69
NtRp4023
(dp4024
g72
(dp4025
sg81
g4010
sg74
(lp4026
g67
(g68
g69
NtRp4027
(dp4028
g72
(dp4029
g80
I3
ssg81
g4023
sg74
(lp4030
g110
asbasbasbag67
(g83
g69
NtRp4031
(dp4032
g72
(dp4033
sg81
g3093
sg74
(lp4034
g67
(g88
g69
NtRp4035
(dp4036
g72
(dp4037
g92
g93
ssg81
g4031
sg74
(lp4038
S'wsgi.multithread'
p4039
asbag67
(g88
g69
NtRp4040
(dp4041
g72
(dp4042
g99
g100
ssg81
g4031
sg74
(lp4043
S':'
asbag67
(g88
g69
NtRp4044
(dp4045
g72
(dp4046
sg81
g4031
sg74
(lp4047
g67
(g68
g69
NtRp4048
(dp4049
g72
(dp4050
g80
I3
ssg81
g4044
sg74
(lp4051
g2429
asbasbasbag67
(g83
g69
NtRp4052
(dp4053
g72
(dp4054
sg81
g3093
sg74
(lp4055
g67
(g88
g69
NtRp4056
(dp4057
g72
(dp4058
g92
g93
ssg81
g4052
sg74
(lp4059
S'wsgi.run_once'
p4060
asbag67
(g88
g69
NtRp4061
(dp4062
g72
(dp4063
g99
g100
ssg81
g4052
sg74
(lp4064
S':'
asbag67
(g88
g69
NtRp4065
(dp4066
g72
(dp4067
sg81
g4052
sg74
(lp4068
g67
(g68
g69
NtRp4069
(dp4070
g72
(dp4071
g80
I3
ssg81
g4065
sg74
(lp4072
g110
asbasbasbag67
(g83
g69
NtRp4073
(dp4074
g72
(dp4075
sg81
g3093
sg74
(lp4076
g67
(g88
g69
NtRp4077
(dp4078
g72
(dp4079
g92
g93
ssg81
g4073
sg74
(lp4080
S'wsgi.url_scheme'
p4081
asbag67
(g88
g69
NtRp4082
(dp4083
g72
(dp4084
g99
g100
ssg81
g4073
sg74
(lp4085
S':'
asbag67
(g88
g69
NtRp4086
(dp4087
g72
(dp4088
sg81
g4073
sg74
(lp4089
g67
(g68
g69
NtRp4090
(dp4091
g72
(dp4092
g80
I3
ssg81
g4086
sg74
(lp4093
g2472
asbasbasbag67
(g83
g69
NtRp4094
(dp4095
g72
(dp4096
sg81
g3093
sg74
(lp4097
g67
(g88
g69
NtRp4098
(dp4099
g72
(dp4100
g92
g93
ssg81
g4094
sg74
(lp4101
S'wsgi.version'
p4102
asbag67
(g88
g69
NtRp4103
(dp4104
g72
(dp4105
g99
g100
ssg81
g4094
sg74
(lp4106
S':'
asbag67
(g88
g69
NtRp4107
(dp4108
g72
(dp4109
sg81
g4094
sg74
(lp4110
g67
(g68
g69
NtRp4111
(dp4112
g72
(dp4113
g80
I3
ssg81
g4107
sg74
(lp4114
S'1'
asbasbasbasbasbasbasbasbasbasbasbasbasbsS'frames'
p4115
(lp4116
(dp4117
S'file'
p4118
S'D:\\Workbench\\web2py_src\\gluon\\restricted.py'
p4119
sS'dump'
p4120
(dp4121
S'code'
p4122
S'r"response.write(\'<!DOCTYPE html>\\r\\n<html>\\r\\n<he...\\r\\n</form>\\r\\n</body>\\r\\n</html>\', escape=False)"'
p4123
sS'layer'
p4124
S"r'D:\\Workbench\\web2py_src\\applications\\compound_interest\\views\\default/index.html'"
p4125
sS'global compile2'
p4126
S'<function compile2>'
p4127
sS'ccode'
p4128
S'undefined'
p4129
ssS'lnum'
p4130
I193
sS'lines'
p4131
(dp4132
I192
S'        else:'
p4133
sI193
S'            ccode = compile2(code,layer)'
p4134
sI194
S'        exec ccode in environment'
p4135
sI195
S'    except HTTP:'
p4136
sI196
S'        raise'
p4137
sI197
S'    except Exception, error:'
p4138
sI188
S"    environment['__file__'] = layer"
p4139
sI189
S'    try:'
p4140
sI190
S'        if type(code) == types.CodeType:'
p4141
sI191
S'            ccode = code'
p4142
ssS'call'
p4143
S'(code=r"response.write(\'<!DOCTYPE html>\\r\\n<html>\\r\\n<he...\\r\\n</form>\\r\\n</body>\\r\\n</html>\', escape=False)", environment={\'A\': <class \'gluon.html.A\'>, \'B\': <class \'gluon.html.B\'>, \'BEAUTIFY\': <class \'gluon.html.BEAUTIFY\'>, \'BODY\': <class \'gluon.html.BODY\'>, \'BR\': <class \'gluon.html.BR\'>, \'BUTTON\': <class \'gluon.html.BUTTON\'>, \'CAT\': <class \'gluon.html.CAT\'>, \'CENTER\': <class \'gluon.html.CENTER\'>, \'CLEANUP\': <class \'gluon.validators.CLEANUP\'>, \'CODE\': <class \'gluon.html.CODE\'>, ...}, layer=r\'D:\\Workbench\\web2py_src\\applications\\compound_interest\\views\\default/index.html\')'
p4144
sS'func'
p4145
S'restricted'
p4146
sa(dp4147
g4118
S'D:\\Workbench\\web2py_src\\gluon\\restricted.py'
p4148
sg4120
(dp4149
S'builtincompile'
p4150
S'<built-in function compile>'
p4151
sS'code'
p4152
S'r"response.write(\'<!DOCTYPE html>\\r\\n<html>\\r\\n<he...\\r\\n</form>\\r\\n</body>\\r\\n</html>\', escape=False)"'
p4153
sS'code.rstrip'
p4154
S'<built-in method rstrip of str object>'
p4155
sS').replace'
p4156
g4129
sS'layer'
p4157
S"r'D:\\Workbench\\web2py_src\\applications\\compound_interest\\views\\default/index.html'"
p4158
ssg4130
I179
sg4131
(dp4159
I174
S''
sI175
S'def compile2(code,layer):'
p4160
sI176
S'    """'
p4161
sI177
S"    The +'\\n' is necessary else compile fails when code ends in a comment."
p4162
sI178
S'    """'
p4163
sI179
S"    return compile(code.rstrip().replace('\\r\\n','\\n')+'\\n', layer, 'exec')"
p4164
sI180
S''
sI181
S"def restricted(code, environment=None, layer='Unknown'):"
p4165
sI182
S'    """'
p4166
sI183
S'    runs code in environment and returns the output. if an exception occurs'
p4167
ssg4143
S'(code=r"response.write(\'<!DOCTYPE html>\\r\\n<html>\\r\\n<he...\\r\\n</form>\\r\\n</body>\\r\\n</html>\', escape=False)", layer=r\'D:\\Workbench\\web2py_src\\applications\\compound_interest\\views\\default/index.html\')'
p4168
sg4145
S'compile2'
p4169
sasS'pyver'
p4170
S'Python 2.7.2: C:\\Program Files\\Apache Software Foundation\\Apache2.2\\bin\\httpd.exe'
p4171
sS'session'
p4172
g67
(g68
g69
NtRp4173
(dp4174
g72
(dp4175
sg74
(lp4176
g67
(g76
g69
NtRp4177
(dp4178
g72
(dp4179
g80
I5
ssg81
Nsg74
(lp4180
sbasbsS'etype'
p4181
S"<type 'exceptions.SyntaxError'>"
p4182
sS'date'
p4183
S'Tue Jan 03 16:01:11 2012'
p4184
sS'response'
p4185
g67
(g68
g69
NtRp4186
(dp4187
g72
(dp4188
sg74
(lp4189
g67
(g76
g69
NtRp4190
(dp4191
g72
(dp4192
g80
I5
ssg81
Nsg74
(lp4193
g67
(g83
g69
NtRp4194
(dp4195
g72
(dp4196
sg81
g4190
sg74
(lp4197
g67
(g88
g69
NtRp4198
(dp4199
g72
(dp4200
g92
g93
ssg81
g4194
sg74
(lp4201
g165
asbag67
(g88
g69
NtRp4202
(dp4203
g72
(dp4204
g99
g100
ssg81
g4194
sg74
(lp4205
S':'
asbag67
(g88
g69
NtRp4206
(dp4207
g72
(dp4208
sg81
g4194
sg74
(lp4209
g67
(g68
g69
NtRp4210
(dp4211
g72
(dp4212
g80
I5
ssg81
g4206
sg74
(lp4213
S'<cStringIO.StringO object at 0x034173C0>'
p4214
asbasbasbag67
(g83
g69
NtRp4215
(dp4216
g72
(dp4217
sg81
g4190
sg74
(lp4218
g67
(g88
g69
NtRp4219
(dp4220
g72
(dp4221
g92
g93
ssg81
g4215
sg74
(lp4222
g231
asbag67
(g88
g69
NtRp4223
(dp4224
g72
(dp4225
g99
g100
ssg81
g4215
sg74
(lp4226
S':'
asbag67
(g88
g69
NtRp4227
(dp4228
g72
(dp4229
sg81
g4215
sg74
(lp4230
g67
(g68
g69
NtRp4231
(dp4232
g72
(dp4233
g80
I5
ssg81
g4227
sg74
(lp4234
g67
(g76
g69
NtRp4235
(dp4236
g72
(dp4237
g80
I4
ssg81
Nsg74
(lp4238
g67
(g83
g69
NtRp4239
(dp4240
g72
(dp4241
sg81
g4235
sg74
(lp4242
g67
(g88
g69
NtRp4243
(dp4244
g72
(dp4245
g92
g93
ssg81
g4239
sg74
(lp4246
S'session_id_compound_interest'
p4247
asbag67
(g88
g69
NtRp4248
(dp4249
g72
(dp4250
g99
g100
ssg81
g4239
sg74
(lp4251
S':'
asbag67
(g88
g69
NtRp4252
(dp4253
g72
(dp4254
sg81
g4239
sg74
(lp4255
g67
(g68
g69
NtRp4256
(dp4257
g72
(dp4258
g80
I4
ssg81
g4252
sg74
(lp4259
g67
(g76
g69
NtRp4260
(dp4261
g72
(dp4262
g80
I3
ssg81
Nsg74
(lp4263
g67
(g83
g69
NtRp4264
(dp4265
g72
(dp4266
sg81
g4260
sg74
(lp4267
g67
(g88
g69
NtRp4268
(dp4269
g72
(dp4270
g92
g93
ssg81
g4264
sg74
(lp4271
g281
asbag67
(g88
g69
NtRp4272
(dp4273
g72
(dp4274
g99
g100
ssg81
g4264
sg74
(lp4275
S':'
asbag67
(g88
g69
NtRp4276
(dp4277
g72
(dp4278
sg81
g4264
sg74
(lp4279
g67
(g68
g69
NtRp4280
(dp4281
g72
(dp4282
g80
I3
ssg81
g4276
sg74
(lp4283
S''
asbasbasbag67
(g83
g69
NtRp4284
(dp4285
g72
(dp4286
sg81
g4260
sg74
(lp4287
g67
(g88
g69
NtRp4288
(dp4289
g72
(dp4290
g92
g93
ssg81
g4284
sg74
(lp4291
g302
asbag67
(g88
g69
NtRp4292
(dp4293
g72
(dp4294
g99
g100
ssg81
g4284
sg74
(lp4295
S':'
asbag67
(g88
g69
NtRp4296
(dp4297
g72
(dp4298
sg81
g4284
sg74
(lp4299
g67
(g68
g69
NtRp4300
(dp4301
g72
(dp4302
g80
I3
ssg81
g4296
sg74
(lp4303
S''
asbasbasbag67
(g83
g69
NtRp4304
(dp4305
g72
(dp4306
sg81
g4260
sg74
(lp4307
g67
(g88
g69
NtRp4308
(dp4309
g72
(dp4310
g92
g93
ssg81
g4304
sg74
(lp4311
g323
asbag67
(g88
g69
NtRp4312
(dp4313
g72
(dp4314
g99
g100
ssg81
g4304
sg74
(lp4315
S':'
asbag67
(g88
g69
NtRp4316
(dp4317
g72
(dp4318
sg81
g4304
sg74
(lp4319
g67
(g68
g69
NtRp4320
(dp4321
g72
(dp4322
g80
I3
ssg81
g4316
sg74
(lp4323
S''
asbasbasbag67
(g83
g69
NtRp4324
(dp4325
g72
(dp4326
sg81
g4260
sg74
(lp4327
g67
(g88
g69
NtRp4328
(dp4329
g72
(dp4330
g92
g93
ssg81
g4324
sg74
(lp4331
g344
asbag67
(g88
g69
NtRp4332
(dp4333
g72
(dp4334
g99
g100
ssg81
g4324
sg74
(lp4335
S':'
asbag67
(g88
g69
NtRp4336
(dp4337
g72
(dp4338
sg81
g4324
sg74
(lp4339
g67
(g68
g69
NtRp4340
(dp4341
g72
(dp4342
g80
I3
ssg81
g4336
sg74
(lp4343
S''
asbasbasbag67
(g83
g69
NtRp4344
(dp4345
g72
(dp4346
sg81
g4260
sg74
(lp4347
g67
(g88
g69
NtRp4348
(dp4349
g72
(dp4350
g92
g93
ssg81
g4344
sg74
(lp4351
g365
asbag67
(g88
g69
NtRp4352
(dp4353
g72
(dp4354
g99
g100
ssg81
g4344
sg74
(lp4355
S':'
asbag67
(g88
g69
NtRp4356
(dp4357
g72
(dp4358
sg81
g4344
sg74
(lp4359
g67
(g68
g69
NtRp4360
(dp4361
g72
(dp4362
g80
I3
ssg81
g4356
sg74
(lp4363
S''
asbasbasbag67
(g83
g69
NtRp4364
(dp4365
g72
(dp4366
sg81
g4260
sg74
(lp4367
g67
(g88
g69
NtRp4368
(dp4369
g72
(dp4370
g92
g93
ssg81
g4364
sg74
(lp4371
g386
asbag67
(g88
g69
NtRp4372
(dp4373
g72
(dp4374
g99
g100
ssg81
g4364
sg74
(lp4375
S':'
asbag67
(g88
g69
NtRp4376
(dp4377
g72
(dp4378
sg81
g4364
sg74
(lp4379
g67
(g68
g69
NtRp4380
(dp4381
g72
(dp4382
g80
I3
ssg81
g4376
sg74
(lp4383
S'/'
asbasbasbag67
(g83
g69
NtRp4384
(dp4385
g72
(dp4386
sg81
g4260
sg74
(lp4387
g67
(g88
g69
NtRp4388
(dp4389
g72
(dp4390
g92
g93
ssg81
g4384
sg74
(lp4391
g407
asbag67
(g88
g69
NtRp4392
(dp4393
g72
(dp4394
g99
g100
ssg81
g4384
sg74
(lp4395
S':'
asbag67
(g88
g69
NtRp4396
(dp4397
g72
(dp4398
sg81
g4384
sg74
(lp4399
g67
(g68
g69
NtRp4400
(dp4401
g72
(dp4402
g80
I3
ssg81
g4396
sg74
(lp4403
S''
asbasbasbag67
(g83
g69
NtRp4404
(dp4405
g72
(dp4406
sg81
g4260
sg74
(lp4407
g67
(g88
g69
NtRp4408
(dp4409
g72
(dp4410
g92
g93
ssg81
g4404
sg74
(lp4411
g428
asbag67
(g88
g69
NtRp4412
(dp4413
g72
(dp4414
g99
g100
ssg81
g4404
sg74
(lp4415
S':'
asbag67
(g88
g69
NtRp4416
(dp4417
g72
(dp4418
sg81
g4404
sg74
(lp4419
g67
(g68
g69
NtRp4420
(dp4421
g72
(dp4422
g80
I3
ssg81
g4416
sg74
(lp4423
S''
asbasbasbasbasbasbasbasbasbasbasbag67
(g83
g69
NtRp4424
(dp4425
g72
(dp4426
sg81
g4190
sg74
(lp4427
g67
(g88
g69
NtRp4428
(dp4429
g72
(dp4430
g92
g93
ssg81
g4424
sg74
(lp4431
S'files'
p4432
asbag67
(g88
g69
NtRp4433
(dp4434
g72
(dp4435
g99
g100
ssg81
g4424
sg74
(lp4436
S':'
asbag67
(g88
g69
NtRp4437
(dp4438
g72
(dp4439
sg81
g4424
sg74
(lp4440
g67
(g68
g69
NtRp4441
(dp4442
g72
(dp4443
g80
I5
ssg81
g4437
sg74
(lp4444
g67
(g76
g69
NtRp4445
(dp4446
g72
(dp4447
g80
I4
ssg81
Nsg74
(lp4448
sbasbasbasbag67
(g83
g69
NtRp4449
(dp4450
g72
(dp4451
sg81
g4190
sg74
(lp4452
g67
(g88
g69
NtRp4453
(dp4454
g72
(dp4455
g92
g93
ssg81
g4449
sg74
(lp4456
S'flash'
p4457
asbag67
(g88
g69
NtRp4458
(dp4459
g72
(dp4460
g99
g100
ssg81
g4449
sg74
(lp4461
S':'
asbag67
(g88
g69
NtRp4462
(dp4463
g72
(dp4464
sg81
g4449
sg74
(lp4465
g67
(g68
g69
NtRp4466
(dp4467
g72
(dp4468
g80
I5
ssg81
g4462
sg74
(lp4469
S''
asbasbasbag67
(g83
g69
NtRp4470
(dp4471
g72
(dp4472
sg81
g4190
sg74
(lp4473
g67
(g88
g69
NtRp4474
(dp4475
g72
(dp4476
g92
g93
ssg81
g4470
sg74
(lp4477
S'generic_patterns'
p4478
asbag67
(g88
g69
NtRp4479
(dp4480
g72
(dp4481
g99
g100
ssg81
g4470
sg74
(lp4482
S':'
asbag67
(g88
g69
NtRp4483
(dp4484
g72
(dp4485
sg81
g4470
sg74
(lp4486
g67
(g68
g69
NtRp4487
(dp4488
g72
(dp4489
g80
I5
ssg81
g4483
sg74
(lp4490
g67
(g76
g69
NtRp4491
(dp4492
g72
(dp4493
g80
I4
ssg81
Nsg74
(lp4494
sbasbasbasbag67
(g83
g69
NtRp4495
(dp4496
g72
(dp4497
sg81
g4190
sg74
(lp4498
g67
(g88
g69
NtRp4499
(dp4500
g72
(dp4501
g92
g93
ssg81
g4495
sg74
(lp4502
S'headers'
p4503
asbag67
(g88
g69
NtRp4504
(dp4505
g72
(dp4506
g99
g100
ssg81
g4495
sg74
(lp4507
S':'
asbag67
(g88
g69
NtRp4508
(dp4509
g72
(dp4510
sg81
g4495
sg74
(lp4511
g67
(g68
g69
NtRp4512
(dp4513
g72
(dp4514
g80
I5
ssg81
g4508
sg74
(lp4515
g67
(g76
g69
NtRp4516
(dp4517
g72
(dp4518
g80
I4
ssg81
Nsg74
(lp4519
g67
(g83
g69
NtRp4520
(dp4521
g72
(dp4522
sg81
g4516
sg74
(lp4523
g67
(g88
g69
NtRp4524
(dp4525
g72
(dp4526
g92
g93
ssg81
g4520
sg74
(lp4527
S'Cache-Control'
p4528
asbag67
(g88
g69
NtRp4529
(dp4530
g72
(dp4531
g99
g100
ssg81
g4520
sg74
(lp4532
S':'
asbag67
(g88
g69
NtRp4533
(dp4534
g72
(dp4535
sg81
g4520
sg74
(lp4536
g67
(g68
g69
NtRp4537
(dp4538
g72
(dp4539
g80
I4
ssg81
g4533
sg74
(lp4540
S'no-store, no-cache, must-revalidate, post-check=0, pre-check=0'
p4541
asbasbasbag67
(g83
g69
NtRp4542
(dp4543
g72
(dp4544
sg81
g4516
sg74
(lp4545
g67
(g88
g69
NtRp4546
(dp4547
g72
(dp4548
g92
g93
ssg81
g4542
sg74
(lp4549
S'Content-Type'
p4550
asbag67
(g88
g69
NtRp4551
(dp4552
g72
(dp4553
g99
g100
ssg81
g4542
sg74
(lp4554
S':'
asbag67
(g88
g69
NtRp4555
(dp4556
g72
(dp4557
sg81
g4542
sg74
(lp4558
g67
(g68
g69
NtRp4559
(dp4560
g72
(dp4561
g80
I4
ssg81
g4555
sg74
(lp4562
S'text/html; charset=utf-8'
p4563
asbasbasbag67
(g83
g69
NtRp4564
(dp4565
g72
(dp4566
sg81
g4516
sg74
(lp4567
g67
(g88
g69
NtRp4568
(dp4569
g72
(dp4570
g92
g93
ssg81
g4564
sg74
(lp4571
S'Expires'
p4572
asbag67
(g88
g69
NtRp4573
(dp4574
g72
(dp4575
g99
g100
ssg81
g4564
sg74
(lp4576
S':'
asbag67
(g88
g69
NtRp4577
(dp4578
g72
(dp4579
sg81
g4564
sg74
(lp4580
g67
(g68
g69
NtRp4581
(dp4582
g72
(dp4583
g80
I4
ssg81
g4577
sg74
(lp4584
S'Tue, 03 Jan 2012 08:01:10 GMT'
p4585
asbasbasbag67
(g83
g69
NtRp4586
(dp4587
g72
(dp4588
sg81
g4516
sg74
(lp4589
g67
(g88
g69
NtRp4590
(dp4591
g72
(dp4592
g92
g93
ssg81
g4586
sg74
(lp4593
S'Pragma'
p4594
asbag67
(g88
g69
NtRp4595
(dp4596
g72
(dp4597
g99
g100
ssg81
g4586
sg74
(lp4598
S':'
asbag67
(g88
g69
NtRp4599
(dp4600
g72
(dp4601
sg81
g4586
sg74
(lp4602
g67
(g68
g69
NtRp4603
(dp4604
g72
(dp4605
g80
I4
ssg81
g4599
sg74
(lp4606
S'no-cache'
p4607
asbasbasbag67
(g83
g69
NtRp4608
(dp4609
g72
(dp4610
sg81
g4516
sg74
(lp4611
g67
(g88
g69
NtRp4612
(dp4613
g72
(dp4614
g92
g93
ssg81
g4608
sg74
(lp4615
S'X-Powered-By'
p4616
asbag67
(g88
g69
NtRp4617
(dp4618
g72
(dp4619
g99
g100
ssg81
g4608
sg74
(lp4620
S':'
asbag67
(g88
g69
NtRp4621
(dp4622
g72
(dp4623
sg81
g4608
sg74
(lp4624
g67
(g68
g69
NtRp4625
(dp4626
g72
(dp4627
g80
I4
ssg81
g4621
sg74
(lp4628
S'web2py'
p4629
asbasbasbasbasbasbasbag67
(g83
g69
NtRp4630
(dp4631
g72
(dp4632
sg81
g4190
sg74
(lp4633
g67
(g88
g69
NtRp4634
(dp4635
g72
(dp4636
g92
g93
ssg81
g4630
sg74
(lp4637
S'menu'
p4638
asbag67
(g88
g69
NtRp4639
(dp4640
g72
(dp4641
g99
g100
ssg81
g4630
sg74
(lp4642
S':'
asbag67
(g88
g69
NtRp4643
(dp4644
g72
(dp4645
sg81
g4630
sg74
(lp4646
g67
(g68
g69
NtRp4647
(dp4648
g72
(dp4649
g80
I5
ssg81
g4643
sg74
(lp4650
g67
(g76
g69
NtRp4651
(dp4652
g72
(dp4653
g80
I4
ssg81
Nsg74
(lp4654
sbasbasbasbag67
(g83
g69
NtRp4655
(dp4656
g72
(dp4657
sg81
g4190
sg74
(lp4658
g67
(g88
g69
NtRp4659
(dp4660
g72
(dp4661
g92
g93
ssg81
g4655
sg74
(lp4662
S'meta'
p4663
asbag67
(g88
g69
NtRp4664
(dp4665
g72
(dp4666
g99
g100
ssg81
g4655
sg74
(lp4667
S':'
asbag67
(g88
g69
NtRp4668
(dp4669
g72
(dp4670
sg81
g4655
sg74
(lp4671
g67
(g68
g69
NtRp4672
(dp4673
g72
(dp4674
g80
I5
ssg81
g4668
sg74
(lp4675
g67
(g76
g69
NtRp4676
(dp4677
g72
(dp4678
g80
I4
ssg81
Nsg74
(lp4679
sbasbasbasbag67
(g83
g69
NtRp4680
(dp4681
g72
(dp4682
sg81
g4190
sg74
(lp4683
g67
(g88
g69
NtRp4684
(dp4685
g72
(dp4686
g92
g93
ssg81
g4680
sg74
(lp4687
S'postprocessing'
p4688
asbag67
(g88
g69
NtRp4689
(dp4690
g72
(dp4691
g99
g100
ssg81
g4680
sg74
(lp4692
S':'
asbag67
(g88
g69
NtRp4693
(dp4694
g72
(dp4695
sg81
g4680
sg74
(lp4696
g67
(g68
g69
NtRp4697
(dp4698
g72
(dp4699
g80
I5
ssg81
g4693
sg74
(lp4700
g67
(g76
g69
NtRp4701
(dp4702
g72
(dp4703
g80
I4
ssg81
Nsg74
(lp4704
sbasbasbasbag67
(g83
g69
NtRp4705
(dp4706
g72
(dp4707
sg81
g4190
sg74
(lp4708
g67
(g88
g69
NtRp4709
(dp4710
g72
(dp4711
g92
g93
ssg81
g4705
sg74
(lp4712
S'session_filename'
p4713
asbag67
(g88
g69
NtRp4714
(dp4715
g72
(dp4716
g99
g100
ssg81
g4705
sg74
(lp4717
S':'
asbag67
(g88
g69
NtRp4718
(dp4719
g72
(dp4720
sg81
g4705
sg74
(lp4721
g67
(g68
g69
NtRp4722
(dp4723
g72
(dp4724
g80
I5
ssg81
g4718
sg74
(lp4725
S'D:\\Workbench\\web2py_src\\applications\\compound_interest\\sessions\\127.0.0.1-cbf48e7d-3a33-4f23-a9c3-b346ab18bffb'
p4726
asbasbasbag67
(g83
g69
NtRp4727
(dp4728
g72
(dp4729
sg81
g4190
sg74
(lp4730
g67
(g88
g69
NtRp4731
(dp4732
g72
(dp4733
g92
g93
ssg81
g4727
sg74
(lp4734
S'session_id'
p4735
asbag67
(g88
g69
NtRp4736
(dp4737
g72
(dp4738
g99
g100
ssg81
g4727
sg74
(lp4739
S':'
asbag67
(g88
g69
NtRp4740
(dp4741
g72
(dp4742
sg81
g4727
sg74
(lp4743
g67
(g68
g69
NtRp4744
(dp4745
g72
(dp4746
g80
I5
ssg81
g4740
sg74
(lp4747
S'127.0.0.1-cbf48e7d-3a33-4f23-a9c3-b346ab18bffb'
p4748
asbasbasbag67
(g83
g69
NtRp4749
(dp4750
g72
(dp4751
sg81
g4190
sg74
(lp4752
g67
(g88
g69
NtRp4753
(dp4754
g72
(dp4755
g92
g93
ssg81
g4749
sg74
(lp4756
S'session_id_name'
p4757
asbag67
(g88
g69
NtRp4758
(dp4759
g72
(dp4760
g99
g100
ssg81
g4749
sg74
(lp4761
S':'
asbag67
(g88
g69
NtRp4762
(dp4763
g72
(dp4764
sg81
g4749
sg74
(lp4765
g67
(g68
g69
NtRp4766
(dp4767
g72
(dp4768
g80
I5
ssg81
g4762
sg74
(lp4769
g4247
asbasbasbag67
(g83
g69
NtRp4770
(dp4771
g72
(dp4772
sg81
g4190
sg74
(lp4773
g67
(g88
g69
NtRp4774
(dp4775
g72
(dp4776
g92
g93
ssg81
g4770
sg74
(lp4777
S'session_new'
p4778
asbag67
(g88
g69
NtRp4779
(dp4780
g72
(dp4781
g99
g100
ssg81
g4770
sg74
(lp4782
S':'
asbag67
(g88
g69
NtRp4783
(dp4784
g72
(dp4785
sg81
g4770
sg74
(lp4786
g67
(g68
g69
NtRp4787
(dp4788
g72
(dp4789
g80
I5
ssg81
g4783
sg74
(lp4790
g2429
asbasbasbag67
(g83
g69
NtRp4791
(dp4792
g72
(dp4793
sg81
g4190
sg74
(lp4794
g67
(g88
g69
NtRp4795
(dp4796
g72
(dp4797
g92
g93
ssg81
g4791
sg74
(lp4798
S'status'
p4799
asbag67
(g88
g69
NtRp4800
(dp4801
g72
(dp4802
g99
g100
ssg81
g4791
sg74
(lp4803
S':'
asbag67
(g88
g69
NtRp4804
(dp4805
g72
(dp4806
sg81
g4791
sg74
(lp4807
g67
(g68
g69
NtRp4808
(dp4809
g72
(dp4810
g80
I5
ssg81
g4804
sg74
(lp4811
S'200'
p4812
asbasbasbag67
(g83
g69
NtRp4813
(dp4814
g72
(dp4815
sg81
g4190
sg74
(lp4816
g67
(g88
g69
NtRp4817
(dp4818
g72
(dp4819
g92
g93
ssg81
g4813
sg74
(lp4820
g3008
asbag67
(g88
g69
NtRp4821
(dp4822
g72
(dp4823
g99
g100
ssg81
g4813
sg74
(lp4824
S':'
asbag67
(g88
g69
NtRp4825
(dp4826
g72
(dp4827
sg81
g4813
sg74
(lp4828
g67
(g68
g69
NtRp4829
(dp4830
g72
(dp4831
g80
I5
ssg81
g4825
sg74
(lp4832
g3021
asbasbasbag67
(g83
g69
NtRp4833
(dp4834
g72
(dp4835
sg81
g4190
sg74
(lp4836
g67
(g88
g69
NtRp4837
(dp4838
g72
(dp4839
g92
g93
ssg81
g4833
sg74
(lp4840
S'view'
p4841
asbag67
(g88
g69
NtRp4842
(dp4843
g72
(dp4844
g99
g100
ssg81
g4833
sg74
(lp4845
S':'
asbag67
(g88
g69
NtRp4846
(dp4847
g72
(dp4848
sg81
g4833
sg74
(lp4849
g67
(g68
g69
NtRp4850
(dp4851
g72
(dp4852
g80
I5
ssg81
g4846
sg74
(lp4853
S'default/index.html'
p4854
asbasbasbasbasbsS'locals'
p4855
(dp4856
g3
S"r'D:\\Workbench\\web2py_src\\applications\\compound_interest\\views\\default/index.html'"
p4857
sg5
S'r"response.write(\'<!DOCTYPE html>\\r\\n<html>\\r\\n<he...\\r\\n</form>\\r\\n</body>\\r\\n</html>\', escape=False)"'
p4858
sssS'traceback'
p4859
S'Traceback (most recent call last):\n  File "D:\\Workbench\\web2py_src\\gluon\\restricted.py", line 193, in restricted\n    ccode = compile2(code,layer)\n  File "D:\\Workbench\\web2py_src\\gluon\\restricted.py", line 179, in compile2\n    return compile(code.rstrip().replace(\'\\r\\n\',\'\\n\')+\'\\n\', layer, \'exec\')\n  File "D:\\Workbench\\web2py_src\\applications\\compound_interest\\views\\default/index.html", line 2\n    URL(\\\'index\\\')\n                 ^\nSyntaxError: unexpected character after line continuation character\n'
p4860
s.