(dp1
S'output'
p2
S''
sS'layer'
p3
S'D:\\Workbench\\web2py_src\\applications\\compound_interest\\views\\default/index.html'
p4
sS'code'
p5
S'response.write(\'<!DOCTYPE html>\\r\\n<html>\\r\\n<head></head>\\r\\n<body>\\r\\n<h1><a href="\', escape=False)\nresponse.write(URL(\'index\'))\nresponse.write(\'">\\xe5\\xa4\\x8d\\xe5\\x88\\xa9\\xe8\\xae\\xa1\\xe7\\xae\\x97\\xe5\\x99\\xa8</a></h1>\\r\\n\\xe4\\xbb\\x80\\xe4\\xb9\\x88\\xe6\\x98\\xaf\\xe5\\xa4\\x8d\\xe5\\x88\\xa9: wikipedia,\\r\\n<a href="http://zh.wikipedia.org/wiki/%E5%A4%8D%E5%88%A9" target=_blank>zh</a>\\r\\n<a href="http://en.wikipedia.org/wiki/Compound_interest" target=_blank>en</a>\\r\\n<p>\\xe5\\x85\\xac\\xe5\\xbc\\x8f: <img src="http://upload.wikimedia.org/wikipedia/en/math/e/0/c/e0ca87a82c591a0e0610792963751fd5.png" /></p>\\r\\n<p>\\xe8\\xa7\\xa3\\xe9\\x87\\x8a: \\xe6\\x9c\\xaa\\xe6\\x9d\\xa5\\xe4\\xbb\\xb7\\xe5\\x80\\xbc = \\xe5\\xbd\\x93\\xe5\\x89\\x8d\\xe4\\xbb\\xb7\\xe5\\x80\\xbc  * (1+\\xe5\\x9b\\xba\\xe5\\xae\\x9a\\xe5\\xb9\\xb4\\xe6\\x94\\xb6\\xe7\\x9b\\x8a\\xe7\\x8e\\x87) ** \\xe6\\x94\\xb6\\xe7\\x9b\\x8a\\xe5\\xb9\\xb4\\xe9\\x99\\x90</p>\\r\\n\\r\\n<form action="\', escape=False)\nresponse.write(URL(\'index\'))\nresponse.write(\'" method="get">\\r\\n\\xe6\\x8a\\x95\\xe8\\xb5\\x84\\xe6\\xa8\\xa1\\xe5\\xbc\\x8f : <input type="radio" name="invest_per_year" value="true" />\\xe6\\xaf\\x8f\\xe5\\xb9\\xb4\\xe5\\xae\\x9a\\xe6\\x8a\\x95\\r\\n<input type="radio" name="invest_per_year" value="false"  />\\xe4\\xb8\\x80\\xe6\\xac\\xa1\\xe6\\x80\\xa7\\xe6\\x8a\\x95\\xe5\\x85\\xa5 <p/>\\r\\n\\xe5\\xbd\\x93\\xe5\\x89\\x8d\\xe4\\xbb\\xb7\\xe5\\x80\\xbc(\\xe4\\xb8\\x80\\xe6\\xac\\xa1\\xe6\\x80\\xa7\\xe6\\x8a\\x95\\xe5\\x85\\xa5\\xe9\\x87\\x91\\xe9\\xa2\\x9d/\\xe6\\xaf\\x8f\\xe5\\xb9\\xb4\\xe6\\x8a\\x95\\xe5\\x85\\xa5\\xe9\\x87\\x91\\xe9\\xa2\\x9d) : <input type="text" name="pv" value="\', escape=False)\nresponse.write(pv)\nresponse.write(\'" /><p/>\\r\\n \\xe5\\x9b\\xba\\xe5\\xae\\x9a\\xe5\\xb9\\xb4\\xe6\\x94\\xb6\\xe7\\x9b\\x8a\\xe7\\x8e\\x87 : <input type="text" name="fi" value="\', escape=False)\nresponse.write(fi)\nresponse.write(\'" /><p/>\\r\\n\\xe6\\x94\\xb6\\xe7\\x9b\\x8a\\xe5\\xb9\\xb4\\xe9\\x99\\x90(\\xe6\\x8a\\x95\\xe8\\xb5\\x84\\xe5\\xb9\\xb4\\xe9\\x99\\x90) : <input type="text" name="np" value="\', escape=False)\nresponse.write(np)\nresponse.write(\'" /><p/>\\r\\n\\xe6\\x9c\\xaa\\xe6\\x9d\\xa5\\xe4\\xbb\\xb7\\xe5\\x80\\xbc (\\xe5\\x88\\xb0\\xe6\\x9c\\x9f\\xe9\\x87\\x91\\xe9\\xa2\\x9d) : <input type="text" name=fv value="\', escape=False)\nresponse.write(fv)\nresponse.write(\'" /><p/>\\r\\n<input type="submit" value="\\xe8\\xae\\xa1\\xe7\\xae\\x97" /><p/>\\r\\n</form>\\r\\n</body>\\r\\n</html>\', escape=False)'
p6
sS'snapshot'
p7
(dp8
S'exception'
p9
(dp10
S'__hash__'
p11
S"<method-wrapper '__hash__' of exceptions.NameError object>"
p12
sS'__setattr__'
p13
S"<method-wrapper '__setattr__' of exceptions.NameError object>"
p14
sS'__reduce_ex__'
p15
S'<built-in method __reduce_ex__ of exceptions.NameError object>'
p16
sS'__getslice__'
p17
S"<method-wrapper '__getslice__' of exceptions.NameError object>"
p18
sS'__getitem__'
p19
S"<method-wrapper '__getitem__' of exceptions.NameError object>"
p20
sS'__setstate__'
p21
S'<built-in method __setstate__ of exceptions.NameError object>'
p22
sS'__reduce__'
p23
S'<built-in method __reduce__ of exceptions.NameError object>'
p24
sS'__str__'
p25
S"<method-wrapper '__str__' of exceptions.NameError object>"
p26
sS'__format__'
p27
S'<built-in method __format__ of exceptions.NameError object>'
p28
sS'__getattribute__'
p29
S"<method-wrapper '__getattribute__' of exceptions.NameError object>"
p30
sS'__class__'
p31
S"<type 'exceptions.NameError'>"
p32
sS'__unicode__'
p33
S'<built-in method __unicode__ of exceptions.NameError object>'
p34
sS'__delattr__'
p35
S"<method-wrapper '__delattr__' of exceptions.NameError object>"
p36
sS'__subclasshook__'
p37
S'<built-in method __subclasshook__ of type object>'
p38
sS'__repr__'
p39
S"<method-wrapper '__repr__' of exceptions.NameError object>"
p40
sS'args'
p41
S'("name \'pv\' is not defined",)'
p42
sS'__dict__'
p43
S'{}'
p44
sS'__sizeof__'
p45
S'<built-in method __sizeof__ of exceptions.NameError object>'
p46
sS'__doc__'
p47
S"'Name not found globally.'"
p48
sS'__init__'
p49
S"<method-wrapper '__init__' of exceptions.NameError object>"
p50
sS'__new__'
p51
S'<built-in method __new__ of type object>'
p52
ssS'evalue'
p53
S"name 'pv' is not defined"
p54
sS'request'
p55
ccopy_reg
_reconstructor
p56
(cgluon.html
BEAUTIFY
p57
c__builtin__
object
p58
NtRp59
(dp60
S'attributes'
p61
(dp62
sS'components'
p63
(lp64
g56
(cgluon.html
TABLE
p65
g58
NtRp66
(dp67
g61
(dp68
S'level'
p69
I5
ssS'parent'
p70
Nsg63
(lp71
g56
(cgluon.html
TR
p72
g58
NtRp73
(dp74
g61
(dp75
sg70
g66
sg63
(lp76
g56
(cgluon.html
TD
p77
g58
NtRp78
(dp79
g61
(dp80
S'_style'
p81
S'font-weight:bold;'
p82
ssg70
g73
sg63
(lp83
S'ajax'
p84
asbag56
(g77
g58
NtRp85
(dp86
g61
(dp87
S'_valign'
p88
S'top'
p89
ssg70
g73
sg63
(lp90
S':'
asbag56
(g77
g58
NtRp91
(dp92
g61
(dp93
sg70
g73
sg63
(lp94
g56
(g57
g58
NtRp95
(dp96
g61
(dp97
g69
I5
ssg70
g91
sg63
(lp98
S'False'
p99
asbasbasbag56
(g72
g58
NtRp100
(dp101
g61
(dp102
sg70
g66
sg63
(lp103
g56
(g77
g58
NtRp104
(dp105
g61
(dp106
g81
g82
ssg70
g100
sg63
(lp107
S'application'
p108
asbag56
(g77
g58
NtRp109
(dp110
g61
(dp111
g88
g89
ssg70
g100
sg63
(lp112
S':'
asbag56
(g77
g58
NtRp113
(dp114
g61
(dp115
sg70
g100
sg63
(lp116
g56
(g57
g58
NtRp117
(dp118
g61
(dp119
g69
I5
ssg70
g113
sg63
(lp120
S'compound_interest'
p121
asbasbasbag56
(g72
g58
NtRp122
(dp123
g61
(dp124
sg70
g66
sg63
(lp125
g56
(g77
g58
NtRp126
(dp127
g61
(dp128
g81
g82
ssg70
g122
sg63
(lp129
g41
asbag56
(g77
g58
NtRp130
(dp131
g61
(dp132
g88
g89
ssg70
g122
sg63
(lp133
S':'
asbag56
(g77
g58
NtRp134
(dp135
g61
(dp136
sg70
g122
sg63
(lp137
g56
(g57
g58
NtRp138
(dp139
g61
(dp140
g69
I5
ssg70
g134
sg63
(lp141
g56
(g65
g58
NtRp142
(dp143
g61
(dp144
g69
I4
ssg70
Nsg63
(lp145
sbasbasbasbag56
(g72
g58
NtRp146
(dp147
g61
(dp148
sg70
g66
sg63
(lp149
g56
(g77
g58
NtRp150
(dp151
g61
(dp152
g81
g82
ssg70
g146
sg63
(lp153
S'body'
p154
asbag56
(g77
g58
NtRp155
(dp156
g61
(dp157
g88
g89
ssg70
g146
sg63
(lp158
S':'
asbag56
(g77
g58
NtRp159
(dp160
g61
(dp161
sg70
g146
sg63
(lp162
g56
(g57
g58
NtRp163
(dp164
g61
(dp165
g69
I5
ssg70
g159
sg63
(lp166
S'<cStringIO.StringO object at 0x03935600>'
p167
asbasbasbag56
(g72
g58
NtRp168
(dp169
g61
(dp170
sg70
g66
sg63
(lp171
g56
(g77
g58
NtRp172
(dp173
g61
(dp174
g81
g82
ssg70
g168
sg63
(lp175
S'client'
p176
asbag56
(g77
g58
NtRp177
(dp178
g61
(dp179
g88
g89
ssg70
g168
sg63
(lp180
S':'
asbag56
(g77
g58
NtRp181
(dp182
g61
(dp183
sg70
g168
sg63
(lp184
g56
(g57
g58
NtRp185
(dp186
g61
(dp187
g69
I5
ssg70
g181
sg63
(lp188
S'127.0.0.1'
p189
asbasbasbag56
(g72
g58
NtRp190
(dp191
g61
(dp192
sg70
g66
sg63
(lp193
g56
(g77
g58
NtRp194
(dp195
g61
(dp196
g81
g82
ssg70
g190
sg63
(lp197
S'controller'
p198
asbag56
(g77
g58
NtRp199
(dp200
g61
(dp201
g88
g89
ssg70
g190
sg63
(lp202
S':'
asbag56
(g77
g58
NtRp203
(dp204
g61
(dp205
sg70
g190
sg63
(lp206
g56
(g57
g58
NtRp207
(dp208
g61
(dp209
g69
I5
ssg70
g203
sg63
(lp210
S'default'
p211
asbasbasbag56
(g72
g58
NtRp212
(dp213
g61
(dp214
sg70
g66
sg63
(lp215
g56
(g77
g58
NtRp216
(dp217
g61
(dp218
g81
g82
ssg70
g212
sg63
(lp219
S'cookies'
p220
asbag56
(g77
g58
NtRp221
(dp222
g61
(dp223
g88
g89
ssg70
g212
sg63
(lp224
S':'
asbag56
(g77
g58
NtRp225
(dp226
g61
(dp227
sg70
g212
sg63
(lp228
g56
(g57
g58
NtRp229
(dp230
g61
(dp231
g69
I5
ssg70
g225
sg63
(lp232
g56
(g65
g58
NtRp233
(dp234
g61
(dp235
g69
I4
ssg70
Nsg63
(lp236
sbasbasbasbag56
(g72
g58
NtRp237
(dp238
g61
(dp239
sg70
g66
sg63
(lp240
g56
(g77
g58
NtRp241
(dp242
g61
(dp243
g81
g82
ssg70
g237
sg63
(lp244
S'env'
p245
asbag56
(g77
g58
NtRp246
(dp247
g61
(dp248
g88
g89
ssg70
g237
sg63
(lp249
S':'
asbag56
(g77
g58
NtRp250
(dp251
g61
(dp252
sg70
g237
sg63
(lp253
g56
(g57
g58
NtRp254
(dp255
g61
(dp256
g69
I5
ssg70
g250
sg63
(lp257
g56
(g65
g58
NtRp258
(dp259
g61
(dp260
g69
I4
ssg70
Nsg63
(lp261
g56
(g72
g58
NtRp262
(dp263
g61
(dp264
sg70
g258
sg63
(lp265
g56
(g77
g58
NtRp266
(dp267
g61
(dp268
g81
g82
ssg70
g262
sg63
(lp269
S'app_folders'
p270
asbag56
(g77
g58
NtRp271
(dp272
g61
(dp273
g88
g89
ssg70
g262
sg63
(lp274
S':'
asbag56
(g77
g58
NtRp275
(dp276
g61
(dp277
sg70
g262
sg63
(lp278
g56
(g57
g58
NtRp279
(dp280
g61
(dp281
g69
I4
ssg70
g275
sg63
(lp282
S"set(['D:\\\\Workbench\\\\web2py_src\\\\applications\\\\compound_interest\\\\'])"
p283
asbasbasbag56
(g72
g58
NtRp284
(dp285
g61
(dp286
sg70
g258
sg63
(lp287
g56
(g77
g58
NtRp288
(dp289
g61
(dp290
g81
g82
ssg70
g284
sg63
(lp291
S'applications_parent'
p292
asbag56
(g77
g58
NtRp293
(dp294
g61
(dp295
g88
g89
ssg70
g284
sg63
(lp296
S':'
asbag56
(g77
g58
NtRp297
(dp298
g61
(dp299
sg70
g284
sg63
(lp300
g56
(g57
g58
NtRp301
(dp302
g61
(dp303
g69
I4
ssg70
g297
sg63
(lp304
S'D:\\Workbench\\web2py_src'
p305
asbasbasbag56
(g72
g58
NtRp306
(dp307
g61
(dp308
sg70
g258
sg63
(lp309
g56
(g77
g58
NtRp310
(dp311
g61
(dp312
g81
g82
ssg70
g306
sg63
(lp313
S'comspec'
p314
asbag56
(g77
g58
NtRp315
(dp316
g61
(dp317
g88
g89
ssg70
g306
sg63
(lp318
S':'
asbag56
(g77
g58
NtRp319
(dp320
g61
(dp321
sg70
g306
sg63
(lp322
g56
(g57
g58
NtRp323
(dp324
g61
(dp325
g69
I4
ssg70
g319
sg63
(lp326
S'C:\\Windows\\system32\\cmd.exe'
p327
asbasbasbag56
(g72
g58
NtRp328
(dp329
g61
(dp330
sg70
g258
sg63
(lp331
g56
(g77
g58
NtRp332
(dp333
g61
(dp334
g81
g82
ssg70
g328
sg63
(lp335
S'db_sessions'
p336
asbag56
(g77
g58
NtRp337
(dp338
g61
(dp339
g88
g89
ssg70
g328
sg63
(lp340
S':'
asbag56
(g77
g58
NtRp341
(dp342
g61
(dp343
sg70
g328
sg63
(lp344
g56
(g57
g58
NtRp345
(dp346
g61
(dp347
g69
I4
ssg70
g341
sg63
(lp348
S'set([])'
p349
asbasbasbag56
(g72
g58
NtRp350
(dp351
g61
(dp352
sg70
g258
sg63
(lp353
g56
(g77
g58
NtRp354
(dp355
g61
(dp356
g81
g82
ssg70
g350
sg63
(lp357
S'debugging'
p358
asbag56
(g77
g58
NtRp359
(dp360
g61
(dp361
g88
g89
ssg70
g350
sg63
(lp362
S':'
asbag56
(g77
g58
NtRp363
(dp364
g61
(dp365
sg70
g350
sg63
(lp366
g56
(g57
g58
NtRp367
(dp368
g61
(dp369
g69
I4
ssg70
g363
sg63
(lp370
g99
asbasbasbag56
(g72
g58
NtRp371
(dp372
g61
(dp373
sg70
g258
sg63
(lp374
g56
(g77
g58
NtRp375
(dp376
g61
(dp377
g81
g82
ssg70
g371
sg63
(lp378
S'document_root'
p379
asbag56
(g77
g58
NtRp380
(dp381
g61
(dp382
g88
g89
ssg70
g371
sg63
(lp383
S':'
asbag56
(g77
g58
NtRp384
(dp385
g61
(dp386
sg70
g371
sg63
(lp387
g56
(g57
g58
NtRp388
(dp389
g61
(dp390
g69
I4
ssg70
g384
sg63
(lp391
S'D:/Workbench/documentroot'
p392
asbasbasbag56
(g72
g58
NtRp393
(dp394
g61
(dp395
sg70
g258
sg63
(lp396
g56
(g77
g58
NtRp397
(dp398
g61
(dp399
g81
g82
ssg70
g393
sg63
(lp400
S'gateway_interface'
p401
asbag56
(g77
g58
NtRp402
(dp403
g61
(dp404
g88
g89
ssg70
g393
sg63
(lp405
S':'
asbag56
(g77
g58
NtRp406
(dp407
g61
(dp408
sg70
g393
sg63
(lp409
g56
(g57
g58
NtRp410
(dp411
g61
(dp412
g69
I4
ssg70
g406
sg63
(lp413
S'CGI/1.1'
p414
asbasbasbag56
(g72
g58
NtRp415
(dp416
g61
(dp417
sg70
g258
sg63
(lp418
g56
(g77
g58
NtRp419
(dp420
g61
(dp421
g81
g82
ssg70
g415
sg63
(lp422
S'gluon_parent'
p423
asbag56
(g77
g58
NtRp424
(dp425
g61
(dp426
g88
g89
ssg70
g415
sg63
(lp427
S':'
asbag56
(g77
g58
NtRp428
(dp429
g61
(dp430
sg70
g415
sg63
(lp431
g56
(g57
g58
NtRp432
(dp433
g61
(dp434
g69
I4
ssg70
g428
sg63
(lp435
g305
asbasbasbag56
(g72
g58
NtRp436
(dp437
g61
(dp438
sg70
g258
sg63
(lp439
g56
(g77
g58
NtRp440
(dp441
g61
(dp442
g81
g82
ssg70
g436
sg63
(lp443
S'http_accept'
p444
asbag56
(g77
g58
NtRp445
(dp446
g61
(dp447
g88
g89
ssg70
g436
sg63
(lp448
S':'
asbag56
(g77
g58
NtRp449
(dp450
g61
(dp451
sg70
g436
sg63
(lp452
g56
(g57
g58
NtRp453
(dp454
g61
(dp455
g69
I4
ssg70
g449
sg63
(lp456
S'text/html,application/xhtml+xml,application/xml;q=0.9,*/*;q=0.8'
p457
asbasbasbag56
(g72
g58
NtRp458
(dp459
g61
(dp460
sg70
g258
sg63
(lp461
g56
(g77
g58
NtRp462
(dp463
g61
(dp464
g81
g82
ssg70
g458
sg63
(lp465
S'http_accept_charset'
p466
asbag56
(g77
g58
NtRp467
(dp468
g61
(dp469
g88
g89
ssg70
g458
sg63
(lp470
S':'
asbag56
(g77
g58
NtRp471
(dp472
g61
(dp473
sg70
g458
sg63
(lp474
g56
(g57
g58
NtRp475
(dp476
g61
(dp477
g69
I4
ssg70
g471
sg63
(lp478
S'GBK,utf-8;q=0.7,*;q=0.3'
p479
asbasbasbag56
(g72
g58
NtRp480
(dp481
g61
(dp482
sg70
g258
sg63
(lp483
g56
(g77
g58
NtRp484
(dp485
g61
(dp486
g81
g82
ssg70
g480
sg63
(lp487
S'http_accept_encoding'
p488
asbag56
(g77
g58
NtRp489
(dp490
g61
(dp491
g88
g89
ssg70
g480
sg63
(lp492
S':'
asbag56
(g77
g58
NtRp493
(dp494
g61
(dp495
sg70
g480
sg63
(lp496
g56
(g57
g58
NtRp497
(dp498
g61
(dp499
g69
I4
ssg70
g493
sg63
(lp500
S'gzip,deflate,sdch'
p501
asbasbasbag56
(g72
g58
NtRp502
(dp503
g61
(dp504
sg70
g258
sg63
(lp505
g56
(g77
g58
NtRp506
(dp507
g61
(dp508
g81
g82
ssg70
g502
sg63
(lp509
S'http_accept_language'
p510
asbag56
(g77
g58
NtRp511
(dp512
g61
(dp513
g88
g89
ssg70
g502
sg63
(lp514
S':'
asbag56
(g77
g58
NtRp515
(dp516
g61
(dp517
sg70
g502
sg63
(lp518
g56
(g57
g58
NtRp519
(dp520
g61
(dp521
g69
I4
ssg70
g515
sg63
(lp522
S'zh-CN,zh;q=0.8'
p523
asbasbasbag56
(g72
g58
NtRp524
(dp525
g61
(dp526
sg70
g258
sg63
(lp527
g56
(g77
g58
NtRp528
(dp529
g61
(dp530
g81
g82
ssg70
g524
sg63
(lp531
S'http_connection'
p532
asbag56
(g77
g58
NtRp533
(dp534
g61
(dp535
g88
g89
ssg70
g524
sg63
(lp536
S':'
asbag56
(g77
g58
NtRp537
(dp538
g61
(dp539
sg70
g524
sg63
(lp540
g56
(g57
g58
NtRp541
(dp542
g61
(dp543
g69
I4
ssg70
g537
sg63
(lp544
S'keep-alive'
p545
asbasbasbag56
(g72
g58
NtRp546
(dp547
g61
(dp548
sg70
g258
sg63
(lp549
g56
(g77
g58
NtRp550
(dp551
g61
(dp552
g81
g82
ssg70
g546
sg63
(lp553
S'http_host'
p554
asbag56
(g77
g58
NtRp555
(dp556
g61
(dp557
g88
g89
ssg70
g546
sg63
(lp558
S':'
asbag56
(g77
g58
NtRp559
(dp560
g61
(dp561
sg70
g546
sg63
(lp562
g56
(g57
g58
NtRp563
(dp564
g61
(dp565
g69
I4
ssg70
g559
sg63
(lp566
S'localhost'
p567
asbasbasbag56
(g72
g58
NtRp568
(dp569
g61
(dp570
sg70
g258
sg63
(lp571
g56
(g77
g58
NtRp572
(dp573
g61
(dp574
g81
g82
ssg70
g568
sg63
(lp575
S'http_user_agent'
p576
asbag56
(g77
g58
NtRp577
(dp578
g61
(dp579
g88
g89
ssg70
g568
sg63
(lp580
S':'
asbag56
(g77
g58
NtRp581
(dp582
g61
(dp583
sg70
g568
sg63
(lp584
g56
(g57
g58
NtRp585
(dp586
g61
(dp587
g69
I4
ssg70
g581
sg63
(lp588
S'Mozilla/5.0 (Windows NT 6.1) AppleWebKit/535.7 (KHTML, like Gecko) Chrome/16.0.912.63 Safari/535.7'
p589
asbasbasbag56
(g72
g58
NtRp590
(dp591
g61
(dp592
sg70
g258
sg63
(lp593
g56
(g77
g58
NtRp594
(dp595
g61
(dp596
g81
g82
ssg70
g590
sg63
(lp597
S'is_jython'
p598
asbag56
(g77
g58
NtRp599
(dp600
g61
(dp601
g88
g89
ssg70
g590
sg63
(lp602
S':'
asbag56
(g77
g58
NtRp603
(dp604
g61
(dp605
sg70
g590
sg63
(lp606
g56
(g57
g58
NtRp607
(dp608
g61
(dp609
g69
I4
ssg70
g603
sg63
(lp610
g99
asbasbasbag56
(g72
g58
NtRp611
(dp612
g61
(dp613
sg70
g258
sg63
(lp614
g56
(g77
g58
NtRp615
(dp616
g61
(dp617
g81
g82
ssg70
g611
sg63
(lp618
S'mod_wsgi_application_group'
p619
asbag56
(g77
g58
NtRp620
(dp621
g61
(dp622
g88
g89
ssg70
g611
sg63
(lp623
S':'
asbag56
(g77
g58
NtRp624
(dp625
g61
(dp626
sg70
g611
sg63
(lp627
g56
(g57
g58
NtRp628
(dp629
g61
(dp630
g69
I4
ssg70
g624
sg63
(lp631
S'XIAOFTANG-NB.tencent.com|'
p632
asbasbasbag56
(g72
g58
NtRp633
(dp634
g61
(dp635
sg70
g258
sg63
(lp636
g56
(g77
g58
NtRp637
(dp638
g61
(dp639
g81
g82
ssg70
g633
sg63
(lp640
S'mod_wsgi_callable_object'
p641
asbag56
(g77
g58
NtRp642
(dp643
g61
(dp644
g88
g89
ssg70
g633
sg63
(lp645
S':'
asbag56
(g77
g58
NtRp646
(dp647
g61
(dp648
sg70
g633
sg63
(lp649
g56
(g57
g58
NtRp650
(dp651
g61
(dp652
g69
I4
ssg70
g646
sg63
(lp653
S'application'
p654
asbasbasbag56
(g72
g58
NtRp655
(dp656
g61
(dp657
sg70
g258
sg63
(lp658
g56
(g77
g58
NtRp659
(dp660
g61
(dp661
g81
g82
ssg70
g655
sg63
(lp662
S'mod_wsgi_handler_script'
p663
asbag56
(g77
g58
NtRp664
(dp665
g61
(dp666
g88
g89
ssg70
g655
sg63
(lp667
S':'
asbag56
(g77
g58
NtRp668
(dp669
g61
(dp670
sg70
g655
sg63
(lp671
g56
(g57
g58
NtRp672
(dp673
g61
(dp674
g69
I4
ssg70
g668
sg63
(lp675
S''
asbasbasbag56
(g72
g58
NtRp676
(dp677
g61
(dp678
sg70
g258
sg63
(lp679
g56
(g77
g58
NtRp680
(dp681
g61
(dp682
g81
g82
ssg70
g676
sg63
(lp683
S'mod_wsgi_input_chunked'
p684
asbag56
(g77
g58
NtRp685
(dp686
g61
(dp687
g88
g89
ssg70
g676
sg63
(lp688
S':'
asbag56
(g77
g58
NtRp689
(dp690
g61
(dp691
sg70
g676
sg63
(lp692
g56
(g57
g58
NtRp693
(dp694
g61
(dp695
g69
I4
ssg70
g689
sg63
(lp696
S'0'
asbasbasbag56
(g72
g58
NtRp697
(dp698
g61
(dp699
sg70
g258
sg63
(lp700
g56
(g77
g58
NtRp701
(dp702
g61
(dp703
g81
g82
ssg70
g697
sg63
(lp704
S'mod_wsgi_process_group'
p705
asbag56
(g77
g58
NtRp706
(dp707
g61
(dp708
g88
g89
ssg70
g697
sg63
(lp709
S':'
asbag56
(g77
g58
NtRp710
(dp711
g61
(dp712
sg70
g697
sg63
(lp713
g56
(g57
g58
NtRp714
(dp715
g61
(dp716
g69
I4
ssg70
g710
sg63
(lp717
S''
asbasbasbag56
(g72
g58
NtRp718
(dp719
g61
(dp720
sg70
g258
sg63
(lp721
g56
(g77
g58
NtRp722
(dp723
g61
(dp724
g81
g82
ssg70
g718
sg63
(lp725
S'mod_wsgi_request_handler'
p726
asbag56
(g77
g58
NtRp727
(dp728
g61
(dp729
g88
g89
ssg70
g718
sg63
(lp730
S':'
asbag56
(g77
g58
NtRp731
(dp732
g61
(dp733
sg70
g718
sg63
(lp734
g56
(g57
g58
NtRp735
(dp736
g61
(dp737
g69
I4
ssg70
g731
sg63
(lp738
S'wsgi-script'
p739
asbasbasbag56
(g72
g58
NtRp740
(dp741
g61
(dp742
sg70
g258
sg63
(lp743
g56
(g77
g58
NtRp744
(dp745
g61
(dp746
g81
g82
ssg70
g740
sg63
(lp747
S'mod_wsgi_script_reloading'
p748
asbag56
(g77
g58
NtRp749
(dp750
g61
(dp751
g88
g89
ssg70
g740
sg63
(lp752
S':'
asbag56
(g77
g58
NtRp753
(dp754
g61
(dp755
sg70
g740
sg63
(lp756
g56
(g57
g58
NtRp757
(dp758
g61
(dp759
g69
I4
ssg70
g753
sg63
(lp760
S'1'
asbasbasbag56
(g72
g58
NtRp761
(dp762
g61
(dp763
sg70
g258
sg63
(lp764
g56
(g77
g58
NtRp765
(dp766
g61
(dp767
g81
g82
ssg70
g761
sg63
(lp768
S'mod_wsgi_version'
p769
asbag56
(g77
g58
NtRp770
(dp771
g61
(dp772
g88
g89
ssg70
g761
sg63
(lp773
S':'
asbag56
(g77
g58
NtRp774
(dp775
g61
(dp776
sg70
g761
sg63
(lp777
g56
(g57
g58
NtRp778
(dp779
g61
(dp780
g69
I4
ssg70
g774
sg63
(lp781
g56
(g65
g58
NtRp782
(dp783
g61
(dp784
g69
I3
ssg70
Nsg63
(lp785
g56
(g72
g58
NtRp786
(dp787
g61
(dp788
sg70
g782
sg63
(lp789
g56
(g77
g58
NtRp790
(dp791
g61
(dp792
sg70
g786
sg63
(lp793
g56
(g57
g58
NtRp794
(dp795
g61
(dp796
g69
I3
ssg70
g790
sg63
(lp797
S'3'
asbasbasbag56
(g72
g58
NtRp798
(dp799
g61
(dp800
sg70
g782
sg63
(lp801
g56
(g77
g58
NtRp802
(dp803
g61
(dp804
sg70
g798
sg63
(lp805
g56
(g57
g58
NtRp806
(dp807
g61
(dp808
g69
I3
ssg70
g802
sg63
(lp809
S'3'
asbasbasbasbasbasbasbag56
(g72
g58
NtRp810
(dp811
g61
(dp812
sg70
g258
sg63
(lp813
g56
(g77
g58
NtRp814
(dp815
g61
(dp816
g81
g82
ssg70
g810
sg63
(lp817
S'path_info'
p818
asbag56
(g77
g58
NtRp819
(dp820
g61
(dp821
g88
g89
ssg70
g810
sg63
(lp822
S':'
asbag56
(g77
g58
NtRp823
(dp824
g61
(dp825
sg70
g810
sg63
(lp826
g56
(g57
g58
NtRp827
(dp828
g61
(dp829
g69
I4
ssg70
g823
sg63
(lp830
S'/compound_interest/default/index'
p831
asbasbasbag56
(g72
g58
NtRp832
(dp833
g61
(dp834
sg70
g258
sg63
(lp835
g56
(g77
g58
NtRp836
(dp837
g61
(dp838
g81
g82
ssg70
g832
sg63
(lp839
S'path_translated'
p840
asbag56
(g77
g58
NtRp841
(dp842
g61
(dp843
g88
g89
ssg70
g832
sg63
(lp844
S':'
asbag56
(g77
g58
NtRp845
(dp846
g61
(dp847
sg70
g832
sg63
(lp848
g56
(g57
g58
NtRp849
(dp850
g61
(dp851
g69
I4
ssg70
g845
sg63
(lp852
S'D:\\Workbench\\web2py_src\\wsgihandler.py\\compound_interest\\default\\index'
p853
asbasbasbag56
(g72
g58
NtRp854
(dp855
g61
(dp856
sg70
g258
sg63
(lp857
g56
(g77
g58
NtRp858
(dp859
g61
(dp860
g81
g82
ssg70
g854
sg63
(lp861
S'pathext'
p862
asbag56
(g77
g58
NtRp863
(dp864
g61
(dp865
g88
g89
ssg70
g854
sg63
(lp866
S':'
asbag56
(g77
g58
NtRp867
(dp868
g61
(dp869
sg70
g854
sg63
(lp870
g56
(g57
g58
NtRp871
(dp872
g61
(dp873
g69
I4
ssg70
g867
sg63
(lp874
S'.COM;.EXE;.BAT;.CMD;.VBS;.VBE;.JS;.JSE;.WSF;.WSH;.MSC;.py;.pyw'
p875
asbasbasbag56
(g72
g58
NtRp876
(dp877
g61
(dp878
sg70
g258
sg63
(lp879
g56
(g77
g58
NtRp880
(dp881
g61
(dp882
g81
g82
ssg70
g876
sg63
(lp883
S'query_string'
p884
asbag56
(g77
g58
NtRp885
(dp886
g61
(dp887
g88
g89
ssg70
g876
sg63
(lp888
S':'
asbag56
(g77
g58
NtRp889
(dp890
g61
(dp891
sg70
g876
sg63
(lp892
g56
(g57
g58
NtRp893
(dp894
g61
(dp895
g69
I4
ssg70
g889
sg63
(lp896
S''
asbasbasbag56
(g72
g58
NtRp897
(dp898
g61
(dp899
sg70
g258
sg63
(lp900
g56
(g77
g58
NtRp901
(dp902
g61
(dp903
g81
g82
ssg70
g897
sg63
(lp904
S'remote_addr'
p905
asbag56
(g77
g58
NtRp906
(dp907
g61
(dp908
g88
g89
ssg70
g897
sg63
(lp909
S':'
asbag56
(g77
g58
NtRp910
(dp911
g61
(dp912
sg70
g897
sg63
(lp913
g56
(g57
g58
NtRp914
(dp915
g61
(dp916
g69
I4
ssg70
g910
sg63
(lp917
g189
asbasbasbag56
(g72
g58
NtRp918
(dp919
g61
(dp920
sg70
g258
sg63
(lp921
g56
(g77
g58
NtRp922
(dp923
g61
(dp924
g81
g82
ssg70
g918
sg63
(lp925
S'remote_port'
p926
asbag56
(g77
g58
NtRp927
(dp928
g61
(dp929
g88
g89
ssg70
g918
sg63
(lp930
S':'
asbag56
(g77
g58
NtRp931
(dp932
g61
(dp933
sg70
g918
sg63
(lp934
g56
(g57
g58
NtRp935
(dp936
g61
(dp937
g69
I4
ssg70
g931
sg63
(lp938
S'60913'
p939
asbasbasbag56
(g72
g58
NtRp940
(dp941
g61
(dp942
sg70
g258
sg63
(lp943
g56
(g77
g58
NtRp944
(dp945
g61
(dp946
g81
g82
ssg70
g940
sg63
(lp947
S'request_method'
p948
asbag56
(g77
g58
NtRp949
(dp950
g61
(dp951
g88
g89
ssg70
g940
sg63
(lp952
S':'
asbag56
(g77
g58
NtRp953
(dp954
g61
(dp955
sg70
g940
sg63
(lp956
g56
(g57
g58
NtRp957
(dp958
g61
(dp959
g69
I4
ssg70
g953
sg63
(lp960
S'GET'
p961
asbasbasbag56
(g72
g58
NtRp962
(dp963
g61
(dp964
sg70
g258
sg63
(lp965
g56
(g77
g58
NtRp966
(dp967
g61
(dp968
g81
g82
ssg70
g962
sg63
(lp969
S'request_uri'
p970
asbag56
(g77
g58
NtRp971
(dp972
g61
(dp973
g88
g89
ssg70
g962
sg63
(lp974
S':'
asbag56
(g77
g58
NtRp975
(dp976
g61
(dp977
sg70
g962
sg63
(lp978
g56
(g57
g58
NtRp979
(dp980
g61
(dp981
g69
I4
ssg70
g975
sg63
(lp982
S'/compound_interest/default/index'
p983
asbasbasbag56
(g72
g58
NtRp984
(dp985
g61
(dp986
sg70
g258
sg63
(lp987
g56
(g77
g58
NtRp988
(dp989
g61
(dp990
g81
g82
ssg70
g984
sg63
(lp991
S'script_filename'
p992
asbag56
(g77
g58
NtRp993
(dp994
g61
(dp995
g88
g89
ssg70
g984
sg63
(lp996
S':'
asbag56
(g77
g58
NtRp997
(dp998
g61
(dp999
sg70
g984
sg63
(lp1000
g56
(g57
g58
NtRp1001
(dp1002
g61
(dp1003
g69
I4
ssg70
g997
sg63
(lp1004
S'D:/Workbench/web2py_src/wsgihandler.py'
p1005
asbasbasbag56
(g72
g58
NtRp1006
(dp1007
g61
(dp1008
sg70
g258
sg63
(lp1009
g56
(g77
g58
NtRp1010
(dp1011
g61
(dp1012
g81
g82
ssg70
g1006
sg63
(lp1013
S'script_name'
p1014
asbag56
(g77
g58
NtRp1015
(dp1016
g61
(dp1017
g88
g89
ssg70
g1006
sg63
(lp1018
S':'
asbag56
(g77
g58
NtRp1019
(dp1020
g61
(dp1021
sg70
g1006
sg63
(lp1022
g56
(g57
g58
NtRp1023
(dp1024
g61
(dp1025
g69
I4
ssg70
g1019
sg63
(lp1026
S''
asbasbasbag56
(g72
g58
NtRp1027
(dp1028
g61
(dp1029
sg70
g258
sg63
(lp1030
g56
(g77
g58
NtRp1031
(dp1032
g61
(dp1033
g81
g82
ssg70
g1027
sg63
(lp1034
S'server_addr'
p1035
asbag56
(g77
g58
NtRp1036
(dp1037
g61
(dp1038
g88
g89
ssg70
g1027
sg63
(lp1039
S':'
asbag56
(g77
g58
NtRp1040
(dp1041
g61
(dp1042
sg70
g1027
sg63
(lp1043
g56
(g57
g58
NtRp1044
(dp1045
g61
(dp1046
g69
I4
ssg70
g1040
sg63
(lp1047
S'127.0.0.1'
p1048
asbasbasbag56
(g72
g58
NtRp1049
(dp1050
g61
(dp1051
sg70
g258
sg63
(lp1052
g56
(g77
g58
NtRp1053
(dp1054
g61
(dp1055
g81
g82
ssg70
g1049
sg63
(lp1056
S'server_admin'
p1057
asbag56
(g77
g58
NtRp1058
(dp1059
g61
(dp1060
g88
g89
ssg70
g1049
sg63
(lp1061
S':'
asbag56
(g77
g58
NtRp1062
(dp1063
g61
(dp1064
sg70
g1049
sg63
(lp1065
g56
(g57
g58
NtRp1066
(dp1067
g61
(dp1068
g69
I4
ssg70
g1062
sg63
(lp1069
S'admin@tencent.com'
p1070
asbasbasbag56
(g72
g58
NtRp1071
(dp1072
g61
(dp1073
sg70
g258
sg63
(lp1074
g56
(g77
g58
NtRp1075
(dp1076
g61
(dp1077
g81
g82
ssg70
g1071
sg63
(lp1078
S'server_name'
p1079
asbag56
(g77
g58
NtRp1080
(dp1081
g61
(dp1082
g88
g89
ssg70
g1071
sg63
(lp1083
S':'
asbag56
(g77
g58
NtRp1084
(dp1085
g61
(dp1086
sg70
g1071
sg63
(lp1087
g56
(g57
g58
NtRp1088
(dp1089
g61
(dp1090
g69
I4
ssg70
g1084
sg63
(lp1091
S'localhost'
p1092
asbasbasbag56
(g72
g58
NtRp1093
(dp1094
g61
(dp1095
sg70
g258
sg63
(lp1096
g56
(g77
g58
NtRp1097
(dp1098
g61
(dp1099
g81
g82
ssg70
g1093
sg63
(lp1100
S'server_port'
p1101
asbag56
(g77
g58
NtRp1102
(dp1103
g61
(dp1104
g88
g89
ssg70
g1093
sg63
(lp1105
S':'
asbag56
(g77
g58
NtRp1106
(dp1107
g61
(dp1108
sg70
g1093
sg63
(lp1109
g56
(g57
g58
NtRp1110
(dp1111
g61
(dp1112
g69
I4
ssg70
g1106
sg63
(lp1113
S'80'
p1114
asbasbasbag56
(g72
g58
NtRp1115
(dp1116
g61
(dp1117
sg70
g258
sg63
(lp1118
g56
(g77
g58
NtRp1119
(dp1120
g61
(dp1121
g81
g82
ssg70
g1115
sg63
(lp1122
S'server_protocol'
p1123
asbag56
(g77
g58
NtRp1124
(dp1125
g61
(dp1126
g88
g89
ssg70
g1115
sg63
(lp1127
S':'
asbag56
(g77
g58
NtRp1128
(dp1129
g61
(dp1130
sg70
g1115
sg63
(lp1131
g56
(g57
g58
NtRp1132
(dp1133
g61
(dp1134
g69
I4
ssg70
g1128
sg63
(lp1135
S'HTTP/1.1'
p1136
asbasbasbag56
(g72
g58
NtRp1137
(dp1138
g61
(dp1139
sg70
g258
sg63
(lp1140
g56
(g77
g58
NtRp1141
(dp1142
g61
(dp1143
g81
g82
ssg70
g1137
sg63
(lp1144
S'server_signature'
p1145
asbag56
(g77
g58
NtRp1146
(dp1147
g61
(dp1148
g88
g89
ssg70
g1137
sg63
(lp1149
S':'
asbag56
(g77
g58
NtRp1150
(dp1151
g61
(dp1152
sg70
g1137
sg63
(lp1153
g56
(g57
g58
NtRp1154
(dp1155
g61
(dp1156
g69
I4
ssg70
g1150
sg63
(lp1157
S''
asbasbasbag56
(g72
g58
NtRp1158
(dp1159
g61
(dp1160
sg70
g258
sg63
(lp1161
g56
(g77
g58
NtRp1162
(dp1163
g61
(dp1164
g81
g82
ssg70
g1158
sg63
(lp1165
S'server_software'
p1166
asbag56
(g77
g58
NtRp1167
(dp1168
g61
(dp1169
g88
g89
ssg70
g1158
sg63
(lp1170
S':'
asbag56
(g77
g58
NtRp1171
(dp1172
g61
(dp1173
sg70
g1158
sg63
(lp1174
g56
(g57
g58
NtRp1175
(dp1176
g61
(dp1177
g69
I4
ssg70
g1171
sg63
(lp1178
S'Apache/2.2.21 (Win32) PHP/5.2.17 mod_wsgi/3.3 Python/2.7.2'
p1179
asbasbasbag56
(g72
g58
NtRp1180
(dp1181
g61
(dp1182
sg70
g258
sg63
(lp1183
g56
(g77
g58
NtRp1184
(dp1185
g61
(dp1186
g81
g82
ssg70
g1180
sg63
(lp1187
S'systemroot'
p1188
asbag56
(g77
g58
NtRp1189
(dp1190
g61
(dp1191
g88
g89
ssg70
g1180
sg63
(lp1192
S':'
asbag56
(g77
g58
NtRp1193
(dp1194
g61
(dp1195
sg70
g1180
sg63
(lp1196
g56
(g57
g58
NtRp1197
(dp1198
g61
(dp1199
g69
I4
ssg70
g1193
sg63
(lp1200
S'C:\\Windows'
p1201
asbasbasbag56
(g72
g58
NtRp1202
(dp1203
g61
(dp1204
sg70
g258
sg63
(lp1205
g56
(g77
g58
NtRp1206
(dp1207
g61
(dp1208
g81
g82
ssg70
g1202
sg63
(lp1209
S'web2py_path'
p1210
asbag56
(g77
g58
NtRp1211
(dp1212
g61
(dp1213
g88
g89
ssg70
g1202
sg63
(lp1214
S':'
asbag56
(g77
g58
NtRp1215
(dp1216
g61
(dp1217
sg70
g1202
sg63
(lp1218
g56
(g57
g58
NtRp1219
(dp1220
g61
(dp1221
g69
I4
ssg70
g1215
sg63
(lp1222
g305
asbasbasbag56
(g72
g58
NtRp1223
(dp1224
g61
(dp1225
sg70
g258
sg63
(lp1226
g56
(g77
g58
NtRp1227
(dp1228
g61
(dp1229
g81
g82
ssg70
g1223
sg63
(lp1230
S'web2py_version'
p1231
asbag56
(g77
g58
NtRp1232
(dp1233
g61
(dp1234
g88
g89
ssg70
g1223
sg63
(lp1235
S':'
asbag56
(g77
g58
NtRp1236
(dp1237
g61
(dp1238
sg70
g1223
sg63
(lp1239
g56
(g57
g58
NtRp1240
(dp1241
g61
(dp1242
g69
I4
ssg70
g1236
sg63
(lp1243
g56
(g65
g58
NtRp1244
(dp1245
g61
(dp1246
g69
I3
ssg70
Nsg63
(lp1247
g56
(g72
g58
NtRp1248
(dp1249
g61
(dp1250
sg70
g1244
sg63
(lp1251
g56
(g77
g58
NtRp1252
(dp1253
g61
(dp1254
sg70
g1248
sg63
(lp1255
g56
(g57
g58
NtRp1256
(dp1257
g61
(dp1258
g69
I3
ssg70
g1252
sg63
(lp1259
S'1'
asbasbasbag56
(g72
g58
NtRp1260
(dp1261
g61
(dp1262
sg70
g1244
sg63
(lp1263
g56
(g77
g58
NtRp1264
(dp1265
g61
(dp1266
sg70
g1260
sg63
(lp1267
g56
(g57
g58
NtRp1268
(dp1269
g61
(dp1270
g69
I3
ssg70
g1264
sg63
(lp1271
S'99'
p1272
asbasbasbag56
(g72
g58
NtRp1273
(dp1274
g61
(dp1275
sg70
g1244
sg63
(lp1276
g56
(g77
g58
NtRp1277
(dp1278
g61
(dp1279
sg70
g1273
sg63
(lp1280
g56
(g57
g58
NtRp1281
(dp1282
g61
(dp1283
g69
I3
ssg70
g1277
sg63
(lp1284
S'2'
asbasbasbag56
(g72
g58
NtRp1285
(dp1286
g61
(dp1287
sg70
g1244
sg63
(lp1288
g56
(g77
g58
NtRp1289
(dp1290
g61
(dp1291
sg70
g1285
sg63
(lp1292
g56
(g57
g58
NtRp1293
(dp1294
g61
(dp1295
g69
I3
ssg70
g1289
sg63
(lp1296
S'datetime.datetime(2011, 9, 26, 6, 55, 33)'
p1297
asbasbasbag56
(g72
g58
NtRp1298
(dp1299
g61
(dp1300
sg70
g1244
sg63
(lp1301
g56
(g77
g58
NtRp1302
(dp1303
g61
(dp1304
sg70
g1298
sg63
(lp1305
g56
(g57
g58
NtRp1306
(dp1307
g61
(dp1308
g69
I3
ssg70
g1302
sg63
(lp1309
S'stable'
p1310
asbasbasbasbasbasbasbag56
(g72
g58
NtRp1311
(dp1312
g61
(dp1313
sg70
g258
sg63
(lp1314
g56
(g77
g58
NtRp1315
(dp1316
g61
(dp1317
g81
g82
ssg70
g1311
sg63
(lp1318
S'windir'
p1319
asbag56
(g77
g58
NtRp1320
(dp1321
g61
(dp1322
g88
g89
ssg70
g1311
sg63
(lp1323
S':'
asbag56
(g77
g58
NtRp1324
(dp1325
g61
(dp1326
sg70
g1311
sg63
(lp1327
g56
(g57
g58
NtRp1328
(dp1329
g61
(dp1330
g69
I4
ssg70
g1324
sg63
(lp1331
S'C:\\Windows'
p1332
asbasbasbag56
(g72
g58
NtRp1333
(dp1334
g61
(dp1335
sg70
g258
sg63
(lp1336
g56
(g77
g58
NtRp1337
(dp1338
g61
(dp1339
g81
g82
ssg70
g1333
sg63
(lp1340
S'wsgi_errors'
p1341
asbag56
(g77
g58
NtRp1342
(dp1343
g61
(dp1344
g88
g89
ssg70
g1333
sg63
(lp1345
S':'
asbag56
(g77
g58
NtRp1346
(dp1347
g61
(dp1348
sg70
g1333
sg63
(lp1349
g56
(g57
g58
NtRp1350
(dp1351
g61
(dp1352
g69
I4
ssg70
g1346
sg63
(lp1353
S'<mod_wsgi.Log object at 0x0385F660>'
p1354
asbasbasbag56
(g72
g58
NtRp1355
(dp1356
g61
(dp1357
sg70
g258
sg63
(lp1358
g56
(g77
g58
NtRp1359
(dp1360
g61
(dp1361
g81
g82
ssg70
g1355
sg63
(lp1362
S'wsgi_file_wrapper'
p1363
asbag56
(g77
g58
NtRp1364
(dp1365
g61
(dp1366
g88
g89
ssg70
g1355
sg63
(lp1367
S':'
asbag56
(g77
g58
NtRp1368
(dp1369
g61
(dp1370
sg70
g1355
sg63
(lp1371
g56
(g57
g58
NtRp1372
(dp1373
g61
(dp1374
g69
I4
ssg70
g1368
sg63
(lp1375
S'<built-in method file_wrapper of mod_wsgi.Adapter object at 0x02368C38>'
p1376
asbasbasbag56
(g72
g58
NtRp1377
(dp1378
g61
(dp1379
sg70
g258
sg63
(lp1380
g56
(g77
g58
NtRp1381
(dp1382
g61
(dp1383
g81
g82
ssg70
g1377
sg63
(lp1384
S'wsgi_input'
p1385
asbag56
(g77
g58
NtRp1386
(dp1387
g61
(dp1388
g88
g89
ssg70
g1377
sg63
(lp1389
S':'
asbag56
(g77
g58
NtRp1390
(dp1391
g61
(dp1392
sg70
g1377
sg63
(lp1393
g56
(g57
g58
NtRp1394
(dp1395
g61
(dp1396
g69
I4
ssg70
g1390
sg63
(lp1397
S'<mod_wsgi.Input object at 0x023F1638>'
p1398
asbasbasbag56
(g72
g58
NtRp1399
(dp1400
g61
(dp1401
sg70
g258
sg63
(lp1402
g56
(g77
g58
NtRp1403
(dp1404
g61
(dp1405
g81
g82
ssg70
g1399
sg63
(lp1406
S'wsgi_multiprocess'
p1407
asbag56
(g77
g58
NtRp1408
(dp1409
g61
(dp1410
g88
g89
ssg70
g1399
sg63
(lp1411
S':'
asbag56
(g77
g58
NtRp1412
(dp1413
g61
(dp1414
sg70
g1399
sg63
(lp1415
g56
(g57
g58
NtRp1416
(dp1417
g61
(dp1418
g69
I4
ssg70
g1412
sg63
(lp1419
g99
asbasbasbag56
(g72
g58
NtRp1420
(dp1421
g61
(dp1422
sg70
g258
sg63
(lp1423
g56
(g77
g58
NtRp1424
(dp1425
g61
(dp1426
g81
g82
ssg70
g1420
sg63
(lp1427
S'wsgi_multithread'
p1428
asbag56
(g77
g58
NtRp1429
(dp1430
g61
(dp1431
g88
g89
ssg70
g1420
sg63
(lp1432
S':'
asbag56
(g77
g58
NtRp1433
(dp1434
g61
(dp1435
sg70
g1420
sg63
(lp1436
g56
(g57
g58
NtRp1437
(dp1438
g61
(dp1439
g69
I4
ssg70
g1433
sg63
(lp1440
S'True'
p1441
asbasbasbag56
(g72
g58
NtRp1442
(dp1443
g61
(dp1444
sg70
g258
sg63
(lp1445
g56
(g77
g58
NtRp1446
(dp1447
g61
(dp1448
g81
g82
ssg70
g1442
sg63
(lp1449
S'wsgi_run_once'
p1450
asbag56
(g77
g58
NtRp1451
(dp1452
g61
(dp1453
g88
g89
ssg70
g1442
sg63
(lp1454
S':'
asbag56
(g77
g58
NtRp1455
(dp1456
g61
(dp1457
sg70
g1442
sg63
(lp1458
g56
(g57
g58
NtRp1459
(dp1460
g61
(dp1461
g69
I4
ssg70
g1455
sg63
(lp1462
g99
asbasbasbag56
(g72
g58
NtRp1463
(dp1464
g61
(dp1465
sg70
g258
sg63
(lp1466
g56
(g77
g58
NtRp1467
(dp1468
g61
(dp1469
g81
g82
ssg70
g1463
sg63
(lp1470
S'wsgi_url_scheme'
p1471
asbag56
(g77
g58
NtRp1472
(dp1473
g61
(dp1474
g88
g89
ssg70
g1463
sg63
(lp1475
S':'
asbag56
(g77
g58
NtRp1476
(dp1477
g61
(dp1478
sg70
g1463
sg63
(lp1479
g56
(g57
g58
NtRp1480
(dp1481
g61
(dp1482
g69
I4
ssg70
g1476
sg63
(lp1483
S'http'
p1484
asbasbasbag56
(g72
g58
NtRp1485
(dp1486
g61
(dp1487
sg70
g258
sg63
(lp1488
g56
(g77
g58
NtRp1489
(dp1490
g61
(dp1491
g81
g82
ssg70
g1485
sg63
(lp1492
S'wsgi_version'
p1493
asbag56
(g77
g58
NtRp1494
(dp1495
g61
(dp1496
g88
g89
ssg70
g1485
sg63
(lp1497
S':'
asbag56
(g77
g58
NtRp1498
(dp1499
g61
(dp1500
sg70
g1485
sg63
(lp1501
g56
(g57
g58
NtRp1502
(dp1503
g61
(dp1504
g69
I4
ssg70
g1498
sg63
(lp1505
g56
(g65
g58
NtRp1506
(dp1507
g61
(dp1508
g69
I3
ssg70
Nsg63
(lp1509
g56
(g72
g58
NtRp1510
(dp1511
g61
(dp1512
sg70
g1506
sg63
(lp1513
g56
(g77
g58
NtRp1514
(dp1515
g61
(dp1516
sg70
g1510
sg63
(lp1517
g56
(g57
g58
NtRp1518
(dp1519
g61
(dp1520
g69
I3
ssg70
g1514
sg63
(lp1521
S'1'
asbasbasbag56
(g72
g58
NtRp1522
(dp1523
g61
(dp1524
sg70
g1506
sg63
(lp1525
g56
(g77
g58
NtRp1526
(dp1527
g61
(dp1528
sg70
g1522
sg63
(lp1529
g56
(g57
g58
NtRp1530
(dp1531
g61
(dp1532
g69
I3
ssg70
g1526
sg63
(lp1533
S'1'
asbasbasbasbasbasbasbasbasbasbasbag56
(g72
g58
NtRp1534
(dp1535
g61
(dp1536
sg70
g66
sg63
(lp1537
g56
(g77
g58
NtRp1538
(dp1539
g61
(dp1540
g81
g82
ssg70
g1534
sg63
(lp1541
S'extension'
p1542
asbag56
(g77
g58
NtRp1543
(dp1544
g61
(dp1545
g88
g89
ssg70
g1534
sg63
(lp1546
S':'
asbag56
(g77
g58
NtRp1547
(dp1548
g61
(dp1549
sg70
g1534
sg63
(lp1550
g56
(g57
g58
NtRp1551
(dp1552
g61
(dp1553
g69
I5
ssg70
g1547
sg63
(lp1554
S'html'
p1555
asbasbasbag56
(g72
g58
NtRp1556
(dp1557
g61
(dp1558
sg70
g66
sg63
(lp1559
g56
(g77
g58
NtRp1560
(dp1561
g61
(dp1562
g81
g82
ssg70
g1556
sg63
(lp1563
S'folder'
p1564
asbag56
(g77
g58
NtRp1565
(dp1566
g61
(dp1567
g88
g89
ssg70
g1556
sg63
(lp1568
S':'
asbag56
(g77
g58
NtRp1569
(dp1570
g61
(dp1571
sg70
g1556
sg63
(lp1572
g56
(g57
g58
NtRp1573
(dp1574
g61
(dp1575
g69
I5
ssg70
g1569
sg63
(lp1576
S'D:\\Workbench\\web2py_src\\applications\\compound_interest\\'
p1577
asbasbasbag56
(g72
g58
NtRp1578
(dp1579
g61
(dp1580
sg70
g66
sg63
(lp1581
g56
(g77
g58
NtRp1582
(dp1583
g61
(dp1584
g81
g82
ssg70
g1578
sg63
(lp1585
S'function'
p1586
asbag56
(g77
g58
NtRp1587
(dp1588
g61
(dp1589
g88
g89
ssg70
g1578
sg63
(lp1590
S':'
asbag56
(g77
g58
NtRp1591
(dp1592
g61
(dp1593
sg70
g1578
sg63
(lp1594
g56
(g57
g58
NtRp1595
(dp1596
g61
(dp1597
g69
I5
ssg70
g1591
sg63
(lp1598
S'index'
p1599
asbasbasbag56
(g72
g58
NtRp1600
(dp1601
g61
(dp1602
sg70
g66
sg63
(lp1603
g56
(g77
g58
NtRp1604
(dp1605
g61
(dp1606
g81
g82
ssg70
g1600
sg63
(lp1607
S'get_vars'
p1608
asbag56
(g77
g58
NtRp1609
(dp1610
g61
(dp1611
g88
g89
ssg70
g1600
sg63
(lp1612
S':'
asbag56
(g77
g58
NtRp1613
(dp1614
g61
(dp1615
sg70
g1600
sg63
(lp1616
g56
(g57
g58
NtRp1617
(dp1618
g61
(dp1619
g69
I5
ssg70
g1613
sg63
(lp1620
g56
(g65
g58
NtRp1621
(dp1622
g61
(dp1623
g69
I4
ssg70
Nsg63
(lp1624
sbasbasbasbag56
(g72
g58
NtRp1625
(dp1626
g61
(dp1627
sg70
g66
sg63
(lp1628
g56
(g77
g58
NtRp1629
(dp1630
g61
(dp1631
g81
g82
ssg70
g1625
sg63
(lp1632
S'global_settings'
p1633
asbag56
(g77
g58
NtRp1634
(dp1635
g61
(dp1636
g88
g89
ssg70
g1625
sg63
(lp1637
S':'
asbag56
(g77
g58
NtRp1638
(dp1639
g61
(dp1640
sg70
g1625
sg63
(lp1641
g56
(g57
g58
NtRp1642
(dp1643
g61
(dp1644
g69
I5
ssg70
g1638
sg63
(lp1645
g56
(g65
g58
NtRp1646
(dp1647
g61
(dp1648
g69
I4
ssg70
Nsg63
(lp1649
g56
(g72
g58
NtRp1650
(dp1651
g61
(dp1652
sg70
g1646
sg63
(lp1653
g56
(g77
g58
NtRp1654
(dp1655
g61
(dp1656
g81
g82
ssg70
g1650
sg63
(lp1657
g270
asbag56
(g77
g58
NtRp1658
(dp1659
g61
(dp1660
g88
g89
ssg70
g1650
sg63
(lp1661
S':'
asbag56
(g77
g58
NtRp1662
(dp1663
g61
(dp1664
sg70
g1650
sg63
(lp1665
g56
(g57
g58
NtRp1666
(dp1667
g61
(dp1668
g69
I4
ssg70
g1662
sg63
(lp1669
S"set(['D:\\\\Workbench\\\\web2py_src\\\\applications\\\\compound_interest\\\\'])"
p1670
asbasbasbag56
(g72
g58
NtRp1671
(dp1672
g61
(dp1673
sg70
g1646
sg63
(lp1674
g56
(g77
g58
NtRp1675
(dp1676
g61
(dp1677
g81
g82
ssg70
g1671
sg63
(lp1678
g292
asbag56
(g77
g58
NtRp1679
(dp1680
g61
(dp1681
g88
g89
ssg70
g1671
sg63
(lp1682
S':'
asbag56
(g77
g58
NtRp1683
(dp1684
g61
(dp1685
sg70
g1671
sg63
(lp1686
g56
(g57
g58
NtRp1687
(dp1688
g61
(dp1689
g69
I4
ssg70
g1683
sg63
(lp1690
g305
asbasbasbag56
(g72
g58
NtRp1691
(dp1692
g61
(dp1693
sg70
g1646
sg63
(lp1694
g56
(g77
g58
NtRp1695
(dp1696
g61
(dp1697
g81
g82
ssg70
g1691
sg63
(lp1698
g336
asbag56
(g77
g58
NtRp1699
(dp1700
g61
(dp1701
g88
g89
ssg70
g1691
sg63
(lp1702
S':'
asbag56
(g77
g58
NtRp1703
(dp1704
g61
(dp1705
sg70
g1691
sg63
(lp1706
g56
(g57
g58
NtRp1707
(dp1708
g61
(dp1709
g69
I4
ssg70
g1703
sg63
(lp1710
S'set([])'
p1711
asbasbasbag56
(g72
g58
NtRp1712
(dp1713
g61
(dp1714
sg70
g1646
sg63
(lp1715
g56
(g77
g58
NtRp1716
(dp1717
g61
(dp1718
g81
g82
ssg70
g1712
sg63
(lp1719
g358
asbag56
(g77
g58
NtRp1720
(dp1721
g61
(dp1722
g88
g89
ssg70
g1712
sg63
(lp1723
S':'
asbag56
(g77
g58
NtRp1724
(dp1725
g61
(dp1726
sg70
g1712
sg63
(lp1727
g56
(g57
g58
NtRp1728
(dp1729
g61
(dp1730
g69
I4
ssg70
g1724
sg63
(lp1731
g99
asbasbasbag56
(g72
g58
NtRp1732
(dp1733
g61
(dp1734
sg70
g1646
sg63
(lp1735
g56
(g77
g58
NtRp1736
(dp1737
g61
(dp1738
g81
g82
ssg70
g1732
sg63
(lp1739
g423
asbag56
(g77
g58
NtRp1740
(dp1741
g61
(dp1742
g88
g89
ssg70
g1732
sg63
(lp1743
S':'
asbag56
(g77
g58
NtRp1744
(dp1745
g61
(dp1746
sg70
g1732
sg63
(lp1747
g56
(g57
g58
NtRp1748
(dp1749
g61
(dp1750
g69
I4
ssg70
g1744
sg63
(lp1751
g305
asbasbasbag56
(g72
g58
NtRp1752
(dp1753
g61
(dp1754
sg70
g1646
sg63
(lp1755
g56
(g77
g58
NtRp1756
(dp1757
g61
(dp1758
g81
g82
ssg70
g1752
sg63
(lp1759
g598
asbag56
(g77
g58
NtRp1760
(dp1761
g61
(dp1762
g88
g89
ssg70
g1752
sg63
(lp1763
S':'
asbag56
(g77
g58
NtRp1764
(dp1765
g61
(dp1766
sg70
g1752
sg63
(lp1767
g56
(g57
g58
NtRp1768
(dp1769
g61
(dp1770
g69
I4
ssg70
g1764
sg63
(lp1771
g99
asbasbasbag56
(g72
g58
NtRp1772
(dp1773
g61
(dp1774
sg70
g1646
sg63
(lp1775
g56
(g77
g58
NtRp1776
(dp1777
g61
(dp1778
g81
g82
ssg70
g1772
sg63
(lp1779
g1231
asbag56
(g77
g58
NtRp1780
(dp1781
g61
(dp1782
g88
g89
ssg70
g1772
sg63
(lp1783
S':'
asbag56
(g77
g58
NtRp1784
(dp1785
g61
(dp1786
sg70
g1772
sg63
(lp1787
g56
(g57
g58
NtRp1788
(dp1789
g61
(dp1790
g69
I4
ssg70
g1784
sg63
(lp1791
g56
(g65
g58
NtRp1792
(dp1793
g61
(dp1794
g69
I3
ssg70
Nsg63
(lp1795
g56
(g72
g58
NtRp1796
(dp1797
g61
(dp1798
sg70
g1792
sg63
(lp1799
g56
(g77
g58
NtRp1800
(dp1801
g61
(dp1802
sg70
g1796
sg63
(lp1803
g56
(g57
g58
NtRp1804
(dp1805
g61
(dp1806
g69
I3
ssg70
g1800
sg63
(lp1807
S'1'
asbasbasbag56
(g72
g58
NtRp1808
(dp1809
g61
(dp1810
sg70
g1792
sg63
(lp1811
g56
(g77
g58
NtRp1812
(dp1813
g61
(dp1814
sg70
g1808
sg63
(lp1815
g56
(g57
g58
NtRp1816
(dp1817
g61
(dp1818
g69
I3
ssg70
g1812
sg63
(lp1819
S'99'
p1820
asbasbasbag56
(g72
g58
NtRp1821
(dp1822
g61
(dp1823
sg70
g1792
sg63
(lp1824
g56
(g77
g58
NtRp1825
(dp1826
g61
(dp1827
sg70
g1821
sg63
(lp1828
g56
(g57
g58
NtRp1829
(dp1830
g61
(dp1831
g69
I3
ssg70
g1825
sg63
(lp1832
S'2'
asbasbasbag56
(g72
g58
NtRp1833
(dp1834
g61
(dp1835
sg70
g1792
sg63
(lp1836
g56
(g77
g58
NtRp1837
(dp1838
g61
(dp1839
sg70
g1833
sg63
(lp1840
g56
(g57
g58
NtRp1841
(dp1842
g61
(dp1843
g69
I3
ssg70
g1837
sg63
(lp1844
S'datetime.datetime(2011, 9, 26, 6, 55, 33)'
p1845
asbasbasbag56
(g72
g58
NtRp1846
(dp1847
g61
(dp1848
sg70
g1792
sg63
(lp1849
g56
(g77
g58
NtRp1850
(dp1851
g61
(dp1852
sg70
g1846
sg63
(lp1853
g56
(g57
g58
NtRp1854
(dp1855
g61
(dp1856
g69
I3
ssg70
g1850
sg63
(lp1857
g1310
asbasbasbasbasbasbasbasbasbasbasbag56
(g72
g58
NtRp1858
(dp1859
g61
(dp1860
sg70
g66
sg63
(lp1861
g56
(g77
g58
NtRp1862
(dp1863
g61
(dp1864
g81
g82
ssg70
g1858
sg63
(lp1865
S'is_https'
p1866
asbag56
(g77
g58
NtRp1867
(dp1868
g61
(dp1869
g88
g89
ssg70
g1858
sg63
(lp1870
S':'
asbag56
(g77
g58
NtRp1871
(dp1872
g61
(dp1873
sg70
g1858
sg63
(lp1874
g56
(g57
g58
NtRp1875
(dp1876
g61
(dp1877
g69
I5
ssg70
g1871
sg63
(lp1878
g99
asbasbasbag56
(g72
g58
NtRp1879
(dp1880
g61
(dp1881
sg70
g66
sg63
(lp1882
g56
(g77
g58
NtRp1883
(dp1884
g61
(dp1885
g81
g82
ssg70
g1879
sg63
(lp1886
S'is_local'
p1887
asbag56
(g77
g58
NtRp1888
(dp1889
g61
(dp1890
g88
g89
ssg70
g1879
sg63
(lp1891
S':'
asbag56
(g77
g58
NtRp1892
(dp1893
g61
(dp1894
sg70
g1879
sg63
(lp1895
g56
(g57
g58
NtRp1896
(dp1897
g61
(dp1898
g69
I5
ssg70
g1892
sg63
(lp1899
g1441
asbasbasbag56
(g72
g58
NtRp1900
(dp1901
g61
(dp1902
sg70
g66
sg63
(lp1903
g56
(g77
g58
NtRp1904
(dp1905
g61
(dp1906
g81
g82
ssg70
g1900
sg63
(lp1907
S'is_restful'
p1908
asbag56
(g77
g58
NtRp1909
(dp1910
g61
(dp1911
g88
g89
ssg70
g1900
sg63
(lp1912
S':'
asbag56
(g77
g58
NtRp1913
(dp1914
g61
(dp1915
sg70
g1900
sg63
(lp1916
g56
(g57
g58
NtRp1917
(dp1918
g61
(dp1919
g69
I5
ssg70
g1913
sg63
(lp1920
g99
asbasbasbag56
(g72
g58
NtRp1921
(dp1922
g61
(dp1923
sg70
g66
sg63
(lp1924
g56
(g77
g58
NtRp1925
(dp1926
g61
(dp1927
g81
g82
ssg70
g1921
sg63
(lp1928
S'now'
p1929
asbag56
(g77
g58
NtRp1930
(dp1931
g61
(dp1932
g88
g89
ssg70
g1921
sg63
(lp1933
S':'
asbag56
(g77
g58
NtRp1934
(dp1935
g61
(dp1936
sg70
g1921
sg63
(lp1937
g56
(g57
g58
NtRp1938
(dp1939
g61
(dp1940
g69
I5
ssg70
g1934
sg63
(lp1941
S'datetime.datetime(2012, 1, 7, 16, 51, 52, 392000)'
p1942
asbasbasbag56
(g72
g58
NtRp1943
(dp1944
g61
(dp1945
sg70
g66
sg63
(lp1946
g56
(g77
g58
NtRp1947
(dp1948
g61
(dp1949
g81
g82
ssg70
g1943
sg63
(lp1950
S'post_vars'
p1951
asbag56
(g77
g58
NtRp1952
(dp1953
g61
(dp1954
g88
g89
ssg70
g1943
sg63
(lp1955
S':'
asbag56
(g77
g58
NtRp1956
(dp1957
g61
(dp1958
sg70
g1943
sg63
(lp1959
g56
(g57
g58
NtRp1960
(dp1961
g61
(dp1962
g69
I5
ssg70
g1956
sg63
(lp1963
g56
(g65
g58
NtRp1964
(dp1965
g61
(dp1966
g69
I4
ssg70
Nsg63
(lp1967
sbasbasbasbag56
(g72
g58
NtRp1968
(dp1969
g61
(dp1970
sg70
g66
sg63
(lp1971
g56
(g77
g58
NtRp1972
(dp1973
g61
(dp1974
g81
g82
ssg70
g1968
sg63
(lp1975
S'url'
p1976
asbag56
(g77
g58
NtRp1977
(dp1978
g61
(dp1979
g88
g89
ssg70
g1968
sg63
(lp1980
S':'
asbag56
(g77
g58
NtRp1981
(dp1982
g61
(dp1983
sg70
g1968
sg63
(lp1984
g56
(g57
g58
NtRp1985
(dp1986
g61
(dp1987
g69
I5
ssg70
g1981
sg63
(lp1988
S'/compound_interest/default/index'
p1989
asbasbasbag56
(g72
g58
NtRp1990
(dp1991
g61
(dp1992
sg70
g66
sg63
(lp1993
g56
(g77
g58
NtRp1994
(dp1995
g61
(dp1996
g81
g82
ssg70
g1990
sg63
(lp1997
S'utcnow'
p1998
asbag56
(g77
g58
NtRp1999
(dp2000
g61
(dp2001
g88
g89
ssg70
g1990
sg63
(lp2002
S':'
asbag56
(g77
g58
NtRp2003
(dp2004
g61
(dp2005
sg70
g1990
sg63
(lp2006
g56
(g57
g58
NtRp2007
(dp2008
g61
(dp2009
g69
I5
ssg70
g2003
sg63
(lp2010
S'datetime.datetime(2012, 1, 7, 8, 51, 52, 392000)'
p2011
asbasbasbag56
(g72
g58
NtRp2012
(dp2013
g61
(dp2014
sg70
g66
sg63
(lp2015
g56
(g77
g58
NtRp2016
(dp2017
g61
(dp2018
g81
g82
ssg70
g2012
sg63
(lp2019
S'uuid'
p2020
asbag56
(g77
g58
NtRp2021
(dp2022
g61
(dp2023
g88
g89
ssg70
g2012
sg63
(lp2024
S':'
asbag56
(g77
g58
NtRp2025
(dp2026
g61
(dp2027
sg70
g2012
sg63
(lp2028
g56
(g57
g58
NtRp2029
(dp2030
g61
(dp2031
g69
I5
ssg70
g2025
sg63
(lp2032
S'compound_interest/127.0.0.1.2012-01-07.16-51-52.82e5c578-bbb9-4532-a968-80c42e5c60a6'
p2033
asbasbasbag56
(g72
g58
NtRp2034
(dp2035
g61
(dp2036
sg70
g66
sg63
(lp2037
g56
(g77
g58
NtRp2038
(dp2039
g61
(dp2040
g81
g82
ssg70
g2034
sg63
(lp2041
S'vars'
p2042
asbag56
(g77
g58
NtRp2043
(dp2044
g61
(dp2045
g88
g89
ssg70
g2034
sg63
(lp2046
S':'
asbag56
(g77
g58
NtRp2047
(dp2048
g61
(dp2049
sg70
g2034
sg63
(lp2050
g56
(g57
g58
NtRp2051
(dp2052
g61
(dp2053
g69
I5
ssg70
g2047
sg63
(lp2054
g56
(g65
g58
NtRp2055
(dp2056
g61
(dp2057
g69
I4
ssg70
Nsg63
(lp2058
sbasbasbasbag56
(g72
g58
NtRp2059
(dp2060
g61
(dp2061
sg70
g66
sg63
(lp2062
g56
(g77
g58
NtRp2063
(dp2064
g61
(dp2065
g81
g82
ssg70
g2059
sg63
(lp2066
S'wsgi'
p2067
asbag56
(g77
g58
NtRp2068
(dp2069
g61
(dp2070
g88
g89
ssg70
g2059
sg63
(lp2071
S':'
asbag56
(g77
g58
NtRp2072
(dp2073
g61
(dp2074
sg70
g2059
sg63
(lp2075
g56
(g57
g58
NtRp2076
(dp2077
g61
(dp2078
g69
I5
ssg70
g2072
sg63
(lp2079
g56
(g65
g58
NtRp2080
(dp2081
g61
(dp2082
g69
I4
ssg70
Nsg63
(lp2083
g56
(g72
g58
NtRp2084
(dp2085
g61
(dp2086
sg70
g2080
sg63
(lp2087
g56
(g77
g58
NtRp2088
(dp2089
g61
(dp2090
g81
g82
ssg70
g2084
sg63
(lp2091
S'environ'
p2092
asbag56
(g77
g58
NtRp2093
(dp2094
g61
(dp2095
g88
g89
ssg70
g2084
sg63
(lp2096
S':'
asbag56
(g77
g58
NtRp2097
(dp2098
g61
(dp2099
sg70
g2084
sg63
(lp2100
g56
(g57
g58
NtRp2101
(dp2102
g61
(dp2103
g69
I4
ssg70
g2097
sg63
(lp2104
g56
(g65
g58
NtRp2105
(dp2106
g61
(dp2107
g69
I3
ssg70
Nsg63
(lp2108
g56
(g72
g58
NtRp2109
(dp2110
g61
(dp2111
sg70
g2105
sg63
(lp2112
g56
(g77
g58
NtRp2113
(dp2114
g61
(dp2115
g81
g82
ssg70
g2109
sg63
(lp2116
S'COMSPEC'
p2117
asbag56
(g77
g58
NtRp2118
(dp2119
g61
(dp2120
g88
g89
ssg70
g2109
sg63
(lp2121
S':'
asbag56
(g77
g58
NtRp2122
(dp2123
g61
(dp2124
sg70
g2109
sg63
(lp2125
g56
(g57
g58
NtRp2126
(dp2127
g61
(dp2128
g69
I3
ssg70
g2122
sg63
(lp2129
g327
asbasbasbag56
(g72
g58
NtRp2130
(dp2131
g61
(dp2132
sg70
g2105
sg63
(lp2133
g56
(g77
g58
NtRp2134
(dp2135
g61
(dp2136
g81
g82
ssg70
g2130
sg63
(lp2137
S'DOCUMENT_ROOT'
p2138
asbag56
(g77
g58
NtRp2139
(dp2140
g61
(dp2141
g88
g89
ssg70
g2130
sg63
(lp2142
S':'
asbag56
(g77
g58
NtRp2143
(dp2144
g61
(dp2145
sg70
g2130
sg63
(lp2146
g56
(g57
g58
NtRp2147
(dp2148
g61
(dp2149
g69
I3
ssg70
g2143
sg63
(lp2150
g392
asbasbasbag56
(g72
g58
NtRp2151
(dp2152
g61
(dp2153
sg70
g2105
sg63
(lp2154
g56
(g77
g58
NtRp2155
(dp2156
g61
(dp2157
g81
g82
ssg70
g2151
sg63
(lp2158
S'GATEWAY_INTERFACE'
p2159
asbag56
(g77
g58
NtRp2160
(dp2161
g61
(dp2162
g88
g89
ssg70
g2151
sg63
(lp2163
S':'
asbag56
(g77
g58
NtRp2164
(dp2165
g61
(dp2166
sg70
g2151
sg63
(lp2167
g56
(g57
g58
NtRp2168
(dp2169
g61
(dp2170
g69
I3
ssg70
g2164
sg63
(lp2171
g414
asbasbasbag56
(g72
g58
NtRp2172
(dp2173
g61
(dp2174
sg70
g2105
sg63
(lp2175
g56
(g77
g58
NtRp2176
(dp2177
g61
(dp2178
g81
g82
ssg70
g2172
sg63
(lp2179
S'HTTP_ACCEPT'
p2180
asbag56
(g77
g58
NtRp2181
(dp2182
g61
(dp2183
g88
g89
ssg70
g2172
sg63
(lp2184
S':'
asbag56
(g77
g58
NtRp2185
(dp2186
g61
(dp2187
sg70
g2172
sg63
(lp2188
g56
(g57
g58
NtRp2189
(dp2190
g61
(dp2191
g69
I3
ssg70
g2185
sg63
(lp2192
g457
asbasbasbag56
(g72
g58
NtRp2193
(dp2194
g61
(dp2195
sg70
g2105
sg63
(lp2196
g56
(g77
g58
NtRp2197
(dp2198
g61
(dp2199
g81
g82
ssg70
g2193
sg63
(lp2200
S'HTTP_ACCEPT_CHARSET'
p2201
asbag56
(g77
g58
NtRp2202
(dp2203
g61
(dp2204
g88
g89
ssg70
g2193
sg63
(lp2205
S':'
asbag56
(g77
g58
NtRp2206
(dp2207
g61
(dp2208
sg70
g2193
sg63
(lp2209
g56
(g57
g58
NtRp2210
(dp2211
g61
(dp2212
g69
I3
ssg70
g2206
sg63
(lp2213
g479
asbasbasbag56
(g72
g58
NtRp2214
(dp2215
g61
(dp2216
sg70
g2105
sg63
(lp2217
g56
(g77
g58
NtRp2218
(dp2219
g61
(dp2220
g81
g82
ssg70
g2214
sg63
(lp2221
S'HTTP_ACCEPT_ENCODING'
p2222
asbag56
(g77
g58
NtRp2223
(dp2224
g61
(dp2225
g88
g89
ssg70
g2214
sg63
(lp2226
S':'
asbag56
(g77
g58
NtRp2227
(dp2228
g61
(dp2229
sg70
g2214
sg63
(lp2230
g56
(g57
g58
NtRp2231
(dp2232
g61
(dp2233
g69
I3
ssg70
g2227
sg63
(lp2234
g501
asbasbasbag56
(g72
g58
NtRp2235
(dp2236
g61
(dp2237
sg70
g2105
sg63
(lp2238
g56
(g77
g58
NtRp2239
(dp2240
g61
(dp2241
g81
g82
ssg70
g2235
sg63
(lp2242
S'HTTP_ACCEPT_LANGUAGE'
p2243
asbag56
(g77
g58
NtRp2244
(dp2245
g61
(dp2246
g88
g89
ssg70
g2235
sg63
(lp2247
S':'
asbag56
(g77
g58
NtRp2248
(dp2249
g61
(dp2250
sg70
g2235
sg63
(lp2251
g56
(g57
g58
NtRp2252
(dp2253
g61
(dp2254
g69
I3
ssg70
g2248
sg63
(lp2255
g523
asbasbasbag56
(g72
g58
NtRp2256
(dp2257
g61
(dp2258
sg70
g2105
sg63
(lp2259
g56
(g77
g58
NtRp2260
(dp2261
g61
(dp2262
g81
g82
ssg70
g2256
sg63
(lp2263
S'HTTP_CONNECTION'
p2264
asbag56
(g77
g58
NtRp2265
(dp2266
g61
(dp2267
g88
g89
ssg70
g2256
sg63
(lp2268
S':'
asbag56
(g77
g58
NtRp2269
(dp2270
g61
(dp2271
sg70
g2256
sg63
(lp2272
g56
(g57
g58
NtRp2273
(dp2274
g61
(dp2275
g69
I3
ssg70
g2269
sg63
(lp2276
g545
asbasbasbag56
(g72
g58
NtRp2277
(dp2278
g61
(dp2279
sg70
g2105
sg63
(lp2280
g56
(g77
g58
NtRp2281
(dp2282
g61
(dp2283
g81
g82
ssg70
g2277
sg63
(lp2284
S'HTTP_HOST'
p2285
asbag56
(g77
g58
NtRp2286
(dp2287
g61
(dp2288
g88
g89
ssg70
g2277
sg63
(lp2289
S':'
asbag56
(g77
g58
NtRp2290
(dp2291
g61
(dp2292
sg70
g2277
sg63
(lp2293
g56
(g57
g58
NtRp2294
(dp2295
g61
(dp2296
g69
I3
ssg70
g2290
sg63
(lp2297
g567
asbasbasbag56
(g72
g58
NtRp2298
(dp2299
g61
(dp2300
sg70
g2105
sg63
(lp2301
g56
(g77
g58
NtRp2302
(dp2303
g61
(dp2304
g81
g82
ssg70
g2298
sg63
(lp2305
S'HTTP_USER_AGENT'
p2306
asbag56
(g77
g58
NtRp2307
(dp2308
g61
(dp2309
g88
g89
ssg70
g2298
sg63
(lp2310
S':'
asbag56
(g77
g58
NtRp2311
(dp2312
g61
(dp2313
sg70
g2298
sg63
(lp2314
g56
(g57
g58
NtRp2315
(dp2316
g61
(dp2317
g69
I3
ssg70
g2311
sg63
(lp2318
g589
asbasbasbag56
(g72
g58
NtRp2319
(dp2320
g61
(dp2321
sg70
g2105
sg63
(lp2322
g56
(g77
g58
NtRp2323
(dp2324
g61
(dp2325
g81
g82
ssg70
g2319
sg63
(lp2326
S'PATHEXT'
p2327
asbag56
(g77
g58
NtRp2328
(dp2329
g61
(dp2330
g88
g89
ssg70
g2319
sg63
(lp2331
S':'
asbag56
(g77
g58
NtRp2332
(dp2333
g61
(dp2334
sg70
g2319
sg63
(lp2335
g56
(g57
g58
NtRp2336
(dp2337
g61
(dp2338
g69
I3
ssg70
g2332
sg63
(lp2339
g875
asbasbasbag56
(g72
g58
NtRp2340
(dp2341
g61
(dp2342
sg70
g2105
sg63
(lp2343
g56
(g77
g58
NtRp2344
(dp2345
g61
(dp2346
g81
g82
ssg70
g2340
sg63
(lp2347
S'PATH_INFO'
p2348
asbag56
(g77
g58
NtRp2349
(dp2350
g61
(dp2351
g88
g89
ssg70
g2340
sg63
(lp2352
S':'
asbag56
(g77
g58
NtRp2353
(dp2354
g61
(dp2355
sg70
g2340
sg63
(lp2356
g56
(g57
g58
NtRp2357
(dp2358
g61
(dp2359
g69
I3
ssg70
g2353
sg63
(lp2360
g831
asbasbasbag56
(g72
g58
NtRp2361
(dp2362
g61
(dp2363
sg70
g2105
sg63
(lp2364
g56
(g77
g58
NtRp2365
(dp2366
g61
(dp2367
g81
g82
ssg70
g2361
sg63
(lp2368
S'PATH_TRANSLATED'
p2369
asbag56
(g77
g58
NtRp2370
(dp2371
g61
(dp2372
g88
g89
ssg70
g2361
sg63
(lp2373
S':'
asbag56
(g77
g58
NtRp2374
(dp2375
g61
(dp2376
sg70
g2361
sg63
(lp2377
g56
(g57
g58
NtRp2378
(dp2379
g61
(dp2380
g69
I3
ssg70
g2374
sg63
(lp2381
g853
asbasbasbag56
(g72
g58
NtRp2382
(dp2383
g61
(dp2384
sg70
g2105
sg63
(lp2385
g56
(g77
g58
NtRp2386
(dp2387
g61
(dp2388
g81
g82
ssg70
g2382
sg63
(lp2389
S'QUERY_STRING'
p2390
asbag56
(g77
g58
NtRp2391
(dp2392
g61
(dp2393
g88
g89
ssg70
g2382
sg63
(lp2394
S':'
asbag56
(g77
g58
NtRp2395
(dp2396
g61
(dp2397
sg70
g2382
sg63
(lp2398
g56
(g57
g58
NtRp2399
(dp2400
g61
(dp2401
g69
I3
ssg70
g2395
sg63
(lp2402
S''
asbasbasbag56
(g72
g58
NtRp2403
(dp2404
g61
(dp2405
sg70
g2105
sg63
(lp2406
g56
(g77
g58
NtRp2407
(dp2408
g61
(dp2409
g81
g82
ssg70
g2403
sg63
(lp2410
S'REMOTE_ADDR'
p2411
asbag56
(g77
g58
NtRp2412
(dp2413
g61
(dp2414
g88
g89
ssg70
g2403
sg63
(lp2415
S':'
asbag56
(g77
g58
NtRp2416
(dp2417
g61
(dp2418
sg70
g2403
sg63
(lp2419
g56
(g57
g58
NtRp2420
(dp2421
g61
(dp2422
g69
I3
ssg70
g2416
sg63
(lp2423
g189
asbasbasbag56
(g72
g58
NtRp2424
(dp2425
g61
(dp2426
sg70
g2105
sg63
(lp2427
g56
(g77
g58
NtRp2428
(dp2429
g61
(dp2430
g81
g82
ssg70
g2424
sg63
(lp2431
S'REMOTE_PORT'
p2432
asbag56
(g77
g58
NtRp2433
(dp2434
g61
(dp2435
g88
g89
ssg70
g2424
sg63
(lp2436
S':'
asbag56
(g77
g58
NtRp2437
(dp2438
g61
(dp2439
sg70
g2424
sg63
(lp2440
g56
(g57
g58
NtRp2441
(dp2442
g61
(dp2443
g69
I3
ssg70
g2437
sg63
(lp2444
g939
asbasbasbag56
(g72
g58
NtRp2445
(dp2446
g61
(dp2447
sg70
g2105
sg63
(lp2448
g56
(g77
g58
NtRp2449
(dp2450
g61
(dp2451
g81
g82
ssg70
g2445
sg63
(lp2452
S'REQUEST_METHOD'
p2453
asbag56
(g77
g58
NtRp2454
(dp2455
g61
(dp2456
g88
g89
ssg70
g2445
sg63
(lp2457
S':'
asbag56
(g77
g58
NtRp2458
(dp2459
g61
(dp2460
sg70
g2445
sg63
(lp2461
g56
(g57
g58
NtRp2462
(dp2463
g61
(dp2464
g69
I3
ssg70
g2458
sg63
(lp2465
g961
asbasbasbag56
(g72
g58
NtRp2466
(dp2467
g61
(dp2468
sg70
g2105
sg63
(lp2469
g56
(g77
g58
NtRp2470
(dp2471
g61
(dp2472
g81
g82
ssg70
g2466
sg63
(lp2473
S'REQUEST_URI'
p2474
asbag56
(g77
g58
NtRp2475
(dp2476
g61
(dp2477
g88
g89
ssg70
g2466
sg63
(lp2478
S':'
asbag56
(g77
g58
NtRp2479
(dp2480
g61
(dp2481
sg70
g2466
sg63
(lp2482
g56
(g57
g58
NtRp2483
(dp2484
g61
(dp2485
g69
I3
ssg70
g2479
sg63
(lp2486
g983
asbasbasbag56
(g72
g58
NtRp2487
(dp2488
g61
(dp2489
sg70
g2105
sg63
(lp2490
g56
(g77
g58
NtRp2491
(dp2492
g61
(dp2493
g81
g82
ssg70
g2487
sg63
(lp2494
S'SCRIPT_FILENAME'
p2495
asbag56
(g77
g58
NtRp2496
(dp2497
g61
(dp2498
g88
g89
ssg70
g2487
sg63
(lp2499
S':'
asbag56
(g77
g58
NtRp2500
(dp2501
g61
(dp2502
sg70
g2487
sg63
(lp2503
g56
(g57
g58
NtRp2504
(dp2505
g61
(dp2506
g69
I3
ssg70
g2500
sg63
(lp2507
g1005
asbasbasbag56
(g72
g58
NtRp2508
(dp2509
g61
(dp2510
sg70
g2105
sg63
(lp2511
g56
(g77
g58
NtRp2512
(dp2513
g61
(dp2514
g81
g82
ssg70
g2508
sg63
(lp2515
S'SCRIPT_NAME'
p2516
asbag56
(g77
g58
NtRp2517
(dp2518
g61
(dp2519
g88
g89
ssg70
g2508
sg63
(lp2520
S':'
asbag56
(g77
g58
NtRp2521
(dp2522
g61
(dp2523
sg70
g2508
sg63
(lp2524
g56
(g57
g58
NtRp2525
(dp2526
g61
(dp2527
g69
I3
ssg70
g2521
sg63
(lp2528
S''
asbasbasbag56
(g72
g58
NtRp2529
(dp2530
g61
(dp2531
sg70
g2105
sg63
(lp2532
g56
(g77
g58
NtRp2533
(dp2534
g61
(dp2535
g81
g82
ssg70
g2529
sg63
(lp2536
S'SERVER_ADDR'
p2537
asbag56
(g77
g58
NtRp2538
(dp2539
g61
(dp2540
g88
g89
ssg70
g2529
sg63
(lp2541
S':'
asbag56
(g77
g58
NtRp2542
(dp2543
g61
(dp2544
sg70
g2529
sg63
(lp2545
g56
(g57
g58
NtRp2546
(dp2547
g61
(dp2548
g69
I3
ssg70
g2542
sg63
(lp2549
g1048
asbasbasbag56
(g72
g58
NtRp2550
(dp2551
g61
(dp2552
sg70
g2105
sg63
(lp2553
g56
(g77
g58
NtRp2554
(dp2555
g61
(dp2556
g81
g82
ssg70
g2550
sg63
(lp2557
S'SERVER_ADMIN'
p2558
asbag56
(g77
g58
NtRp2559
(dp2560
g61
(dp2561
g88
g89
ssg70
g2550
sg63
(lp2562
S':'
asbag56
(g77
g58
NtRp2563
(dp2564
g61
(dp2565
sg70
g2550
sg63
(lp2566
g56
(g57
g58
NtRp2567
(dp2568
g61
(dp2569
g69
I3
ssg70
g2563
sg63
(lp2570
g1070
asbasbasbag56
(g72
g58
NtRp2571
(dp2572
g61
(dp2573
sg70
g2105
sg63
(lp2574
g56
(g77
g58
NtRp2575
(dp2576
g61
(dp2577
g81
g82
ssg70
g2571
sg63
(lp2578
S'SERVER_NAME'
p2579
asbag56
(g77
g58
NtRp2580
(dp2581
g61
(dp2582
g88
g89
ssg70
g2571
sg63
(lp2583
S':'
asbag56
(g77
g58
NtRp2584
(dp2585
g61
(dp2586
sg70
g2571
sg63
(lp2587
g56
(g57
g58
NtRp2588
(dp2589
g61
(dp2590
g69
I3
ssg70
g2584
sg63
(lp2591
g1092
asbasbasbag56
(g72
g58
NtRp2592
(dp2593
g61
(dp2594
sg70
g2105
sg63
(lp2595
g56
(g77
g58
NtRp2596
(dp2597
g61
(dp2598
g81
g82
ssg70
g2592
sg63
(lp2599
S'SERVER_PORT'
p2600
asbag56
(g77
g58
NtRp2601
(dp2602
g61
(dp2603
g88
g89
ssg70
g2592
sg63
(lp2604
S':'
asbag56
(g77
g58
NtRp2605
(dp2606
g61
(dp2607
sg70
g2592
sg63
(lp2608
g56
(g57
g58
NtRp2609
(dp2610
g61
(dp2611
g69
I3
ssg70
g2605
sg63
(lp2612
g1114
asbasbasbag56
(g72
g58
NtRp2613
(dp2614
g61
(dp2615
sg70
g2105
sg63
(lp2616
g56
(g77
g58
NtRp2617
(dp2618
g61
(dp2619
g81
g82
ssg70
g2613
sg63
(lp2620
S'SERVER_PROTOCOL'
p2621
asbag56
(g77
g58
NtRp2622
(dp2623
g61
(dp2624
g88
g89
ssg70
g2613
sg63
(lp2625
S':'
asbag56
(g77
g58
NtRp2626
(dp2627
g61
(dp2628
sg70
g2613
sg63
(lp2629
g56
(g57
g58
NtRp2630
(dp2631
g61
(dp2632
g69
I3
ssg70
g2626
sg63
(lp2633
g1136
asbasbasbag56
(g72
g58
NtRp2634
(dp2635
g61
(dp2636
sg70
g2105
sg63
(lp2637
g56
(g77
g58
NtRp2638
(dp2639
g61
(dp2640
g81
g82
ssg70
g2634
sg63
(lp2641
S'SERVER_SIGNATURE'
p2642
asbag56
(g77
g58
NtRp2643
(dp2644
g61
(dp2645
g88
g89
ssg70
g2634
sg63
(lp2646
S':'
asbag56
(g77
g58
NtRp2647
(dp2648
g61
(dp2649
sg70
g2634
sg63
(lp2650
g56
(g57
g58
NtRp2651
(dp2652
g61
(dp2653
g69
I3
ssg70
g2647
sg63
(lp2654
S''
asbasbasbag56
(g72
g58
NtRp2655
(dp2656
g61
(dp2657
sg70
g2105
sg63
(lp2658
g56
(g77
g58
NtRp2659
(dp2660
g61
(dp2661
g81
g82
ssg70
g2655
sg63
(lp2662
S'SERVER_SOFTWARE'
p2663
asbag56
(g77
g58
NtRp2664
(dp2665
g61
(dp2666
g88
g89
ssg70
g2655
sg63
(lp2667
S':'
asbag56
(g77
g58
NtRp2668
(dp2669
g61
(dp2670
sg70
g2655
sg63
(lp2671
g56
(g57
g58
NtRp2672
(dp2673
g61
(dp2674
g69
I3
ssg70
g2668
sg63
(lp2675
g1179
asbasbasbag56
(g72
g58
NtRp2676
(dp2677
g61
(dp2678
sg70
g2105
sg63
(lp2679
g56
(g77
g58
NtRp2680
(dp2681
g61
(dp2682
g81
g82
ssg70
g2676
sg63
(lp2683
S'SystemRoot'
p2684
asbag56
(g77
g58
NtRp2685
(dp2686
g61
(dp2687
g88
g89
ssg70
g2676
sg63
(lp2688
S':'
asbag56
(g77
g58
NtRp2689
(dp2690
g61
(dp2691
sg70
g2676
sg63
(lp2692
g56
(g57
g58
NtRp2693
(dp2694
g61
(dp2695
g69
I3
ssg70
g2689
sg63
(lp2696
g1201
asbasbasbag56
(g72
g58
NtRp2697
(dp2698
g61
(dp2699
sg70
g2105
sg63
(lp2700
g56
(g77
g58
NtRp2701
(dp2702
g61
(dp2703
g81
g82
ssg70
g2697
sg63
(lp2704
S'WINDIR'
p2705
asbag56
(g77
g58
NtRp2706
(dp2707
g61
(dp2708
g88
g89
ssg70
g2697
sg63
(lp2709
S':'
asbag56
(g77
g58
NtRp2710
(dp2711
g61
(dp2712
sg70
g2697
sg63
(lp2713
g56
(g57
g58
NtRp2714
(dp2715
g61
(dp2716
g69
I3
ssg70
g2710
sg63
(lp2717
g1332
asbasbasbag56
(g72
g58
NtRp2718
(dp2719
g61
(dp2720
sg70
g2105
sg63
(lp2721
g56
(g77
g58
NtRp2722
(dp2723
g61
(dp2724
g81
g82
ssg70
g2718
sg63
(lp2725
S'mod_wsgi.application_group'
p2726
asbag56
(g77
g58
NtRp2727
(dp2728
g61
(dp2729
g88
g89
ssg70
g2718
sg63
(lp2730
S':'
asbag56
(g77
g58
NtRp2731
(dp2732
g61
(dp2733
sg70
g2718
sg63
(lp2734
g56
(g57
g58
NtRp2735
(dp2736
g61
(dp2737
g69
I3
ssg70
g2731
sg63
(lp2738
g632
asbasbasbag56
(g72
g58
NtRp2739
(dp2740
g61
(dp2741
sg70
g2105
sg63
(lp2742
g56
(g77
g58
NtRp2743
(dp2744
g61
(dp2745
g81
g82
ssg70
g2739
sg63
(lp2746
S'mod_wsgi.callable_object'
p2747
asbag56
(g77
g58
NtRp2748
(dp2749
g61
(dp2750
g88
g89
ssg70
g2739
sg63
(lp2751
S':'
asbag56
(g77
g58
NtRp2752
(dp2753
g61
(dp2754
sg70
g2739
sg63
(lp2755
g56
(g57
g58
NtRp2756
(dp2757
g61
(dp2758
g69
I3
ssg70
g2752
sg63
(lp2759
g654
asbasbasbag56
(g72
g58
NtRp2760
(dp2761
g61
(dp2762
sg70
g2105
sg63
(lp2763
g56
(g77
g58
NtRp2764
(dp2765
g61
(dp2766
g81
g82
ssg70
g2760
sg63
(lp2767
S'mod_wsgi.handler_script'
p2768
asbag56
(g77
g58
NtRp2769
(dp2770
g61
(dp2771
g88
g89
ssg70
g2760
sg63
(lp2772
S':'
asbag56
(g77
g58
NtRp2773
(dp2774
g61
(dp2775
sg70
g2760
sg63
(lp2776
g56
(g57
g58
NtRp2777
(dp2778
g61
(dp2779
g69
I3
ssg70
g2773
sg63
(lp2780
S''
asbasbasbag56
(g72
g58
NtRp2781
(dp2782
g61
(dp2783
sg70
g2105
sg63
(lp2784
g56
(g77
g58
NtRp2785
(dp2786
g61
(dp2787
g81
g82
ssg70
g2781
sg63
(lp2788
S'mod_wsgi.input_chunked'
p2789
asbag56
(g77
g58
NtRp2790
(dp2791
g61
(dp2792
g88
g89
ssg70
g2781
sg63
(lp2793
S':'
asbag56
(g77
g58
NtRp2794
(dp2795
g61
(dp2796
sg70
g2781
sg63
(lp2797
g56
(g57
g58
NtRp2798
(dp2799
g61
(dp2800
g69
I3
ssg70
g2794
sg63
(lp2801
S'0'
asbasbasbag56
(g72
g58
NtRp2802
(dp2803
g61
(dp2804
sg70
g2105
sg63
(lp2805
g56
(g77
g58
NtRp2806
(dp2807
g61
(dp2808
g81
g82
ssg70
g2802
sg63
(lp2809
S'mod_wsgi.process_group'
p2810
asbag56
(g77
g58
NtRp2811
(dp2812
g61
(dp2813
g88
g89
ssg70
g2802
sg63
(lp2814
S':'
asbag56
(g77
g58
NtRp2815
(dp2816
g61
(dp2817
sg70
g2802
sg63
(lp2818
g56
(g57
g58
NtRp2819
(dp2820
g61
(dp2821
g69
I3
ssg70
g2815
sg63
(lp2822
S''
asbasbasbag56
(g72
g58
NtRp2823
(dp2824
g61
(dp2825
sg70
g2105
sg63
(lp2826
g56
(g77
g58
NtRp2827
(dp2828
g61
(dp2829
g81
g82
ssg70
g2823
sg63
(lp2830
S'mod_wsgi.request_handler'
p2831
asbag56
(g77
g58
NtRp2832
(dp2833
g61
(dp2834
g88
g89
ssg70
g2823
sg63
(lp2835
S':'
asbag56
(g77
g58
NtRp2836
(dp2837
g61
(dp2838
sg70
g2823
sg63
(lp2839
g56
(g57
g58
NtRp2840
(dp2841
g61
(dp2842
g69
I3
ssg70
g2836
sg63
(lp2843
g739
asbasbasbag56
(g72
g58
NtRp2844
(dp2845
g61
(dp2846
sg70
g2105
sg63
(lp2847
g56
(g77
g58
NtRp2848
(dp2849
g61
(dp2850
g81
g82
ssg70
g2844
sg63
(lp2851
S'mod_wsgi.script_reloading'
p2852
asbag56
(g77
g58
NtRp2853
(dp2854
g61
(dp2855
g88
g89
ssg70
g2844
sg63
(lp2856
S':'
asbag56
(g77
g58
NtRp2857
(dp2858
g61
(dp2859
sg70
g2844
sg63
(lp2860
g56
(g57
g58
NtRp2861
(dp2862
g61
(dp2863
g69
I3
ssg70
g2857
sg63
(lp2864
S'1'
asbasbasbag56
(g72
g58
NtRp2865
(dp2866
g61
(dp2867
sg70
g2105
sg63
(lp2868
g56
(g77
g58
NtRp2869
(dp2870
g61
(dp2871
g81
g82
ssg70
g2865
sg63
(lp2872
S'mod_wsgi.version'
p2873
asbag56
(g77
g58
NtRp2874
(dp2875
g61
(dp2876
g88
g89
ssg70
g2865
sg63
(lp2877
S':'
asbag56
(g77
g58
NtRp2878
(dp2879
g61
(dp2880
sg70
g2865
sg63
(lp2881
g56
(g57
g58
NtRp2882
(dp2883
g61
(dp2884
g69
I3
ssg70
g2878
sg63
(lp2885
g56
(g65
g58
NtRp2886
(dp2887
g61
(dp2888
g69
I2
ssg70
Nsg63
(lp2889
g56
(g72
g58
NtRp2890
(dp2891
g61
(dp2892
sg70
g2886
sg63
(lp2893
g56
(g77
g58
NtRp2894
(dp2895
g61
(dp2896
sg70
g2890
sg63
(lp2897
g56
(g57
g58
NtRp2898
(dp2899
g61
(dp2900
g69
I2
ssg70
g2894
sg63
(lp2901
S'3'
asbasbasbag56
(g72
g58
NtRp2902
(dp2903
g61
(dp2904
sg70
g2886
sg63
(lp2905
g56
(g77
g58
NtRp2906
(dp2907
g61
(dp2908
sg70
g2902
sg63
(lp2909
g56
(g57
g58
NtRp2910
(dp2911
g61
(dp2912
g69
I2
ssg70
g2906
sg63
(lp2913
S'3'
asbasbasbasbasbasbasbag56
(g72
g58
NtRp2914
(dp2915
g61
(dp2916
sg70
g2105
sg63
(lp2917
g56
(g77
g58
NtRp2918
(dp2919
g61
(dp2920
g81
g82
ssg70
g2914
sg63
(lp2921
S'wsgi.errors'
p2922
asbag56
(g77
g58
NtRp2923
(dp2924
g61
(dp2925
g88
g89
ssg70
g2914
sg63
(lp2926
S':'
asbag56
(g77
g58
NtRp2927
(dp2928
g61
(dp2929
sg70
g2914
sg63
(lp2930
g56
(g57
g58
NtRp2931
(dp2932
g61
(dp2933
g69
I3
ssg70
g2927
sg63
(lp2934
S'<mod_wsgi.Log object at 0x0385F660>'
p2935
asbasbasbag56
(g72
g58
NtRp2936
(dp2937
g61
(dp2938
sg70
g2105
sg63
(lp2939
g56
(g77
g58
NtRp2940
(dp2941
g61
(dp2942
g81
g82
ssg70
g2936
sg63
(lp2943
S'wsgi.file_wrapper'
p2944
asbag56
(g77
g58
NtRp2945
(dp2946
g61
(dp2947
g88
g89
ssg70
g2936
sg63
(lp2948
S':'
asbag56
(g77
g58
NtRp2949
(dp2950
g61
(dp2951
sg70
g2936
sg63
(lp2952
g56
(g57
g58
NtRp2953
(dp2954
g61
(dp2955
g69
I3
ssg70
g2949
sg63
(lp2956
S'<built-in method file_wrapper of mod_wsgi.Adapter object at 0x02368C38>'
p2957
asbasbasbag56
(g72
g58
NtRp2958
(dp2959
g61
(dp2960
sg70
g2105
sg63
(lp2961
g56
(g77
g58
NtRp2962
(dp2963
g61
(dp2964
g81
g82
ssg70
g2958
sg63
(lp2965
S'wsgi.input'
p2966
asbag56
(g77
g58
NtRp2967
(dp2968
g61
(dp2969
g88
g89
ssg70
g2958
sg63
(lp2970
S':'
asbag56
(g77
g58
NtRp2971
(dp2972
g61
(dp2973
sg70
g2958
sg63
(lp2974
g56
(g57
g58
NtRp2975
(dp2976
g61
(dp2977
g69
I3
ssg70
g2971
sg63
(lp2978
S'<cStringIO.StringO object at 0x03935600>'
p2979
asbasbasbag56
(g72
g58
NtRp2980
(dp2981
g61
(dp2982
sg70
g2105
sg63
(lp2983
g56
(g77
g58
NtRp2984
(dp2985
g61
(dp2986
g81
g82
ssg70
g2980
sg63
(lp2987
S'wsgi.multiprocess'
p2988
asbag56
(g77
g58
NtRp2989
(dp2990
g61
(dp2991
g88
g89
ssg70
g2980
sg63
(lp2992
S':'
asbag56
(g77
g58
NtRp2993
(dp2994
g61
(dp2995
sg70
g2980
sg63
(lp2996
g56
(g57
g58
NtRp2997
(dp2998
g61
(dp2999
g69
I3
ssg70
g2993
sg63
(lp3000
g99
asbasbasbag56
(g72
g58
NtRp3001
(dp3002
g61
(dp3003
sg70
g2105
sg63
(lp3004
g56
(g77
g58
NtRp3005
(dp3006
g61
(dp3007
g81
g82
ssg70
g3001
sg63
(lp3008
S'wsgi.multithread'
p3009
asbag56
(g77
g58
NtRp3010
(dp3011
g61
(dp3012
g88
g89
ssg70
g3001
sg63
(lp3013
S':'
asbag56
(g77
g58
NtRp3014
(dp3015
g61
(dp3016
sg70
g3001
sg63
(lp3017
g56
(g57
g58
NtRp3018
(dp3019
g61
(dp3020
g69
I3
ssg70
g3014
sg63
(lp3021
g1441
asbasbasbag56
(g72
g58
NtRp3022
(dp3023
g61
(dp3024
sg70
g2105
sg63
(lp3025
g56
(g77
g58
NtRp3026
(dp3027
g61
(dp3028
g81
g82
ssg70
g3022
sg63
(lp3029
S'wsgi.run_once'
p3030
asbag56
(g77
g58
NtRp3031
(dp3032
g61
(dp3033
g88
g89
ssg70
g3022
sg63
(lp3034
S':'
asbag56
(g77
g58
NtRp3035
(dp3036
g61
(dp3037
sg70
g3022
sg63
(lp3038
g56
(g57
g58
NtRp3039
(dp3040
g61
(dp3041
g69
I3
ssg70
g3035
sg63
(lp3042
g99
asbasbasbag56
(g72
g58
NtRp3043
(dp3044
g61
(dp3045
sg70
g2105
sg63
(lp3046
g56
(g77
g58
NtRp3047
(dp3048
g61
(dp3049
g81
g82
ssg70
g3043
sg63
(lp3050
S'wsgi.url_scheme'
p3051
asbag56
(g77
g58
NtRp3052
(dp3053
g61
(dp3054
g88
g89
ssg70
g3043
sg63
(lp3055
S':'
asbag56
(g77
g58
NtRp3056
(dp3057
g61
(dp3058
sg70
g3043
sg63
(lp3059
g56
(g57
g58
NtRp3060
(dp3061
g61
(dp3062
g69
I3
ssg70
g3056
sg63
(lp3063
g1484
asbasbasbag56
(g72
g58
NtRp3064
(dp3065
g61
(dp3066
sg70
g2105
sg63
(lp3067
g56
(g77
g58
NtRp3068
(dp3069
g61
(dp3070
g81
g82
ssg70
g3064
sg63
(lp3071
S'wsgi.version'
p3072
asbag56
(g77
g58
NtRp3073
(dp3074
g61
(dp3075
g88
g89
ssg70
g3064
sg63
(lp3076
S':'
asbag56
(g77
g58
NtRp3077
(dp3078
g61
(dp3079
sg70
g3064
sg63
(lp3080
g56
(g57
g58
NtRp3081
(dp3082
g61
(dp3083
g69
I3
ssg70
g3077
sg63
(lp3084
S'1'
asbasbasbasbasbasbasbasbasbasbasbasbasbsS'frames'
p3085
(lp3086
(dp3087
S'file'
p3088
S'D:\\Workbench\\web2py_src\\gluon\\restricted.py'
p3089
sS'dump'
p3090
(dp3091
S'environment'
p3092
S"{'A': <class 'gluon.html.A'>, 'B': <class 'gluon.html.B'>, 'BEAUTIFY': <class 'gluon.html.BEAUTIFY'>, 'BODY': <class 'gluon.html.BODY'>, 'BR': <class 'gluon.html.BR'>, 'BUTTON': <class 'gluon.html.BUTTON'>, 'CAT': <class 'gluon.html.CAT'>, 'CENTER': <class 'gluon.html.CENTER'>, 'CLEANUP': <class 'gluon.validators.CLEANUP'>, 'CODE': <class 'gluon.html.CODE'>, ...}"
p3093
sS'ccode'
p3094
S'<code object <module> at 038FA0B0, file "D:\\Work...pound_interest\\views\\default/index.html", line 1>'
p3095
ssS'lnum'
p3096
I194
sS'lines'
p3097
(dp3098
I192
S'        else:'
p3099
sI193
S'            ccode = compile2(code,layer)'
p3100
sI194
S'        exec ccode in environment'
p3101
sI195
S'    except HTTP:'
p3102
sI196
S'        raise'
p3103
sI197
S'    except Exception, error:'
p3104
sI198
S'        # XXX Show exception in Wing IDE if running in debugger'
p3105
sI189
S'    try:'
p3106
sI190
S'        if type(code) == types.CodeType:'
p3107
sI191
S'            ccode = code'
p3108
ssS'call'
p3109
S'(code=r"response.write(\'<!DOCTYPE html>\\r\\n<html>\\r\\n<he...\\r\\n</form>\\r\\n</body>\\r\\n</html>\', escape=False)", environment={\'A\': <class \'gluon.html.A\'>, \'B\': <class \'gluon.html.B\'>, \'BEAUTIFY\': <class \'gluon.html.BEAUTIFY\'>, \'BODY\': <class \'gluon.html.BODY\'>, \'BR\': <class \'gluon.html.BR\'>, \'BUTTON\': <class \'gluon.html.BUTTON\'>, \'CAT\': <class \'gluon.html.CAT\'>, \'CENTER\': <class \'gluon.html.CENTER\'>, \'CLEANUP\': <class \'gluon.validators.CLEANUP\'>, \'CODE\': <class \'gluon.html.CODE\'>, ...}, layer=r\'D:\\Workbench\\web2py_src\\applications\\compound_interest\\views\\default/index.html\')'
p3110
sS'func'
p3111
S'restricted'
p3112
sa(dp3113
g3088
S'D:\\Workbench\\web2py_src\\applications\\compound_interest\\views\\default\\index.html'
p3114
sg3090
(dp3115
S'wikipedia'
p3116
S'undefined'
p3117
ssg3096
I6
sg3097
(dp3118
I1
S'response.write(\'<!DOCTYPE html>\\r\\n<html>\\r\\n<head></head>\\r\\n<body>\\r\\n<h1><a href="\', escape=False)'
p3119
sI2
S"response.write(URL('index'))"
p3120
sI3
S'response.write(\'">\\xe5\\xa4\\x8d\\xe5\\x88\\xa9\\xe8\\xae\\xa1\\xe7\\xae\\x97\\xe5\\x99\\xa8</a></h1>\\r\\n\\xe4\\xbb\\x80\\xe4\\xb9\\x88\\xe6\\x98\\xaf\\xe5\\xa4\\x8d\\xe5\\x88\\xa9: wikipedia,\\r\\n<a href="http://zh.wikipedia.org/wiki/%E5%A4%8D%E5%88%A9" target=_blank>zh</a>\\r\\n<a href="http://en.wikipedia.org/wiki/Compound_interest" target=_blank>en</a>\\r\\n<p>\\xe5\\x85\\xac\\xe5\\xbc\\x8f: <img src="http://upload.wikimedia.org/wikipedia/en/math/e/0/c/e0ca87a82c591a0e0610792963751fd5.png" /></p>\\r\\n<p>\\xe8\\xa7\\xa3\\xe9\\x87\\x8a: \\xe6\\x9c\\xaa\\xe6\\x9d\\xa5\\xe4\\xbb\\xb7\\xe5\\x80\\xbc = \\xe5\\xbd\\x93\\xe5\\x89\\x8d\\xe4\\xbb\\xb7\\xe5\\x80\\xbc  * (1+\\xe5\\x9b\\xba\\xe5\\xae\\x9a\\xe5\\xb9\\xb4\\xe6\\x94\\xb6\\xe7\\x9b\\x8a\\xe7\\x8e\\x87) ** \\xe6\\x94\\xb6\\xe7\\x9b\\x8a\\xe5\\xb9\\xb4\\xe9\\x99\\x90</p>\\r\\n\\r\\n<form action="\', escape=False)'
p3121
sI4
S"response.write(URL('index'))"
p3122
sI5
S'response.write(\'" method="get">\\r\\n\\xe6\\x8a\\x95\\xe8\\xb5\\x84\\xe6\\xa8\\xa1\\xe5\\xbc\\x8f : <input type="radio" name="invest_per_year" value="true" />\\xe6\\xaf\\x8f\\xe5\\xb9\\xb4\\xe5\\xae\\x9a\\xe6\\x8a\\x95\\r\\n<input type="radio" name="invest_per_year" value="false"  />\\xe4\\xb8\\x80\\xe6\\xac\\xa1\\xe6\\x80\\xa7\\xe6\\x8a\\x95\\xe5\\x85\\xa5 <p/>\\r\\n\\xe5\\xbd\\x93\\xe5\\x89\\x8d\\xe4\\xbb\\xb7\\xe5\\x80\\xbc(\\xe4\\xb8\\x80\\xe6\\xac\\xa1\\xe6\\x80\\xa7\\xe6\\x8a\\x95\\xe5\\x85\\xa5\\xe9\\x87\\x91\\xe9\\xa2\\x9d/\\xe6\\xaf\\x8f\\xe5\\xb9\\xb4\\xe6\\x8a\\x95\\xe5\\x85\\xa5\\xe9\\x87\\x91\\xe9\\xa2\\x9d) : <input type="text" name="pv" value="\', escape=False)'
p3123
sI6
S'response.write(pv)'
p3124
sI7
S'response.write(\'" /><p/>\\r\\n \\xe5\\x9b\\xba\\xe5\\xae\\x9a\\xe5\\xb9\\xb4\\xe6\\x94\\xb6\\xe7\\x9b\\x8a\\xe7\\x8e\\x87 : <input type="text" name="fi" value="\', escape=False)'
p3125
sI8
S'response.write(fi)'
p3126
sI9
S'response.write(\'" /><p/>\\r\\n\\xe6\\x94\\xb6\\xe7\\x9b\\x8a\\xe5\\xb9\\xb4\\xe9\\x99\\x90(\\xe6\\x8a\\x95\\xe8\\xb5\\x84\\xe5\\xb9\\xb4\\xe9\\x99\\x90) : <input type="text" name="np" value="\', escape=False)'
p3127
sI10
S'response.write(np)'
p3128
sI11
S'response.write(\'" /><p/>\\r\\n\\xe6\\x9c\\xaa\\xe6\\x9d\\xa5\\xe4\\xbb\\xb7\\xe5\\x80\\xbc (\\xe5\\x88\\xb0\\xe6\\x9c\\x9f\\xe9\\x87\\x91\\xe9\\xa2\\x9d) : <input type="text" name=fv value="\', escape=False)'
p3129
sI12
S'response.write(fv)'
p3130
sI13
S'response.write(\'" /><p/>\\r\\n<input type="submit" value="\\xe8\\xae\\xa1\\xe7\\xae\\x97" /><p/>\\r\\n</form>\\r\\n</body>\\r\\n</html>\', escape=False)'
p3131
ssg3109
S'()'
p3132
sg3111
S'<module>'
p3133
sasS'pyver'
p3134
S'Python 2.7.2: C:\\Program Files\\Apache Software Foundation\\Apache2.2\\bin\\httpd.exe'
p3135
sS'session'
p3136
g56
(g57
g58
NtRp3137
(dp3138
g61
(dp3139
sg63
(lp3140
g56
(g65
g58
NtRp3141
(dp3142
g61
(dp3143
g69
I5
ssg70
Nsg63
(lp3144
sbasbsS'etype'
p3145
S"<type 'exceptions.NameError'>"
p3146
sS'date'
p3147
S'Sat Jan 07 16:51:52 2012'
p3148
sS'response'
p3149
g56
(g57
g58
NtRp3150
(dp3151
g61
(dp3152
sg63
(lp3153
g56
(g65
g58
NtRp3154
(dp3155
g61
(dp3156
g69
I5
ssg70
Nsg63
(lp3157
g56
(g72
g58
NtRp3158
(dp3159
g61
(dp3160
sg70
g3154
sg63
(lp3161
g56
(g77
g58
NtRp3162
(dp3163
g61
(dp3164
g81
g82
ssg70
g3158
sg63
(lp3165
g154
asbag56
(g77
g58
NtRp3166
(dp3167
g61
(dp3168
g88
g89
ssg70
g3158
sg63
(lp3169
S':'
asbag56
(g77
g58
NtRp3170
(dp3171
g61
(dp3172
sg70
g3158
sg63
(lp3173
g56
(g57
g58
NtRp3174
(dp3175
g61
(dp3176
g69
I5
ssg70
g3170
sg63
(lp3177
S'<cStringIO.StringO object at 0x038FE760>'
p3178
asbasbasbag56
(g72
g58
NtRp3179
(dp3180
g61
(dp3181
sg70
g3154
sg63
(lp3182
g56
(g77
g58
NtRp3183
(dp3184
g61
(dp3185
g81
g82
ssg70
g3179
sg63
(lp3186
g220
asbag56
(g77
g58
NtRp3187
(dp3188
g61
(dp3189
g88
g89
ssg70
g3179
sg63
(lp3190
S':'
asbag56
(g77
g58
NtRp3191
(dp3192
g61
(dp3193
sg70
g3179
sg63
(lp3194
g56
(g57
g58
NtRp3195
(dp3196
g61
(dp3197
g69
I5
ssg70
g3191
sg63
(lp3198
g56
(g65
g58
NtRp3199
(dp3200
g61
(dp3201
g69
I4
ssg70
Nsg63
(lp3202
g56
(g72
g58
NtRp3203
(dp3204
g61
(dp3205
sg70
g3199
sg63
(lp3206
g56
(g77
g58
NtRp3207
(dp3208
g61
(dp3209
g81
g82
ssg70
g3203
sg63
(lp3210
S'session_id_compound_interest'
p3211
asbag56
(g77
g58
NtRp3212
(dp3213
g61
(dp3214
g88
g89
ssg70
g3203
sg63
(lp3215
S':'
asbag56
(g77
g58
NtRp3216
(dp3217
g61
(dp3218
sg70
g3203
sg63
(lp3219
g56
(g57
g58
NtRp3220
(dp3221
g61
(dp3222
g69
I4
ssg70
g3216
sg63
(lp3223
g56
(g65
g58
NtRp3224
(dp3225
g61
(dp3226
g69
I3
ssg70
Nsg63
(lp3227
g56
(g72
g58
NtRp3228
(dp3229
g61
(dp3230
sg70
g3224
sg63
(lp3231
g56
(g77
g58
NtRp3232
(dp3233
g61
(dp3234
g81
g82
ssg70
g3228
sg63
(lp3235
S'comment'
p3236
asbag56
(g77
g58
NtRp3237
(dp3238
g61
(dp3239
g88
g89
ssg70
g3228
sg63
(lp3240
S':'
asbag56
(g77
g58
NtRp3241
(dp3242
g61
(dp3243
sg70
g3228
sg63
(lp3244
g56
(g57
g58
NtRp3245
(dp3246
g61
(dp3247
g69
I3
ssg70
g3241
sg63
(lp3248
S''
asbasbasbag56
(g72
g58
NtRp3249
(dp3250
g61
(dp3251
sg70
g3224
sg63
(lp3252
g56
(g77
g58
NtRp3253
(dp3254
g61
(dp3255
g81
g82
ssg70
g3249
sg63
(lp3256
S'domain'
p3257
asbag56
(g77
g58
NtRp3258
(dp3259
g61
(dp3260
g88
g89
ssg70
g3249
sg63
(lp3261
S':'
asbag56
(g77
g58
NtRp3262
(dp3263
g61
(dp3264
sg70
g3249
sg63
(lp3265
g56
(g57
g58
NtRp3266
(dp3267
g61
(dp3268
g69
I3
ssg70
g3262
sg63
(lp3269
S''
asbasbasbag56
(g72
g58
NtRp3270
(dp3271
g61
(dp3272
sg70
g3224
sg63
(lp3273
g56
(g77
g58
NtRp3274
(dp3275
g61
(dp3276
g81
g82
ssg70
g3270
sg63
(lp3277
S'expires'
p3278
asbag56
(g77
g58
NtRp3279
(dp3280
g61
(dp3281
g88
g89
ssg70
g3270
sg63
(lp3282
S':'
asbag56
(g77
g58
NtRp3283
(dp3284
g61
(dp3285
sg70
g3270
sg63
(lp3286
g56
(g57
g58
NtRp3287
(dp3288
g61
(dp3289
g69
I3
ssg70
g3283
sg63
(lp3290
S''
asbasbasbag56
(g72
g58
NtRp3291
(dp3292
g61
(dp3293
sg70
g3224
sg63
(lp3294
g56
(g77
g58
NtRp3295
(dp3296
g61
(dp3297
g81
g82
ssg70
g3291
sg63
(lp3298
S'httponly'
p3299
asbag56
(g77
g58
NtRp3300
(dp3301
g61
(dp3302
g88
g89
ssg70
g3291
sg63
(lp3303
S':'
asbag56
(g77
g58
NtRp3304
(dp3305
g61
(dp3306
sg70
g3291
sg63
(lp3307
g56
(g57
g58
NtRp3308
(dp3309
g61
(dp3310
g69
I3
ssg70
g3304
sg63
(lp3311
S''
asbasbasbag56
(g72
g58
NtRp3312
(dp3313
g61
(dp3314
sg70
g3224
sg63
(lp3315
g56
(g77
g58
NtRp3316
(dp3317
g61
(dp3318
g81
g82
ssg70
g3312
sg63
(lp3319
S'max-age'
p3320
asbag56
(g77
g58
NtRp3321
(dp3322
g61
(dp3323
g88
g89
ssg70
g3312
sg63
(lp3324
S':'
asbag56
(g77
g58
NtRp3325
(dp3326
g61
(dp3327
sg70
g3312
sg63
(lp3328
g56
(g57
g58
NtRp3329
(dp3330
g61
(dp3331
g69
I3
ssg70
g3325
sg63
(lp3332
S''
asbasbasbag56
(g72
g58
NtRp3333
(dp3334
g61
(dp3335
sg70
g3224
sg63
(lp3336
g56
(g77
g58
NtRp3337
(dp3338
g61
(dp3339
g81
g82
ssg70
g3333
sg63
(lp3340
S'path'
p3341
asbag56
(g77
g58
NtRp3342
(dp3343
g61
(dp3344
g88
g89
ssg70
g3333
sg63
(lp3345
S':'
asbag56
(g77
g58
NtRp3346
(dp3347
g61
(dp3348
sg70
g3333
sg63
(lp3349
g56
(g57
g58
NtRp3350
(dp3351
g61
(dp3352
g69
I3
ssg70
g3346
sg63
(lp3353
S'/'
asbasbasbag56
(g72
g58
NtRp3354
(dp3355
g61
(dp3356
sg70
g3224
sg63
(lp3357
g56
(g77
g58
NtRp3358
(dp3359
g61
(dp3360
g81
g82
ssg70
g3354
sg63
(lp3361
S'secure'
p3362
asbag56
(g77
g58
NtRp3363
(dp3364
g61
(dp3365
g88
g89
ssg70
g3354
sg63
(lp3366
S':'
asbag56
(g77
g58
NtRp3367
(dp3368
g61
(dp3369
sg70
g3354
sg63
(lp3370
g56
(g57
g58
NtRp3371
(dp3372
g61
(dp3373
g69
I3
ssg70
g3367
sg63
(lp3374
S''
asbasbasbag56
(g72
g58
NtRp3375
(dp3376
g61
(dp3377
sg70
g3224
sg63
(lp3378
g56
(g77
g58
NtRp3379
(dp3380
g61
(dp3381
g81
g82
ssg70
g3375
sg63
(lp3382
S'version'
p3383
asbag56
(g77
g58
NtRp3384
(dp3385
g61
(dp3386
g88
g89
ssg70
g3375
sg63
(lp3387
S':'
asbag56
(g77
g58
NtRp3388
(dp3389
g61
(dp3390
sg70
g3375
sg63
(lp3391
g56
(g57
g58
NtRp3392
(dp3393
g61
(dp3394
g69
I3
ssg70
g3388
sg63
(lp3395
S''
asbasbasbasbasbasbasbasbasbasbasbag56
(g72
g58
NtRp3396
(dp3397
g61
(dp3398
sg70
g3154
sg63
(lp3399
g56
(g77
g58
NtRp3400
(dp3401
g61
(dp3402
g81
g82
ssg70
g3396
sg63
(lp3403
S'files'
p3404
asbag56
(g77
g58
NtRp3405
(dp3406
g61
(dp3407
g88
g89
ssg70
g3396
sg63
(lp3408
S':'
asbag56
(g77
g58
NtRp3409
(dp3410
g61
(dp3411
sg70
g3396
sg63
(lp3412
g56
(g57
g58
NtRp3413
(dp3414
g61
(dp3415
g69
I5
ssg70
g3409
sg63
(lp3416
g56
(g65
g58
NtRp3417
(dp3418
g61
(dp3419
g69
I4
ssg70
Nsg63
(lp3420
sbasbasbasbag56
(g72
g58
NtRp3421
(dp3422
g61
(dp3423
sg70
g3154
sg63
(lp3424
g56
(g77
g58
NtRp3425
(dp3426
g61
(dp3427
g81
g82
ssg70
g3421
sg63
(lp3428
S'flash'
p3429
asbag56
(g77
g58
NtRp3430
(dp3431
g61
(dp3432
g88
g89
ssg70
g3421
sg63
(lp3433
S':'
asbag56
(g77
g58
NtRp3434
(dp3435
g61
(dp3436
sg70
g3421
sg63
(lp3437
g56
(g57
g58
NtRp3438
(dp3439
g61
(dp3440
g69
I5
ssg70
g3434
sg63
(lp3441
S''
asbasbasbag56
(g72
g58
NtRp3442
(dp3443
g61
(dp3444
sg70
g3154
sg63
(lp3445
g56
(g77
g58
NtRp3446
(dp3447
g61
(dp3448
g81
g82
ssg70
g3442
sg63
(lp3449
S'generic_patterns'
p3450
asbag56
(g77
g58
NtRp3451
(dp3452
g61
(dp3453
g88
g89
ssg70
g3442
sg63
(lp3454
S':'
asbag56
(g77
g58
NtRp3455
(dp3456
g61
(dp3457
sg70
g3442
sg63
(lp3458
g56
(g57
g58
NtRp3459
(dp3460
g61
(dp3461
g69
I5
ssg70
g3455
sg63
(lp3462
g56
(g65
g58
NtRp3463
(dp3464
g61
(dp3465
g69
I4
ssg70
Nsg63
(lp3466
sbasbasbasbag56
(g72
g58
NtRp3467
(dp3468
g61
(dp3469
sg70
g3154
sg63
(lp3470
g56
(g77
g58
NtRp3471
(dp3472
g61
(dp3473
g81
g82
ssg70
g3467
sg63
(lp3474
S'headers'
p3475
asbag56
(g77
g58
NtRp3476
(dp3477
g61
(dp3478
g88
g89
ssg70
g3467
sg63
(lp3479
S':'
asbag56
(g77
g58
NtRp3480
(dp3481
g61
(dp3482
sg70
g3467
sg63
(lp3483
g56
(g57
g58
NtRp3484
(dp3485
g61
(dp3486
g69
I5
ssg70
g3480
sg63
(lp3487
g56
(g65
g58
NtRp3488
(dp3489
g61
(dp3490
g69
I4
ssg70
Nsg63
(lp3491
g56
(g72
g58
NtRp3492
(dp3493
g61
(dp3494
sg70
g3488
sg63
(lp3495
g56
(g77
g58
NtRp3496
(dp3497
g61
(dp3498
g81
g82
ssg70
g3492
sg63
(lp3499
S'Cache-Control'
p3500
asbag56
(g77
g58
NtRp3501
(dp3502
g61
(dp3503
g88
g89
ssg70
g3492
sg63
(lp3504
S':'
asbag56
(g77
g58
NtRp3505
(dp3506
g61
(dp3507
sg70
g3492
sg63
(lp3508
g56
(g57
g58
NtRp3509
(dp3510
g61
(dp3511
g69
I4
ssg70
g3505
sg63
(lp3512
S'no-store, no-cache, must-revalidate, post-check=0, pre-check=0'
p3513
asbasbasbag56
(g72
g58
NtRp3514
(dp3515
g61
(dp3516
sg70
g3488
sg63
(lp3517
g56
(g77
g58
NtRp3518
(dp3519
g61
(dp3520
g81
g82
ssg70
g3514
sg63
(lp3521
S'Content-Type'
p3522
asbag56
(g77
g58
NtRp3523
(dp3524
g61
(dp3525
g88
g89
ssg70
g3514
sg63
(lp3526
S':'
asbag56
(g77
g58
NtRp3527
(dp3528
g61
(dp3529
sg70
g3514
sg63
(lp3530
g56
(g57
g58
NtRp3531
(dp3532
g61
(dp3533
g69
I4
ssg70
g3527
sg63
(lp3534
S'text/html; charset=utf-8'
p3535
asbasbasbag56
(g72
g58
NtRp3536
(dp3537
g61
(dp3538
sg70
g3488
sg63
(lp3539
g56
(g77
g58
NtRp3540
(dp3541
g61
(dp3542
g81
g82
ssg70
g3536
sg63
(lp3543
S'Expires'
p3544
asbag56
(g77
g58
NtRp3545
(dp3546
g61
(dp3547
g88
g89
ssg70
g3536
sg63
(lp3548
S':'
asbag56
(g77
g58
NtRp3549
(dp3550
g61
(dp3551
sg70
g3536
sg63
(lp3552
g56
(g57
g58
NtRp3553
(dp3554
g61
(dp3555
g69
I4
ssg70
g3549
sg63
(lp3556
S'Sat, 07 Jan 2012 08:51:52 GMT'
p3557
asbasbasbag56
(g72
g58
NtRp3558
(dp3559
g61
(dp3560
sg70
g3488
sg63
(lp3561
g56
(g77
g58
NtRp3562
(dp3563
g61
(dp3564
g81
g82
ssg70
g3558
sg63
(lp3565
S'Pragma'
p3566
asbag56
(g77
g58
NtRp3567
(dp3568
g61
(dp3569
g88
g89
ssg70
g3558
sg63
(lp3570
S':'
asbag56
(g77
g58
NtRp3571
(dp3572
g61
(dp3573
sg70
g3558
sg63
(lp3574
g56
(g57
g58
NtRp3575
(dp3576
g61
(dp3577
g69
I4
ssg70
g3571
sg63
(lp3578
S'no-cache'
p3579
asbasbasbag56
(g72
g58
NtRp3580
(dp3581
g61
(dp3582
sg70
g3488
sg63
(lp3583
g56
(g77
g58
NtRp3584
(dp3585
g61
(dp3586
g81
g82
ssg70
g3580
sg63
(lp3587
S'X-Powered-By'
p3588
asbag56
(g77
g58
NtRp3589
(dp3590
g61
(dp3591
g88
g89
ssg70
g3580
sg63
(lp3592
S':'
asbag56
(g77
g58
NtRp3593
(dp3594
g61
(dp3595
sg70
g3580
sg63
(lp3596
g56
(g57
g58
NtRp3597
(dp3598
g61
(dp3599
g69
I4
ssg70
g3593
sg63
(lp3600
S'web2py'
p3601
asbasbasbasbasbasbasbag56
(g72
g58
NtRp3602
(dp3603
g61
(dp3604
sg70
g3154
sg63
(lp3605
g56
(g77
g58
NtRp3606
(dp3607
g61
(dp3608
g81
g82
ssg70
g3602
sg63
(lp3609
S'menu'
p3610
asbag56
(g77
g58
NtRp3611
(dp3612
g61
(dp3613
g88
g89
ssg70
g3602
sg63
(lp3614
S':'
asbag56
(g77
g58
NtRp3615
(dp3616
g61
(dp3617
sg70
g3602
sg63
(lp3618
g56
(g57
g58
NtRp3619
(dp3620
g61
(dp3621
g69
I5
ssg70
g3615
sg63
(lp3622
g56
(g65
g58
NtRp3623
(dp3624
g61
(dp3625
g69
I4
ssg70
Nsg63
(lp3626
sbasbasbasbag56
(g72
g58
NtRp3627
(dp3628
g61
(dp3629
sg70
g3154
sg63
(lp3630
g56
(g77
g58
NtRp3631
(dp3632
g61
(dp3633
g81
g82
ssg70
g3627
sg63
(lp3634
S'meta'
p3635
asbag56
(g77
g58
NtRp3636
(dp3637
g61
(dp3638
g88
g89
ssg70
g3627
sg63
(lp3639
S':'
asbag56
(g77
g58
NtRp3640
(dp3641
g61
(dp3642
sg70
g3627
sg63
(lp3643
g56
(g57
g58
NtRp3644
(dp3645
g61
(dp3646
g69
I5
ssg70
g3640
sg63
(lp3647
g56
(g65
g58
NtRp3648
(dp3649
g61
(dp3650
g69
I4
ssg70
Nsg63
(lp3651
sbasbasbasbag56
(g72
g58
NtRp3652
(dp3653
g61
(dp3654
sg70
g3154
sg63
(lp3655
g56
(g77
g58
NtRp3656
(dp3657
g61
(dp3658
g81
g82
ssg70
g3652
sg63
(lp3659
S'postprocessing'
p3660
asbag56
(g77
g58
NtRp3661
(dp3662
g61
(dp3663
g88
g89
ssg70
g3652
sg63
(lp3664
S':'
asbag56
(g77
g58
NtRp3665
(dp3666
g61
(dp3667
sg70
g3652
sg63
(lp3668
g56
(g57
g58
NtRp3669
(dp3670
g61
(dp3671
g69
I5
ssg70
g3665
sg63
(lp3672
g56
(g65
g58
NtRp3673
(dp3674
g61
(dp3675
g69
I4
ssg70
Nsg63
(lp3676
sbasbasbasbag56
(g72
g58
NtRp3677
(dp3678
g61
(dp3679
sg70
g3154
sg63
(lp3680
g56
(g77
g58
NtRp3681
(dp3682
g61
(dp3683
g81
g82
ssg70
g3677
sg63
(lp3684
S'session_filename'
p3685
asbag56
(g77
g58
NtRp3686
(dp3687
g61
(dp3688
g88
g89
ssg70
g3677
sg63
(lp3689
S':'
asbag56
(g77
g58
NtRp3690
(dp3691
g61
(dp3692
sg70
g3677
sg63
(lp3693
g56
(g57
g58
NtRp3694
(dp3695
g61
(dp3696
g69
I5
ssg70
g3690
sg63
(lp3697
S'D:\\Workbench\\web2py_src\\applications\\compound_interest\\sessions\\127.0.0.1-8be1f6e3-6cdc-4596-a2e8-fbb6ac659809'
p3698
asbasbasbag56
(g72
g58
NtRp3699
(dp3700
g61
(dp3701
sg70
g3154
sg63
(lp3702
g56
(g77
g58
NtRp3703
(dp3704
g61
(dp3705
g81
g82
ssg70
g3699
sg63
(lp3706
S'session_id'
p3707
asbag56
(g77
g58
NtRp3708
(dp3709
g61
(dp3710
g88
g89
ssg70
g3699
sg63
(lp3711
S':'
asbag56
(g77
g58
NtRp3712
(dp3713
g61
(dp3714
sg70
g3699
sg63
(lp3715
g56
(g57
g58
NtRp3716
(dp3717
g61
(dp3718
g69
I5
ssg70
g3712
sg63
(lp3719
S'127.0.0.1-8be1f6e3-6cdc-4596-a2e8-fbb6ac659809'
p3720
asbasbasbag56
(g72
g58
NtRp3721
(dp3722
g61
(dp3723
sg70
g3154
sg63
(lp3724
g56
(g77
g58
NtRp3725
(dp3726
g61
(dp3727
g81
g82
ssg70
g3721
sg63
(lp3728
S'session_id_name'
p3729
asbag56
(g77
g58
NtRp3730
(dp3731
g61
(dp3732
g88
g89
ssg70
g3721
sg63
(lp3733
S':'
asbag56
(g77
g58
NtRp3734
(dp3735
g61
(dp3736
sg70
g3721
sg63
(lp3737
g56
(g57
g58
NtRp3738
(dp3739
g61
(dp3740
g69
I5
ssg70
g3734
sg63
(lp3741
g3211
asbasbasbag56
(g72
g58
NtRp3742
(dp3743
g61
(dp3744
sg70
g3154
sg63
(lp3745
g56
(g77
g58
NtRp3746
(dp3747
g61
(dp3748
g81
g82
ssg70
g3742
sg63
(lp3749
S'session_new'
p3750
asbag56
(g77
g58
NtRp3751
(dp3752
g61
(dp3753
g88
g89
ssg70
g3742
sg63
(lp3754
S':'
asbag56
(g77
g58
NtRp3755
(dp3756
g61
(dp3757
sg70
g3742
sg63
(lp3758
g56
(g57
g58
NtRp3759
(dp3760
g61
(dp3761
g69
I5
ssg70
g3755
sg63
(lp3762
g1441
asbasbasbag56
(g72
g58
NtRp3763
(dp3764
g61
(dp3765
sg70
g3154
sg63
(lp3766
g56
(g77
g58
NtRp3767
(dp3768
g61
(dp3769
g81
g82
ssg70
g3763
sg63
(lp3770
S'status'
p3771
asbag56
(g77
g58
NtRp3772
(dp3773
g61
(dp3774
g88
g89
ssg70
g3763
sg63
(lp3775
S':'
asbag56
(g77
g58
NtRp3776
(dp3777
g61
(dp3778
sg70
g3763
sg63
(lp3779
g56
(g57
g58
NtRp3780
(dp3781
g61
(dp3782
g69
I5
ssg70
g3776
sg63
(lp3783
S'200'
p3784
asbasbasbag56
(g72
g58
NtRp3785
(dp3786
g61
(dp3787
sg70
g3154
sg63
(lp3788
g56
(g77
g58
NtRp3789
(dp3790
g61
(dp3791
g81
g82
ssg70
g3785
sg63
(lp3792
g2020
asbag56
(g77
g58
NtRp3793
(dp3794
g61
(dp3795
g88
g89
ssg70
g3785
sg63
(lp3796
S':'
asbag56
(g77
g58
NtRp3797
(dp3798
g61
(dp3799
sg70
g3785
sg63
(lp3800
g56
(g57
g58
NtRp3801
(dp3802
g61
(dp3803
g69
I5
ssg70
g3797
sg63
(lp3804
g2033
asbasbasbag56
(g72
g58
NtRp3805
(dp3806
g61
(dp3807
sg70
g3154
sg63
(lp3808
g56
(g77
g58
NtRp3809
(dp3810
g61
(dp3811
g81
g82
ssg70
g3805
sg63
(lp3812
S'view'
p3813
asbag56
(g77
g58
NtRp3814
(dp3815
g61
(dp3816
g88
g89
ssg70
g3805
sg63
(lp3817
S':'
asbag56
(g77
g58
NtRp3818
(dp3819
g61
(dp3820
sg70
g3805
sg63
(lp3821
g56
(g57
g58
NtRp3822
(dp3823
g61
(dp3824
g69
I5
ssg70
g3818
sg63
(lp3825
S'default/index.html'
p3826
asbasbasbasbasbsS'locals'
p3827
(dp3828
S'OBJECT'
p3829
S"<class 'gluon.html.OBJECT'>"
p3830
sS'track_changes'
p3831
S'<function track_changes>'
p3832
sS'SQLDB'
p3833
S"<class 'gluon.dal.DAL'>"
p3834
sg3136
S"<Storage {'_Session__hash': '\\xc8[\\xd5\\xc1#\\xd8e\\x10\\xe3\\x06\\x0ba\\xddT\\x92m'}>"
p3835
sS'LINK'
p3836
S"<class 'gluon.html.LINK'>"
p3837
sS'BR'
p3838
S"<class 'gluon.html.BR'>"
p3839
sS'local_import'
p3840
S'<function <lambda>>'
p3841
sS'OPTGROUP'
p3842
S"<class 'gluon.html.OPTGROUP'>"
p3843
sS'PRE'
p3844
S"<class 'gluon.html.PRE'>"
p3845
sS'IS_INT_IN_RANGE'
p3846
S"<class 'gluon.validators.IS_INT_IN_RANGE'>"
p3847
sS'IS_LOWER'
p3848
S"<class 'gluon.validators.IS_LOWER'>"
p3849
sS'IS_STRONG'
p3850
S"<class 'gluon.validators.IS_STRONG'>"
p3851
sS'cache'
p3852
S'<gluon.cache.Cache object>'
p3853
sS'IS_IN_DB'
p3854
S"<class 'gluon.validators.IS_IN_DB'>"
p3855
sS'TAG'
p3856
S'<gluon.html.__TAG__ object>'
p3857
sS'SQLField'
p3858
S"<class 'gluon.dal.Field'>"
p3859
sS'logger'
p3860
S'<logging.Logger object>'
p3861
sS'BODY'
p3862
S"<class 'gluon.html.BODY'>"
p3863
sS'IS_DATE_IN_RANGE'
p3864
S"<class 'gluon.validators.IS_DATE_IN_RANGE'>"
p3865
sS'IFRAME'
p3866
S"<class 'gluon.html.IFRAME'>"
p3867
sS'URL'
p3868
S'<function URL>'
p3869
sS'__file__'
p3870
S"r'D:\\Workbench\\web2py_src\\applications\\compound_interest\\views\\default/index.html'"
p3871
sS'P'
S"<class 'gluon.html.P'>"
p3872
sS'TFOOT'
p3873
S"<class 'gluon.html.TFOOT'>"
p3874
sS'XHTML'
p3875
S"<class 'gluon.html.XHTML'>"
p3876
sS'ON'
p3877
g1441
sS'OL'
p3878
S"<class 'gluon.html.OL'>"
p3879
sS'TEXTAREA'
p3880
S"<class 'gluon.html.TEXTAREA'>"
p3881
sS'MENU'
p3882
S"<class 'gluon.html.MENU'>"
p3883
sS'EM'
p3884
S"<class 'gluon.html.EM'>"
p3885
sS'CODE'
p3886
S"<class 'gluon.html.CODE'>"
p3887
sS'HTTP'
p3888
S"<class 'gluon.http.HTTP'>"
p3889
sS'HR'
p3890
S"<class 'gluon.html.HR'>"
p3891
sS'IS_DATETIME'
p3892
S"<class 'gluon.validators.IS_DATETIME'>"
p3893
sS'HEAD'
p3894
S"<class 'gluon.html.HEAD'>"
p3895
sS'LABEL'
p3896
S"<class 'gluon.html.LABEL'>"
p3897
sS'CLEANUP'
p3898
S"<class 'gluon.validators.CLEANUP'>"
p3899
sS'SELECT'
p3900
S"<class 'gluon.html.SELECT'>"
p3901
sS'CENTER'
p3902
S"<class 'gluon.html.CENTER'>"
p3903
sS'__builtins__'
p3904
S"{'ArithmeticError': <type 'exceptions.ArithmeticError'>, 'AssertionError': <type 'exceptions.AssertionError'>, 'AttributeError': <type 'exceptions.AttributeError'>, 'BaseException': <type 'exceptions.BaseException'>, 'BufferError': <type 'exceptions.BufferError'>, 'BytesWarning': <type 'exceptions.BytesWarning'>, 'DeprecationWarning': <type 'exceptions.DeprecationWarning'>, 'EOFError': <type 'exceptions.EOFError'>, 'Ellipsis': Ellipsis, 'EnvironmentError': <type 'exceptions.EnvironmentError'>, ...}"
p3905
sS'HTML'
p3906
S"<class 'gluon.html.HTML'>"
p3907
sS'SQLFORM'
p3908
S"<class 'gluon.sqlhtml.SQLFORM'>"
p3909
sS'LOAD'
p3910
S'<gluon.compileapp.LoadFactory object>'
p3911
sS'redirect'
p3912
S'<function redirect>'
p3913
sS'FIELDSET'
p3914
S"<class 'gluon.html.FIELDSET'>"
p3915
sS'IS_EQUAL_TO'
p3916
S"<class 'gluon.validators.IS_EQUAL_TO'>"
p3917
sS'embed64'
p3918
S'<function embed64>'
p3919
sS'IS_LIST_OF'
p3920
S"<class 'gluon.validators.IS_LIST_OF'>"
p3921
sS'INPUT'
p3922
S"<class 'gluon.html.INPUT'>"
p3923
sS'EMBED'
p3924
S"<class 'gluon.html.EMBED'>"
p3925
sS'FORM'
p3926
S"<class 'gluon.html.FORM'>"
p3927
sS'logging'
p3928
S"<module 'logging' from 'C:\\Python27\\Lib\\logging\\__init__.pyc'>"
p3929
sS'H2'
p3930
S"<class 'gluon.html.H2'>"
p3931
sS'H3'
p3932
S"<class 'gluon.html.H3'>"
p3933
sS'BUTTON'
p3934
S"<class 'gluon.html.BUTTON'>"
p3935
sS'H1'
p3936
S"<class 'gluon.html.H1'>"
p3937
sS'H6'
p3938
S"<class 'gluon.html.H6'>"
p3939
sS'H4'
p3940
S"<class 'gluon.html.H4'>"
p3941
sS'H5'
p3942
S"<class 'gluon.html.H5'>"
p3943
sS'UL'
p3944
S"<class 'gluon.html.UL'>"
p3945
sS'IS_UPPER'
p3946
S"<class 'gluon.validators.IS_UPPER'>"
p3947
sS'xmlescape'
p3948
S'<function xmlescape>'
p3949
sS'IS_TIME'
p3950
S"<class 'gluon.validators.IS_TIME'>"
p3951
sS'OPTION'
p3952
S"<class 'gluon.html.OPTION'>"
p3953
sS'TITLE'
p3954
S"<class 'gluon.html.TITLE'>"
p3955
sS'CRYPT'
p3956
S"<class 'gluon.validators.CRYPT'>"
p3957
sS'IS_EMPTY_OR'
p3958
S"<class 'gluon.validators.IS_EMPTY_OR'>"
p3959
sS'MARKMIN'
p3960
S"<class 'gluon.html.MARKMIN'>"
p3961
sS'COL'
p3962
S"<class 'gluon.html.COL'>"
p3963
sS'SCRIPT'
p3964
S"<class 'gluon.html.SCRIPT'>"
p3965
sS'TABLE'
p3966
S"<class 'gluon.html.TABLE'>"
p3967
sS'IS_IPV4'
p3968
S"<class 'gluon.validators.IS_IPV4'>"
p3969
sS'IS_LENGTH'
p3970
S"<class 'gluon.validators.IS_LENGTH'>"
p3971
sS'XML'
p3972
S"<class 'gluon.html.XML'>"
p3973
sS'B'
S"<class 'gluon.html.B'>"
p3974
sS'IMG'
p3975
S"<class 'gluon.html.IMG'>"
p3976
sS'SQLTABLE'
p3977
S"<class 'gluon.sqlhtml.SQLTABLE'>"
p3978
sS'IS_MATCH'
p3979
S"<class 'gluon.validators.IS_MATCH'>"
p3980
sS'IS_ALPHANUMERIC'
p3981
S"<class 'gluon.validators.IS_ALPHANUMERIC'>"
p3982
sS'SPAN'
p3983
S"<class 'gluon.html.SPAN'>"
p3984
sS'IS_SLUG'
p3985
S"<class 'gluon.validators.IS_SLUG'>"
p3986
sS'BEAUTIFY'
p3987
S"<class 'gluon.html.BEAUTIFY'>"
p3988
sS'META'
p3989
S"<class 'gluon.html.META'>"
p3990
sS'IS_DATE'
p3991
S"<class 'gluon.validators.IS_DATE'>"
p3992
sS'IS_EMAIL'
p3993
S"<class 'gluon.validators.IS_EMAIL'>"
p3994
sS'IS_NOT_EMPTY'
p3995
S"<class 'gluon.validators.IS_NOT_EMPTY'>"
p3996
sg55
S"<Storage {'body': <cStringIO.StringO object at 0..._vars': <Storage {}>, 'post_vars': <Storage {}>}>"
p3997
sS'TBODY'
p3998
S"<class 'gluon.html.TBODY'>"
p3999
sS'CAT'
p4000
S"<class 'gluon.html.CAT'>"
p4001
sS'Field'
p4002
S"<class 'gluon.dal.Field'>"
p4003
sS'DIV'
p4004
S"<class 'gluon.html.DIV'>"
p4005
sS'LEGEND'
p4006
S"<class 'gluon.html.LEGEND'>"
p4007
sS'COLGROUP'
p4008
S"<class 'gluon.html.COLGROUP'>"
p4009
sS'DAL'
p4010
S"<class 'gluon.dal.DAL'>"
p4011
sS'TT'
p4012
S"<class 'gluon.html.TT'>"
p4013
sS'TR'
p4014
S"<class 'gluon.html.TR'>"
p4015
sS'LI'
p4016
S"<class 'gluon.html.LI'>"
p4017
sS'TH'
p4018
S"<class 'gluon.html.TH'>"
p4019
sS'TD'
p4020
S"<class 'gluon.html.TD'>"
p4021
sS'IS_URL'
p4022
S"<class 'gluon.validators.IS_URL'>"
p4023
sS'A'
S"<class 'gluon.html.A'>"
p4024
sS'STYLE'
p4025
S"<class 'gluon.html.STYLE'>"
p4026
sS'IS_DATETIME_IN_RANGE'
p4027
S"<class 'gluon.validators.IS_DATETIME_IN_RANGE'>"
p4028
sS'IS_IMAGE'
p4029
S"<class 'gluon.validators.IS_IMAGE'>"
p4030
sS'I'
S"<class 'gluon.html.I'>"
p4031
sS'IS_NOT_IN_DB'
p4032
S"<class 'gluon.validators.IS_NOT_IN_DB'>"
p4033
sg3149
S"<Storage {'status': 200, 'body': <cStringIO.Stri...F70>, 'files': [], 'view': 'default/index.html'}>"
p4034
sS'THEAD'
p4035
S"<class 'gluon.html.THEAD'>"
p4036
sS'IS_NULL_OR'
p4037
S"<class 'gluon.validators.IS_EMPTY_OR'>"
p4038
sS'IS_FLOAT_IN_RANGE'
p4039
S"<class 'gluon.validators.IS_FLOAT_IN_RANGE'>"
p4040
sS'IS_EXPR'
p4041
S"<class 'gluon.validators.IS_EXPR'>"
p4042
sS'T'
S'<gluon.languages.translator object>'
p4043
sS'IS_IN_SET'
p4044
S"<class 'gluon.validators.IS_IN_SET'>"
p4045
sS'IS_UPLOAD_FILENAME'
p4046
S"<class 'gluon.validators.IS_UPLOAD_FILENAME'>"
p4047
sS'IS_DECIMAL_IN_RANGE'
p4048
S"<class 'gluon.validators.IS_DECIMAL_IN_RANGE'>"
p4049
sssS'traceback'
p4050
S'Traceback (most recent call last):\n  File "D:\\Workbench\\web2py_src\\gluon\\restricted.py", line 194, in restricted\n    exec ccode in environment\n  File "D:\\Workbench\\web2py_src\\applications\\compound_interest\\views\\default/index.html", line 6, in <module>\n    \xe4\xbb\x80\xe4\xb9\x88\xe6\x98\xaf\xe5\xa4\x8d\xe5\x88\xa9: wikipedia,\nNameError: name \'pv\' is not defined\n'
p4051
s.