(dp1
S'output'
p2
S''
sS'layer'
p3
S'D:\\Workbench\\web2py_src\\applications\\admin\\models\\access.py'
p4
sS'code'
p5
S"import os, time\nfrom gluon import portalocker\nfrom gluon.admin import apath\nfrom gluon.fileutils import read_file\n# ###########################################################\n# ## make sure administrator is on localhost or https\n# ###########################################################\n\nhttp_host = request.env.http_host.split(':')[0]\n\nif request.env.web2py_runtime_gae:\n    session_db = DAL('gae')\n    session.connect(request, response, db=session_db)\n    hosts = (http_host, )\n\nif request.env.http_x_forwarded_for or request.is_https:\n    session.secure()\nelif not request.is_local and not DEMO_MODE:\n    raise HTTP(200, T('Admin is disabled because insecure channel'))\n\ntry:\n    _config = {}\n    port = int(request.env.server_port or 0)\n    restricted(read_file(apath('../parameters_%i.py' % port, request)), _config)\n\n    if not 'password' in _config or not _config['password']:\n        raise HTTP(200, T('admin disabled because no admin password'))\nexcept IOError:\n    import gluon.fileutils\n    if request.env.web2py_runtime_gae:\n        if gluon.fileutils.check_credentials(request):\n            session.authorized = True\n            session.last_time = time.time()\n        else:\n            raise HTTP(200,\n                       T('admin disabled because not supported on google app engine'))\n    else:\n        raise HTTP(200, T('admin disabled because unable to access password file'))\n\n\ndef verify_password(password):\n    session.pam_user = None\n    if DEMO_MODE:\n        return True\n    elif not 'password' in _config:\n        return False\n    elif _config['password'].startswith('pam_user:'):\n        session.pam_user = _config['password'][9:].strip()\n        import gluon.contrib.pam\n        return gluon.contrib.pam.authenticate(session.pam_user,password)\n    else:\n        return _config['password'] == CRYPT()(password)[0]\n\n\n# ###########################################################\n# ## handle brute-force login attacks\n# ###########################################################\n\ndeny_file = os.path.join(request.folder, 'private', 'hosts.deny')\nallowed_number_of_attempts = 5\nexpiration_failed_logins = 3600\n\ndef read_hosts_deny():\n    import datetime\n    hosts = {}\n    if os.path.exists(deny_file):\n        hosts = {}\n        f = open(deny_file, 'r')\n        portalocker.lock(f, portalocker.LOCK_SH)\n        for line in f.readlines():\n            if not line.strip() or line.startswith('#'):\n                continue\n            fields = line.strip().split()\n            if len(fields) > 2:\n                hosts[fields[0].strip()] = ( # ip\n                    int(fields[1].strip()),  # n attemps\n                    int(fields[2].strip())   # last attempts\n                    )\n        portalocker.unlock(f)\n        f.close()  \n    return hosts\n        \ndef write_hosts_deny(denied_hosts):\n    f = open(deny_file, 'w')\n    portalocker.lock(f, portalocker.LOCK_EX)\n    for key, val in denied_hosts.items():\n        if time.time()-val[1] < expiration_failed_logins:\n            line = '%s %s %s\\n' % (key, val[0], val[1])\n            f.write(line)\n    portalocker.unlock(f)\n    f.close()        \n\ndef login_record(success=True):\n    denied_hosts = read_hosts_deny()\n    val = (0,0)\n    if success and request.client in denied_hosts:\n        del denied_hosts[request.client]\n    elif not success and not request.is_local:\n        val = denied_hosts.get(request.client,(0,0))\n        if time.time()-val[1]<expiration_failed_logins \\\n            and val[0] >= allowed_number_of_attempts:\n            return val[0] # locked out\n        time.sleep(2**val[0])\n        val = (val[0]+1,int(time.time()))        \n        denied_hosts[request.client] = val\n    write_hosts_deny(denied_hosts)\n    return val[0]\n        \n\n# ###########################################################\n# ## session expiration\n# ###########################################################\n\nt0 = time.time()\nif session.authorized:\n\n    if session.last_time and session.last_time < t0 - EXPIRATION:\n        session.flash = T('session expired')\n        session.authorized = False\n    else:\n        session.last_time = t0\n\nif not session.authorized and not \\\n    (request.controller == 'default' and \\\n     request.function in ('index','user')):\n\n    if request.env.query_string:\n        query_string = '?' + request.env.query_string\n    else:\n        query_string = ''\n\n    if request.env.web2py_original_uri:\n        url = request.env.web2py_original_uri\n    else:\n        url = request.env.path_info + query_string\n    redirect(URL(request.application, 'default', 'index', vars=dict(send=url)))\nelif session.authorized and \\\n     request.controller == 'default' and \\\n     request.function == 'index':\n    redirect(URL(request.application, 'default', 'site'))\n\n\nif request.controller=='appadmin' and DEMO_MODE:\n    session.flash = 'Appadmin disabled in demo mode'\n    redirect(URL('default','sites'))\n\n"
p6
sS'snapshot'
p7
(dp8
S'exception'
p9
(dp10
S'__hash__'
p11
S"<method-wrapper '__hash__' of exceptions.ImportError object>"
p12
sS'__setattr__'
p13
S"<method-wrapper '__setattr__' of exceptions.ImportError object>"
p14
sS'__reduce_ex__'
p15
S'<built-in method __reduce_ex__ of exceptions.ImportError object>'
p16
sS'__getslice__'
p17
S"<method-wrapper '__getslice__' of exceptions.ImportError object>"
p18
sS'__getitem__'
p19
S"<method-wrapper '__getitem__' of exceptions.ImportError object>"
p20
sS'__setstate__'
p21
S'<built-in method __setstate__ of exceptions.ImportError object>'
p22
sS'__reduce__'
p23
S'<built-in method __reduce__ of exceptions.ImportError object>'
p24
sS'__str__'
p25
S"<method-wrapper '__str__' of exceptions.ImportError object>"
p26
sS'__format__'
p27
S'<built-in method __format__ of exceptions.ImportError object>'
p28
sS'__getattribute__'
p29
S"<method-wrapper '__getattribute__' of exceptions.ImportError object>"
p30
sS'__class__'
p31
S"<type 'exceptions.ImportError'>"
p32
sS'__unicode__'
p33
S'<built-in method __unicode__ of exceptions.ImportError object>'
p34
sS'__delattr__'
p35
S"<method-wrapper '__delattr__' of exceptions.ImportError object>"
p36
sS'__subclasshook__'
p37
S'<built-in method __subclasshook__ of type object>'
p38
sS'__repr__'
p39
S"<method-wrapper '__repr__' of exceptions.ImportError object>"
p40
sS'args'
p41
S"('cannot import name portalocker',)"
p42
sS'__dict__'
p43
S'{}'
p44
sS'__sizeof__'
p45
S'<built-in method __sizeof__ of exceptions.ImportError object>'
p46
sS'__doc__'
p47
S'"Import can\'t find module, or can\'t find name in module."'
p48
sS'__init__'
p49
S"<method-wrapper '__init__' of exceptions.ImportError object>"
p50
sS'__new__'
p51
S'<built-in method __new__ of type object>'
p52
ssS'evalue'
p53
S'cannot import name portalocker'
p54
sS'request'
p55
ccopy_reg
_reconstructor
p56
(cgluon.html
BEAUTIFY
p57
c__builtin__
object
p58
NtRp59
(dp60
S'attributes'
p61
(dp62
sS'components'
p63
(lp64
g56
(cgluon.html
TABLE
p65
g58
NtRp66
(dp67
g61
(dp68
S'level'
p69
I5
ssS'parent'
p70
Nsg63
(lp71
g56
(cgluon.html
TR
p72
g58
NtRp73
(dp74
g61
(dp75
sg70
g66
sg63
(lp76
g56
(cgluon.html
TD
p77
g58
NtRp78
(dp79
g61
(dp80
S'_style'
p81
S'font-weight:bold;'
p82
ssg70
g73
sg63
(lp83
S'ajax'
p84
asbag56
(g77
g58
NtRp85
(dp86
g61
(dp87
S'_valign'
p88
S'top'
p89
ssg70
g73
sg63
(lp90
S':'
asbag56
(g77
g58
NtRp91
(dp92
g61
(dp93
sg70
g73
sg63
(lp94
g56
(g57
g58
NtRp95
(dp96
g61
(dp97
g69
I5
ssg70
g91
sg63
(lp98
S'False'
p99
asbasbasbag56
(g72
g58
NtRp100
(dp101
g61
(dp102
sg70
g66
sg63
(lp103
g56
(g77
g58
NtRp104
(dp105
g61
(dp106
g81
g82
ssg70
g100
sg63
(lp107
S'application'
p108
asbag56
(g77
g58
NtRp109
(dp110
g61
(dp111
g88
g89
ssg70
g100
sg63
(lp112
S':'
asbag56
(g77
g58
NtRp113
(dp114
g61
(dp115
sg70
g100
sg63
(lp116
g56
(g57
g58
NtRp117
(dp118
g61
(dp119
g69
I5
ssg70
g113
sg63
(lp120
S'admin'
p121
asbasbasbag56
(g72
g58
NtRp122
(dp123
g61
(dp124
sg70
g66
sg63
(lp125
g56
(g77
g58
NtRp126
(dp127
g61
(dp128
g81
g82
ssg70
g122
sg63
(lp129
g41
asbag56
(g77
g58
NtRp130
(dp131
g61
(dp132
g88
g89
ssg70
g122
sg63
(lp133
S':'
asbag56
(g77
g58
NtRp134
(dp135
g61
(dp136
sg70
g122
sg63
(lp137
g56
(g57
g58
NtRp138
(dp139
g61
(dp140
g69
I5
ssg70
g134
sg63
(lp141
g56
(g65
g58
NtRp142
(dp143
g61
(dp144
g69
I4
ssg70
Nsg63
(lp145
g56
(g72
g58
NtRp146
(dp147
g61
(dp148
sg70
g142
sg63
(lp149
g56
(g77
g58
NtRp150
(dp151
g61
(dp152
sg70
g146
sg63
(lp153
g56
(g57
g58
NtRp154
(dp155
g61
(dp156
g69
I4
ssg70
g150
sg63
(lp157
S'admin'
p158
asbasbasbag56
(g72
g58
NtRp159
(dp160
g61
(dp161
sg70
g142
sg63
(lp162
g56
(g77
g58
NtRp163
(dp164
g61
(dp165
sg70
g159
sg63
(lp166
g56
(g57
g58
NtRp167
(dp168
g61
(dp169
g69
I4
ssg70
g163
sg63
(lp170
S'127.0.0.1.2012-01-08.19-27-23.e593e9ef-1233-4135-abd4-de8734c95c11'
p171
asbasbasbasbasbasbasbag56
(g72
g58
NtRp172
(dp173
g61
(dp174
sg70
g66
sg63
(lp175
g56
(g77
g58
NtRp176
(dp177
g61
(dp178
g81
g82
ssg70
g172
sg63
(lp179
S'body'
p180
asbag56
(g77
g58
NtRp181
(dp182
g61
(dp183
g88
g89
ssg70
g172
sg63
(lp184
S':'
asbag56
(g77
g58
NtRp185
(dp186
g61
(dp187
sg70
g172
sg63
(lp188
g56
(g57
g58
NtRp189
(dp190
g61
(dp191
g69
I5
ssg70
g185
sg63
(lp192
S'<cStringIO.StringO object at 0x03DC75C0>'
p193
asbasbasbag56
(g72
g58
NtRp194
(dp195
g61
(dp196
sg70
g66
sg63
(lp197
g56
(g77
g58
NtRp198
(dp199
g61
(dp200
g81
g82
ssg70
g194
sg63
(lp201
S'client'
p202
asbag56
(g77
g58
NtRp203
(dp204
g61
(dp205
g88
g89
ssg70
g194
sg63
(lp206
S':'
asbag56
(g77
g58
NtRp207
(dp208
g61
(dp209
sg70
g194
sg63
(lp210
g56
(g57
g58
NtRp211
(dp212
g61
(dp213
g69
I5
ssg70
g207
sg63
(lp214
S'127.0.0.1'
p215
asbasbasbag56
(g72
g58
NtRp216
(dp217
g61
(dp218
sg70
g66
sg63
(lp219
g56
(g77
g58
NtRp220
(dp221
g61
(dp222
g81
g82
ssg70
g216
sg63
(lp223
S'controller'
p224
asbag56
(g77
g58
NtRp225
(dp226
g61
(dp227
g88
g89
ssg70
g216
sg63
(lp228
S':'
asbag56
(g77
g58
NtRp229
(dp230
g61
(dp231
sg70
g216
sg63
(lp232
g56
(g57
g58
NtRp233
(dp234
g61
(dp235
g69
I5
ssg70
g229
sg63
(lp236
S'default'
p237
asbasbasbag56
(g72
g58
NtRp238
(dp239
g61
(dp240
sg70
g66
sg63
(lp241
g56
(g77
g58
NtRp242
(dp243
g61
(dp244
g81
g82
ssg70
g238
sg63
(lp245
S'cookies'
p246
asbag56
(g77
g58
NtRp247
(dp248
g61
(dp249
g88
g89
ssg70
g238
sg63
(lp250
S':'
asbag56
(g77
g58
NtRp251
(dp252
g61
(dp253
sg70
g238
sg63
(lp254
g56
(g57
g58
NtRp255
(dp256
g61
(dp257
g69
I5
ssg70
g251
sg63
(lp258
g56
(g65
g58
NtRp259
(dp260
g61
(dp261
g69
I4
ssg70
Nsg63
(lp262
g56
(g72
g58
NtRp263
(dp264
g61
(dp265
sg70
g259
sg63
(lp266
g56
(g77
g58
NtRp267
(dp268
g61
(dp269
g81
g82
ssg70
g263
sg63
(lp270
S'session_id_admin'
p271
asbag56
(g77
g58
NtRp272
(dp273
g61
(dp274
g88
g89
ssg70
g263
sg63
(lp275
S':'
asbag56
(g77
g58
NtRp276
(dp277
g61
(dp278
sg70
g263
sg63
(lp279
g56
(g57
g58
NtRp280
(dp281
g61
(dp282
g69
I4
ssg70
g276
sg63
(lp283
g56
(g65
g58
NtRp284
(dp285
g61
(dp286
g69
I3
ssg70
Nsg63
(lp287
g56
(g72
g58
NtRp288
(dp289
g61
(dp290
sg70
g284
sg63
(lp291
g56
(g77
g58
NtRp292
(dp293
g61
(dp294
g81
g82
ssg70
g288
sg63
(lp295
S'comment'
p296
asbag56
(g77
g58
NtRp297
(dp298
g61
(dp299
g88
g89
ssg70
g288
sg63
(lp300
S':'
asbag56
(g77
g58
NtRp301
(dp302
g61
(dp303
sg70
g288
sg63
(lp304
g56
(g57
g58
NtRp305
(dp306
g61
(dp307
g69
I3
ssg70
g301
sg63
(lp308
S''
asbasbasbag56
(g72
g58
NtRp309
(dp310
g61
(dp311
sg70
g284
sg63
(lp312
g56
(g77
g58
NtRp313
(dp314
g61
(dp315
g81
g82
ssg70
g309
sg63
(lp316
S'domain'
p317
asbag56
(g77
g58
NtRp318
(dp319
g61
(dp320
g88
g89
ssg70
g309
sg63
(lp321
S':'
asbag56
(g77
g58
NtRp322
(dp323
g61
(dp324
sg70
g309
sg63
(lp325
g56
(g57
g58
NtRp326
(dp327
g61
(dp328
g69
I3
ssg70
g322
sg63
(lp329
S''
asbasbasbag56
(g72
g58
NtRp330
(dp331
g61
(dp332
sg70
g284
sg63
(lp333
g56
(g77
g58
NtRp334
(dp335
g61
(dp336
g81
g82
ssg70
g330
sg63
(lp337
S'expires'
p338
asbag56
(g77
g58
NtRp339
(dp340
g61
(dp341
g88
g89
ssg70
g330
sg63
(lp342
S':'
asbag56
(g77
g58
NtRp343
(dp344
g61
(dp345
sg70
g330
sg63
(lp346
g56
(g57
g58
NtRp347
(dp348
g61
(dp349
g69
I3
ssg70
g343
sg63
(lp350
S''
asbasbasbag56
(g72
g58
NtRp351
(dp352
g61
(dp353
sg70
g284
sg63
(lp354
g56
(g77
g58
NtRp355
(dp356
g61
(dp357
g81
g82
ssg70
g351
sg63
(lp358
S'httponly'
p359
asbag56
(g77
g58
NtRp360
(dp361
g61
(dp362
g88
g89
ssg70
g351
sg63
(lp363
S':'
asbag56
(g77
g58
NtRp364
(dp365
g61
(dp366
sg70
g351
sg63
(lp367
g56
(g57
g58
NtRp368
(dp369
g61
(dp370
g69
I3
ssg70
g364
sg63
(lp371
S''
asbasbasbag56
(g72
g58
NtRp372
(dp373
g61
(dp374
sg70
g284
sg63
(lp375
g56
(g77
g58
NtRp376
(dp377
g61
(dp378
g81
g82
ssg70
g372
sg63
(lp379
S'max-age'
p380
asbag56
(g77
g58
NtRp381
(dp382
g61
(dp383
g88
g89
ssg70
g372
sg63
(lp384
S':'
asbag56
(g77
g58
NtRp385
(dp386
g61
(dp387
sg70
g372
sg63
(lp388
g56
(g57
g58
NtRp389
(dp390
g61
(dp391
g69
I3
ssg70
g385
sg63
(lp392
S''
asbasbasbag56
(g72
g58
NtRp393
(dp394
g61
(dp395
sg70
g284
sg63
(lp396
g56
(g77
g58
NtRp397
(dp398
g61
(dp399
g81
g82
ssg70
g393
sg63
(lp400
S'path'
p401
asbag56
(g77
g58
NtRp402
(dp403
g61
(dp404
g88
g89
ssg70
g393
sg63
(lp405
S':'
asbag56
(g77
g58
NtRp406
(dp407
g61
(dp408
sg70
g393
sg63
(lp409
g56
(g57
g58
NtRp410
(dp411
g61
(dp412
g69
I3
ssg70
g406
sg63
(lp413
S''
asbasbasbag56
(g72
g58
NtRp414
(dp415
g61
(dp416
sg70
g284
sg63
(lp417
g56
(g77
g58
NtRp418
(dp419
g61
(dp420
g81
g82
ssg70
g414
sg63
(lp421
S'secure'
p422
asbag56
(g77
g58
NtRp423
(dp424
g61
(dp425
g88
g89
ssg70
g414
sg63
(lp426
S':'
asbag56
(g77
g58
NtRp427
(dp428
g61
(dp429
sg70
g414
sg63
(lp430
g56
(g57
g58
NtRp431
(dp432
g61
(dp433
g69
I3
ssg70
g427
sg63
(lp434
S''
asbasbasbag56
(g72
g58
NtRp435
(dp436
g61
(dp437
sg70
g284
sg63
(lp438
g56
(g77
g58
NtRp439
(dp440
g61
(dp441
g81
g82
ssg70
g435
sg63
(lp442
S'version'
p443
asbag56
(g77
g58
NtRp444
(dp445
g61
(dp446
g88
g89
ssg70
g435
sg63
(lp447
S':'
asbag56
(g77
g58
NtRp448
(dp449
g61
(dp450
sg70
g435
sg63
(lp451
g56
(g57
g58
NtRp452
(dp453
g61
(dp454
g69
I3
ssg70
g448
sg63
(lp455
S''
asbasbasbasbasbasbasbag56
(g72
g58
NtRp456
(dp457
g61
(dp458
sg70
g259
sg63
(lp459
g56
(g77
g58
NtRp460
(dp461
g61
(dp462
g81
g82
ssg70
g456
sg63
(lp463
S'session_id_tgtoolbox'
p464
asbag56
(g77
g58
NtRp465
(dp466
g61
(dp467
g88
g89
ssg70
g456
sg63
(lp468
S':'
asbag56
(g77
g58
NtRp469
(dp470
g61
(dp471
sg70
g456
sg63
(lp472
g56
(g57
g58
NtRp473
(dp474
g61
(dp475
g69
I4
ssg70
g469
sg63
(lp476
g56
(g65
g58
NtRp477
(dp478
g61
(dp479
g69
I3
ssg70
Nsg63
(lp480
g56
(g72
g58
NtRp481
(dp482
g61
(dp483
sg70
g477
sg63
(lp484
g56
(g77
g58
NtRp485
(dp486
g61
(dp487
g81
g82
ssg70
g481
sg63
(lp488
g296
asbag56
(g77
g58
NtRp489
(dp490
g61
(dp491
g88
g89
ssg70
g481
sg63
(lp492
S':'
asbag56
(g77
g58
NtRp493
(dp494
g61
(dp495
sg70
g481
sg63
(lp496
g56
(g57
g58
NtRp497
(dp498
g61
(dp499
g69
I3
ssg70
g493
sg63
(lp500
S''
asbasbasbag56
(g72
g58
NtRp501
(dp502
g61
(dp503
sg70
g477
sg63
(lp504
g56
(g77
g58
NtRp505
(dp506
g61
(dp507
g81
g82
ssg70
g501
sg63
(lp508
g317
asbag56
(g77
g58
NtRp509
(dp510
g61
(dp511
g88
g89
ssg70
g501
sg63
(lp512
S':'
asbag56
(g77
g58
NtRp513
(dp514
g61
(dp515
sg70
g501
sg63
(lp516
g56
(g57
g58
NtRp517
(dp518
g61
(dp519
g69
I3
ssg70
g513
sg63
(lp520
S''
asbasbasbag56
(g72
g58
NtRp521
(dp522
g61
(dp523
sg70
g477
sg63
(lp524
g56
(g77
g58
NtRp525
(dp526
g61
(dp527
g81
g82
ssg70
g521
sg63
(lp528
g338
asbag56
(g77
g58
NtRp529
(dp530
g61
(dp531
g88
g89
ssg70
g521
sg63
(lp532
S':'
asbag56
(g77
g58
NtRp533
(dp534
g61
(dp535
sg70
g521
sg63
(lp536
g56
(g57
g58
NtRp537
(dp538
g61
(dp539
g69
I3
ssg70
g533
sg63
(lp540
S''
asbasbasbag56
(g72
g58
NtRp541
(dp542
g61
(dp543
sg70
g477
sg63
(lp544
g56
(g77
g58
NtRp545
(dp546
g61
(dp547
g81
g82
ssg70
g541
sg63
(lp548
g359
asbag56
(g77
g58
NtRp549
(dp550
g61
(dp551
g88
g89
ssg70
g541
sg63
(lp552
S':'
asbag56
(g77
g58
NtRp553
(dp554
g61
(dp555
sg70
g541
sg63
(lp556
g56
(g57
g58
NtRp557
(dp558
g61
(dp559
g69
I3
ssg70
g553
sg63
(lp560
S''
asbasbasbag56
(g72
g58
NtRp561
(dp562
g61
(dp563
sg70
g477
sg63
(lp564
g56
(g77
g58
NtRp565
(dp566
g61
(dp567
g81
g82
ssg70
g561
sg63
(lp568
g380
asbag56
(g77
g58
NtRp569
(dp570
g61
(dp571
g88
g89
ssg70
g561
sg63
(lp572
S':'
asbag56
(g77
g58
NtRp573
(dp574
g61
(dp575
sg70
g561
sg63
(lp576
g56
(g57
g58
NtRp577
(dp578
g61
(dp579
g69
I3
ssg70
g573
sg63
(lp580
S''
asbasbasbag56
(g72
g58
NtRp581
(dp582
g61
(dp583
sg70
g477
sg63
(lp584
g56
(g77
g58
NtRp585
(dp586
g61
(dp587
g81
g82
ssg70
g581
sg63
(lp588
g401
asbag56
(g77
g58
NtRp589
(dp590
g61
(dp591
g88
g89
ssg70
g581
sg63
(lp592
S':'
asbag56
(g77
g58
NtRp593
(dp594
g61
(dp595
sg70
g581
sg63
(lp596
g56
(g57
g58
NtRp597
(dp598
g61
(dp599
g69
I3
ssg70
g593
sg63
(lp600
S''
asbasbasbag56
(g72
g58
NtRp601
(dp602
g61
(dp603
sg70
g477
sg63
(lp604
g56
(g77
g58
NtRp605
(dp606
g61
(dp607
g81
g82
ssg70
g601
sg63
(lp608
g422
asbag56
(g77
g58
NtRp609
(dp610
g61
(dp611
g88
g89
ssg70
g601
sg63
(lp612
S':'
asbag56
(g77
g58
NtRp613
(dp614
g61
(dp615
sg70
g601
sg63
(lp616
g56
(g57
g58
NtRp617
(dp618
g61
(dp619
g69
I3
ssg70
g613
sg63
(lp620
S''
asbasbasbag56
(g72
g58
NtRp621
(dp622
g61
(dp623
sg70
g477
sg63
(lp624
g56
(g77
g58
NtRp625
(dp626
g61
(dp627
g81
g82
ssg70
g621
sg63
(lp628
g443
asbag56
(g77
g58
NtRp629
(dp630
g61
(dp631
g88
g89
ssg70
g621
sg63
(lp632
S':'
asbag56
(g77
g58
NtRp633
(dp634
g61
(dp635
sg70
g621
sg63
(lp636
g56
(g57
g58
NtRp637
(dp638
g61
(dp639
g69
I3
ssg70
g633
sg63
(lp640
S''
asbasbasbasbasbasbasbag56
(g72
g58
NtRp641
(dp642
g61
(dp643
sg70
g259
sg63
(lp644
g56
(g77
g58
NtRp645
(dp646
g61
(dp647
g81
g82
ssg70
g641
sg63
(lp648
S'session_id_welcome'
p649
asbag56
(g77
g58
NtRp650
(dp651
g61
(dp652
g88
g89
ssg70
g641
sg63
(lp653
S':'
asbag56
(g77
g58
NtRp654
(dp655
g61
(dp656
sg70
g641
sg63
(lp657
g56
(g57
g58
NtRp658
(dp659
g61
(dp660
g69
I4
ssg70
g654
sg63
(lp661
g56
(g65
g58
NtRp662
(dp663
g61
(dp664
g69
I3
ssg70
Nsg63
(lp665
g56
(g72
g58
NtRp666
(dp667
g61
(dp668
sg70
g662
sg63
(lp669
g56
(g77
g58
NtRp670
(dp671
g61
(dp672
g81
g82
ssg70
g666
sg63
(lp673
g296
asbag56
(g77
g58
NtRp674
(dp675
g61
(dp676
g88
g89
ssg70
g666
sg63
(lp677
S':'
asbag56
(g77
g58
NtRp678
(dp679
g61
(dp680
sg70
g666
sg63
(lp681
g56
(g57
g58
NtRp682
(dp683
g61
(dp684
g69
I3
ssg70
g678
sg63
(lp685
S''
asbasbasbag56
(g72
g58
NtRp686
(dp687
g61
(dp688
sg70
g662
sg63
(lp689
g56
(g77
g58
NtRp690
(dp691
g61
(dp692
g81
g82
ssg70
g686
sg63
(lp693
g317
asbag56
(g77
g58
NtRp694
(dp695
g61
(dp696
g88
g89
ssg70
g686
sg63
(lp697
S':'
asbag56
(g77
g58
NtRp698
(dp699
g61
(dp700
sg70
g686
sg63
(lp701
g56
(g57
g58
NtRp702
(dp703
g61
(dp704
g69
I3
ssg70
g698
sg63
(lp705
S''
asbasbasbag56
(g72
g58
NtRp706
(dp707
g61
(dp708
sg70
g662
sg63
(lp709
g56
(g77
g58
NtRp710
(dp711
g61
(dp712
g81
g82
ssg70
g706
sg63
(lp713
g338
asbag56
(g77
g58
NtRp714
(dp715
g61
(dp716
g88
g89
ssg70
g706
sg63
(lp717
S':'
asbag56
(g77
g58
NtRp718
(dp719
g61
(dp720
sg70
g706
sg63
(lp721
g56
(g57
g58
NtRp722
(dp723
g61
(dp724
g69
I3
ssg70
g718
sg63
(lp725
S''
asbasbasbag56
(g72
g58
NtRp726
(dp727
g61
(dp728
sg70
g662
sg63
(lp729
g56
(g77
g58
NtRp730
(dp731
g61
(dp732
g81
g82
ssg70
g726
sg63
(lp733
g359
asbag56
(g77
g58
NtRp734
(dp735
g61
(dp736
g88
g89
ssg70
g726
sg63
(lp737
S':'
asbag56
(g77
g58
NtRp738
(dp739
g61
(dp740
sg70
g726
sg63
(lp741
g56
(g57
g58
NtRp742
(dp743
g61
(dp744
g69
I3
ssg70
g738
sg63
(lp745
S''
asbasbasbag56
(g72
g58
NtRp746
(dp747
g61
(dp748
sg70
g662
sg63
(lp749
g56
(g77
g58
NtRp750
(dp751
g61
(dp752
g81
g82
ssg70
g746
sg63
(lp753
g380
asbag56
(g77
g58
NtRp754
(dp755
g61
(dp756
g88
g89
ssg70
g746
sg63
(lp757
S':'
asbag56
(g77
g58
NtRp758
(dp759
g61
(dp760
sg70
g746
sg63
(lp761
g56
(g57
g58
NtRp762
(dp763
g61
(dp764
g69
I3
ssg70
g758
sg63
(lp765
S''
asbasbasbag56
(g72
g58
NtRp766
(dp767
g61
(dp768
sg70
g662
sg63
(lp769
g56
(g77
g58
NtRp770
(dp771
g61
(dp772
g81
g82
ssg70
g766
sg63
(lp773
g401
asbag56
(g77
g58
NtRp774
(dp775
g61
(dp776
g88
g89
ssg70
g766
sg63
(lp777
S':'
asbag56
(g77
g58
NtRp778
(dp779
g61
(dp780
sg70
g766
sg63
(lp781
g56
(g57
g58
NtRp782
(dp783
g61
(dp784
g69
I3
ssg70
g778
sg63
(lp785
S''
asbasbasbag56
(g72
g58
NtRp786
(dp787
g61
(dp788
sg70
g662
sg63
(lp789
g56
(g77
g58
NtRp790
(dp791
g61
(dp792
g81
g82
ssg70
g786
sg63
(lp793
g422
asbag56
(g77
g58
NtRp794
(dp795
g61
(dp796
g88
g89
ssg70
g786
sg63
(lp797
S':'
asbag56
(g77
g58
NtRp798
(dp799
g61
(dp800
sg70
g786
sg63
(lp801
g56
(g57
g58
NtRp802
(dp803
g61
(dp804
g69
I3
ssg70
g798
sg63
(lp805
S''
asbasbasbag56
(g72
g58
NtRp806
(dp807
g61
(dp808
sg70
g662
sg63
(lp809
g56
(g77
g58
NtRp810
(dp811
g61
(dp812
g81
g82
ssg70
g806
sg63
(lp813
g443
asbag56
(g77
g58
NtRp814
(dp815
g61
(dp816
g88
g89
ssg70
g806
sg63
(lp817
S':'
asbag56
(g77
g58
NtRp818
(dp819
g61
(dp820
sg70
g806
sg63
(lp821
g56
(g57
g58
NtRp822
(dp823
g61
(dp824
g69
I3
ssg70
g818
sg63
(lp825
S''
asbasbasbasbasbasbasbasbasbasbasbag56
(g72
g58
NtRp826
(dp827
g61
(dp828
sg70
g66
sg63
(lp829
g56
(g77
g58
NtRp830
(dp831
g61
(dp832
g81
g82
ssg70
g826
sg63
(lp833
S'env'
p834
asbag56
(g77
g58
NtRp835
(dp836
g61
(dp837
g88
g89
ssg70
g826
sg63
(lp838
S':'
asbag56
(g77
g58
NtRp839
(dp840
g61
(dp841
sg70
g826
sg63
(lp842
g56
(g57
g58
NtRp843
(dp844
g61
(dp845
g69
I5
ssg70
g839
sg63
(lp846
g56
(g65
g58
NtRp847
(dp848
g61
(dp849
g69
I4
ssg70
Nsg63
(lp850
g56
(g72
g58
NtRp851
(dp852
g61
(dp853
sg70
g847
sg63
(lp854
g56
(g77
g58
NtRp855
(dp856
g61
(dp857
g81
g82
ssg70
g851
sg63
(lp858
S'app_folders'
p859
asbag56
(g77
g58
NtRp860
(dp861
g61
(dp862
g88
g89
ssg70
g851
sg63
(lp863
S':'
asbag56
(g77
g58
NtRp864
(dp865
g61
(dp866
sg70
g851
sg63
(lp867
g56
(g57
g58
NtRp868
(dp869
g61
(dp870
g69
I4
ssg70
g864
sg63
(lp871
S"set(['D:\\\\Workbench\\\\web2py_src\\\\applications\\\\tgtoolbox\\\\', 'D:\\\\Workbench\\\\web2py_src\\\\applications\\\\admin\\\\'])"
p872
asbasbasbag56
(g72
g58
NtRp873
(dp874
g61
(dp875
sg70
g847
sg63
(lp876
g56
(g77
g58
NtRp877
(dp878
g61
(dp879
g81
g82
ssg70
g873
sg63
(lp880
S'applications_parent'
p881
asbag56
(g77
g58
NtRp882
(dp883
g61
(dp884
g88
g89
ssg70
g873
sg63
(lp885
S':'
asbag56
(g77
g58
NtRp886
(dp887
g61
(dp888
sg70
g873
sg63
(lp889
g56
(g57
g58
NtRp890
(dp891
g61
(dp892
g69
I4
ssg70
g886
sg63
(lp893
S'D:\\Workbench\\web2py_src'
p894
asbasbasbag56
(g72
g58
NtRp895
(dp896
g61
(dp897
sg70
g847
sg63
(lp898
g56
(g77
g58
NtRp899
(dp900
g61
(dp901
g81
g82
ssg70
g895
sg63
(lp902
S'comspec'
p903
asbag56
(g77
g58
NtRp904
(dp905
g61
(dp906
g88
g89
ssg70
g895
sg63
(lp907
S':'
asbag56
(g77
g58
NtRp908
(dp909
g61
(dp910
sg70
g895
sg63
(lp911
g56
(g57
g58
NtRp912
(dp913
g61
(dp914
g69
I4
ssg70
g908
sg63
(lp915
S'C:\\Windows\\system32\\cmd.exe'
p916
asbasbasbag56
(g72
g58
NtRp917
(dp918
g61
(dp919
sg70
g847
sg63
(lp920
g56
(g77
g58
NtRp921
(dp922
g61
(dp923
g81
g82
ssg70
g917
sg63
(lp924
S'db_sessions'
p925
asbag56
(g77
g58
NtRp926
(dp927
g61
(dp928
g88
g89
ssg70
g917
sg63
(lp929
S':'
asbag56
(g77
g58
NtRp930
(dp931
g61
(dp932
sg70
g917
sg63
(lp933
g56
(g57
g58
NtRp934
(dp935
g61
(dp936
g69
I4
ssg70
g930
sg63
(lp937
S'set([])'
p938
asbasbasbag56
(g72
g58
NtRp939
(dp940
g61
(dp941
sg70
g847
sg63
(lp942
g56
(g77
g58
NtRp943
(dp944
g61
(dp945
g81
g82
ssg70
g939
sg63
(lp946
S'debugging'
p947
asbag56
(g77
g58
NtRp948
(dp949
g61
(dp950
g88
g89
ssg70
g939
sg63
(lp951
S':'
asbag56
(g77
g58
NtRp952
(dp953
g61
(dp954
sg70
g939
sg63
(lp955
g56
(g57
g58
NtRp956
(dp957
g61
(dp958
g69
I4
ssg70
g952
sg63
(lp959
g99
asbasbasbag56
(g72
g58
NtRp960
(dp961
g61
(dp962
sg70
g847
sg63
(lp963
g56
(g77
g58
NtRp964
(dp965
g61
(dp966
g81
g82
ssg70
g960
sg63
(lp967
S'document_root'
p968
asbag56
(g77
g58
NtRp969
(dp970
g61
(dp971
g88
g89
ssg70
g960
sg63
(lp972
S':'
asbag56
(g77
g58
NtRp973
(dp974
g61
(dp975
sg70
g960
sg63
(lp976
g56
(g57
g58
NtRp977
(dp978
g61
(dp979
g69
I4
ssg70
g973
sg63
(lp980
S'D:/Workbench/documentroot'
p981
asbasbasbag56
(g72
g58
NtRp982
(dp983
g61
(dp984
sg70
g847
sg63
(lp985
g56
(g77
g58
NtRp986
(dp987
g61
(dp988
g81
g82
ssg70
g982
sg63
(lp989
S'gateway_interface'
p990
asbag56
(g77
g58
NtRp991
(dp992
g61
(dp993
g88
g89
ssg70
g982
sg63
(lp994
S':'
asbag56
(g77
g58
NtRp995
(dp996
g61
(dp997
sg70
g982
sg63
(lp998
g56
(g57
g58
NtRp999
(dp1000
g61
(dp1001
g69
I4
ssg70
g995
sg63
(lp1002
S'CGI/1.1'
p1003
asbasbasbag56
(g72
g58
NtRp1004
(dp1005
g61
(dp1006
sg70
g847
sg63
(lp1007
g56
(g77
g58
NtRp1008
(dp1009
g61
(dp1010
g81
g82
ssg70
g1004
sg63
(lp1011
S'gluon_parent'
p1012
asbag56
(g77
g58
NtRp1013
(dp1014
g61
(dp1015
g88
g89
ssg70
g1004
sg63
(lp1016
S':'
asbag56
(g77
g58
NtRp1017
(dp1018
g61
(dp1019
sg70
g1004
sg63
(lp1020
g56
(g57
g58
NtRp1021
(dp1022
g61
(dp1023
g69
I4
ssg70
g1017
sg63
(lp1024
g894
asbasbasbag56
(g72
g58
NtRp1025
(dp1026
g61
(dp1027
sg70
g847
sg63
(lp1028
g56
(g77
g58
NtRp1029
(dp1030
g61
(dp1031
g81
g82
ssg70
g1025
sg63
(lp1032
S'http_accept'
p1033
asbag56
(g77
g58
NtRp1034
(dp1035
g61
(dp1036
g88
g89
ssg70
g1025
sg63
(lp1037
S':'
asbag56
(g77
g58
NtRp1038
(dp1039
g61
(dp1040
sg70
g1025
sg63
(lp1041
g56
(g57
g58
NtRp1042
(dp1043
g61
(dp1044
g69
I4
ssg70
g1038
sg63
(lp1045
S'text/html,application/xhtml+xml,application/xml;q=0.9,*/*;q=0.8'
p1046
asbasbasbag56
(g72
g58
NtRp1047
(dp1048
g61
(dp1049
sg70
g847
sg63
(lp1050
g56
(g77
g58
NtRp1051
(dp1052
g61
(dp1053
g81
g82
ssg70
g1047
sg63
(lp1054
S'http_accept_charset'
p1055
asbag56
(g77
g58
NtRp1056
(dp1057
g61
(dp1058
g88
g89
ssg70
g1047
sg63
(lp1059
S':'
asbag56
(g77
g58
NtRp1060
(dp1061
g61
(dp1062
sg70
g1047
sg63
(lp1063
g56
(g57
g58
NtRp1064
(dp1065
g61
(dp1066
g69
I4
ssg70
g1060
sg63
(lp1067
S'GBK,utf-8;q=0.7,*;q=0.3'
p1068
asbasbasbag56
(g72
g58
NtRp1069
(dp1070
g61
(dp1071
sg70
g847
sg63
(lp1072
g56
(g77
g58
NtRp1073
(dp1074
g61
(dp1075
g81
g82
ssg70
g1069
sg63
(lp1076
S'http_accept_encoding'
p1077
asbag56
(g77
g58
NtRp1078
(dp1079
g61
(dp1080
g88
g89
ssg70
g1069
sg63
(lp1081
S':'
asbag56
(g77
g58
NtRp1082
(dp1083
g61
(dp1084
sg70
g1069
sg63
(lp1085
g56
(g57
g58
NtRp1086
(dp1087
g61
(dp1088
g69
I4
ssg70
g1082
sg63
(lp1089
S'gzip,deflate,sdch'
p1090
asbasbasbag56
(g72
g58
NtRp1091
(dp1092
g61
(dp1093
sg70
g847
sg63
(lp1094
g56
(g77
g58
NtRp1095
(dp1096
g61
(dp1097
g81
g82
ssg70
g1091
sg63
(lp1098
S'http_accept_language'
p1099
asbag56
(g77
g58
NtRp1100
(dp1101
g61
(dp1102
g88
g89
ssg70
g1091
sg63
(lp1103
S':'
asbag56
(g77
g58
NtRp1104
(dp1105
g61
(dp1106
sg70
g1091
sg63
(lp1107
g56
(g57
g58
NtRp1108
(dp1109
g61
(dp1110
g69
I4
ssg70
g1104
sg63
(lp1111
S'zh-CN,zh;q=0.8'
p1112
asbasbasbag56
(g72
g58
NtRp1113
(dp1114
g61
(dp1115
sg70
g847
sg63
(lp1116
g56
(g77
g58
NtRp1117
(dp1118
g61
(dp1119
g81
g82
ssg70
g1113
sg63
(lp1120
S'http_connection'
p1121
asbag56
(g77
g58
NtRp1122
(dp1123
g61
(dp1124
g88
g89
ssg70
g1113
sg63
(lp1125
S':'
asbag56
(g77
g58
NtRp1126
(dp1127
g61
(dp1128
sg70
g1113
sg63
(lp1129
g56
(g57
g58
NtRp1130
(dp1131
g61
(dp1132
g69
I4
ssg70
g1126
sg63
(lp1133
S'keep-alive'
p1134
asbasbasbag56
(g72
g58
NtRp1135
(dp1136
g61
(dp1137
sg70
g847
sg63
(lp1138
g56
(g77
g58
NtRp1139
(dp1140
g61
(dp1141
g81
g82
ssg70
g1135
sg63
(lp1142
S'http_cookie'
p1143
asbag56
(g77
g58
NtRp1144
(dp1145
g61
(dp1146
g88
g89
ssg70
g1135
sg63
(lp1147
S':'
asbag56
(g77
g58
NtRp1148
(dp1149
g61
(dp1150
sg70
g1135
sg63
(lp1151
g56
(g57
g58
NtRp1152
(dp1153
g61
(dp1154
g69
I4
ssg70
g1148
sg63
(lp1155
S'session_id_welcome=127.0.0.1-9f5ba5e1-fcac-4ea1-a558-fa895e87614d; session_id_tgtoolbox=127.0.0.1-e7d60a3d-b41b-498d-85dc-9c2bc5a304a1; session_id_admin=127.0.0.1-1aec4a0c-943f-4e5e-8f75-13d106ec6506'
p1156
asbasbasbag56
(g72
g58
NtRp1157
(dp1158
g61
(dp1159
sg70
g847
sg63
(lp1160
g56
(g77
g58
NtRp1161
(dp1162
g61
(dp1163
g81
g82
ssg70
g1157
sg63
(lp1164
S'http_host'
p1165
asbag56
(g77
g58
NtRp1166
(dp1167
g61
(dp1168
g88
g89
ssg70
g1157
sg63
(lp1169
S':'
asbag56
(g77
g58
NtRp1170
(dp1171
g61
(dp1172
sg70
g1157
sg63
(lp1173
g56
(g57
g58
NtRp1174
(dp1175
g61
(dp1176
g69
I4
ssg70
g1170
sg63
(lp1177
S'localhost'
p1178
asbasbasbag56
(g72
g58
NtRp1179
(dp1180
g61
(dp1181
sg70
g847
sg63
(lp1182
g56
(g77
g58
NtRp1183
(dp1184
g61
(dp1185
g81
g82
ssg70
g1179
sg63
(lp1186
S'http_referer'
p1187
asbag56
(g77
g58
NtRp1188
(dp1189
g61
(dp1190
g88
g89
ssg70
g1179
sg63
(lp1191
S':'
asbag56
(g77
g58
NtRp1192
(dp1193
g61
(dp1194
sg70
g1179
sg63
(lp1195
g56
(g57
g58
NtRp1196
(dp1197
g61
(dp1198
g69
I4
ssg70
g1192
sg63
(lp1199
S'http://localhost/admin/default/ticket/tgtoolbox/127.0.0.1.2012-01-08.19-27-15.28de2aee-3dbd-4f97-9746-e988d5855e54'
p1200
asbasbasbag56
(g72
g58
NtRp1201
(dp1202
g61
(dp1203
sg70
g847
sg63
(lp1204
g56
(g77
g58
NtRp1205
(dp1206
g61
(dp1207
g81
g82
ssg70
g1201
sg63
(lp1208
S'http_user_agent'
p1209
asbag56
(g77
g58
NtRp1210
(dp1211
g61
(dp1212
g88
g89
ssg70
g1201
sg63
(lp1213
S':'
asbag56
(g77
g58
NtRp1214
(dp1215
g61
(dp1216
sg70
g1201
sg63
(lp1217
g56
(g57
g58
NtRp1218
(dp1219
g61
(dp1220
g69
I4
ssg70
g1214
sg63
(lp1221
S'Mozilla/5.0 (Windows NT 6.1) AppleWebKit/535.7 (KHTML, like Gecko) Chrome/16.0.912.75 Safari/535.7'
p1222
asbasbasbag56
(g72
g58
NtRp1223
(dp1224
g61
(dp1225
sg70
g847
sg63
(lp1226
g56
(g77
g58
NtRp1227
(dp1228
g61
(dp1229
g81
g82
ssg70
g1223
sg63
(lp1230
S'is_jython'
p1231
asbag56
(g77
g58
NtRp1232
(dp1233
g61
(dp1234
g88
g89
ssg70
g1223
sg63
(lp1235
S':'
asbag56
(g77
g58
NtRp1236
(dp1237
g61
(dp1238
sg70
g1223
sg63
(lp1239
g56
(g57
g58
NtRp1240
(dp1241
g61
(dp1242
g69
I4
ssg70
g1236
sg63
(lp1243
g99
asbasbasbag56
(g72
g58
NtRp1244
(dp1245
g61
(dp1246
sg70
g847
sg63
(lp1247
g56
(g77
g58
NtRp1248
(dp1249
g61
(dp1250
g81
g82
ssg70
g1244
sg63
(lp1251
S'mod_wsgi_application_group'
p1252
asbag56
(g77
g58
NtRp1253
(dp1254
g61
(dp1255
g88
g89
ssg70
g1244
sg63
(lp1256
S':'
asbag56
(g77
g58
NtRp1257
(dp1258
g61
(dp1259
sg70
g1244
sg63
(lp1260
g56
(g57
g58
NtRp1261
(dp1262
g61
(dp1263
g69
I4
ssg70
g1257
sg63
(lp1264
S'XIAOFTANG-NB.tencent.com|'
p1265
asbasbasbag56
(g72
g58
NtRp1266
(dp1267
g61
(dp1268
sg70
g847
sg63
(lp1269
g56
(g77
g58
NtRp1270
(dp1271
g61
(dp1272
g81
g82
ssg70
g1266
sg63
(lp1273
S'mod_wsgi_callable_object'
p1274
asbag56
(g77
g58
NtRp1275
(dp1276
g61
(dp1277
g88
g89
ssg70
g1266
sg63
(lp1278
S':'
asbag56
(g77
g58
NtRp1279
(dp1280
g61
(dp1281
sg70
g1266
sg63
(lp1282
g56
(g57
g58
NtRp1283
(dp1284
g61
(dp1285
g69
I4
ssg70
g1279
sg63
(lp1286
S'application'
p1287
asbasbasbag56
(g72
g58
NtRp1288
(dp1289
g61
(dp1290
sg70
g847
sg63
(lp1291
g56
(g77
g58
NtRp1292
(dp1293
g61
(dp1294
g81
g82
ssg70
g1288
sg63
(lp1295
S'mod_wsgi_handler_script'
p1296
asbag56
(g77
g58
NtRp1297
(dp1298
g61
(dp1299
g88
g89
ssg70
g1288
sg63
(lp1300
S':'
asbag56
(g77
g58
NtRp1301
(dp1302
g61
(dp1303
sg70
g1288
sg63
(lp1304
g56
(g57
g58
NtRp1305
(dp1306
g61
(dp1307
g69
I4
ssg70
g1301
sg63
(lp1308
S''
asbasbasbag56
(g72
g58
NtRp1309
(dp1310
g61
(dp1311
sg70
g847
sg63
(lp1312
g56
(g77
g58
NtRp1313
(dp1314
g61
(dp1315
g81
g82
ssg70
g1309
sg63
(lp1316
S'mod_wsgi_input_chunked'
p1317
asbag56
(g77
g58
NtRp1318
(dp1319
g61
(dp1320
g88
g89
ssg70
g1309
sg63
(lp1321
S':'
asbag56
(g77
g58
NtRp1322
(dp1323
g61
(dp1324
sg70
g1309
sg63
(lp1325
g56
(g57
g58
NtRp1326
(dp1327
g61
(dp1328
g69
I4
ssg70
g1322
sg63
(lp1329
S'0'
asbasbasbag56
(g72
g58
NtRp1330
(dp1331
g61
(dp1332
sg70
g847
sg63
(lp1333
g56
(g77
g58
NtRp1334
(dp1335
g61
(dp1336
g81
g82
ssg70
g1330
sg63
(lp1337
S'mod_wsgi_process_group'
p1338
asbag56
(g77
g58
NtRp1339
(dp1340
g61
(dp1341
g88
g89
ssg70
g1330
sg63
(lp1342
S':'
asbag56
(g77
g58
NtRp1343
(dp1344
g61
(dp1345
sg70
g1330
sg63
(lp1346
g56
(g57
g58
NtRp1347
(dp1348
g61
(dp1349
g69
I4
ssg70
g1343
sg63
(lp1350
S''
asbasbasbag56
(g72
g58
NtRp1351
(dp1352
g61
(dp1353
sg70
g847
sg63
(lp1354
g56
(g77
g58
NtRp1355
(dp1356
g61
(dp1357
g81
g82
ssg70
g1351
sg63
(lp1358
S'mod_wsgi_request_handler'
p1359
asbag56
(g77
g58
NtRp1360
(dp1361
g61
(dp1362
g88
g89
ssg70
g1351
sg63
(lp1363
S':'
asbag56
(g77
g58
NtRp1364
(dp1365
g61
(dp1366
sg70
g1351
sg63
(lp1367
g56
(g57
g58
NtRp1368
(dp1369
g61
(dp1370
g69
I4
ssg70
g1364
sg63
(lp1371
S'wsgi-script'
p1372
asbasbasbag56
(g72
g58
NtRp1373
(dp1374
g61
(dp1375
sg70
g847
sg63
(lp1376
g56
(g77
g58
NtRp1377
(dp1378
g61
(dp1379
g81
g82
ssg70
g1373
sg63
(lp1380
S'mod_wsgi_script_reloading'
p1381
asbag56
(g77
g58
NtRp1382
(dp1383
g61
(dp1384
g88
g89
ssg70
g1373
sg63
(lp1385
S':'
asbag56
(g77
g58
NtRp1386
(dp1387
g61
(dp1388
sg70
g1373
sg63
(lp1389
g56
(g57
g58
NtRp1390
(dp1391
g61
(dp1392
g69
I4
ssg70
g1386
sg63
(lp1393
S'1'
asbasbasbag56
(g72
g58
NtRp1394
(dp1395
g61
(dp1396
sg70
g847
sg63
(lp1397
g56
(g77
g58
NtRp1398
(dp1399
g61
(dp1400
g81
g82
ssg70
g1394
sg63
(lp1401
S'mod_wsgi_version'
p1402
asbag56
(g77
g58
NtRp1403
(dp1404
g61
(dp1405
g88
g89
ssg70
g1394
sg63
(lp1406
S':'
asbag56
(g77
g58
NtRp1407
(dp1408
g61
(dp1409
sg70
g1394
sg63
(lp1410
g56
(g57
g58
NtRp1411
(dp1412
g61
(dp1413
g69
I4
ssg70
g1407
sg63
(lp1414
g56
(g65
g58
NtRp1415
(dp1416
g61
(dp1417
g69
I3
ssg70
Nsg63
(lp1418
g56
(g72
g58
NtRp1419
(dp1420
g61
(dp1421
sg70
g1415
sg63
(lp1422
g56
(g77
g58
NtRp1423
(dp1424
g61
(dp1425
sg70
g1419
sg63
(lp1426
g56
(g57
g58
NtRp1427
(dp1428
g61
(dp1429
g69
I3
ssg70
g1423
sg63
(lp1430
S'3'
asbasbasbag56
(g72
g58
NtRp1431
(dp1432
g61
(dp1433
sg70
g1415
sg63
(lp1434
g56
(g77
g58
NtRp1435
(dp1436
g61
(dp1437
sg70
g1431
sg63
(lp1438
g56
(g57
g58
NtRp1439
(dp1440
g61
(dp1441
g69
I3
ssg70
g1435
sg63
(lp1442
S'3'
asbasbasbasbasbasbasbag56
(g72
g58
NtRp1443
(dp1444
g61
(dp1445
sg70
g847
sg63
(lp1446
g56
(g77
g58
NtRp1447
(dp1448
g61
(dp1449
g81
g82
ssg70
g1443
sg63
(lp1450
S'path_info'
p1451
asbag56
(g77
g58
NtRp1452
(dp1453
g61
(dp1454
g88
g89
ssg70
g1443
sg63
(lp1455
S':'
asbag56
(g77
g58
NtRp1456
(dp1457
g61
(dp1458
sg70
g1443
sg63
(lp1459
g56
(g57
g58
NtRp1460
(dp1461
g61
(dp1462
g69
I4
ssg70
g1456
sg63
(lp1463
S'/admin/default/ticket/admin/127.0.0.1.2012-01-08.19-27-23.e593e9ef-1233-4135-abd4-de8734c95c11'
p1464
asbasbasbag56
(g72
g58
NtRp1465
(dp1466
g61
(dp1467
sg70
g847
sg63
(lp1468
g56
(g77
g58
NtRp1469
(dp1470
g61
(dp1471
g81
g82
ssg70
g1465
sg63
(lp1472
S'path_translated'
p1473
asbag56
(g77
g58
NtRp1474
(dp1475
g61
(dp1476
g88
g89
ssg70
g1465
sg63
(lp1477
S':'
asbag56
(g77
g58
NtRp1478
(dp1479
g61
(dp1480
sg70
g1465
sg63
(lp1481
g56
(g57
g58
NtRp1482
(dp1483
g61
(dp1484
g69
I4
ssg70
g1478
sg63
(lp1485
S'D:\\Workbench\\web2py_src\\wsgihandler.py\\admin\\default\\ticket\\admin\\127.0.0.1.2012-01-08.19-27-23.e593e9ef-1233-4135-abd4-de8734c95c11'
p1486
asbasbasbag56
(g72
g58
NtRp1487
(dp1488
g61
(dp1489
sg70
g847
sg63
(lp1490
g56
(g77
g58
NtRp1491
(dp1492
g61
(dp1493
g81
g82
ssg70
g1487
sg63
(lp1494
S'pathext'
p1495
asbag56
(g77
g58
NtRp1496
(dp1497
g61
(dp1498
g88
g89
ssg70
g1487
sg63
(lp1499
S':'
asbag56
(g77
g58
NtRp1500
(dp1501
g61
(dp1502
sg70
g1487
sg63
(lp1503
g56
(g57
g58
NtRp1504
(dp1505
g61
(dp1506
g69
I4
ssg70
g1500
sg63
(lp1507
S'.COM;.EXE;.BAT;.CMD;.VBS;.VBE;.JS;.JSE;.WSF;.WSH;.MSC;.py;.pyw'
p1508
asbasbasbag56
(g72
g58
NtRp1509
(dp1510
g61
(dp1511
sg70
g847
sg63
(lp1512
g56
(g77
g58
NtRp1513
(dp1514
g61
(dp1515
g81
g82
ssg70
g1509
sg63
(lp1516
S'query_string'
p1517
asbag56
(g77
g58
NtRp1518
(dp1519
g61
(dp1520
g88
g89
ssg70
g1509
sg63
(lp1521
S':'
asbag56
(g77
g58
NtRp1522
(dp1523
g61
(dp1524
sg70
g1509
sg63
(lp1525
g56
(g57
g58
NtRp1526
(dp1527
g61
(dp1528
g69
I4
ssg70
g1522
sg63
(lp1529
S''
asbasbasbag56
(g72
g58
NtRp1530
(dp1531
g61
(dp1532
sg70
g847
sg63
(lp1533
g56
(g77
g58
NtRp1534
(dp1535
g61
(dp1536
g81
g82
ssg70
g1530
sg63
(lp1537
S'remote_addr'
p1538
asbag56
(g77
g58
NtRp1539
(dp1540
g61
(dp1541
g88
g89
ssg70
g1530
sg63
(lp1542
S':'
asbag56
(g77
g58
NtRp1543
(dp1544
g61
(dp1545
sg70
g1530
sg63
(lp1546
g56
(g57
g58
NtRp1547
(dp1548
g61
(dp1549
g69
I4
ssg70
g1543
sg63
(lp1550
g215
asbasbasbag56
(g72
g58
NtRp1551
(dp1552
g61
(dp1553
sg70
g847
sg63
(lp1554
g56
(g77
g58
NtRp1555
(dp1556
g61
(dp1557
g81
g82
ssg70
g1551
sg63
(lp1558
S'remote_port'
p1559
asbag56
(g77
g58
NtRp1560
(dp1561
g61
(dp1562
g88
g89
ssg70
g1551
sg63
(lp1563
S':'
asbag56
(g77
g58
NtRp1564
(dp1565
g61
(dp1566
sg70
g1551
sg63
(lp1567
g56
(g57
g58
NtRp1568
(dp1569
g61
(dp1570
g69
I4
ssg70
g1564
sg63
(lp1571
S'3856'
p1572
asbasbasbag56
(g72
g58
NtRp1573
(dp1574
g61
(dp1575
sg70
g847
sg63
(lp1576
g56
(g77
g58
NtRp1577
(dp1578
g61
(dp1579
g81
g82
ssg70
g1573
sg63
(lp1580
S'request_method'
p1581
asbag56
(g77
g58
NtRp1582
(dp1583
g61
(dp1584
g88
g89
ssg70
g1573
sg63
(lp1585
S':'
asbag56
(g77
g58
NtRp1586
(dp1587
g61
(dp1588
sg70
g1573
sg63
(lp1589
g56
(g57
g58
NtRp1590
(dp1591
g61
(dp1592
g69
I4
ssg70
g1586
sg63
(lp1593
S'GET'
p1594
asbasbasbag56
(g72
g58
NtRp1595
(dp1596
g61
(dp1597
sg70
g847
sg63
(lp1598
g56
(g77
g58
NtRp1599
(dp1600
g61
(dp1601
g81
g82
ssg70
g1595
sg63
(lp1602
S'request_uri'
p1603
asbag56
(g77
g58
NtRp1604
(dp1605
g61
(dp1606
g88
g89
ssg70
g1595
sg63
(lp1607
S':'
asbag56
(g77
g58
NtRp1608
(dp1609
g61
(dp1610
sg70
g1595
sg63
(lp1611
g56
(g57
g58
NtRp1612
(dp1613
g61
(dp1614
g69
I4
ssg70
g1608
sg63
(lp1615
S'/admin/default/ticket/admin/127.0.0.1.2012-01-08.19-27-23.e593e9ef-1233-4135-abd4-de8734c95c11'
p1616
asbasbasbag56
(g72
g58
NtRp1617
(dp1618
g61
(dp1619
sg70
g847
sg63
(lp1620
g56
(g77
g58
NtRp1621
(dp1622
g61
(dp1623
g81
g82
ssg70
g1617
sg63
(lp1624
S'script_filename'
p1625
asbag56
(g77
g58
NtRp1626
(dp1627
g61
(dp1628
g88
g89
ssg70
g1617
sg63
(lp1629
S':'
asbag56
(g77
g58
NtRp1630
(dp1631
g61
(dp1632
sg70
g1617
sg63
(lp1633
g56
(g57
g58
NtRp1634
(dp1635
g61
(dp1636
g69
I4
ssg70
g1630
sg63
(lp1637
S'D:/Workbench/web2py_src/wsgihandler.py'
p1638
asbasbasbag56
(g72
g58
NtRp1639
(dp1640
g61
(dp1641
sg70
g847
sg63
(lp1642
g56
(g77
g58
NtRp1643
(dp1644
g61
(dp1645
g81
g82
ssg70
g1639
sg63
(lp1646
S'script_name'
p1647
asbag56
(g77
g58
NtRp1648
(dp1649
g61
(dp1650
g88
g89
ssg70
g1639
sg63
(lp1651
S':'
asbag56
(g77
g58
NtRp1652
(dp1653
g61
(dp1654
sg70
g1639
sg63
(lp1655
g56
(g57
g58
NtRp1656
(dp1657
g61
(dp1658
g69
I4
ssg70
g1652
sg63
(lp1659
S''
asbasbasbag56
(g72
g58
NtRp1660
(dp1661
g61
(dp1662
sg70
g847
sg63
(lp1663
g56
(g77
g58
NtRp1664
(dp1665
g61
(dp1666
g81
g82
ssg70
g1660
sg63
(lp1667
S'server_addr'
p1668
asbag56
(g77
g58
NtRp1669
(dp1670
g61
(dp1671
g88
g89
ssg70
g1660
sg63
(lp1672
S':'
asbag56
(g77
g58
NtRp1673
(dp1674
g61
(dp1675
sg70
g1660
sg63
(lp1676
g56
(g57
g58
NtRp1677
(dp1678
g61
(dp1679
g69
I4
ssg70
g1673
sg63
(lp1680
S'127.0.0.1'
p1681
asbasbasbag56
(g72
g58
NtRp1682
(dp1683
g61
(dp1684
sg70
g847
sg63
(lp1685
g56
(g77
g58
NtRp1686
(dp1687
g61
(dp1688
g81
g82
ssg70
g1682
sg63
(lp1689
S'server_admin'
p1690
asbag56
(g77
g58
NtRp1691
(dp1692
g61
(dp1693
g88
g89
ssg70
g1682
sg63
(lp1694
S':'
asbag56
(g77
g58
NtRp1695
(dp1696
g61
(dp1697
sg70
g1682
sg63
(lp1698
g56
(g57
g58
NtRp1699
(dp1700
g61
(dp1701
g69
I4
ssg70
g1695
sg63
(lp1702
S'admin@tencent.com'
p1703
asbasbasbag56
(g72
g58
NtRp1704
(dp1705
g61
(dp1706
sg70
g847
sg63
(lp1707
g56
(g77
g58
NtRp1708
(dp1709
g61
(dp1710
g81
g82
ssg70
g1704
sg63
(lp1711
S'server_name'
p1712
asbag56
(g77
g58
NtRp1713
(dp1714
g61
(dp1715
g88
g89
ssg70
g1704
sg63
(lp1716
S':'
asbag56
(g77
g58
NtRp1717
(dp1718
g61
(dp1719
sg70
g1704
sg63
(lp1720
g56
(g57
g58
NtRp1721
(dp1722
g61
(dp1723
g69
I4
ssg70
g1717
sg63
(lp1724
S'localhost'
p1725
asbasbasbag56
(g72
g58
NtRp1726
(dp1727
g61
(dp1728
sg70
g847
sg63
(lp1729
g56
(g77
g58
NtRp1730
(dp1731
g61
(dp1732
g81
g82
ssg70
g1726
sg63
(lp1733
S'server_port'
p1734
asbag56
(g77
g58
NtRp1735
(dp1736
g61
(dp1737
g88
g89
ssg70
g1726
sg63
(lp1738
S':'
asbag56
(g77
g58
NtRp1739
(dp1740
g61
(dp1741
sg70
g1726
sg63
(lp1742
g56
(g57
g58
NtRp1743
(dp1744
g61
(dp1745
g69
I4
ssg70
g1739
sg63
(lp1746
S'80'
p1747
asbasbasbag56
(g72
g58
NtRp1748
(dp1749
g61
(dp1750
sg70
g847
sg63
(lp1751
g56
(g77
g58
NtRp1752
(dp1753
g61
(dp1754
g81
g82
ssg70
g1748
sg63
(lp1755
S'server_protocol'
p1756
asbag56
(g77
g58
NtRp1757
(dp1758
g61
(dp1759
g88
g89
ssg70
g1748
sg63
(lp1760
S':'
asbag56
(g77
g58
NtRp1761
(dp1762
g61
(dp1763
sg70
g1748
sg63
(lp1764
g56
(g57
g58
NtRp1765
(dp1766
g61
(dp1767
g69
I4
ssg70
g1761
sg63
(lp1768
S'HTTP/1.1'
p1769
asbasbasbag56
(g72
g58
NtRp1770
(dp1771
g61
(dp1772
sg70
g847
sg63
(lp1773
g56
(g77
g58
NtRp1774
(dp1775
g61
(dp1776
g81
g82
ssg70
g1770
sg63
(lp1777
S'server_signature'
p1778
asbag56
(g77
g58
NtRp1779
(dp1780
g61
(dp1781
g88
g89
ssg70
g1770
sg63
(lp1782
S':'
asbag56
(g77
g58
NtRp1783
(dp1784
g61
(dp1785
sg70
g1770
sg63
(lp1786
g56
(g57
g58
NtRp1787
(dp1788
g61
(dp1789
g69
I4
ssg70
g1783
sg63
(lp1790
S''
asbasbasbag56
(g72
g58
NtRp1791
(dp1792
g61
(dp1793
sg70
g847
sg63
(lp1794
g56
(g77
g58
NtRp1795
(dp1796
g61
(dp1797
g81
g82
ssg70
g1791
sg63
(lp1798
S'server_software'
p1799
asbag56
(g77
g58
NtRp1800
(dp1801
g61
(dp1802
g88
g89
ssg70
g1791
sg63
(lp1803
S':'
asbag56
(g77
g58
NtRp1804
(dp1805
g61
(dp1806
sg70
g1791
sg63
(lp1807
g56
(g57
g58
NtRp1808
(dp1809
g61
(dp1810
g69
I4
ssg70
g1804
sg63
(lp1811
S'Apache/2.2.21 (Win32) PHP/5.2.17 mod_wsgi/3.3 Python/2.7.2'
p1812
asbasbasbag56
(g72
g58
NtRp1813
(dp1814
g61
(dp1815
sg70
g847
sg63
(lp1816
g56
(g77
g58
NtRp1817
(dp1818
g61
(dp1819
g81
g82
ssg70
g1813
sg63
(lp1820
S'systemroot'
p1821
asbag56
(g77
g58
NtRp1822
(dp1823
g61
(dp1824
g88
g89
ssg70
g1813
sg63
(lp1825
S':'
asbag56
(g77
g58
NtRp1826
(dp1827
g61
(dp1828
sg70
g1813
sg63
(lp1829
g56
(g57
g58
NtRp1830
(dp1831
g61
(dp1832
g69
I4
ssg70
g1826
sg63
(lp1833
S'C:\\Windows'
p1834
asbasbasbag56
(g72
g58
NtRp1835
(dp1836
g61
(dp1837
sg70
g847
sg63
(lp1838
g56
(g77
g58
NtRp1839
(dp1840
g61
(dp1841
g81
g82
ssg70
g1835
sg63
(lp1842
S'web2py_path'
p1843
asbag56
(g77
g58
NtRp1844
(dp1845
g61
(dp1846
g88
g89
ssg70
g1835
sg63
(lp1847
S':'
asbag56
(g77
g58
NtRp1848
(dp1849
g61
(dp1850
sg70
g1835
sg63
(lp1851
g56
(g57
g58
NtRp1852
(dp1853
g61
(dp1854
g69
I4
ssg70
g1848
sg63
(lp1855
g894
asbasbasbag56
(g72
g58
NtRp1856
(dp1857
g61
(dp1858
sg70
g847
sg63
(lp1859
g56
(g77
g58
NtRp1860
(dp1861
g61
(dp1862
g81
g82
ssg70
g1856
sg63
(lp1863
S'web2py_version'
p1864
asbag56
(g77
g58
NtRp1865
(dp1866
g61
(dp1867
g88
g89
ssg70
g1856
sg63
(lp1868
S':'
asbag56
(g77
g58
NtRp1869
(dp1870
g61
(dp1871
sg70
g1856
sg63
(lp1872
g56
(g57
g58
NtRp1873
(dp1874
g61
(dp1875
g69
I4
ssg70
g1869
sg63
(lp1876
g56
(g65
g58
NtRp1877
(dp1878
g61
(dp1879
g69
I3
ssg70
Nsg63
(lp1880
g56
(g72
g58
NtRp1881
(dp1882
g61
(dp1883
sg70
g1877
sg63
(lp1884
g56
(g77
g58
NtRp1885
(dp1886
g61
(dp1887
sg70
g1881
sg63
(lp1888
g56
(g57
g58
NtRp1889
(dp1890
g61
(dp1891
g69
I3
ssg70
g1885
sg63
(lp1892
S'1'
asbasbasbag56
(g72
g58
NtRp1893
(dp1894
g61
(dp1895
sg70
g1877
sg63
(lp1896
g56
(g77
g58
NtRp1897
(dp1898
g61
(dp1899
sg70
g1893
sg63
(lp1900
g56
(g57
g58
NtRp1901
(dp1902
g61
(dp1903
g69
I3
ssg70
g1897
sg63
(lp1904
S'99'
p1905
asbasbasbag56
(g72
g58
NtRp1906
(dp1907
g61
(dp1908
sg70
g1877
sg63
(lp1909
g56
(g77
g58
NtRp1910
(dp1911
g61
(dp1912
sg70
g1906
sg63
(lp1913
g56
(g57
g58
NtRp1914
(dp1915
g61
(dp1916
g69
I3
ssg70
g1910
sg63
(lp1917
S'2'
asbasbasbag56
(g72
g58
NtRp1918
(dp1919
g61
(dp1920
sg70
g1877
sg63
(lp1921
g56
(g77
g58
NtRp1922
(dp1923
g61
(dp1924
sg70
g1918
sg63
(lp1925
g56
(g57
g58
NtRp1926
(dp1927
g61
(dp1928
g69
I3
ssg70
g1922
sg63
(lp1929
S'datetime.datetime(2011, 9, 26, 6, 55, 33)'
p1930
asbasbasbag56
(g72
g58
NtRp1931
(dp1932
g61
(dp1933
sg70
g1877
sg63
(lp1934
g56
(g77
g58
NtRp1935
(dp1936
g61
(dp1937
sg70
g1931
sg63
(lp1938
g56
(g57
g58
NtRp1939
(dp1940
g61
(dp1941
g69
I3
ssg70
g1935
sg63
(lp1942
S'stable'
p1943
asbasbasbasbasbasbasbag56
(g72
g58
NtRp1944
(dp1945
g61
(dp1946
sg70
g847
sg63
(lp1947
g56
(g77
g58
NtRp1948
(dp1949
g61
(dp1950
g81
g82
ssg70
g1944
sg63
(lp1951
S'windir'
p1952
asbag56
(g77
g58
NtRp1953
(dp1954
g61
(dp1955
g88
g89
ssg70
g1944
sg63
(lp1956
S':'
asbag56
(g77
g58
NtRp1957
(dp1958
g61
(dp1959
sg70
g1944
sg63
(lp1960
g56
(g57
g58
NtRp1961
(dp1962
g61
(dp1963
g69
I4
ssg70
g1957
sg63
(lp1964
S'C:\\Windows'
p1965
asbasbasbag56
(g72
g58
NtRp1966
(dp1967
g61
(dp1968
sg70
g847
sg63
(lp1969
g56
(g77
g58
NtRp1970
(dp1971
g61
(dp1972
g81
g82
ssg70
g1966
sg63
(lp1973
S'wsgi_errors'
p1974
asbag56
(g77
g58
NtRp1975
(dp1976
g61
(dp1977
g88
g89
ssg70
g1966
sg63
(lp1978
S':'
asbag56
(g77
g58
NtRp1979
(dp1980
g61
(dp1981
sg70
g1966
sg63
(lp1982
g56
(g57
g58
NtRp1983
(dp1984
g61
(dp1985
g69
I4
ssg70
g1979
sg63
(lp1986
S'<mod_wsgi.Log object at 0x03CE9A70>'
p1987
asbasbasbag56
(g72
g58
NtRp1988
(dp1989
g61
(dp1990
sg70
g847
sg63
(lp1991
g56
(g77
g58
NtRp1992
(dp1993
g61
(dp1994
g81
g82
ssg70
g1988
sg63
(lp1995
S'wsgi_file_wrapper'
p1996
asbag56
(g77
g58
NtRp1997
(dp1998
g61
(dp1999
g88
g89
ssg70
g1988
sg63
(lp2000
S':'
asbag56
(g77
g58
NtRp2001
(dp2002
g61
(dp2003
sg70
g1988
sg63
(lp2004
g56
(g57
g58
NtRp2005
(dp2006
g61
(dp2007
g69
I4
ssg70
g2001
sg63
(lp2008
S'<built-in method file_wrapper of mod_wsgi.Adapter object at 0x03BF8EC0>'
p2009
asbasbasbag56
(g72
g58
NtRp2010
(dp2011
g61
(dp2012
sg70
g847
sg63
(lp2013
g56
(g77
g58
NtRp2014
(dp2015
g61
(dp2016
g81
g82
ssg70
g2010
sg63
(lp2017
S'wsgi_input'
p2018
asbag56
(g77
g58
NtRp2019
(dp2020
g61
(dp2021
g88
g89
ssg70
g2010
sg63
(lp2022
S':'
asbag56
(g77
g58
NtRp2023
(dp2024
g61
(dp2025
sg70
g2010
sg63
(lp2026
g56
(g57
g58
NtRp2027
(dp2028
g61
(dp2029
g69
I4
ssg70
g2023
sg63
(lp2030
S'<mod_wsgi.Input object at 0x03BED520>'
p2031
asbasbasbag56
(g72
g58
NtRp2032
(dp2033
g61
(dp2034
sg70
g847
sg63
(lp2035
g56
(g77
g58
NtRp2036
(dp2037
g61
(dp2038
g81
g82
ssg70
g2032
sg63
(lp2039
S'wsgi_multiprocess'
p2040
asbag56
(g77
g58
NtRp2041
(dp2042
g61
(dp2043
g88
g89
ssg70
g2032
sg63
(lp2044
S':'
asbag56
(g77
g58
NtRp2045
(dp2046
g61
(dp2047
sg70
g2032
sg63
(lp2048
g56
(g57
g58
NtRp2049
(dp2050
g61
(dp2051
g69
I4
ssg70
g2045
sg63
(lp2052
g99
asbasbasbag56
(g72
g58
NtRp2053
(dp2054
g61
(dp2055
sg70
g847
sg63
(lp2056
g56
(g77
g58
NtRp2057
(dp2058
g61
(dp2059
g81
g82
ssg70
g2053
sg63
(lp2060
S'wsgi_multithread'
p2061
asbag56
(g77
g58
NtRp2062
(dp2063
g61
(dp2064
g88
g89
ssg70
g2053
sg63
(lp2065
S':'
asbag56
(g77
g58
NtRp2066
(dp2067
g61
(dp2068
sg70
g2053
sg63
(lp2069
g56
(g57
g58
NtRp2070
(dp2071
g61
(dp2072
g69
I4
ssg70
g2066
sg63
(lp2073
S'True'
p2074
asbasbasbag56
(g72
g58
NtRp2075
(dp2076
g61
(dp2077
sg70
g847
sg63
(lp2078
g56
(g77
g58
NtRp2079
(dp2080
g61
(dp2081
g81
g82
ssg70
g2075
sg63
(lp2082
S'wsgi_run_once'
p2083
asbag56
(g77
g58
NtRp2084
(dp2085
g61
(dp2086
g88
g89
ssg70
g2075
sg63
(lp2087
S':'
asbag56
(g77
g58
NtRp2088
(dp2089
g61
(dp2090
sg70
g2075
sg63
(lp2091
g56
(g57
g58
NtRp2092
(dp2093
g61
(dp2094
g69
I4
ssg70
g2088
sg63
(lp2095
g99
asbasbasbag56
(g72
g58
NtRp2096
(dp2097
g61
(dp2098
sg70
g847
sg63
(lp2099
g56
(g77
g58
NtRp2100
(dp2101
g61
(dp2102
g81
g82
ssg70
g2096
sg63
(lp2103
S'wsgi_url_scheme'
p2104
asbag56
(g77
g58
NtRp2105
(dp2106
g61
(dp2107
g88
g89
ssg70
g2096
sg63
(lp2108
S':'
asbag56
(g77
g58
NtRp2109
(dp2110
g61
(dp2111
sg70
g2096
sg63
(lp2112
g56
(g57
g58
NtRp2113
(dp2114
g61
(dp2115
g69
I4
ssg70
g2109
sg63
(lp2116
S'http'
p2117
asbasbasbag56
(g72
g58
NtRp2118
(dp2119
g61
(dp2120
sg70
g847
sg63
(lp2121
g56
(g77
g58
NtRp2122
(dp2123
g61
(dp2124
g81
g82
ssg70
g2118
sg63
(lp2125
S'wsgi_version'
p2126
asbag56
(g77
g58
NtRp2127
(dp2128
g61
(dp2129
g88
g89
ssg70
g2118
sg63
(lp2130
S':'
asbag56
(g77
g58
NtRp2131
(dp2132
g61
(dp2133
sg70
g2118
sg63
(lp2134
g56
(g57
g58
NtRp2135
(dp2136
g61
(dp2137
g69
I4
ssg70
g2131
sg63
(lp2138
g56
(g65
g58
NtRp2139
(dp2140
g61
(dp2141
g69
I3
ssg70
Nsg63
(lp2142
g56
(g72
g58
NtRp2143
(dp2144
g61
(dp2145
sg70
g2139
sg63
(lp2146
g56
(g77
g58
NtRp2147
(dp2148
g61
(dp2149
sg70
g2143
sg63
(lp2150
g56
(g57
g58
NtRp2151
(dp2152
g61
(dp2153
g69
I3
ssg70
g2147
sg63
(lp2154
S'1'
asbasbasbag56
(g72
g58
NtRp2155
(dp2156
g61
(dp2157
sg70
g2139
sg63
(lp2158
g56
(g77
g58
NtRp2159
(dp2160
g61
(dp2161
sg70
g2155
sg63
(lp2162
g56
(g57
g58
NtRp2163
(dp2164
g61
(dp2165
g69
I3
ssg70
g2159
sg63
(lp2166
S'1'
asbasbasbasbasbasbasbasbasbasbasbag56
(g72
g58
NtRp2167
(dp2168
g61
(dp2169
sg70
g66
sg63
(lp2170
g56
(g77
g58
NtRp2171
(dp2172
g61
(dp2173
g81
g82
ssg70
g2167
sg63
(lp2174
S'extension'
p2175
asbag56
(g77
g58
NtRp2176
(dp2177
g61
(dp2178
g88
g89
ssg70
g2167
sg63
(lp2179
S':'
asbag56
(g77
g58
NtRp2180
(dp2181
g61
(dp2182
sg70
g2167
sg63
(lp2183
g56
(g57
g58
NtRp2184
(dp2185
g61
(dp2186
g69
I5
ssg70
g2180
sg63
(lp2187
S'html'
p2188
asbasbasbag56
(g72
g58
NtRp2189
(dp2190
g61
(dp2191
sg70
g66
sg63
(lp2192
g56
(g77
g58
NtRp2193
(dp2194
g61
(dp2195
g81
g82
ssg70
g2189
sg63
(lp2196
S'folder'
p2197
asbag56
(g77
g58
NtRp2198
(dp2199
g61
(dp2200
g88
g89
ssg70
g2189
sg63
(lp2201
S':'
asbag56
(g77
g58
NtRp2202
(dp2203
g61
(dp2204
sg70
g2189
sg63
(lp2205
g56
(g57
g58
NtRp2206
(dp2207
g61
(dp2208
g69
I5
ssg70
g2202
sg63
(lp2209
S'D:\\Workbench\\web2py_src\\applications\\admin\\'
p2210
asbasbasbag56
(g72
g58
NtRp2211
(dp2212
g61
(dp2213
sg70
g66
sg63
(lp2214
g56
(g77
g58
NtRp2215
(dp2216
g61
(dp2217
g81
g82
ssg70
g2211
sg63
(lp2218
S'function'
p2219
asbag56
(g77
g58
NtRp2220
(dp2221
g61
(dp2222
g88
g89
ssg70
g2211
sg63
(lp2223
S':'
asbag56
(g77
g58
NtRp2224
(dp2225
g61
(dp2226
sg70
g2211
sg63
(lp2227
g56
(g57
g58
NtRp2228
(dp2229
g61
(dp2230
g69
I5
ssg70
g2224
sg63
(lp2231
S'ticket'
p2232
asbasbasbag56
(g72
g58
NtRp2233
(dp2234
g61
(dp2235
sg70
g66
sg63
(lp2236
g56
(g77
g58
NtRp2237
(dp2238
g61
(dp2239
g81
g82
ssg70
g2233
sg63
(lp2240
S'get_vars'
p2241
asbag56
(g77
g58
NtRp2242
(dp2243
g61
(dp2244
g88
g89
ssg70
g2233
sg63
(lp2245
S':'
asbag56
(g77
g58
NtRp2246
(dp2247
g61
(dp2248
sg70
g2233
sg63
(lp2249
g56
(g57
g58
NtRp2250
(dp2251
g61
(dp2252
g69
I5
ssg70
g2246
sg63
(lp2253
g56
(g65
g58
NtRp2254
(dp2255
g61
(dp2256
g69
I4
ssg70
Nsg63
(lp2257
sbasbasbasbag56
(g72
g58
NtRp2258
(dp2259
g61
(dp2260
sg70
g66
sg63
(lp2261
g56
(g77
g58
NtRp2262
(dp2263
g61
(dp2264
g81
g82
ssg70
g2258
sg63
(lp2265
S'global_settings'
p2266
asbag56
(g77
g58
NtRp2267
(dp2268
g61
(dp2269
g88
g89
ssg70
g2258
sg63
(lp2270
S':'
asbag56
(g77
g58
NtRp2271
(dp2272
g61
(dp2273
sg70
g2258
sg63
(lp2274
g56
(g57
g58
NtRp2275
(dp2276
g61
(dp2277
g69
I5
ssg70
g2271
sg63
(lp2278
g56
(g65
g58
NtRp2279
(dp2280
g61
(dp2281
g69
I4
ssg70
Nsg63
(lp2282
g56
(g72
g58
NtRp2283
(dp2284
g61
(dp2285
sg70
g2279
sg63
(lp2286
g56
(g77
g58
NtRp2287
(dp2288
g61
(dp2289
g81
g82
ssg70
g2283
sg63
(lp2290
g859
asbag56
(g77
g58
NtRp2291
(dp2292
g61
(dp2293
g88
g89
ssg70
g2283
sg63
(lp2294
S':'
asbag56
(g77
g58
NtRp2295
(dp2296
g61
(dp2297
sg70
g2283
sg63
(lp2298
g56
(g57
g58
NtRp2299
(dp2300
g61
(dp2301
g69
I4
ssg70
g2295
sg63
(lp2302
S"set(['D:\\\\Workbench\\\\web2py_src\\\\applications\\\\tgtoolbox\\\\', 'D:\\\\Workbench\\\\web2py_src\\\\applications\\\\admin\\\\'])"
p2303
asbasbasbag56
(g72
g58
NtRp2304
(dp2305
g61
(dp2306
sg70
g2279
sg63
(lp2307
g56
(g77
g58
NtRp2308
(dp2309
g61
(dp2310
g81
g82
ssg70
g2304
sg63
(lp2311
g881
asbag56
(g77
g58
NtRp2312
(dp2313
g61
(dp2314
g88
g89
ssg70
g2304
sg63
(lp2315
S':'
asbag56
(g77
g58
NtRp2316
(dp2317
g61
(dp2318
sg70
g2304
sg63
(lp2319
g56
(g57
g58
NtRp2320
(dp2321
g61
(dp2322
g69
I4
ssg70
g2316
sg63
(lp2323
g894
asbasbasbag56
(g72
g58
NtRp2324
(dp2325
g61
(dp2326
sg70
g2279
sg63
(lp2327
g56
(g77
g58
NtRp2328
(dp2329
g61
(dp2330
g81
g82
ssg70
g2324
sg63
(lp2331
g925
asbag56
(g77
g58
NtRp2332
(dp2333
g61
(dp2334
g88
g89
ssg70
g2324
sg63
(lp2335
S':'
asbag56
(g77
g58
NtRp2336
(dp2337
g61
(dp2338
sg70
g2324
sg63
(lp2339
g56
(g57
g58
NtRp2340
(dp2341
g61
(dp2342
g69
I4
ssg70
g2336
sg63
(lp2343
S'set([])'
p2344
asbasbasbag56
(g72
g58
NtRp2345
(dp2346
g61
(dp2347
sg70
g2279
sg63
(lp2348
g56
(g77
g58
NtRp2349
(dp2350
g61
(dp2351
g81
g82
ssg70
g2345
sg63
(lp2352
g947
asbag56
(g77
g58
NtRp2353
(dp2354
g61
(dp2355
g88
g89
ssg70
g2345
sg63
(lp2356
S':'
asbag56
(g77
g58
NtRp2357
(dp2358
g61
(dp2359
sg70
g2345
sg63
(lp2360
g56
(g57
g58
NtRp2361
(dp2362
g61
(dp2363
g69
I4
ssg70
g2357
sg63
(lp2364
g99
asbasbasbag56
(g72
g58
NtRp2365
(dp2366
g61
(dp2367
sg70
g2279
sg63
(lp2368
g56
(g77
g58
NtRp2369
(dp2370
g61
(dp2371
g81
g82
ssg70
g2365
sg63
(lp2372
g1012
asbag56
(g77
g58
NtRp2373
(dp2374
g61
(dp2375
g88
g89
ssg70
g2365
sg63
(lp2376
S':'
asbag56
(g77
g58
NtRp2377
(dp2378
g61
(dp2379
sg70
g2365
sg63
(lp2380
g56
(g57
g58
NtRp2381
(dp2382
g61
(dp2383
g69
I4
ssg70
g2377
sg63
(lp2384
g894
asbasbasbag56
(g72
g58
NtRp2385
(dp2386
g61
(dp2387
sg70
g2279
sg63
(lp2388
g56
(g77
g58
NtRp2389
(dp2390
g61
(dp2391
g81
g82
ssg70
g2385
sg63
(lp2392
g1231
asbag56
(g77
g58
NtRp2393
(dp2394
g61
(dp2395
g88
g89
ssg70
g2385
sg63
(lp2396
S':'
asbag56
(g77
g58
NtRp2397
(dp2398
g61
(dp2399
sg70
g2385
sg63
(lp2400
g56
(g57
g58
NtRp2401
(dp2402
g61
(dp2403
g69
I4
ssg70
g2397
sg63
(lp2404
g99
asbasbasbag56
(g72
g58
NtRp2405
(dp2406
g61
(dp2407
sg70
g2279
sg63
(lp2408
g56
(g77
g58
NtRp2409
(dp2410
g61
(dp2411
g81
g82
ssg70
g2405
sg63
(lp2412
g1864
asbag56
(g77
g58
NtRp2413
(dp2414
g61
(dp2415
g88
g89
ssg70
g2405
sg63
(lp2416
S':'
asbag56
(g77
g58
NtRp2417
(dp2418
g61
(dp2419
sg70
g2405
sg63
(lp2420
g56
(g57
g58
NtRp2421
(dp2422
g61
(dp2423
g69
I4
ssg70
g2417
sg63
(lp2424
g56
(g65
g58
NtRp2425
(dp2426
g61
(dp2427
g69
I3
ssg70
Nsg63
(lp2428
g56
(g72
g58
NtRp2429
(dp2430
g61
(dp2431
sg70
g2425
sg63
(lp2432
g56
(g77
g58
NtRp2433
(dp2434
g61
(dp2435
sg70
g2429
sg63
(lp2436
g56
(g57
g58
NtRp2437
(dp2438
g61
(dp2439
g69
I3
ssg70
g2433
sg63
(lp2440
S'1'
asbasbasbag56
(g72
g58
NtRp2441
(dp2442
g61
(dp2443
sg70
g2425
sg63
(lp2444
g56
(g77
g58
NtRp2445
(dp2446
g61
(dp2447
sg70
g2441
sg63
(lp2448
g56
(g57
g58
NtRp2449
(dp2450
g61
(dp2451
g69
I3
ssg70
g2445
sg63
(lp2452
S'99'
p2453
asbasbasbag56
(g72
g58
NtRp2454
(dp2455
g61
(dp2456
sg70
g2425
sg63
(lp2457
g56
(g77
g58
NtRp2458
(dp2459
g61
(dp2460
sg70
g2454
sg63
(lp2461
g56
(g57
g58
NtRp2462
(dp2463
g61
(dp2464
g69
I3
ssg70
g2458
sg63
(lp2465
S'2'
asbasbasbag56
(g72
g58
NtRp2466
(dp2467
g61
(dp2468
sg70
g2425
sg63
(lp2469
g56
(g77
g58
NtRp2470
(dp2471
g61
(dp2472
sg70
g2466
sg63
(lp2473
g56
(g57
g58
NtRp2474
(dp2475
g61
(dp2476
g69
I3
ssg70
g2470
sg63
(lp2477
S'datetime.datetime(2011, 9, 26, 6, 55, 33)'
p2478
asbasbasbag56
(g72
g58
NtRp2479
(dp2480
g61
(dp2481
sg70
g2425
sg63
(lp2482
g56
(g77
g58
NtRp2483
(dp2484
g61
(dp2485
sg70
g2479
sg63
(lp2486
g56
(g57
g58
NtRp2487
(dp2488
g61
(dp2489
g69
I3
ssg70
g2483
sg63
(lp2490
g1943
asbasbasbasbasbasbasbasbasbasbasbag56
(g72
g58
NtRp2491
(dp2492
g61
(dp2493
sg70
g66
sg63
(lp2494
g56
(g77
g58
NtRp2495
(dp2496
g61
(dp2497
g81
g82
ssg70
g2491
sg63
(lp2498
S'is_https'
p2499
asbag56
(g77
g58
NtRp2500
(dp2501
g61
(dp2502
g88
g89
ssg70
g2491
sg63
(lp2503
S':'
asbag56
(g77
g58
NtRp2504
(dp2505
g61
(dp2506
sg70
g2491
sg63
(lp2507
g56
(g57
g58
NtRp2508
(dp2509
g61
(dp2510
g69
I5
ssg70
g2504
sg63
(lp2511
g99
asbasbasbag56
(g72
g58
NtRp2512
(dp2513
g61
(dp2514
sg70
g66
sg63
(lp2515
g56
(g77
g58
NtRp2516
(dp2517
g61
(dp2518
g81
g82
ssg70
g2512
sg63
(lp2519
S'is_local'
p2520
asbag56
(g77
g58
NtRp2521
(dp2522
g61
(dp2523
g88
g89
ssg70
g2512
sg63
(lp2524
S':'
asbag56
(g77
g58
NtRp2525
(dp2526
g61
(dp2527
sg70
g2512
sg63
(lp2528
g56
(g57
g58
NtRp2529
(dp2530
g61
(dp2531
g69
I5
ssg70
g2525
sg63
(lp2532
g2074
asbasbasbag56
(g72
g58
NtRp2533
(dp2534
g61
(dp2535
sg70
g66
sg63
(lp2536
g56
(g77
g58
NtRp2537
(dp2538
g61
(dp2539
g81
g82
ssg70
g2533
sg63
(lp2540
S'is_restful'
p2541
asbag56
(g77
g58
NtRp2542
(dp2543
g61
(dp2544
g88
g89
ssg70
g2533
sg63
(lp2545
S':'
asbag56
(g77
g58
NtRp2546
(dp2547
g61
(dp2548
sg70
g2533
sg63
(lp2549
g56
(g57
g58
NtRp2550
(dp2551
g61
(dp2552
g69
I5
ssg70
g2546
sg63
(lp2553
g99
asbasbasbag56
(g72
g58
NtRp2554
(dp2555
g61
(dp2556
sg70
g66
sg63
(lp2557
g56
(g77
g58
NtRp2558
(dp2559
g61
(dp2560
g81
g82
ssg70
g2554
sg63
(lp2561
S'now'
p2562
asbag56
(g77
g58
NtRp2563
(dp2564
g61
(dp2565
g88
g89
ssg70
g2554
sg63
(lp2566
S':'
asbag56
(g77
g58
NtRp2567
(dp2568
g61
(dp2569
sg70
g2554
sg63
(lp2570
g56
(g57
g58
NtRp2571
(dp2572
g61
(dp2573
g69
I5
ssg70
g2567
sg63
(lp2574
S'datetime.datetime(2012, 1, 8, 19, 27, 25, 219000)'
p2575
asbasbasbag56
(g72
g58
NtRp2576
(dp2577
g61
(dp2578
sg70
g66
sg63
(lp2579
g56
(g77
g58
NtRp2580
(dp2581
g61
(dp2582
g81
g82
ssg70
g2576
sg63
(lp2583
S'post_vars'
p2584
asbag56
(g77
g58
NtRp2585
(dp2586
g61
(dp2587
g88
g89
ssg70
g2576
sg63
(lp2588
S':'
asbag56
(g77
g58
NtRp2589
(dp2590
g61
(dp2591
sg70
g2576
sg63
(lp2592
g56
(g57
g58
NtRp2593
(dp2594
g61
(dp2595
g69
I5
ssg70
g2589
sg63
(lp2596
g56
(g65
g58
NtRp2597
(dp2598
g61
(dp2599
g69
I4
ssg70
Nsg63
(lp2600
sbasbasbasbag56
(g72
g58
NtRp2601
(dp2602
g61
(dp2603
sg70
g66
sg63
(lp2604
g56
(g77
g58
NtRp2605
(dp2606
g61
(dp2607
g81
g82
ssg70
g2601
sg63
(lp2608
S'raw_args'
p2609
asbag56
(g77
g58
NtRp2610
(dp2611
g61
(dp2612
g88
g89
ssg70
g2601
sg63
(lp2613
S':'
asbag56
(g77
g58
NtRp2614
(dp2615
g61
(dp2616
sg70
g2601
sg63
(lp2617
g56
(g57
g58
NtRp2618
(dp2619
g61
(dp2620
g69
I5
ssg70
g2614
sg63
(lp2621
S'admin/127.0.0.1.2012-01-08.19-27-23.e593e9ef-1233-4135-abd4-de8734c95c11'
p2622
asbasbasbag56
(g72
g58
NtRp2623
(dp2624
g61
(dp2625
sg70
g66
sg63
(lp2626
g56
(g77
g58
NtRp2627
(dp2628
g61
(dp2629
g81
g82
ssg70
g2623
sg63
(lp2630
S'url'
p2631
asbag56
(g77
g58
NtRp2632
(dp2633
g61
(dp2634
g88
g89
ssg70
g2623
sg63
(lp2635
S':'
asbag56
(g77
g58
NtRp2636
(dp2637
g61
(dp2638
sg70
g2623
sg63
(lp2639
g56
(g57
g58
NtRp2640
(dp2641
g61
(dp2642
g69
I5
ssg70
g2636
sg63
(lp2643
S'/admin/default/ticket/admin/127.0.0.1.2012-01-08.19-27-23.e593e9ef-1233-4135-abd4-de8734c95c11'
p2644
asbasbasbag56
(g72
g58
NtRp2645
(dp2646
g61
(dp2647
sg70
g66
sg63
(lp2648
g56
(g77
g58
NtRp2649
(dp2650
g61
(dp2651
g81
g82
ssg70
g2645
sg63
(lp2652
S'utcnow'
p2653
asbag56
(g77
g58
NtRp2654
(dp2655
g61
(dp2656
g88
g89
ssg70
g2645
sg63
(lp2657
S':'
asbag56
(g77
g58
NtRp2658
(dp2659
g61
(dp2660
sg70
g2645
sg63
(lp2661
g56
(g57
g58
NtRp2662
(dp2663
g61
(dp2664
g69
I5
ssg70
g2658
sg63
(lp2665
S'datetime.datetime(2012, 1, 8, 11, 27, 25, 219000)'
p2666
asbasbasbag56
(g72
g58
NtRp2667
(dp2668
g61
(dp2669
sg70
g66
sg63
(lp2670
g56
(g77
g58
NtRp2671
(dp2672
g61
(dp2673
g81
g82
ssg70
g2667
sg63
(lp2674
S'uuid'
p2675
asbag56
(g77
g58
NtRp2676
(dp2677
g61
(dp2678
g88
g89
ssg70
g2667
sg63
(lp2679
S':'
asbag56
(g77
g58
NtRp2680
(dp2681
g61
(dp2682
sg70
g2667
sg63
(lp2683
g56
(g57
g58
NtRp2684
(dp2685
g61
(dp2686
g69
I5
ssg70
g2680
sg63
(lp2687
S'admin/127.0.0.1.2012-01-08.19-27-25.12c2dd9e-0325-4686-8a7c-849438fd43b5'
p2688
asbasbasbag56
(g72
g58
NtRp2689
(dp2690
g61
(dp2691
sg70
g66
sg63
(lp2692
g56
(g77
g58
NtRp2693
(dp2694
g61
(dp2695
g81
g82
ssg70
g2689
sg63
(lp2696
S'vars'
p2697
asbag56
(g77
g58
NtRp2698
(dp2699
g61
(dp2700
g88
g89
ssg70
g2689
sg63
(lp2701
S':'
asbag56
(g77
g58
NtRp2702
(dp2703
g61
(dp2704
sg70
g2689
sg63
(lp2705
g56
(g57
g58
NtRp2706
(dp2707
g61
(dp2708
g69
I5
ssg70
g2702
sg63
(lp2709
g56
(g65
g58
NtRp2710
(dp2711
g61
(dp2712
g69
I4
ssg70
Nsg63
(lp2713
sbasbasbasbag56
(g72
g58
NtRp2714
(dp2715
g61
(dp2716
sg70
g66
sg63
(lp2717
g56
(g77
g58
NtRp2718
(dp2719
g61
(dp2720
g81
g82
ssg70
g2714
sg63
(lp2721
S'wsgi'
p2722
asbag56
(g77
g58
NtRp2723
(dp2724
g61
(dp2725
g88
g89
ssg70
g2714
sg63
(lp2726
S':'
asbag56
(g77
g58
NtRp2727
(dp2728
g61
(dp2729
sg70
g2714
sg63
(lp2730
g56
(g57
g58
NtRp2731
(dp2732
g61
(dp2733
g69
I5
ssg70
g2727
sg63
(lp2734
g56
(g65
g58
NtRp2735
(dp2736
g61
(dp2737
g69
I4
ssg70
Nsg63
(lp2738
g56
(g72
g58
NtRp2739
(dp2740
g61
(dp2741
sg70
g2735
sg63
(lp2742
g56
(g77
g58
NtRp2743
(dp2744
g61
(dp2745
g81
g82
ssg70
g2739
sg63
(lp2746
S'environ'
p2747
asbag56
(g77
g58
NtRp2748
(dp2749
g61
(dp2750
g88
g89
ssg70
g2739
sg63
(lp2751
S':'
asbag56
(g77
g58
NtRp2752
(dp2753
g61
(dp2754
sg70
g2739
sg63
(lp2755
g56
(g57
g58
NtRp2756
(dp2757
g61
(dp2758
g69
I4
ssg70
g2752
sg63
(lp2759
g56
(g65
g58
NtRp2760
(dp2761
g61
(dp2762
g69
I3
ssg70
Nsg63
(lp2763
g56
(g72
g58
NtRp2764
(dp2765
g61
(dp2766
sg70
g2760
sg63
(lp2767
g56
(g77
g58
NtRp2768
(dp2769
g61
(dp2770
g81
g82
ssg70
g2764
sg63
(lp2771
S'COMSPEC'
p2772
asbag56
(g77
g58
NtRp2773
(dp2774
g61
(dp2775
g88
g89
ssg70
g2764
sg63
(lp2776
S':'
asbag56
(g77
g58
NtRp2777
(dp2778
g61
(dp2779
sg70
g2764
sg63
(lp2780
g56
(g57
g58
NtRp2781
(dp2782
g61
(dp2783
g69
I3
ssg70
g2777
sg63
(lp2784
g916
asbasbasbag56
(g72
g58
NtRp2785
(dp2786
g61
(dp2787
sg70
g2760
sg63
(lp2788
g56
(g77
g58
NtRp2789
(dp2790
g61
(dp2791
g81
g82
ssg70
g2785
sg63
(lp2792
S'DOCUMENT_ROOT'
p2793
asbag56
(g77
g58
NtRp2794
(dp2795
g61
(dp2796
g88
g89
ssg70
g2785
sg63
(lp2797
S':'
asbag56
(g77
g58
NtRp2798
(dp2799
g61
(dp2800
sg70
g2785
sg63
(lp2801
g56
(g57
g58
NtRp2802
(dp2803
g61
(dp2804
g69
I3
ssg70
g2798
sg63
(lp2805
g981
asbasbasbag56
(g72
g58
NtRp2806
(dp2807
g61
(dp2808
sg70
g2760
sg63
(lp2809
g56
(g77
g58
NtRp2810
(dp2811
g61
(dp2812
g81
g82
ssg70
g2806
sg63
(lp2813
S'GATEWAY_INTERFACE'
p2814
asbag56
(g77
g58
NtRp2815
(dp2816
g61
(dp2817
g88
g89
ssg70
g2806
sg63
(lp2818
S':'
asbag56
(g77
g58
NtRp2819
(dp2820
g61
(dp2821
sg70
g2806
sg63
(lp2822
g56
(g57
g58
NtRp2823
(dp2824
g61
(dp2825
g69
I3
ssg70
g2819
sg63
(lp2826
g1003
asbasbasbag56
(g72
g58
NtRp2827
(dp2828
g61
(dp2829
sg70
g2760
sg63
(lp2830
g56
(g77
g58
NtRp2831
(dp2832
g61
(dp2833
g81
g82
ssg70
g2827
sg63
(lp2834
S'HTTP_ACCEPT'
p2835
asbag56
(g77
g58
NtRp2836
(dp2837
g61
(dp2838
g88
g89
ssg70
g2827
sg63
(lp2839
S':'
asbag56
(g77
g58
NtRp2840
(dp2841
g61
(dp2842
sg70
g2827
sg63
(lp2843
g56
(g57
g58
NtRp2844
(dp2845
g61
(dp2846
g69
I3
ssg70
g2840
sg63
(lp2847
g1046
asbasbasbag56
(g72
g58
NtRp2848
(dp2849
g61
(dp2850
sg70
g2760
sg63
(lp2851
g56
(g77
g58
NtRp2852
(dp2853
g61
(dp2854
g81
g82
ssg70
g2848
sg63
(lp2855
S'HTTP_ACCEPT_CHARSET'
p2856
asbag56
(g77
g58
NtRp2857
(dp2858
g61
(dp2859
g88
g89
ssg70
g2848
sg63
(lp2860
S':'
asbag56
(g77
g58
NtRp2861
(dp2862
g61
(dp2863
sg70
g2848
sg63
(lp2864
g56
(g57
g58
NtRp2865
(dp2866
g61
(dp2867
g69
I3
ssg70
g2861
sg63
(lp2868
g1068
asbasbasbag56
(g72
g58
NtRp2869
(dp2870
g61
(dp2871
sg70
g2760
sg63
(lp2872
g56
(g77
g58
NtRp2873
(dp2874
g61
(dp2875
g81
g82
ssg70
g2869
sg63
(lp2876
S'HTTP_ACCEPT_ENCODING'
p2877
asbag56
(g77
g58
NtRp2878
(dp2879
g61
(dp2880
g88
g89
ssg70
g2869
sg63
(lp2881
S':'
asbag56
(g77
g58
NtRp2882
(dp2883
g61
(dp2884
sg70
g2869
sg63
(lp2885
g56
(g57
g58
NtRp2886
(dp2887
g61
(dp2888
g69
I3
ssg70
g2882
sg63
(lp2889
g1090
asbasbasbag56
(g72
g58
NtRp2890
(dp2891
g61
(dp2892
sg70
g2760
sg63
(lp2893
g56
(g77
g58
NtRp2894
(dp2895
g61
(dp2896
g81
g82
ssg70
g2890
sg63
(lp2897
S'HTTP_ACCEPT_LANGUAGE'
p2898
asbag56
(g77
g58
NtRp2899
(dp2900
g61
(dp2901
g88
g89
ssg70
g2890
sg63
(lp2902
S':'
asbag56
(g77
g58
NtRp2903
(dp2904
g61
(dp2905
sg70
g2890
sg63
(lp2906
g56
(g57
g58
NtRp2907
(dp2908
g61
(dp2909
g69
I3
ssg70
g2903
sg63
(lp2910
g1112
asbasbasbag56
(g72
g58
NtRp2911
(dp2912
g61
(dp2913
sg70
g2760
sg63
(lp2914
g56
(g77
g58
NtRp2915
(dp2916
g61
(dp2917
g81
g82
ssg70
g2911
sg63
(lp2918
S'HTTP_CONNECTION'
p2919
asbag56
(g77
g58
NtRp2920
(dp2921
g61
(dp2922
g88
g89
ssg70
g2911
sg63
(lp2923
S':'
asbag56
(g77
g58
NtRp2924
(dp2925
g61
(dp2926
sg70
g2911
sg63
(lp2927
g56
(g57
g58
NtRp2928
(dp2929
g61
(dp2930
g69
I3
ssg70
g2924
sg63
(lp2931
g1134
asbasbasbag56
(g72
g58
NtRp2932
(dp2933
g61
(dp2934
sg70
g2760
sg63
(lp2935
g56
(g77
g58
NtRp2936
(dp2937
g61
(dp2938
g81
g82
ssg70
g2932
sg63
(lp2939
S'HTTP_COOKIE'
p2940
asbag56
(g77
g58
NtRp2941
(dp2942
g61
(dp2943
g88
g89
ssg70
g2932
sg63
(lp2944
S':'
asbag56
(g77
g58
NtRp2945
(dp2946
g61
(dp2947
sg70
g2932
sg63
(lp2948
g56
(g57
g58
NtRp2949
(dp2950
g61
(dp2951
g69
I3
ssg70
g2945
sg63
(lp2952
g1156
asbasbasbag56
(g72
g58
NtRp2953
(dp2954
g61
(dp2955
sg70
g2760
sg63
(lp2956
g56
(g77
g58
NtRp2957
(dp2958
g61
(dp2959
g81
g82
ssg70
g2953
sg63
(lp2960
S'HTTP_HOST'
p2961
asbag56
(g77
g58
NtRp2962
(dp2963
g61
(dp2964
g88
g89
ssg70
g2953
sg63
(lp2965
S':'
asbag56
(g77
g58
NtRp2966
(dp2967
g61
(dp2968
sg70
g2953
sg63
(lp2969
g56
(g57
g58
NtRp2970
(dp2971
g61
(dp2972
g69
I3
ssg70
g2966
sg63
(lp2973
g1178
asbasbasbag56
(g72
g58
NtRp2974
(dp2975
g61
(dp2976
sg70
g2760
sg63
(lp2977
g56
(g77
g58
NtRp2978
(dp2979
g61
(dp2980
g81
g82
ssg70
g2974
sg63
(lp2981
S'HTTP_REFERER'
p2982
asbag56
(g77
g58
NtRp2983
(dp2984
g61
(dp2985
g88
g89
ssg70
g2974
sg63
(lp2986
S':'
asbag56
(g77
g58
NtRp2987
(dp2988
g61
(dp2989
sg70
g2974
sg63
(lp2990
g56
(g57
g58
NtRp2991
(dp2992
g61
(dp2993
g69
I3
ssg70
g2987
sg63
(lp2994
g1200
asbasbasbag56
(g72
g58
NtRp2995
(dp2996
g61
(dp2997
sg70
g2760
sg63
(lp2998
g56
(g77
g58
NtRp2999
(dp3000
g61
(dp3001
g81
g82
ssg70
g2995
sg63
(lp3002
S'HTTP_USER_AGENT'
p3003
asbag56
(g77
g58
NtRp3004
(dp3005
g61
(dp3006
g88
g89
ssg70
g2995
sg63
(lp3007
S':'
asbag56
(g77
g58
NtRp3008
(dp3009
g61
(dp3010
sg70
g2995
sg63
(lp3011
g56
(g57
g58
NtRp3012
(dp3013
g61
(dp3014
g69
I3
ssg70
g3008
sg63
(lp3015
g1222
asbasbasbag56
(g72
g58
NtRp3016
(dp3017
g61
(dp3018
sg70
g2760
sg63
(lp3019
g56
(g77
g58
NtRp3020
(dp3021
g61
(dp3022
g81
g82
ssg70
g3016
sg63
(lp3023
S'PATHEXT'
p3024
asbag56
(g77
g58
NtRp3025
(dp3026
g61
(dp3027
g88
g89
ssg70
g3016
sg63
(lp3028
S':'
asbag56
(g77
g58
NtRp3029
(dp3030
g61
(dp3031
sg70
g3016
sg63
(lp3032
g56
(g57
g58
NtRp3033
(dp3034
g61
(dp3035
g69
I3
ssg70
g3029
sg63
(lp3036
g1508
asbasbasbag56
(g72
g58
NtRp3037
(dp3038
g61
(dp3039
sg70
g2760
sg63
(lp3040
g56
(g77
g58
NtRp3041
(dp3042
g61
(dp3043
g81
g82
ssg70
g3037
sg63
(lp3044
S'PATH_INFO'
p3045
asbag56
(g77
g58
NtRp3046
(dp3047
g61
(dp3048
g88
g89
ssg70
g3037
sg63
(lp3049
S':'
asbag56
(g77
g58
NtRp3050
(dp3051
g61
(dp3052
sg70
g3037
sg63
(lp3053
g56
(g57
g58
NtRp3054
(dp3055
g61
(dp3056
g69
I3
ssg70
g3050
sg63
(lp3057
g1464
asbasbasbag56
(g72
g58
NtRp3058
(dp3059
g61
(dp3060
sg70
g2760
sg63
(lp3061
g56
(g77
g58
NtRp3062
(dp3063
g61
(dp3064
g81
g82
ssg70
g3058
sg63
(lp3065
S'PATH_TRANSLATED'
p3066
asbag56
(g77
g58
NtRp3067
(dp3068
g61
(dp3069
g88
g89
ssg70
g3058
sg63
(lp3070
S':'
asbag56
(g77
g58
NtRp3071
(dp3072
g61
(dp3073
sg70
g3058
sg63
(lp3074
g56
(g57
g58
NtRp3075
(dp3076
g61
(dp3077
g69
I3
ssg70
g3071
sg63
(lp3078
g1486
asbasbasbag56
(g72
g58
NtRp3079
(dp3080
g61
(dp3081
sg70
g2760
sg63
(lp3082
g56
(g77
g58
NtRp3083
(dp3084
g61
(dp3085
g81
g82
ssg70
g3079
sg63
(lp3086
S'QUERY_STRING'
p3087
asbag56
(g77
g58
NtRp3088
(dp3089
g61
(dp3090
g88
g89
ssg70
g3079
sg63
(lp3091
S':'
asbag56
(g77
g58
NtRp3092
(dp3093
g61
(dp3094
sg70
g3079
sg63
(lp3095
g56
(g57
g58
NtRp3096
(dp3097
g61
(dp3098
g69
I3
ssg70
g3092
sg63
(lp3099
S''
asbasbasbag56
(g72
g58
NtRp3100
(dp3101
g61
(dp3102
sg70
g2760
sg63
(lp3103
g56
(g77
g58
NtRp3104
(dp3105
g61
(dp3106
g81
g82
ssg70
g3100
sg63
(lp3107
S'REMOTE_ADDR'
p3108
asbag56
(g77
g58
NtRp3109
(dp3110
g61
(dp3111
g88
g89
ssg70
g3100
sg63
(lp3112
S':'
asbag56
(g77
g58
NtRp3113
(dp3114
g61
(dp3115
sg70
g3100
sg63
(lp3116
g56
(g57
g58
NtRp3117
(dp3118
g61
(dp3119
g69
I3
ssg70
g3113
sg63
(lp3120
g215
asbasbasbag56
(g72
g58
NtRp3121
(dp3122
g61
(dp3123
sg70
g2760
sg63
(lp3124
g56
(g77
g58
NtRp3125
(dp3126
g61
(dp3127
g81
g82
ssg70
g3121
sg63
(lp3128
S'REMOTE_PORT'
p3129
asbag56
(g77
g58
NtRp3130
(dp3131
g61
(dp3132
g88
g89
ssg70
g3121
sg63
(lp3133
S':'
asbag56
(g77
g58
NtRp3134
(dp3135
g61
(dp3136
sg70
g3121
sg63
(lp3137
g56
(g57
g58
NtRp3138
(dp3139
g61
(dp3140
g69
I3
ssg70
g3134
sg63
(lp3141
g1572
asbasbasbag56
(g72
g58
NtRp3142
(dp3143
g61
(dp3144
sg70
g2760
sg63
(lp3145
g56
(g77
g58
NtRp3146
(dp3147
g61
(dp3148
g81
g82
ssg70
g3142
sg63
(lp3149
S'REQUEST_METHOD'
p3150
asbag56
(g77
g58
NtRp3151
(dp3152
g61
(dp3153
g88
g89
ssg70
g3142
sg63
(lp3154
S':'
asbag56
(g77
g58
NtRp3155
(dp3156
g61
(dp3157
sg70
g3142
sg63
(lp3158
g56
(g57
g58
NtRp3159
(dp3160
g61
(dp3161
g69
I3
ssg70
g3155
sg63
(lp3162
g1594
asbasbasbag56
(g72
g58
NtRp3163
(dp3164
g61
(dp3165
sg70
g2760
sg63
(lp3166
g56
(g77
g58
NtRp3167
(dp3168
g61
(dp3169
g81
g82
ssg70
g3163
sg63
(lp3170
S'REQUEST_URI'
p3171
asbag56
(g77
g58
NtRp3172
(dp3173
g61
(dp3174
g88
g89
ssg70
g3163
sg63
(lp3175
S':'
asbag56
(g77
g58
NtRp3176
(dp3177
g61
(dp3178
sg70
g3163
sg63
(lp3179
g56
(g57
g58
NtRp3180
(dp3181
g61
(dp3182
g69
I3
ssg70
g3176
sg63
(lp3183
g1616
asbasbasbag56
(g72
g58
NtRp3184
(dp3185
g61
(dp3186
sg70
g2760
sg63
(lp3187
g56
(g77
g58
NtRp3188
(dp3189
g61
(dp3190
g81
g82
ssg70
g3184
sg63
(lp3191
S'SCRIPT_FILENAME'
p3192
asbag56
(g77
g58
NtRp3193
(dp3194
g61
(dp3195
g88
g89
ssg70
g3184
sg63
(lp3196
S':'
asbag56
(g77
g58
NtRp3197
(dp3198
g61
(dp3199
sg70
g3184
sg63
(lp3200
g56
(g57
g58
NtRp3201
(dp3202
g61
(dp3203
g69
I3
ssg70
g3197
sg63
(lp3204
g1638
asbasbasbag56
(g72
g58
NtRp3205
(dp3206
g61
(dp3207
sg70
g2760
sg63
(lp3208
g56
(g77
g58
NtRp3209
(dp3210
g61
(dp3211
g81
g82
ssg70
g3205
sg63
(lp3212
S'SCRIPT_NAME'
p3213
asbag56
(g77
g58
NtRp3214
(dp3215
g61
(dp3216
g88
g89
ssg70
g3205
sg63
(lp3217
S':'
asbag56
(g77
g58
NtRp3218
(dp3219
g61
(dp3220
sg70
g3205
sg63
(lp3221
g56
(g57
g58
NtRp3222
(dp3223
g61
(dp3224
g69
I3
ssg70
g3218
sg63
(lp3225
S''
asbasbasbag56
(g72
g58
NtRp3226
(dp3227
g61
(dp3228
sg70
g2760
sg63
(lp3229
g56
(g77
g58
NtRp3230
(dp3231
g61
(dp3232
g81
g82
ssg70
g3226
sg63
(lp3233
S'SERVER_ADDR'
p3234
asbag56
(g77
g58
NtRp3235
(dp3236
g61
(dp3237
g88
g89
ssg70
g3226
sg63
(lp3238
S':'
asbag56
(g77
g58
NtRp3239
(dp3240
g61
(dp3241
sg70
g3226
sg63
(lp3242
g56
(g57
g58
NtRp3243
(dp3244
g61
(dp3245
g69
I3
ssg70
g3239
sg63
(lp3246
g1681
asbasbasbag56
(g72
g58
NtRp3247
(dp3248
g61
(dp3249
sg70
g2760
sg63
(lp3250
g56
(g77
g58
NtRp3251
(dp3252
g61
(dp3253
g81
g82
ssg70
g3247
sg63
(lp3254
S'SERVER_ADMIN'
p3255
asbag56
(g77
g58
NtRp3256
(dp3257
g61
(dp3258
g88
g89
ssg70
g3247
sg63
(lp3259
S':'
asbag56
(g77
g58
NtRp3260
(dp3261
g61
(dp3262
sg70
g3247
sg63
(lp3263
g56
(g57
g58
NtRp3264
(dp3265
g61
(dp3266
g69
I3
ssg70
g3260
sg63
(lp3267
g1703
asbasbasbag56
(g72
g58
NtRp3268
(dp3269
g61
(dp3270
sg70
g2760
sg63
(lp3271
g56
(g77
g58
NtRp3272
(dp3273
g61
(dp3274
g81
g82
ssg70
g3268
sg63
(lp3275
S'SERVER_NAME'
p3276
asbag56
(g77
g58
NtRp3277
(dp3278
g61
(dp3279
g88
g89
ssg70
g3268
sg63
(lp3280
S':'
asbag56
(g77
g58
NtRp3281
(dp3282
g61
(dp3283
sg70
g3268
sg63
(lp3284
g56
(g57
g58
NtRp3285
(dp3286
g61
(dp3287
g69
I3
ssg70
g3281
sg63
(lp3288
g1725
asbasbasbag56
(g72
g58
NtRp3289
(dp3290
g61
(dp3291
sg70
g2760
sg63
(lp3292
g56
(g77
g58
NtRp3293
(dp3294
g61
(dp3295
g81
g82
ssg70
g3289
sg63
(lp3296
S'SERVER_PORT'
p3297
asbag56
(g77
g58
NtRp3298
(dp3299
g61
(dp3300
g88
g89
ssg70
g3289
sg63
(lp3301
S':'
asbag56
(g77
g58
NtRp3302
(dp3303
g61
(dp3304
sg70
g3289
sg63
(lp3305
g56
(g57
g58
NtRp3306
(dp3307
g61
(dp3308
g69
I3
ssg70
g3302
sg63
(lp3309
g1747
asbasbasbag56
(g72
g58
NtRp3310
(dp3311
g61
(dp3312
sg70
g2760
sg63
(lp3313
g56
(g77
g58
NtRp3314
(dp3315
g61
(dp3316
g81
g82
ssg70
g3310
sg63
(lp3317
S'SERVER_PROTOCOL'
p3318
asbag56
(g77
g58
NtRp3319
(dp3320
g61
(dp3321
g88
g89
ssg70
g3310
sg63
(lp3322
S':'
asbag56
(g77
g58
NtRp3323
(dp3324
g61
(dp3325
sg70
g3310
sg63
(lp3326
g56
(g57
g58
NtRp3327
(dp3328
g61
(dp3329
g69
I3
ssg70
g3323
sg63
(lp3330
g1769
asbasbasbag56
(g72
g58
NtRp3331
(dp3332
g61
(dp3333
sg70
g2760
sg63
(lp3334
g56
(g77
g58
NtRp3335
(dp3336
g61
(dp3337
g81
g82
ssg70
g3331
sg63
(lp3338
S'SERVER_SIGNATURE'
p3339
asbag56
(g77
g58
NtRp3340
(dp3341
g61
(dp3342
g88
g89
ssg70
g3331
sg63
(lp3343
S':'
asbag56
(g77
g58
NtRp3344
(dp3345
g61
(dp3346
sg70
g3331
sg63
(lp3347
g56
(g57
g58
NtRp3348
(dp3349
g61
(dp3350
g69
I3
ssg70
g3344
sg63
(lp3351
S''
asbasbasbag56
(g72
g58
NtRp3352
(dp3353
g61
(dp3354
sg70
g2760
sg63
(lp3355
g56
(g77
g58
NtRp3356
(dp3357
g61
(dp3358
g81
g82
ssg70
g3352
sg63
(lp3359
S'SERVER_SOFTWARE'
p3360
asbag56
(g77
g58
NtRp3361
(dp3362
g61
(dp3363
g88
g89
ssg70
g3352
sg63
(lp3364
S':'
asbag56
(g77
g58
NtRp3365
(dp3366
g61
(dp3367
sg70
g3352
sg63
(lp3368
g56
(g57
g58
NtRp3369
(dp3370
g61
(dp3371
g69
I3
ssg70
g3365
sg63
(lp3372
g1812
asbasbasbag56
(g72
g58
NtRp3373
(dp3374
g61
(dp3375
sg70
g2760
sg63
(lp3376
g56
(g77
g58
NtRp3377
(dp3378
g61
(dp3379
g81
g82
ssg70
g3373
sg63
(lp3380
S'SystemRoot'
p3381
asbag56
(g77
g58
NtRp3382
(dp3383
g61
(dp3384
g88
g89
ssg70
g3373
sg63
(lp3385
S':'
asbag56
(g77
g58
NtRp3386
(dp3387
g61
(dp3388
sg70
g3373
sg63
(lp3389
g56
(g57
g58
NtRp3390
(dp3391
g61
(dp3392
g69
I3
ssg70
g3386
sg63
(lp3393
g1834
asbasbasbag56
(g72
g58
NtRp3394
(dp3395
g61
(dp3396
sg70
g2760
sg63
(lp3397
g56
(g77
g58
NtRp3398
(dp3399
g61
(dp3400
g81
g82
ssg70
g3394
sg63
(lp3401
S'WINDIR'
p3402
asbag56
(g77
g58
NtRp3403
(dp3404
g61
(dp3405
g88
g89
ssg70
g3394
sg63
(lp3406
S':'
asbag56
(g77
g58
NtRp3407
(dp3408
g61
(dp3409
sg70
g3394
sg63
(lp3410
g56
(g57
g58
NtRp3411
(dp3412
g61
(dp3413
g69
I3
ssg70
g3407
sg63
(lp3414
g1965
asbasbasbag56
(g72
g58
NtRp3415
(dp3416
g61
(dp3417
sg70
g2760
sg63
(lp3418
g56
(g77
g58
NtRp3419
(dp3420
g61
(dp3421
g81
g82
ssg70
g3415
sg63
(lp3422
S'mod_wsgi.application_group'
p3423
asbag56
(g77
g58
NtRp3424
(dp3425
g61
(dp3426
g88
g89
ssg70
g3415
sg63
(lp3427
S':'
asbag56
(g77
g58
NtRp3428
(dp3429
g61
(dp3430
sg70
g3415
sg63
(lp3431
g56
(g57
g58
NtRp3432
(dp3433
g61
(dp3434
g69
I3
ssg70
g3428
sg63
(lp3435
g1265
asbasbasbag56
(g72
g58
NtRp3436
(dp3437
g61
(dp3438
sg70
g2760
sg63
(lp3439
g56
(g77
g58
NtRp3440
(dp3441
g61
(dp3442
g81
g82
ssg70
g3436
sg63
(lp3443
S'mod_wsgi.callable_object'
p3444
asbag56
(g77
g58
NtRp3445
(dp3446
g61
(dp3447
g88
g89
ssg70
g3436
sg63
(lp3448
S':'
asbag56
(g77
g58
NtRp3449
(dp3450
g61
(dp3451
sg70
g3436
sg63
(lp3452
g56
(g57
g58
NtRp3453
(dp3454
g61
(dp3455
g69
I3
ssg70
g3449
sg63
(lp3456
g1287
asbasbasbag56
(g72
g58
NtRp3457
(dp3458
g61
(dp3459
sg70
g2760
sg63
(lp3460
g56
(g77
g58
NtRp3461
(dp3462
g61
(dp3463
g81
g82
ssg70
g3457
sg63
(lp3464
S'mod_wsgi.handler_script'
p3465
asbag56
(g77
g58
NtRp3466
(dp3467
g61
(dp3468
g88
g89
ssg70
g3457
sg63
(lp3469
S':'
asbag56
(g77
g58
NtRp3470
(dp3471
g61
(dp3472
sg70
g3457
sg63
(lp3473
g56
(g57
g58
NtRp3474
(dp3475
g61
(dp3476
g69
I3
ssg70
g3470
sg63
(lp3477
S''
asbasbasbag56
(g72
g58
NtRp3478
(dp3479
g61
(dp3480
sg70
g2760
sg63
(lp3481
g56
(g77
g58
NtRp3482
(dp3483
g61
(dp3484
g81
g82
ssg70
g3478
sg63
(lp3485
S'mod_wsgi.input_chunked'
p3486
asbag56
(g77
g58
NtRp3487
(dp3488
g61
(dp3489
g88
g89
ssg70
g3478
sg63
(lp3490
S':'
asbag56
(g77
g58
NtRp3491
(dp3492
g61
(dp3493
sg70
g3478
sg63
(lp3494
g56
(g57
g58
NtRp3495
(dp3496
g61
(dp3497
g69
I3
ssg70
g3491
sg63
(lp3498
S'0'
asbasbasbag56
(g72
g58
NtRp3499
(dp3500
g61
(dp3501
sg70
g2760
sg63
(lp3502
g56
(g77
g58
NtRp3503
(dp3504
g61
(dp3505
g81
g82
ssg70
g3499
sg63
(lp3506
S'mod_wsgi.process_group'
p3507
asbag56
(g77
g58
NtRp3508
(dp3509
g61
(dp3510
g88
g89
ssg70
g3499
sg63
(lp3511
S':'
asbag56
(g77
g58
NtRp3512
(dp3513
g61
(dp3514
sg70
g3499
sg63
(lp3515
g56
(g57
g58
NtRp3516
(dp3517
g61
(dp3518
g69
I3
ssg70
g3512
sg63
(lp3519
S''
asbasbasbag56
(g72
g58
NtRp3520
(dp3521
g61
(dp3522
sg70
g2760
sg63
(lp3523
g56
(g77
g58
NtRp3524
(dp3525
g61
(dp3526
g81
g82
ssg70
g3520
sg63
(lp3527
S'mod_wsgi.request_handler'
p3528
asbag56
(g77
g58
NtRp3529
(dp3530
g61
(dp3531
g88
g89
ssg70
g3520
sg63
(lp3532
S':'
asbag56
(g77
g58
NtRp3533
(dp3534
g61
(dp3535
sg70
g3520
sg63
(lp3536
g56
(g57
g58
NtRp3537
(dp3538
g61
(dp3539
g69
I3
ssg70
g3533
sg63
(lp3540
g1372
asbasbasbag56
(g72
g58
NtRp3541
(dp3542
g61
(dp3543
sg70
g2760
sg63
(lp3544
g56
(g77
g58
NtRp3545
(dp3546
g61
(dp3547
g81
g82
ssg70
g3541
sg63
(lp3548
S'mod_wsgi.script_reloading'
p3549
asbag56
(g77
g58
NtRp3550
(dp3551
g61
(dp3552
g88
g89
ssg70
g3541
sg63
(lp3553
S':'
asbag56
(g77
g58
NtRp3554
(dp3555
g61
(dp3556
sg70
g3541
sg63
(lp3557
g56
(g57
g58
NtRp3558
(dp3559
g61
(dp3560
g69
I3
ssg70
g3554
sg63
(lp3561
S'1'
asbasbasbag56
(g72
g58
NtRp3562
(dp3563
g61
(dp3564
sg70
g2760
sg63
(lp3565
g56
(g77
g58
NtRp3566
(dp3567
g61
(dp3568
g81
g82
ssg70
g3562
sg63
(lp3569
S'mod_wsgi.version'
p3570
asbag56
(g77
g58
NtRp3571
(dp3572
g61
(dp3573
g88
g89
ssg70
g3562
sg63
(lp3574
S':'
asbag56
(g77
g58
NtRp3575
(dp3576
g61
(dp3577
sg70
g3562
sg63
(lp3578
g56
(g57
g58
NtRp3579
(dp3580
g61
(dp3581
g69
I3
ssg70
g3575
sg63
(lp3582
g56
(g65
g58
NtRp3583
(dp3584
g61
(dp3585
g69
I2
ssg70
Nsg63
(lp3586
g56
(g72
g58
NtRp3587
(dp3588
g61
(dp3589
sg70
g3583
sg63
(lp3590
g56
(g77
g58
NtRp3591
(dp3592
g61
(dp3593
sg70
g3587
sg63
(lp3594
g56
(g57
g58
NtRp3595
(dp3596
g61
(dp3597
g69
I2
ssg70
g3591
sg63
(lp3598
S'3'
asbasbasbag56
(g72
g58
NtRp3599
(dp3600
g61
(dp3601
sg70
g3583
sg63
(lp3602
g56
(g77
g58
NtRp3603
(dp3604
g61
(dp3605
sg70
g3599
sg63
(lp3606
g56
(g57
g58
NtRp3607
(dp3608
g61
(dp3609
g69
I2
ssg70
g3603
sg63
(lp3610
S'3'
asbasbasbasbasbasbasbag56
(g72
g58
NtRp3611
(dp3612
g61
(dp3613
sg70
g2760
sg63
(lp3614
g56
(g77
g58
NtRp3615
(dp3616
g61
(dp3617
g81
g82
ssg70
g3611
sg63
(lp3618
S'wsgi.errors'
p3619
asbag56
(g77
g58
NtRp3620
(dp3621
g61
(dp3622
g88
g89
ssg70
g3611
sg63
(lp3623
S':'
asbag56
(g77
g58
NtRp3624
(dp3625
g61
(dp3626
sg70
g3611
sg63
(lp3627
g56
(g57
g58
NtRp3628
(dp3629
g61
(dp3630
g69
I3
ssg70
g3624
sg63
(lp3631
S'<mod_wsgi.Log object at 0x03CE9A70>'
p3632
asbasbasbag56
(g72
g58
NtRp3633
(dp3634
g61
(dp3635
sg70
g2760
sg63
(lp3636
g56
(g77
g58
NtRp3637
(dp3638
g61
(dp3639
g81
g82
ssg70
g3633
sg63
(lp3640
S'wsgi.file_wrapper'
p3641
asbag56
(g77
g58
NtRp3642
(dp3643
g61
(dp3644
g88
g89
ssg70
g3633
sg63
(lp3645
S':'
asbag56
(g77
g58
NtRp3646
(dp3647
g61
(dp3648
sg70
g3633
sg63
(lp3649
g56
(g57
g58
NtRp3650
(dp3651
g61
(dp3652
g69
I3
ssg70
g3646
sg63
(lp3653
S'<built-in method file_wrapper of mod_wsgi.Adapter object at 0x03BF8EC0>'
p3654
asbasbasbag56
(g72
g58
NtRp3655
(dp3656
g61
(dp3657
sg70
g2760
sg63
(lp3658
g56
(g77
g58
NtRp3659
(dp3660
g61
(dp3661
g81
g82
ssg70
g3655
sg63
(lp3662
S'wsgi.input'
p3663
asbag56
(g77
g58
NtRp3664
(dp3665
g61
(dp3666
g88
g89
ssg70
g3655
sg63
(lp3667
S':'
asbag56
(g77
g58
NtRp3668
(dp3669
g61
(dp3670
sg70
g3655
sg63
(lp3671
g56
(g57
g58
NtRp3672
(dp3673
g61
(dp3674
g69
I3
ssg70
g3668
sg63
(lp3675
S'<cStringIO.StringO object at 0x03DC75C0>'
p3676
asbasbasbag56
(g72
g58
NtRp3677
(dp3678
g61
(dp3679
sg70
g2760
sg63
(lp3680
g56
(g77
g58
NtRp3681
(dp3682
g61
(dp3683
g81
g82
ssg70
g3677
sg63
(lp3684
S'wsgi.multiprocess'
p3685
asbag56
(g77
g58
NtRp3686
(dp3687
g61
(dp3688
g88
g89
ssg70
g3677
sg63
(lp3689
S':'
asbag56
(g77
g58
NtRp3690
(dp3691
g61
(dp3692
sg70
g3677
sg63
(lp3693
g56
(g57
g58
NtRp3694
(dp3695
g61
(dp3696
g69
I3
ssg70
g3690
sg63
(lp3697
g99
asbasbasbag56
(g72
g58
NtRp3698
(dp3699
g61
(dp3700
sg70
g2760
sg63
(lp3701
g56
(g77
g58
NtRp3702
(dp3703
g61
(dp3704
g81
g82
ssg70
g3698
sg63
(lp3705
S'wsgi.multithread'
p3706
asbag56
(g77
g58
NtRp3707
(dp3708
g61
(dp3709
g88
g89
ssg70
g3698
sg63
(lp3710
S':'
asbag56
(g77
g58
NtRp3711
(dp3712
g61
(dp3713
sg70
g3698
sg63
(lp3714
g56
(g57
g58
NtRp3715
(dp3716
g61
(dp3717
g69
I3
ssg70
g3711
sg63
(lp3718
g2074
asbasbasbag56
(g72
g58
NtRp3719
(dp3720
g61
(dp3721
sg70
g2760
sg63
(lp3722
g56
(g77
g58
NtRp3723
(dp3724
g61
(dp3725
g81
g82
ssg70
g3719
sg63
(lp3726
S'wsgi.run_once'
p3727
asbag56
(g77
g58
NtRp3728
(dp3729
g61
(dp3730
g88
g89
ssg70
g3719
sg63
(lp3731
S':'
asbag56
(g77
g58
NtRp3732
(dp3733
g61
(dp3734
sg70
g3719
sg63
(lp3735
g56
(g57
g58
NtRp3736
(dp3737
g61
(dp3738
g69
I3
ssg70
g3732
sg63
(lp3739
g99
asbasbasbag56
(g72
g58
NtRp3740
(dp3741
g61
(dp3742
sg70
g2760
sg63
(lp3743
g56
(g77
g58
NtRp3744
(dp3745
g61
(dp3746
g81
g82
ssg70
g3740
sg63
(lp3747
S'wsgi.url_scheme'
p3748
asbag56
(g77
g58
NtRp3749
(dp3750
g61
(dp3751
g88
g89
ssg70
g3740
sg63
(lp3752
S':'
asbag56
(g77
g58
NtRp3753
(dp3754
g61
(dp3755
sg70
g3740
sg63
(lp3756
g56
(g57
g58
NtRp3757
(dp3758
g61
(dp3759
g69
I3
ssg70
g3753
sg63
(lp3760
g2117
asbasbasbag56
(g72
g58
NtRp3761
(dp3762
g61
(dp3763
sg70
g2760
sg63
(lp3764
g56
(g77
g58
NtRp3765
(dp3766
g61
(dp3767
g81
g82
ssg70
g3761
sg63
(lp3768
S'wsgi.version'
p3769
asbag56
(g77
g58
NtRp3770
(dp3771
g61
(dp3772
g88
g89
ssg70
g3761
sg63
(lp3773
S':'
asbag56
(g77
g58
NtRp3774
(dp3775
g61
(dp3776
sg70
g3761
sg63
(lp3777
g56
(g57
g58
NtRp3778
(dp3779
g61
(dp3780
g69
I3
ssg70
g3774
sg63
(lp3781
S'1'
asbasbasbasbasbasbasbasbasbasbasbasbasbsS'frames'
p3782
(lp3783
(dp3784
S'file'
p3785
S'D:\\Workbench\\web2py_src\\gluon\\restricted.py'
p3786
sS'dump'
p3787
(dp3788
S'environment'
p3789
S"{'A': <class 'gluon.html.A'>, 'ALLOW_TOGGLE': 'true', 'B': <class 'gluon.html.B'>, 'BEAUTIFY': <class 'gluon.html.BEAUTIFY'>, 'BODY': <class 'gluon.html.BODY'>, 'BR': <class 'gluon.html.BR'>, 'BUTTON': <class 'gluon.html.BUTTON'>, 'CAT': <class 'gluon.html.CAT'>, 'CENTER': <class 'gluon.html.CENTER'>, 'CHECK_VERSION': True, ...}"
p3790
sS'ccode'
p3791
S'<code object <module> at 03C95728, file "D:\\Work...src\\applications\\admin\\models\\access.py", line 1>'
p3792
ssS'lnum'
p3793
I194
sS'lines'
p3794
(dp3795
I192
S'        else:'
p3796
sI193
S'            ccode = compile2(code,layer)'
p3797
sI194
S'        exec ccode in environment'
p3798
sI195
S'    except HTTP:'
p3799
sI196
S'        raise'
p3800
sI197
S'    except Exception, error:'
p3801
sI198
S'        # XXX Show exception in Wing IDE if running in debugger'
p3802
sI189
S'    try:'
p3803
sI190
S'        if type(code) == types.CodeType:'
p3804
sI191
S'            ccode = code'
p3805
ssS'call'
p3806
S'(code="import os, time\\nfrom gluon import portalocker\\nfr...demo mode\'\\n    redirect(URL(\'default\',\'sites\'))\\n\\n", environment={\'A\': <class \'gluon.html.A\'>, \'ALLOW_TOGGLE\': \'true\', \'B\': <class \'gluon.html.B\'>, \'BEAUTIFY\': <class \'gluon.html.BEAUTIFY\'>, \'BODY\': <class \'gluon.html.BODY\'>, \'BR\': <class \'gluon.html.BR\'>, \'BUTTON\': <class \'gluon.html.BUTTON\'>, \'CAT\': <class \'gluon.html.CAT\'>, \'CENTER\': <class \'gluon.html.CENTER\'>, \'CHECK_VERSION\': True, ...}, layer=r\'D:\\Workbench\\web2py_src\\applications\\admin\\models\\access.py\')'
p3807
sS'func'
p3808
S'restricted'
p3809
sa(dp3810
g3785
S'D:\\Workbench\\web2py_src\\applications\\admin\\models\\access.py'
p3811
sg3787
(dp3812
S'gluon'
p3813
S'undefined'
p3814
sS'portalocker'
p3815
g3814
ssg3793
I2
sg3794
(dp3816
I2
S'from gluon import portalocker'
p3817
sI3
S'from gluon.admin import apath'
p3818
sI4
S'from gluon.fileutils import read_file'
p3819
sI5
S'# ###########################################################'
p3820
sI6
S'# ## make sure administrator is on localhost or https'
p3821
sI7
S'# ###########################################################'
p3822
sI8
S''
sI9
S"http_host = request.env.http_host.split(':')[0]"
p3823
sI10
S''
sI11
S'if request.env.web2py_runtime_gae:'
p3824
ssg3806
S'()'
p3825
sg3808
S'<module>'
p3826
sasS'pyver'
p3827
S'Python 2.7.2: C:\\Program Files\\Apache Software Foundation\\Apache2.2\\bin\\httpd.exe'
p3828
sS'session'
p3829
g56
(g57
g58
NtRp3830
(dp3831
g61
(dp3832
sg63
(lp3833
g56
(g65
g58
NtRp3834
(dp3835
g61
(dp3836
g69
I5
ssg70
Nsg63
(lp3837
g56
(g72
g58
NtRp3838
(dp3839
g61
(dp3840
sg70
g3834
sg63
(lp3841
g56
(g77
g58
NtRp3842
(dp3843
g61
(dp3844
g81
g82
ssg70
g3838
sg63
(lp3845
S'app'
p3846
asbag56
(g77
g58
NtRp3847
(dp3848
g61
(dp3849
g88
g89
ssg70
g3838
sg63
(lp3850
S':'
asbag56
(g77
g58
NtRp3851
(dp3852
g61
(dp3853
sg70
g3838
sg63
(lp3854
g56
(g57
g58
NtRp3855
(dp3856
g61
(dp3857
g69
I5
ssg70
g3851
sg63
(lp3858
g56
(g65
g58
NtRp3859
(dp3860
g61
(dp3861
g69
I4
ssg70
Nsg63
(lp3862
g56
(g72
g58
NtRp3863
(dp3864
g61
(dp3865
sg70
g3859
sg63
(lp3866
g56
(g77
g58
NtRp3867
(dp3868
g61
(dp3869
g81
g82
ssg70
g3863
sg63
(lp3870
S'name'
p3871
asbag56
(g77
g58
NtRp3872
(dp3873
g61
(dp3874
g88
g89
ssg70
g3863
sg63
(lp3875
S':'
asbag56
(g77
g58
NtRp3876
(dp3877
g61
(dp3878
sg70
g3863
sg63
(lp3879
g56
(g57
g58
NtRp3880
(dp3881
g61
(dp3882
g69
I4
ssg70
g3876
sg63
(lp3883
S''
asbasbasbag56
(g72
g58
NtRp3884
(dp3885
g61
(dp3886
sg70
g3859
sg63
(lp3887
g56
(g77
g58
NtRp3888
(dp3889
g61
(dp3890
g81
g82
ssg70
g3884
sg63
(lp3891
S'page_error'
p3892
asbag56
(g77
g58
NtRp3893
(dp3894
g61
(dp3895
g88
g89
ssg70
g3884
sg63
(lp3896
S':'
asbag56
(g77
g58
NtRp3897
(dp3898
g61
(dp3899
sg70
g3884
sg63
(lp3900
g56
(g57
g58
NtRp3901
(dp3902
g61
(dp3903
g69
I4
ssg70
g3897
sg63
(lp3904
S'# Error: the document does not exist'
p3905
asbasbasbag56
(g72
g58
NtRp3906
(dp3907
g61
(dp3908
sg70
g3859
sg63
(lp3909
g56
(g77
g58
NtRp3910
(dp3911
g61
(dp3912
g81
g82
ssg70
g3906
sg63
(lp3913
S'page_index'
p3914
asbag56
(g77
g58
NtRp3915
(dp3916
g61
(dp3917
g88
g89
ssg70
g3906
sg63
(lp3918
S':'
asbag56
(g77
g58
NtRp3919
(dp3920
g61
(dp3921
sg70
g3906
sg63
(lp3922
g56
(g57
g58
NtRp3923
(dp3924
g61
(dp3925
g69
I4
ssg70
g3919
sg63
(lp3926
S'# Welcome to my new app'
p3927
asbasbasbag56
(g72
g58
NtRp3928
(dp3929
g61
(dp3930
sg70
g3859
sg63
(lp3931
g56
(g77
g58
NtRp3932
(dp3933
g61
(dp3934
g81
g82
ssg70
g3928
sg63
(lp3935
S'pages'
p3936
asbag56
(g77
g58
NtRp3937
(dp3938
g61
(dp3939
g88
g89
ssg70
g3928
sg63
(lp3940
S':'
asbag56
(g77
g58
NtRp3941
(dp3942
g61
(dp3943
sg70
g3928
sg63
(lp3944
g56
(g57
g58
NtRp3945
(dp3946
g61
(dp3947
g69
I4
ssg70
g3941
sg63
(lp3948
g56
(g65
g58
NtRp3949
(dp3950
g61
(dp3951
g69
I3
ssg70
Nsg63
(lp3952
g56
(g72
g58
NtRp3953
(dp3954
g61
(dp3955
sg70
g3949
sg63
(lp3956
g56
(g77
g58
NtRp3957
(dp3958
g61
(dp3959
sg70
g3953
sg63
(lp3960
g56
(g57
g58
NtRp3961
(dp3962
g61
(dp3963
g69
I3
ssg70
g3957
sg63
(lp3964
S'index'
p3965
asbasbasbag56
(g72
g58
NtRp3966
(dp3967
g61
(dp3968
sg70
g3949
sg63
(lp3969
g56
(g77
g58
NtRp3970
(dp3971
g61
(dp3972
sg70
g3966
sg63
(lp3973
g56
(g57
g58
NtRp3974
(dp3975
g61
(dp3976
g69
I3
ssg70
g3970
sg63
(lp3977
S'error'
p3978
asbasbasbasbasbasbasbag56
(g72
g58
NtRp3979
(dp3980
g61
(dp3981
sg70
g3859
sg63
(lp3982
g56
(g77
g58
NtRp3983
(dp3984
g61
(dp3985
g81
g82
ssg70
g3979
sg63
(lp3986
S'params'
p3987
asbag56
(g77
g58
NtRp3988
(dp3989
g61
(dp3990
g88
g89
ssg70
g3979
sg63
(lp3991
S':'
asbag56
(g77
g58
NtRp3992
(dp3993
g61
(dp3994
sg70
g3979
sg63
(lp3995
g56
(g57
g58
NtRp3996
(dp3997
g61
(dp3998
g69
I4
ssg70
g3992
sg63
(lp3999
g56
(g65
g58
NtRp4000
(dp4001
g61
(dp4002
g69
I3
ssg70
Nsg63
(lp4003
g56
(g72
g58
NtRp4004
(dp4005
g61
(dp4006
sg70
g4000
sg63
(lp4007
g56
(g77
g58
NtRp4008
(dp4009
g61
(dp4010
sg70
g4004
sg63
(lp4011
g56
(g57
g58
NtRp4012
(dp4013
g61
(dp4014
g69
I3
ssg70
g4008
sg63
(lp4015
g56
(g65
g58
NtRp4016
(dp4017
g61
(dp4018
g69
I2
ssg70
Nsg63
(lp4019
g56
(g72
g58
NtRp4020
(dp4021
g61
(dp4022
sg70
g4016
sg63
(lp4023
g56
(g77
g58
NtRp4024
(dp4025
g61
(dp4026
sg70
g4020
sg63
(lp4027
g56
(g57
g58
NtRp4028
(dp4029
g61
(dp4030
g69
I2
ssg70
g4024
sg63
(lp4031
S'title'
p4032
asbasbasbag56
(g72
g58
NtRp4033
(dp4034
g61
(dp4035
sg70
g4016
sg63
(lp4036
g56
(g77
g58
NtRp4037
(dp4038
g61
(dp4039
sg70
g4033
sg63
(lp4040
g56
(g57
g58
NtRp4041
(dp4042
g61
(dp4043
g69
I2
ssg70
g4037
sg63
(lp4044
S'My New App'
p4045
asbasbasbasbasbasbasbag56
(g72
g58
NtRp4046
(dp4047
g61
(dp4048
sg70
g4000
sg63
(lp4049
g56
(g77
g58
NtRp4050
(dp4051
g61
(dp4052
sg70
g4046
sg63
(lp4053
g56
(g57
g58
NtRp4054
(dp4055
g61
(dp4056
g69
I3
ssg70
g4050
sg63
(lp4057
g56
(g65
g58
NtRp4058
(dp4059
g61
(dp4060
g69
I2
ssg70
Nsg63
(lp4061
g56
(g72
g58
NtRp4062
(dp4063
g61
(dp4064
sg70
g4058
sg63
(lp4065
g56
(g77
g58
NtRp4066
(dp4067
g61
(dp4068
sg70
g4062
sg63
(lp4069
g56
(g57
g58
NtRp4070
(dp4071
g61
(dp4072
g69
I2
ssg70
g4066
sg63
(lp4073
S'subtitle'
p4074
asbasbasbag56
(g72
g58
NtRp4075
(dp4076
g61
(dp4077
sg70
g4058
sg63
(lp4078
g56
(g77
g58
NtRp4079
(dp4080
g61
(dp4081
sg70
g4075
sg63
(lp4082
g56
(g57
g58
NtRp4083
(dp4084
g61
(dp4085
g69
I2
ssg70
g4079
sg63
(lp4086
S'powered by web2py'
p4087
asbasbasbasbasbasbasbag56
(g72
g58
NtRp4088
(dp4089
g61
(dp4090
sg70
g4000
sg63
(lp4091
g56
(g77
g58
NtRp4092
(dp4093
g61
(dp4094
sg70
g4088
sg63
(lp4095
g56
(g57
g58
NtRp4096
(dp4097
g61
(dp4098
g69
I3
ssg70
g4092
sg63
(lp4099
g56
(g65
g58
NtRp4100
(dp4101
g61
(dp4102
g69
I2
ssg70
Nsg63
(lp4103
g56
(g72
g58
NtRp4104
(dp4105
g61
(dp4106
sg70
g4100
sg63
(lp4107
g56
(g77
g58
NtRp4108
(dp4109
g61
(dp4110
sg70
g4104
sg63
(lp4111
g56
(g57
g58
NtRp4112
(dp4113
g61
(dp4114
g69
I2
ssg70
g4108
sg63
(lp4115
S'author'
p4116
asbasbasbag56
(g72
g58
NtRp4117
(dp4118
g61
(dp4119
sg70
g4100
sg63
(lp4120
g56
(g77
g58
NtRp4121
(dp4122
g61
(dp4123
sg70
g4117
sg63
(lp4124
g56
(g57
g58
NtRp4125
(dp4126
g61
(dp4127
g69
I2
ssg70
g4121
sg63
(lp4128
S'you'
p4129
asbasbasbasbasbasbasbag56
(g72
g58
NtRp4130
(dp4131
g61
(dp4132
sg70
g4000
sg63
(lp4133
g56
(g77
g58
NtRp4134
(dp4135
g61
(dp4136
sg70
g4130
sg63
(lp4137
g56
(g57
g58
NtRp4138
(dp4139
g61
(dp4140
g69
I3
ssg70
g4134
sg63
(lp4141
g56
(g65
g58
NtRp4142
(dp4143
g61
(dp4144
g69
I2
ssg70
Nsg63
(lp4145
g56
(g72
g58
NtRp4146
(dp4147
g61
(dp4148
sg70
g4142
sg63
(lp4149
g56
(g77
g58
NtRp4150
(dp4151
g61
(dp4152
sg70
g4146
sg63
(lp4153
g56
(g57
g58
NtRp4154
(dp4155
g61
(dp4156
g69
I2
ssg70
g4150
sg63
(lp4157
S'author_email'
p4158
asbasbasbag56
(g72
g58
NtRp4159
(dp4160
g61
(dp4161
sg70
g4142
sg63
(lp4162
g56
(g77
g58
NtRp4163
(dp4164
g61
(dp4165
sg70
g4159
sg63
(lp4166
g56
(g57
g58
NtRp4167
(dp4168
g61
(dp4169
g69
I2
ssg70
g4163
sg63
(lp4170
S'you@example.com'
p4171
asbasbasbasbasbasbasbag56
(g72
g58
NtRp4172
(dp4173
g61
(dp4174
sg70
g4000
sg63
(lp4175
g56
(g77
g58
NtRp4176
(dp4177
g61
(dp4178
sg70
g4172
sg63
(lp4179
g56
(g57
g58
NtRp4180
(dp4181
g61
(dp4182
g69
I3
ssg70
g4176
sg63
(lp4183
g56
(g65
g58
NtRp4184
(dp4185
g61
(dp4186
g69
I2
ssg70
Nsg63
(lp4187
g56
(g72
g58
NtRp4188
(dp4189
g61
(dp4190
sg70
g4184
sg63
(lp4191
g56
(g77
g58
NtRp4192
(dp4193
g61
(dp4194
sg70
g4188
sg63
(lp4195
g56
(g57
g58
NtRp4196
(dp4197
g61
(dp4198
g69
I2
ssg70
g4192
sg63
(lp4199
S'keywords'
p4200
asbasbasbag56
(g72
g58
NtRp4201
(dp4202
g61
(dp4203
sg70
g4184
sg63
(lp4204
g56
(g77
g58
NtRp4205
(dp4206
g61
(dp4207
sg70
g4201
sg63
(lp4208
g56
(g57
g58
NtRp4209
(dp4210
g61
(dp4211
g69
I2
ssg70
g4205
sg63
(lp4212
S''
asbasbasbasbasbasbasbag56
(g72
g58
NtRp4213
(dp4214
g61
(dp4215
sg70
g4000
sg63
(lp4216
g56
(g77
g58
NtRp4217
(dp4218
g61
(dp4219
sg70
g4213
sg63
(lp4220
g56
(g57
g58
NtRp4221
(dp4222
g61
(dp4223
g69
I3
ssg70
g4217
sg63
(lp4224
g56
(g65
g58
NtRp4225
(dp4226
g61
(dp4227
g69
I2
ssg70
Nsg63
(lp4228
g56
(g72
g58
NtRp4229
(dp4230
g61
(dp4231
sg70
g4225
sg63
(lp4232
g56
(g77
g58
NtRp4233
(dp4234
g61
(dp4235
sg70
g4229
sg63
(lp4236
g56
(g57
g58
NtRp4237
(dp4238
g61
(dp4239
g69
I2
ssg70
g4233
sg63
(lp4240
S'description'
p4241
asbasbasbag56
(g72
g58
NtRp4242
(dp4243
g61
(dp4244
sg70
g4225
sg63
(lp4245
g56
(g77
g58
NtRp4246
(dp4247
g61
(dp4248
sg70
g4242
sg63
(lp4249
g56
(g57
g58
NtRp4250
(dp4251
g61
(dp4252
g69
I2
ssg70
g4246
sg63
(lp4253
S''
asbasbasbasbasbasbasbag56
(g72
g58
NtRp4254
(dp4255
g61
(dp4256
sg70
g4000
sg63
(lp4257
g56
(g77
g58
NtRp4258
(dp4259
g61
(dp4260
sg70
g4254
sg63
(lp4261
g56
(g57
g58
NtRp4262
(dp4263
g61
(dp4264
g69
I3
ssg70
g4258
sg63
(lp4265
g56
(g65
g58
NtRp4266
(dp4267
g61
(dp4268
g69
I2
ssg70
Nsg63
(lp4269
g56
(g72
g58
NtRp4270
(dp4271
g61
(dp4272
sg70
g4266
sg63
(lp4273
g56
(g77
g58
NtRp4274
(dp4275
g61
(dp4276
sg70
g4270
sg63
(lp4277
g56
(g57
g58
NtRp4278
(dp4279
g61
(dp4280
g69
I2
ssg70
g4274
sg63
(lp4281
S'layout_theme'
p4282
asbasbasbag56
(g72
g58
NtRp4283
(dp4284
g61
(dp4285
sg70
g4266
sg63
(lp4286
g56
(g77
g58
NtRp4287
(dp4288
g61
(dp4289
sg70
g4283
sg63
(lp4290
g56
(g57
g58
NtRp4291
(dp4292
g61
(dp4293
g69
I2
ssg70
g4287
sg63
(lp4294
S'Default'
p4295
asbasbasbasbasbasbasbag56
(g72
g58
NtRp4296
(dp4297
g61
(dp4298
sg70
g4000
sg63
(lp4299
g56
(g77
g58
NtRp4300
(dp4301
g61
(dp4302
sg70
g4296
sg63
(lp4303
g56
(g57
g58
NtRp4304
(dp4305
g61
(dp4306
g69
I3
ssg70
g4300
sg63
(lp4307
g56
(g65
g58
NtRp4308
(dp4309
g61
(dp4310
g69
I2
ssg70
Nsg63
(lp4311
g56
(g72
g58
NtRp4312
(dp4313
g61
(dp4314
sg70
g4308
sg63
(lp4315
g56
(g77
g58
NtRp4316
(dp4317
g61
(dp4318
sg70
g4312
sg63
(lp4319
g56
(g57
g58
NtRp4320
(dp4321
g61
(dp4322
g69
I2
ssg70
g4316
sg63
(lp4323
S'database_uri'
p4324
asbasbasbag56
(g72
g58
NtRp4325
(dp4326
g61
(dp4327
sg70
g4308
sg63
(lp4328
g56
(g77
g58
NtRp4329
(dp4330
g61
(dp4331
sg70
g4325
sg63
(lp4332
g56
(g57
g58
NtRp4333
(dp4334
g61
(dp4335
g69
I2
ssg70
g4329
sg63
(lp4336
S'sqlite://storage.sqlite'
p4337
asbasbasbasbasbasbasbag56
(g72
g58
NtRp4338
(dp4339
g61
(dp4340
sg70
g4000
sg63
(lp4341
g56
(g77
g58
NtRp4342
(dp4343
g61
(dp4344
sg70
g4338
sg63
(lp4345
g56
(g57
g58
NtRp4346
(dp4347
g61
(dp4348
g69
I3
ssg70
g4342
sg63
(lp4349
g56
(g65
g58
NtRp4350
(dp4351
g61
(dp4352
g69
I2
ssg70
Nsg63
(lp4353
g56
(g72
g58
NtRp4354
(dp4355
g61
(dp4356
sg70
g4350
sg63
(lp4357
g56
(g77
g58
NtRp4358
(dp4359
g61
(dp4360
sg70
g4354
sg63
(lp4361
g56
(g57
g58
NtRp4362
(dp4363
g61
(dp4364
g69
I2
ssg70
g4358
sg63
(lp4365
S'security_key'
p4366
asbasbasbag56
(g72
g58
NtRp4367
(dp4368
g61
(dp4369
sg70
g4350
sg63
(lp4370
g56
(g77
g58
NtRp4371
(dp4372
g61
(dp4373
sg70
g4367
sg63
(lp4374
g56
(g57
g58
NtRp4375
(dp4376
g61
(dp4377
g69
I2
ssg70
g4371
sg63
(lp4378
S'0bb44441-365a-4591-8e45-bbaa78837974'
p4379
asbasbasbasbasbasbasbag56
(g72
g58
NtRp4380
(dp4381
g61
(dp4382
sg70
g4000
sg63
(lp4383
g56
(g77
g58
NtRp4384
(dp4385
g61
(dp4386
sg70
g4380
sg63
(lp4387
g56
(g57
g58
NtRp4388
(dp4389
g61
(dp4390
g69
I3
ssg70
g4384
sg63
(lp4391
g56
(g65
g58
NtRp4392
(dp4393
g61
(dp4394
g69
I2
ssg70
Nsg63
(lp4395
g56
(g72
g58
NtRp4396
(dp4397
g61
(dp4398
sg70
g4392
sg63
(lp4399
g56
(g77
g58
NtRp4400
(dp4401
g61
(dp4402
sg70
g4396
sg63
(lp4403
g56
(g57
g58
NtRp4404
(dp4405
g61
(dp4406
g69
I2
ssg70
g4400
sg63
(lp4407
S'email_server'
p4408
asbasbasbag56
(g72
g58
NtRp4409
(dp4410
g61
(dp4411
sg70
g4392
sg63
(lp4412
g56
(g77
g58
NtRp4413
(dp4414
g61
(dp4415
sg70
g4409
sg63
(lp4416
g56
(g57
g58
NtRp4417
(dp4418
g61
(dp4419
g69
I2
ssg70
g4413
sg63
(lp4420
S'localhost'
p4421
asbasbasbasbasbasbasbag56
(g72
g58
NtRp4422
(dp4423
g61
(dp4424
sg70
g4000
sg63
(lp4425
g56
(g77
g58
NtRp4426
(dp4427
g61
(dp4428
sg70
g4422
sg63
(lp4429
g56
(g57
g58
NtRp4430
(dp4431
g61
(dp4432
g69
I3
ssg70
g4426
sg63
(lp4433
g56
(g65
g58
NtRp4434
(dp4435
g61
(dp4436
g69
I2
ssg70
Nsg63
(lp4437
g56
(g72
g58
NtRp4438
(dp4439
g61
(dp4440
sg70
g4434
sg63
(lp4441
g56
(g77
g58
NtRp4442
(dp4443
g61
(dp4444
sg70
g4438
sg63
(lp4445
g56
(g57
g58
NtRp4446
(dp4447
g61
(dp4448
g69
I2
ssg70
g4442
sg63
(lp4449
S'email_sender'
p4450
asbasbasbag56
(g72
g58
NtRp4451
(dp4452
g61
(dp4453
sg70
g4434
sg63
(lp4454
g56
(g77
g58
NtRp4455
(dp4456
g61
(dp4457
sg70
g4451
sg63
(lp4458
g56
(g57
g58
NtRp4459
(dp4460
g61
(dp4461
g69
I2
ssg70
g4455
sg63
(lp4462
g4171
asbasbasbasbasbasbasbag56
(g72
g58
NtRp4463
(dp4464
g61
(dp4465
sg70
g4000
sg63
(lp4466
g56
(g77
g58
NtRp4467
(dp4468
g61
(dp4469
sg70
g4463
sg63
(lp4470
g56
(g57
g58
NtRp4471
(dp4472
g61
(dp4473
g69
I3
ssg70
g4467
sg63
(lp4474
g56
(g65
g58
NtRp4475
(dp4476
g61
(dp4477
g69
I2
ssg70
Nsg63
(lp4478
g56
(g72
g58
NtRp4479
(dp4480
g61
(dp4481
sg70
g4475
sg63
(lp4482
g56
(g77
g58
NtRp4483
(dp4484
g61
(dp4485
sg70
g4479
sg63
(lp4486
g56
(g57
g58
NtRp4487
(dp4488
g61
(dp4489
g69
I2
ssg70
g4483
sg63
(lp4490
S'email_login'
p4491
asbasbasbag56
(g72
g58
NtRp4492
(dp4493
g61
(dp4494
sg70
g4475
sg63
(lp4495
g56
(g77
g58
NtRp4496
(dp4497
g61
(dp4498
sg70
g4492
sg63
(lp4499
g56
(g57
g58
NtRp4500
(dp4501
g61
(dp4502
g69
I2
ssg70
g4496
sg63
(lp4503
S''
asbasbasbasbasbasbasbag56
(g72
g58
NtRp4504
(dp4505
g61
(dp4506
sg70
g4000
sg63
(lp4507
g56
(g77
g58
NtRp4508
(dp4509
g61
(dp4510
sg70
g4504
sg63
(lp4511
g56
(g57
g58
NtRp4512
(dp4513
g61
(dp4514
g69
I3
ssg70
g4508
sg63
(lp4515
g56
(g65
g58
NtRp4516
(dp4517
g61
(dp4518
g69
I2
ssg70
Nsg63
(lp4519
g56
(g72
g58
NtRp4520
(dp4521
g61
(dp4522
sg70
g4516
sg63
(lp4523
g56
(g77
g58
NtRp4524
(dp4525
g61
(dp4526
sg70
g4520
sg63
(lp4527
g56
(g57
g58
NtRp4528
(dp4529
g61
(dp4530
g69
I2
ssg70
g4524
sg63
(lp4531
S'login_method'
p4532
asbasbasbag56
(g72
g58
NtRp4533
(dp4534
g61
(dp4535
sg70
g4516
sg63
(lp4536
g56
(g77
g58
NtRp4537
(dp4538
g61
(dp4539
sg70
g4533
sg63
(lp4540
g56
(g57
g58
NtRp4541
(dp4542
g61
(dp4543
g69
I2
ssg70
g4537
sg63
(lp4544
S'local'
p4545
asbasbasbasbasbasbasbag56
(g72
g58
NtRp4546
(dp4547
g61
(dp4548
sg70
g4000
sg63
(lp4549
g56
(g77
g58
NtRp4550
(dp4551
g61
(dp4552
sg70
g4546
sg63
(lp4553
g56
(g57
g58
NtRp4554
(dp4555
g61
(dp4556
g69
I3
ssg70
g4550
sg63
(lp4557
g56
(g65
g58
NtRp4558
(dp4559
g61
(dp4560
g69
I2
ssg70
Nsg63
(lp4561
g56
(g72
g58
NtRp4562
(dp4563
g61
(dp4564
sg70
g4558
sg63
(lp4565
g56
(g77
g58
NtRp4566
(dp4567
g61
(dp4568
sg70
g4562
sg63
(lp4569
g56
(g57
g58
NtRp4570
(dp4571
g61
(dp4572
g69
I2
ssg70
g4566
sg63
(lp4573
S'login_config'
p4574
asbasbasbag56
(g72
g58
NtRp4575
(dp4576
g61
(dp4577
sg70
g4558
sg63
(lp4578
g56
(g77
g58
NtRp4579
(dp4580
g61
(dp4581
sg70
g4575
sg63
(lp4582
g56
(g57
g58
NtRp4583
(dp4584
g61
(dp4585
g69
I2
ssg70
g4579
sg63
(lp4586
S''
asbasbasbasbasbasbasbag56
(g72
g58
NtRp4587
(dp4588
g61
(dp4589
sg70
g4000
sg63
(lp4590
g56
(g77
g58
NtRp4591
(dp4592
g61
(dp4593
sg70
g4587
sg63
(lp4594
g56
(g57
g58
NtRp4595
(dp4596
g61
(dp4597
g69
I3
ssg70
g4591
sg63
(lp4598
g56
(g65
g58
NtRp4599
(dp4600
g61
(dp4601
g69
I2
ssg70
Nsg63
(lp4602
g56
(g72
g58
NtRp4603
(dp4604
g61
(dp4605
sg70
g4599
sg63
(lp4606
g56
(g77
g58
NtRp4607
(dp4608
g61
(dp4609
sg70
g4603
sg63
(lp4610
g56
(g57
g58
NtRp4611
(dp4612
g61
(dp4613
g69
I2
ssg70
g4607
sg63
(lp4614
S'plugins'
p4615
asbasbasbag56
(g72
g58
NtRp4616
(dp4617
g61
(dp4618
sg70
g4599
sg63
(lp4619
g56
(g77
g58
NtRp4620
(dp4621
g61
(dp4622
sg70
g4616
sg63
(lp4623
g56
(g57
g58
NtRp4624
(dp4625
g61
(dp4626
g69
I2
ssg70
g4620
sg63
(lp4627
g56
(g65
g58
NtRp4628
(dp4629
g61
(dp4630
g69
I1
ssg70
Nsg63
(lp4631
sbasbasbasbasbasbasbasbasbasbasbasbag56
(g72
g58
NtRp4632
(dp4633
g61
(dp4634
sg70
g3859
sg63
(lp4635
g56
(g77
g58
NtRp4636
(dp4637
g61
(dp4638
g81
g82
ssg70
g4632
sg63
(lp4639
S'table_auth_user'
p4640
asbag56
(g77
g58
NtRp4641
(dp4642
g61
(dp4643
g88
g89
ssg70
g4632
sg63
(lp4644
S':'
asbag56
(g77
g58
NtRp4645
(dp4646
g61
(dp4647
sg70
g4632
sg63
(lp4648
g56
(g57
g58
NtRp4649
(dp4650
g61
(dp4651
g69
I4
ssg70
g4645
sg63
(lp4652
g56
(g65
g58
NtRp4653
(dp4654
g61
(dp4655
g69
I3
ssg70
Nsg63
(lp4656
g56
(g72
g58
NtRp4657
(dp4658
g61
(dp4659
sg70
g4653
sg63
(lp4660
g56
(g77
g58
NtRp4661
(dp4662
g61
(dp4663
sg70
g4657
sg63
(lp4664
g56
(g57
g58
NtRp4665
(dp4666
g61
(dp4667
g69
I3
ssg70
g4661
sg63
(lp4668
S'username'
p4669
asbasbasbag56
(g72
g58
NtRp4670
(dp4671
g61
(dp4672
sg70
g4653
sg63
(lp4673
g56
(g77
g58
NtRp4674
(dp4675
g61
(dp4676
sg70
g4670
sg63
(lp4677
g56
(g57
g58
NtRp4678
(dp4679
g61
(dp4680
g69
I3
ssg70
g4674
sg63
(lp4681
S'first_name'
p4682
asbasbasbag56
(g72
g58
NtRp4683
(dp4684
g61
(dp4685
sg70
g4653
sg63
(lp4686
g56
(g77
g58
NtRp4687
(dp4688
g61
(dp4689
sg70
g4683
sg63
(lp4690
g56
(g57
g58
NtRp4691
(dp4692
g61
(dp4693
g69
I3
ssg70
g4687
sg63
(lp4694
S'last_name'
p4695
asbasbasbag56
(g72
g58
NtRp4696
(dp4697
g61
(dp4698
sg70
g4653
sg63
(lp4699
g56
(g77
g58
NtRp4700
(dp4701
g61
(dp4702
sg70
g4696
sg63
(lp4703
g56
(g57
g58
NtRp4704
(dp4705
g61
(dp4706
g69
I3
ssg70
g4700
sg63
(lp4707
S'email'
p4708
asbasbasbag56
(g72
g58
NtRp4709
(dp4710
g61
(dp4711
sg70
g4653
sg63
(lp4712
g56
(g77
g58
NtRp4713
(dp4714
g61
(dp4715
sg70
g4709
sg63
(lp4716
g56
(g57
g58
NtRp4717
(dp4718
g61
(dp4719
g69
I3
ssg70
g4713
sg63
(lp4720
S'password'
p4721
asbasbasbasbasbasbasbag56
(g72
g58
NtRp4722
(dp4723
g61
(dp4724
sg70
g3859
sg63
(lp4725
g56
(g77
g58
NtRp4726
(dp4727
g61
(dp4728
g81
g82
ssg70
g4722
sg63
(lp4729
S'tables'
p4730
asbag56
(g77
g58
NtRp4731
(dp4732
g61
(dp4733
g88
g89
ssg70
g4722
sg63
(lp4734
S':'
asbag56
(g77
g58
NtRp4735
(dp4736
g61
(dp4737
sg70
g4722
sg63
(lp4738
g56
(g57
g58
NtRp4739
(dp4740
g61
(dp4741
g69
I4
ssg70
g4735
sg63
(lp4742
g56
(g65
g58
NtRp4743
(dp4744
g61
(dp4745
g69
I3
ssg70
Nsg63
(lp4746
g56
(g72
g58
NtRp4747
(dp4748
g61
(dp4749
sg70
g4743
sg63
(lp4750
g56
(g77
g58
NtRp4751
(dp4752
g61
(dp4753
sg70
g4747
sg63
(lp4754
g56
(g57
g58
NtRp4755
(dp4756
g61
(dp4757
g69
I3
ssg70
g4751
sg63
(lp4758
S'auth_user'
p4759
asbasbasbasbasbasbasbasbasbasbasbag56
(g72
g58
NtRp4760
(dp4761
g61
(dp4762
sg70
g3834
sg63
(lp4763
g56
(g77
g58
NtRp4764
(dp4765
g61
(dp4766
g81
g82
ssg70
g4760
sg63
(lp4767
S'authorized'
p4768
asbag56
(g77
g58
NtRp4769
(dp4770
g61
(dp4771
g88
g89
ssg70
g4760
sg63
(lp4772
S':'
asbag56
(g77
g58
NtRp4773
(dp4774
g61
(dp4775
sg70
g4760
sg63
(lp4776
g56
(g57
g58
NtRp4777
(dp4778
g61
(dp4779
g69
I5
ssg70
g4773
sg63
(lp4780
g2074
asbasbasbag56
(g72
g58
NtRp4781
(dp4782
g61
(dp4783
sg70
g3834
sg63
(lp4784
g56
(g77
g58
NtRp4785
(dp4786
g61
(dp4787
g81
g82
ssg70
g4781
sg63
(lp4788
S'check_version'
p4789
asbag56
(g77
g58
NtRp4790
(dp4791
g61
(dp4792
g88
g89
ssg70
g4781
sg63
(lp4793
S':'
asbag56
(g77
g58
NtRp4794
(dp4795
g61
(dp4796
sg70
g4781
sg63
(lp4797
g56
(g57
g58
NtRp4798
(dp4799
g61
(dp4800
g69
I5
ssg70
g4794
sg63
(lp4801
g2074
asbasbasbag56
(g72
g58
NtRp4802
(dp4803
g61
(dp4804
sg70
g3834
sg63
(lp4805
g56
(g77
g58
NtRp4806
(dp4807
g61
(dp4808
g81
g82
ssg70
g4802
sg63
(lp4809
S'last_time'
p4810
asbag56
(g77
g58
NtRp4811
(dp4812
g61
(dp4813
g88
g89
ssg70
g4802
sg63
(lp4814
S':'
asbag56
(g77
g58
NtRp4815
(dp4816
g61
(dp4817
sg70
g4802
sg63
(lp4818
g56
(g57
g58
NtRp4819
(dp4820
g61
(dp4821
g69
I5
ssg70
g4815
sg63
(lp4822
S'1326021896.666'
p4823
asbasbasbag56
(g72
g58
NtRp4824
(dp4825
g61
(dp4826
sg70
g3834
sg63
(lp4827
g56
(g77
g58
NtRp4828
(dp4829
g61
(dp4830
g81
g82
ssg70
g4824
sg63
(lp4831
S'plugins'
p4832
asbag56
(g77
g58
NtRp4833
(dp4834
g61
(dp4835
g88
g89
ssg70
g4824
sg63
(lp4836
S':'
asbag56
(g77
g58
NtRp4837
(dp4838
g61
(dp4839
sg70
g4824
sg63
(lp4840
g56
(g57
g58
NtRp4841
(dp4842
g61
(dp4843
g69
I5
ssg70
g4837
sg63
(lp4844
g56
(g65
g58
NtRp4845
(dp4846
g61
(dp4847
g69
I4
ssg70
Nsg63
(lp4848
g56
(g72
g58
NtRp4849
(dp4850
g61
(dp4851
sg70
g4845
sg63
(lp4852
g56
(g77
g58
NtRp4853
(dp4854
g61
(dp4855
sg70
g4849
sg63
(lp4856
g56
(g57
g58
NtRp4857
(dp4858
g61
(dp4859
g69
I4
ssg70
g4853
sg63
(lp4860
S'web2py.plugin.translate.w2p'
p4861
asbasbasbag56
(g72
g58
NtRp4862
(dp4863
g61
(dp4864
sg70
g4845
sg63
(lp4865
g56
(g77
g58
NtRp4866
(dp4867
g61
(dp4868
sg70
g4862
sg63
(lp4869
g56
(g57
g58
NtRp4870
(dp4871
g61
(dp4872
g69
I4
ssg70
g4866
sg63
(lp4873
S'web2py.plugin.sortable.w2p'
p4874
asbasbasbag56
(g72
g58
NtRp4875
(dp4876
g61
(dp4877
sg70
g4845
sg63
(lp4878
g56
(g77
g58
NtRp4879
(dp4880
g61
(dp4881
sg70
g4875
sg63
(lp4882
g56
(g57
g58
NtRp4883
(dp4884
g61
(dp4885
g69
I4
ssg70
g4879
sg63
(lp4886
S'web2py.plugin.comments.w2p'
p4887
asbasbasbag56
(g72
g58
NtRp4888
(dp4889
g61
(dp4890
sg70
g4845
sg63
(lp4891
g56
(g77
g58
NtRp4892
(dp4893
g61
(dp4894
sg70
g4888
sg63
(lp4895
g56
(g57
g58
NtRp4896
(dp4897
g61
(dp4898
g69
I4
ssg70
g4892
sg63
(lp4899
S'web2py.plugin.jqgrid.w2p'
p4900
asbasbasbag56
(g72
g58
NtRp4901
(dp4902
g61
(dp4903
sg70
g4845
sg63
(lp4904
g56
(g77
g58
NtRp4905
(dp4906
g61
(dp4907
sg70
g4901
sg63
(lp4908
g56
(g57
g58
NtRp4909
(dp4910
g61
(dp4911
g69
I4
ssg70
g4905
sg63
(lp4912
S'web2py.plugin.datatable.w2p'
p4913
asbasbasbag56
(g72
g58
NtRp4914
(dp4915
g61
(dp4916
sg70
g4845
sg63
(lp4917
g56
(g77
g58
NtRp4918
(dp4919
g61
(dp4920
sg70
g4914
sg63
(lp4921
g56
(g57
g58
NtRp4922
(dp4923
g61
(dp4924
g69
I4
ssg70
g4918
sg63
(lp4925
S'web2py.plugin.mediaplayer.w2p'
p4926
asbasbasbag56
(g72
g58
NtRp4927
(dp4928
g61
(dp4929
sg70
g4845
sg63
(lp4930
g56
(g77
g58
NtRp4931
(dp4932
g61
(dp4933
sg70
g4927
sg63
(lp4934
g56
(g57
g58
NtRp4935
(dp4936
g61
(dp4937
g69
I4
ssg70
g4931
sg63
(lp4938
S'web2py.plugin.latex.w2p'
p4939
asbasbasbag56
(g72
g58
NtRp4940
(dp4941
g61
(dp4942
sg70
g4845
sg63
(lp4943
g56
(g77
g58
NtRp4944
(dp4945
g61
(dp4946
sg70
g4940
sg63
(lp4947
g56
(g57
g58
NtRp4948
(dp4949
g61
(dp4950
g69
I4
ssg70
g4944
sg63
(lp4951
S'web2py.plugin.utils.w2p'
p4952
asbasbasbag56
(g72
g58
NtRp4953
(dp4954
g61
(dp4955
sg70
g4845
sg63
(lp4956
g56
(g77
g58
NtRp4957
(dp4958
g61
(dp4959
sg70
g4953
sg63
(lp4960
g56
(g57
g58
NtRp4961
(dp4962
g61
(dp4963
g69
I4
ssg70
g4957
sg63
(lp4964
S'web2py.plugin.wiki.w2p'
p4965
asbasbasbag56
(g72
g58
NtRp4966
(dp4967
g61
(dp4968
sg70
g4845
sg63
(lp4969
g56
(g77
g58
NtRp4970
(dp4971
g61
(dp4972
sg70
g4966
sg63
(lp4973
g56
(g57
g58
NtRp4974
(dp4975
g61
(dp4976
g69
I4
ssg70
g4970
sg63
(lp4977
S'web2py.plugin.multiselect.w2p'
p4978
asbasbasbag56
(g72
g58
NtRp4979
(dp4980
g61
(dp4981
sg70
g4845
sg63
(lp4982
g56
(g77
g58
NtRp4983
(dp4984
g61
(dp4985
sg70
g4979
sg63
(lp4986
g56
(g57
g58
NtRp4987
(dp4988
g61
(dp4989
g69
I4
ssg70
g4983
sg63
(lp4990
S'web2py.plugin.gmap.w2p'
p4991
asbasbasbag56
(g72
g58
NtRp4992
(dp4993
g61
(dp4994
sg70
g4845
sg63
(lp4995
g56
(g77
g58
NtRp4996
(dp4997
g61
(dp4998
sg70
g4992
sg63
(lp4999
g56
(g57
g58
NtRp5000
(dp5001
g61
(dp5002
g69
I4
ssg70
g4996
sg63
(lp5003
S'web2py.plugin.mmodal.w2p'
p5004
asbasbasbag56
(g72
g58
NtRp5005
(dp5006
g61
(dp5007
sg70
g4845
sg63
(lp5008
g56
(g77
g58
NtRp5009
(dp5010
g61
(dp5011
sg70
g5005
sg63
(lp5012
g56
(g57
g58
NtRp5013
(dp5014
g61
(dp5015
g69
I4
ssg70
g5009
sg63
(lp5016
S'web2py.plugin.attachments.w2p'
p5017
asbasbasbag56
(g72
g58
NtRp5018
(dp5019
g61
(dp5020
sg70
g4845
sg63
(lp5021
g56
(g77
g58
NtRp5022
(dp5023
g61
(dp5024
sg70
g5018
sg63
(lp5025
g56
(g57
g58
NtRp5026
(dp5027
g61
(dp5028
g69
I4
ssg70
g5022
sg63
(lp5029
S'web2py.plugin.google_checkout.w2p'
p5030
asbasbasbag56
(g72
g58
NtRp5031
(dp5032
g61
(dp5033
sg70
g4845
sg63
(lp5034
g56
(g77
g58
NtRp5035
(dp5036
g61
(dp5037
sg70
g5031
sg63
(lp5038
g56
(g57
g58
NtRp5039
(dp5040
g61
(dp5041
g69
I4
ssg70
g5035
sg63
(lp5042
S'web2py.plugin.clickatell.w2p'
p5043
asbasbasbag56
(g72
g58
NtRp5044
(dp5045
g61
(dp5046
sg70
g4845
sg63
(lp5047
g56
(g77
g58
NtRp5048
(dp5049
g61
(dp5050
sg70
g5044
sg63
(lp5051
g56
(g57
g58
NtRp5052
(dp5053
g61
(dp5054
g69
I4
ssg70
g5048
sg63
(lp5055
S'web2py.plugin.jqmobile.w2p'
p5056
asbasbasbag56
(g72
g58
NtRp5057
(dp5058
g61
(dp5059
sg70
g4845
sg63
(lp5060
g56
(g77
g58
NtRp5061
(dp5062
g61
(dp5063
sg70
g5057
sg63
(lp5064
g56
(g57
g58
NtRp5065
(dp5066
g61
(dp5067
g69
I4
ssg70
g5061
sg63
(lp5068
S'web2py.plugin.dropdown.w2p'
p5069
asbasbasbag56
(g72
g58
NtRp5070
(dp5071
g61
(dp5072
sg70
g4845
sg63
(lp5073
g56
(g77
g58
NtRp5074
(dp5075
g61
(dp5076
sg70
g5070
sg63
(lp5077
g56
(g57
g58
NtRp5078
(dp5079
g61
(dp5080
g69
I4
ssg70
g5074
sg63
(lp5081
S'web2py.plugin.markitup.w2p'
p5082
asbasbasbag56
(g72
g58
NtRp5083
(dp5084
g61
(dp5085
sg70
g4845
sg63
(lp5086
g56
(g77
g58
NtRp5087
(dp5088
g61
(dp5089
sg70
g5083
sg63
(lp5090
g56
(g57
g58
NtRp5091
(dp5092
g61
(dp5093
g69
I4
ssg70
g5087
sg63
(lp5094
S'web2py.plugin.matplotlib.w2p'
p5095
asbasbasbag56
(g72
g58
NtRp5096
(dp5097
g61
(dp5098
sg70
g4845
sg63
(lp5099
g56
(g77
g58
NtRp5100
(dp5101
g61
(dp5102
sg70
g5096
sg63
(lp5103
g56
(g57
g58
NtRp5104
(dp5105
g61
(dp5106
g69
I4
ssg70
g5100
sg63
(lp5107
S'web2py.plugin.tagging.w2p'
p5108
asbasbasbag56
(g72
g58
NtRp5109
(dp5110
g61
(dp5111
sg70
g4845
sg63
(lp5112
g56
(g77
g58
NtRp5113
(dp5114
g61
(dp5115
sg70
g5109
sg63
(lp5116
g56
(g57
g58
NtRp5117
(dp5118
g61
(dp5119
g69
I4
ssg70
g5113
sg63
(lp5120
S'web2py.plugin.rating.w2p'
p5121
asbasbasbag56
(g72
g58
NtRp5122
(dp5123
g61
(dp5124
sg70
g4845
sg63
(lp5125
g56
(g77
g58
NtRp5126
(dp5127
g61
(dp5128
sg70
g5122
sg63
(lp5129
g56
(g57
g58
NtRp5130
(dp5131
g61
(dp5132
g69
I4
ssg70
g5126
sg63
(lp5133
S'web2py.plugin.locking.w2p'
p5134
asbasbasbag56
(g72
g58
NtRp5135
(dp5136
g61
(dp5137
sg70
g4845
sg63
(lp5138
g56
(g77
g58
NtRp5139
(dp5140
g61
(dp5141
sg70
g5135
sg63
(lp5142
g56
(g57
g58
NtRp5143
(dp5144
g61
(dp5145
g69
I4
ssg70
g5139
sg63
(lp5146
S'web2py.plugin.simple_comments.w2p'
p5147
asbasbasbasbasbasbasbag56
(g72
g58
NtRp5148
(dp5149
g61
(dp5150
sg70
g3834
sg63
(lp5151
g56
(g77
g58
NtRp5152
(dp5153
g61
(dp5154
g81
g82
ssg70
g5148
sg63
(lp5155
S'themes'
p5156
asbag56
(g77
g58
NtRp5157
(dp5158
g61
(dp5159
g88
g89
ssg70
g5148
sg63
(lp5160
S':'
asbag56
(g77
g58
NtRp5161
(dp5162
g61
(dp5163
sg70
g5148
sg63
(lp5164
g56
(g57
g58
NtRp5165
(dp5166
g61
(dp5167
g69
I5
ssg70
g5161
sg63
(lp5168
g56
(g65
g58
NtRp5169
(dp5170
g61
(dp5171
g69
I4
ssg70
Nsg63
(lp5172
g56
(g72
g58
NtRp5173
(dp5174
g61
(dp5175
sg70
g5169
sg63
(lp5176
g56
(g77
g58
NtRp5177
(dp5178
g61
(dp5179
sg70
g5173
sg63
(lp5180
g56
(g57
g58
NtRp5181
(dp5182
g61
(dp5183
g69
I4
ssg70
g5177
sg63
(lp5184
S'Default'
p5185
asbasbasbag56
(g72
g58
NtRp5186
(dp5187
g61
(dp5188
sg70
g5169
sg63
(lp5189
g56
(g77
g58
NtRp5190
(dp5191
g61
(dp5192
sg70
g5186
sg63
(lp5193
g56
(g57
g58
NtRp5194
(dp5195
g61
(dp5196
g69
I4
ssg70
g5190
sg63
(lp5197
S'External'
p5198
asbasbasbag56
(g72
g58
NtRp5199
(dp5200
g61
(dp5201
sg70
g5169
sg63
(lp5202
g56
(g77
g58
NtRp5203
(dp5204
g61
(dp5205
sg70
g5199
sg63
(lp5206
g56
(g57
g58
NtRp5207
(dp5208
g61
(dp5209
g69
I4
ssg70
g5203
sg63
(lp5210
S'solutionorange'
p5211
asbasbasbag56
(g72
g58
NtRp5212
(dp5213
g61
(dp5214
sg70
g5169
sg63
(lp5215
g56
(g77
g58
NtRp5216
(dp5217
g61
(dp5218
sg70
g5212
sg63
(lp5219
g56
(g57
g58
NtRp5220
(dp5221
g61
(dp5222
g69
I4
ssg70
g5216
sg63
(lp5223
S'Commission'
p5224
asbasbasbag56
(g72
g58
NtRp5225
(dp5226
g61
(dp5227
sg70
g5169
sg63
(lp5228
g56
(g77
g58
NtRp5229
(dp5230
g61
(dp5231
sg70
g5225
sg63
(lp5232
g56
(g57
g58
NtRp5233
(dp5234
g61
(dp5235
g69
I4
ssg70
g5229
sg63
(lp5236
S'FlashyWeb'
p5237
asbasbasbag56
(g72
g58
NtRp5238
(dp5239
g61
(dp5240
sg70
g5169
sg63
(lp5241
g56
(g77
g58
NtRp5242
(dp5243
g61
(dp5244
sg70
g5238
sg63
(lp5245
g56
(g57
g58
NtRp5246
(dp5247
g61
(dp5248
g69
I4
ssg70
g5242
sg63
(lp5249
S'Optimism'
p5250
asbasbasbag56
(g72
g58
NtRp5251
(dp5252
g61
(dp5253
sg70
g5169
sg63
(lp5254
g56
(g77
g58
NtRp5255
(dp5256
g61
(dp5257
sg70
g5251
sg63
(lp5258
g56
(g57
g58
NtRp5259
(dp5260
g61
(dp5261
g69
I4
ssg70
g5255
sg63
(lp5262
S'Uncomplicated'
p5263
asbasbasbag56
(g72
g58
NtRp5264
(dp5265
g61
(dp5266
sg70
g5169
sg63
(lp5267
g56
(g77
g58
NtRp5268
(dp5269
g61
(dp5270
sg70
g5264
sg63
(lp5271
g56
(g57
g58
NtRp5272
(dp5273
g61
(dp5274
g69
I4
ssg70
g5268
sg63
(lp5275
S'Instant'
p5276
asbasbasbag56
(g72
g58
NtRp5277
(dp5278
g61
(dp5279
sg70
g5169
sg63
(lp5280
g56
(g77
g58
NtRp5281
(dp5282
g61
(dp5283
sg70
g5277
sg63
(lp5284
g56
(g57
g58
NtRp5285
(dp5286
g61
(dp5287
g69
I4
ssg70
g5281
sg63
(lp5288
S'Incorporated'
p5289
asbasbasbag56
(g72
g58
NtRp5290
(dp5291
g61
(dp5292
sg70
g5169
sg63
(lp5293
g56
(g77
g58
NtRp5294
(dp5295
g61
(dp5296
sg70
g5290
sg63
(lp5297
g56
(g57
g58
NtRp5298
(dp5299
g61
(dp5300
g69
I4
ssg70
g5294
sg63
(lp5301
S'Rambling'
p5302
asbasbasbag56
(g72
g58
NtRp5303
(dp5304
g61
(dp5305
sg70
g5169
sg63
(lp5306
g56
(g77
g58
NtRp5307
(dp5308
g61
(dp5309
sg70
g5303
sg63
(lp5310
g56
(g57
g58
NtRp5311
(dp5312
g61
(dp5313
g69
I4
ssg70
g5307
sg63
(lp5314
S'Embouteillage'
p5315
asbasbasbag56
(g72
g58
NtRp5316
(dp5317
g61
(dp5318
sg70
g5169
sg63
(lp5319
g56
(g77
g58
NtRp5320
(dp5321
g61
(dp5322
sg70
g5316
sg63
(lp5323
g56
(g57
g58
NtRp5324
(dp5325
g61
(dp5326
g69
I4
ssg70
g5320
sg63
(lp5327
S'Abrasive'
p5328
asbasbasbag56
(g72
g58
NtRp5329
(dp5330
g61
(dp5331
sg70
g5169
sg63
(lp5332
g56
(g77
g58
NtRp5333
(dp5334
g61
(dp5335
sg70
g5329
sg63
(lp5336
g56
(g57
g58
NtRp5337
(dp5338
g61
(dp5339
g69
I4
ssg70
g5333
sg63
(lp5340
S'Customize'
p5341
asbasbasbag56
(g72
g58
NtRp5342
(dp5343
g61
(dp5344
sg70
g5169
sg63
(lp5345
g56
(g77
g58
NtRp5346
(dp5347
g61
(dp5348
sg70
g5342
sg63
(lp5349
g56
(g57
g58
NtRp5350
(dp5351
g61
(dp5352
g69
I4
ssg70
g5346
sg63
(lp5353
S'Experience'
p5354
asbasbasbag56
(g72
g58
NtRp5355
(dp5356
g61
(dp5357
sg70
g5169
sg63
(lp5358
g56
(g77
g58
NtRp5359
(dp5360
g61
(dp5361
sg70
g5355
sg63
(lp5362
g56
(g57
g58
NtRp5363
(dp5364
g61
(dp5365
g69
I4
ssg70
g5359
sg63
(lp5366
S'FCTHarvest'
p5367
asbasbasbag56
(g72
g58
NtRp5368
(dp5369
g61
(dp5370
sg70
g5169
sg63
(lp5371
g56
(g77
g58
NtRp5372
(dp5373
g61
(dp5374
sg70
g5368
sg63
(lp5375
g56
(g57
g58
NtRp5376
(dp5377
g61
(dp5378
g69
I4
ssg70
g5372
sg63
(lp5379
S'sliced'
p5380
asbasbasbag56
(g72
g58
NtRp5381
(dp5382
g61
(dp5383
sg70
g5169
sg63
(lp5384
g56
(g77
g58
NtRp5385
(dp5386
g61
(dp5387
sg70
g5381
sg63
(lp5388
g56
(g57
g58
NtRp5389
(dp5390
g61
(dp5391
g69
I4
ssg70
g5385
sg63
(lp5392
S'PremiumSeries'
p5393
asbasbasbag56
(g72
g58
NtRp5394
(dp5395
g61
(dp5396
sg70
g5169
sg63
(lp5397
g56
(g77
g58
NtRp5398
(dp5399
g61
(dp5400
sg70
g5394
sg63
(lp5401
g56
(g57
g58
NtRp5402
(dp5403
g61
(dp5404
g69
I4
ssg70
g5398
sg63
(lp5405
S'EfflorescencePurple'
p5406
asbasbasbag56
(g72
g58
NtRp5407
(dp5408
g61
(dp5409
sg70
g5169
sg63
(lp5410
g56
(g77
g58
NtRp5411
(dp5412
g61
(dp5413
sg70
g5407
sg63
(lp5414
g56
(g57
g58
NtRp5415
(dp5416
g61
(dp5417
g69
I4
ssg70
g5411
sg63
(lp5418
S'Pluralism'
p5419
asbasbasbag56
(g72
g58
NtRp5420
(dp5421
g61
(dp5422
sg70
g5169
sg63
(lp5423
g56
(g77
g58
NtRp5424
(dp5425
g61
(dp5426
sg70
g5420
sg63
(lp5427
g56
(g57
g58
NtRp5428
(dp5429
g61
(dp5430
g69
I4
ssg70
g5424
sg63
(lp5431
S'Sampling'
p5432
asbasbasbag56
(g72
g58
NtRp5433
(dp5434
g61
(dp5435
sg70
g5169
sg63
(lp5436
g56
(g77
g58
NtRp5437
(dp5438
g61
(dp5439
sg70
g5433
sg63
(lp5440
g56
(g57
g58
NtRp5441
(dp5442
g61
(dp5443
g69
I4
ssg70
g5437
sg63
(lp5444
S'NewsFlash'
p5445
asbasbasbag56
(g72
g58
NtRp5446
(dp5447
g61
(dp5448
sg70
g5169
sg63
(lp5449
g56
(g77
g58
NtRp5450
(dp5451
g61
(dp5452
sg70
g5446
sg63
(lp5453
g56
(g57
g58
NtRp5454
(dp5455
g61
(dp5456
g69
I4
ssg70
g5450
sg63
(lp5457
S'Flourish'
p5458
asbasbasbag56
(g72
g58
NtRp5459
(dp5460
g61
(dp5461
sg70
g5169
sg63
(lp5462
g56
(g77
g58
NtRp5463
(dp5464
g61
(dp5465
sg70
g5459
sg63
(lp5466
g56
(g57
g58
NtRp5467
(dp5468
g61
(dp5469
g69
I4
ssg70
g5463
sg63
(lp5470
S'Simpletex'
p5471
asbasbasbag56
(g72
g58
NtRp5472
(dp5473
g61
(dp5474
sg70
g5169
sg63
(lp5475
g56
(g77
g58
NtRp5476
(dp5477
g61
(dp5478
sg70
g5472
sg63
(lp5479
g56
(g57
g58
NtRp5480
(dp5481
g61
(dp5482
g69
I4
ssg70
g5476
sg63
(lp5483
S'Blogging'
p5484
asbasbasbag56
(g72
g58
NtRp5485
(dp5486
g61
(dp5487
sg70
g5169
sg63
(lp5488
g56
(g77
g58
NtRp5489
(dp5490
g61
(dp5491
sg70
g5485
sg63
(lp5492
g56
(g57
g58
NtRp5493
(dp5494
g61
(dp5495
g69
I4
ssg70
g5489
sg63
(lp5496
S'FunRide'
p5497
asbasbasbag56
(g72
g58
NtRp5498
(dp5499
g61
(dp5500
sg70
g5169
sg63
(lp5501
g56
(g77
g58
NtRp5502
(dp5503
g61
(dp5504
sg70
g5498
sg63
(lp5505
g56
(g57
g58
NtRp5506
(dp5507
g61
(dp5508
g69
I4
ssg70
g5502
sg63
(lp5509
S'Papira'
p5510
asbasbasbag56
(g72
g58
NtRp5511
(dp5512
g61
(dp5513
sg70
g5169
sg63
(lp5514
g56
(g77
g58
NtRp5515
(dp5516
g61
(dp5517
sg70
g5511
sg63
(lp5518
g56
(g57
g58
NtRp5519
(dp5520
g61
(dp5521
g69
I4
ssg70
g5515
sg63
(lp5522
S'solutionblue'
p5523
asbasbasbag56
(g72
g58
NtRp5524
(dp5525
g61
(dp5526
sg70
g5169
sg63
(lp5527
g56
(g77
g58
NtRp5528
(dp5529
g61
(dp5530
sg70
g5524
sg63
(lp5531
g56
(g57
g58
NtRp5532
(dp5533
g61
(dp5534
g69
I4
ssg70
g5528
sg63
(lp5535
S'Oxidation'
p5536
asbasbasbag56
(g72
g58
NtRp5537
(dp5538
g61
(dp5539
sg70
g5169
sg63
(lp5540
g56
(g77
g58
NtRp5541
(dp5542
g61
(dp5543
sg70
g5537
sg63
(lp5544
g56
(g57
g58
NtRp5545
(dp5546
g61
(dp5547
g69
I4
ssg70
g5541
sg63
(lp5548
S'Branches'
p5549
asbasbasbag56
(g72
g58
NtRp5550
(dp5551
g61
(dp5552
sg70
g5169
sg63
(lp5553
g56
(g77
g58
NtRp5554
(dp5555
g61
(dp5556
sg70
g5550
sg63
(lp5557
g56
(g57
g58
NtRp5558
(dp5559
g61
(dp5560
g69
I4
ssg70
g5554
sg63
(lp5561
S'PetCharms'
p5562
asbasbasbag56
(g72
g58
NtRp5563
(dp5564
g61
(dp5565
sg70
g5169
sg63
(lp5566
g56
(g77
g58
NtRp5567
(dp5568
g61
(dp5569
sg70
g5563
sg63
(lp5570
g56
(g57
g58
NtRp5571
(dp5572
g61
(dp5573
g69
I4
ssg70
g5567
sg63
(lp5574
S'StickyBud'
p5575
asbasbasbag56
(g72
g58
NtRp5576
(dp5577
g61
(dp5578
sg70
g5169
sg63
(lp5579
g56
(g77
g58
NtRp5580
(dp5581
g61
(dp5582
sg70
g5576
sg63
(lp5583
g56
(g57
g58
NtRp5584
(dp5585
g61
(dp5586
g69
I4
ssg70
g5580
sg63
(lp5587
S'EfflorescenceOrange'
p5588
asbasbasbag56
(g72
g58
NtRp5589
(dp5590
g61
(dp5591
sg70
g5169
sg63
(lp5592
g56
(g77
g58
NtRp5593
(dp5594
g61
(dp5595
sg70
g5589
sg63
(lp5596
g56
(g57
g58
NtRp5597
(dp5598
g61
(dp5599
g69
I4
ssg70
g5593
sg63
(lp5600
S'Excess'
p5601
asbasbasbag56
(g72
g58
NtRp5602
(dp5603
g61
(dp5604
sg70
g5169
sg63
(lp5605
g56
(g77
g58
NtRp5606
(dp5607
g61
(dp5608
sg70
g5602
sg63
(lp5609
g56
(g57
g58
NtRp5610
(dp5611
g61
(dp5612
g69
I4
ssg70
g5606
sg63
(lp5613
S'VioletRay'
p5614
asbasbasbag56
(g72
g58
NtRp5615
(dp5616
g61
(dp5617
sg70
g5169
sg63
(lp5618
g56
(g77
g58
NtRp5619
(dp5620
g61
(dp5621
sg70
g5615
sg63
(lp5622
g56
(g57
g58
NtRp5623
(dp5624
g61
(dp5625
g69
I4
ssg70
g5619
sg63
(lp5626
S'orangeflower'
p5627
asbasbasbag56
(g72
g58
NtRp5628
(dp5629
g61
(dp5630
sg70
g5169
sg63
(lp5631
g56
(g77
g58
NtRp5632
(dp5633
g61
(dp5634
sg70
g5628
sg63
(lp5635
g56
(g57
g58
NtRp5636
(dp5637
g61
(dp5638
g69
I4
ssg70
g5632
sg63
(lp5639
S'BackgroundGreen'
p5640
asbasbasbag56
(g72
g58
NtRp5641
(dp5642
g61
(dp5643
sg70
g5169
sg63
(lp5644
g56
(g77
g58
NtRp5645
(dp5646
g61
(dp5647
sg70
g5641
sg63
(lp5648
g56
(g57
g58
NtRp5649
(dp5650
g61
(dp5651
g69
I4
ssg70
g5645
sg63
(lp5652
S'LongBeach'
p5653
asbasbasbag56
(g72
g58
NtRp5654
(dp5655
g61
(dp5656
sg70
g5169
sg63
(lp5657
g56
(g77
g58
NtRp5658
(dp5659
g61
(dp5660
sg70
g5654
sg63
(lp5661
g56
(g57
g58
NtRp5662
(dp5663
g61
(dp5664
g69
I4
ssg70
g5658
sg63
(lp5665
S'Glazed'
p5666
asbasbasbag56
(g72
g58
NtRp5667
(dp5668
g61
(dp5669
sg70
g5169
sg63
(lp5670
g56
(g77
g58
NtRp5671
(dp5672
g61
(dp5673
sg70
g5667
sg63
(lp5674
g56
(g57
g58
NtRp5675
(dp5676
g61
(dp5677
g69
I4
ssg70
g5671
sg63
(lp5678
S'EfflorescenceBlue'
p5679
asbasbasbag56
(g72
g58
NtRp5680
(dp5681
g61
(dp5682
sg70
g5169
sg63
(lp5683
g56
(g77
g58
NtRp5684
(dp5685
g61
(dp5686
sg70
g5680
sg63
(lp5687
g56
(g57
g58
NtRp5688
(dp5689
g61
(dp5690
g69
I4
ssg70
g5684
sg63
(lp5691
S'CupofCoffee'
p5692
asbasbasbag56
(g72
g58
NtRp5693
(dp5694
g61
(dp5695
sg70
g5169
sg63
(lp5696
g56
(g77
g58
NtRp5697
(dp5698
g61
(dp5699
sg70
g5693
sg63
(lp5700
g56
(g57
g58
NtRp5701
(dp5702
g61
(dp5703
g69
I4
ssg70
g5697
sg63
(lp5704
S'BlogSmith'
p5705
asbasbasbag56
(g72
g58
NtRp5706
(dp5707
g61
(dp5708
sg70
g5169
sg63
(lp5709
g56
(g77
g58
NtRp5710
(dp5711
g61
(dp5712
sg70
g5706
sg63
(lp5713
g56
(g57
g58
NtRp5714
(dp5715
g61
(dp5716
g69
I4
ssg70
g5710
sg63
(lp5717
S'Boorish'
p5718
asbasbasbag56
(g72
g58
NtRp5719
(dp5720
g61
(dp5721
sg70
g5169
sg63
(lp5722
g56
(g77
g58
NtRp5723
(dp5724
g61
(dp5725
sg70
g5719
sg63
(lp5726
g56
(g57
g58
NtRp5727
(dp5728
g61
(dp5729
g69
I4
ssg70
g5723
sg63
(lp5730
S'hexahedron'
p5731
asbasbasbag56
(g72
g58
NtRp5732
(dp5733
g61
(dp5734
sg70
g5169
sg63
(lp5735
g56
(g77
g58
NtRp5736
(dp5737
g61
(dp5738
sg70
g5732
sg63
(lp5739
g56
(g57
g58
NtRp5740
(dp5741
g61
(dp5742
g69
I4
ssg70
g5736
sg63
(lp5743
S'Voyage'
p5744
asbasbasbag56
(g72
g58
NtRp5745
(dp5746
g61
(dp5747
sg70
g5169
sg63
(lp5748
g56
(g77
g58
NtRp5749
(dp5750
g61
(dp5751
sg70
g5745
sg63
(lp5752
g56
(g57
g58
NtRp5753
(dp5754
g61
(dp5755
g69
I4
ssg70
g5749
sg63
(lp5756
S'TheIsland'
p5757
asbasbasbag56
(g72
g58
NtRp5758
(dp5759
g61
(dp5760
sg70
g5169
sg63
(lp5761
g56
(g77
g58
NtRp5762
(dp5763
g61
(dp5764
sg70
g5758
sg63
(lp5765
g56
(g57
g58
NtRp5766
(dp5767
g61
(dp5768
g69
I4
ssg70
g5762
sg63
(lp5769
S'PinkFloat'
p5770
asbasbasbag56
(g72
g58
NtRp5771
(dp5772
g61
(dp5773
sg70
g5169
sg63
(lp5774
g56
(g77
g58
NtRp5775
(dp5776
g61
(dp5777
sg70
g5771
sg63
(lp5778
g56
(g57
g58
NtRp5779
(dp5780
g61
(dp5781
g69
I4
ssg70
g5775
sg63
(lp5782
S'FCTInnovation'
p5783
asbasbasbag56
(g72
g58
NtRp5784
(dp5785
g61
(dp5786
sg70
g5169
sg63
(lp5787
g56
(g77
g58
NtRp5788
(dp5789
g61
(dp5790
sg70
g5784
sg63
(lp5791
g56
(g57
g58
NtRp5792
(dp5793
g61
(dp5794
g69
I4
ssg70
g5788
sg63
(lp5795
S'solutiongreen'
p5796
asbasbasbag56
(g72
g58
NtRp5797
(dp5798
g61
(dp5799
sg70
g5169
sg63
(lp5800
g56
(g77
g58
NtRp5801
(dp5802
g61
(dp5803
sg70
g5797
sg63
(lp5804
g56
(g57
g58
NtRp5805
(dp5806
g61
(dp5807
g69
I4
ssg70
g5801
sg63
(lp5808
S'Colorus'
p5809
asbasbasbag56
(g72
g58
NtRp5810
(dp5811
g61
(dp5812
sg70
g5169
sg63
(lp5813
g56
(g77
g58
NtRp5814
(dp5815
g61
(dp5816
sg70
g5810
sg63
(lp5817
g56
(g57
g58
NtRp5818
(dp5819
g61
(dp5820
g69
I4
ssg70
g5814
sg63
(lp5821
S'Chasmogamous'
p5822
asbasbasbag56
(g72
g58
NtRp5823
(dp5824
g61
(dp5825
sg70
g5169
sg63
(lp5826
g56
(g77
g58
NtRp5827
(dp5828
g61
(dp5829
sg70
g5823
sg63
(lp5830
g56
(g57
g58
NtRp5831
(dp5832
g61
(dp5833
g69
I4
ssg70
g5827
sg63
(lp5834
S'Astroturfd'
p5835
asbasbasbag56
(g72
g58
NtRp5836
(dp5837
g61
(dp5838
sg70
g5169
sg63
(lp5839
g56
(g77
g58
NtRp5840
(dp5841
g61
(dp5842
sg70
g5836
sg63
(lp5843
g56
(g57
g58
NtRp5844
(dp5845
g61
(dp5846
g69
I4
ssg70
g5840
sg63
(lp5847
S'RoundHouse'
p5848
asbasbasbag56
(g72
g58
NtRp5849
(dp5850
g61
(dp5851
sg70
g5169
sg63
(lp5852
g56
(g77
g58
NtRp5853
(dp5854
g61
(dp5855
sg70
g5849
sg63
(lp5856
g56
(g57
g58
NtRp5857
(dp5858
g61
(dp5859
g69
I4
ssg70
g5853
sg63
(lp5860
S'FCTPuzzled'
p5861
asbasbasbag56
(g72
g58
NtRp5862
(dp5863
g61
(dp5864
sg70
g5169
sg63
(lp5865
g56
(g77
g58
NtRp5866
(dp5867
g61
(dp5868
sg70
g5862
sg63
(lp5869
g56
(g57
g58
NtRp5870
(dp5871
g61
(dp5872
g69
I4
ssg70
g5866
sg63
(lp5873
S'Tastelessly'
p5874
asbasbasbag56
(g72
g58
NtRp5875
(dp5876
g61
(dp5877
sg70
g5169
sg63
(lp5878
g56
(g77
g58
NtRp5879
(dp5880
g61
(dp5881
sg70
g5875
sg63
(lp5882
g56
(g57
g58
NtRp5883
(dp5884
g61
(dp5885
g69
I4
ssg70
g5879
sg63
(lp5886
S'Settings'
p5887
asbasbasbag56
(g72
g58
NtRp5888
(dp5889
g61
(dp5890
sg70
g5169
sg63
(lp5891
g56
(g77
g58
NtRp5892
(dp5893
g61
(dp5894
sg70
g5888
sg63
(lp5895
g56
(g57
g58
NtRp5896
(dp5897
g61
(dp5898
g69
I4
ssg70
g5892
sg63
(lp5899
S'RedCity'
p5900
asbasbasbag56
(g72
g58
NtRp5901
(dp5902
g61
(dp5903
sg70
g5169
sg63
(lp5904
g56
(g77
g58
NtRp5905
(dp5906
g61
(dp5907
sg70
g5901
sg63
(lp5908
g56
(g57
g58
NtRp5909
(dp5910
g61
(dp5911
g69
I4
ssg70
g5905
sg63
(lp5912
S'EfflorescenceGreen'
p5913
asbasbasbag56
(g72
g58
NtRp5914
(dp5915
g61
(dp5916
sg70
g5169
sg63
(lp5917
g56
(g77
g58
NtRp5918
(dp5919
g61
(dp5920
sg70
g5914
sg63
(lp5921
g56
(g57
g58
NtRp5922
(dp5923
g61
(dp5924
g69
I4
ssg70
g5918
sg63
(lp5925
S'Compromise'
p5926
asbasbasbag56
(g72
g58
NtRp5927
(dp5928
g61
(dp5929
sg70
g5169
sg63
(lp5930
g56
(g77
g58
NtRp5931
(dp5932
g61
(dp5933
sg70
g5927
sg63
(lp5934
g56
(g57
g58
NtRp5935
(dp5936
g61
(dp5937
g69
I4
ssg70
g5931
sg63
(lp5938
S'FreshLight'
p5939
asbasbasbag56
(g72
g58
NtRp5940
(dp5941
g61
(dp5942
sg70
g5169
sg63
(lp5943
g56
(g77
g58
NtRp5944
(dp5945
g61
(dp5946
sg70
g5940
sg63
(lp5947
g56
(g57
g58
NtRp5948
(dp5949
g61
(dp5950
g69
I4
ssg70
g5944
sg63
(lp5951
S'Emporium'
p5952
asbasbasbag56
(g72
g58
NtRp5953
(dp5954
g61
(dp5955
sg70
g5169
sg63
(lp5956
g56
(g77
g58
NtRp5957
(dp5958
g61
(dp5959
sg70
g5953
sg63
(lp5960
g56
(g57
g58
NtRp5961
(dp5962
g61
(dp5963
g69
I4
ssg70
g5957
sg63
(lp5964
S'ConcreteV2'
p5965
asbasbasbag56
(g72
g58
NtRp5966
(dp5967
g61
(dp5968
sg70
g5169
sg63
(lp5969
g56
(g77
g58
NtRp5970
(dp5971
g61
(dp5972
sg70
g5966
sg63
(lp5973
g56
(g57
g58
NtRp5974
(dp5975
g61
(dp5976
g69
I4
ssg70
g5970
sg63
(lp5977
S'BackgroundBlue'
p5978
asbasbasbag56
(g72
g58
NtRp5979
(dp5980
g61
(dp5981
sg70
g5169
sg63
(lp5982
g56
(g77
g58
NtRp5983
(dp5984
g61
(dp5985
sg70
g5979
sg63
(lp5986
g56
(g57
g58
NtRp5987
(dp5988
g61
(dp5989
g69
I4
ssg70
g5983
sg63
(lp5990
S'Spaced'
p5991
asbasbasbag56
(g72
g58
NtRp5992
(dp5993
g61
(dp5994
sg70
g5169
sg63
(lp5995
g56
(g77
g58
NtRp5996
(dp5997
g61
(dp5998
sg70
g5992
sg63
(lp5999
g56
(g57
g58
NtRp6000
(dp6001
g61
(dp6002
g69
I4
ssg70
g5996
sg63
(lp6003
S'Unqualified'
p6004
asbasbasbag56
(g72
g58
NtRp6005
(dp6006
g61
(dp6007
sg70
g5169
sg63
(lp6008
g56
(g77
g58
NtRp6009
(dp6010
g61
(dp6011
sg70
g6005
sg63
(lp6012
g56
(g57
g58
NtRp6013
(dp6014
g61
(dp6015
g69
I4
ssg70
g6009
sg63
(lp6016
S'CorporateOffice'
p6017
asbasbasbag56
(g72
g58
NtRp6018
(dp6019
g61
(dp6020
sg70
g5169
sg63
(lp6021
g56
(g77
g58
NtRp6022
(dp6023
g61
(dp6024
sg70
g6018
sg63
(lp6025
g56
(g57
g58
NtRp6026
(dp6027
g61
(dp6028
g69
I4
ssg70
g6022
sg63
(lp6029
S'SnowCrystals'
p6030
asbasbasbag56
(g72
g58
NtRp6031
(dp6032
g61
(dp6033
sg70
g5169
sg63
(lp6034
g56
(g77
g58
NtRp6035
(dp6036
g61
(dp6037
sg70
g6031
sg63
(lp6038
g56
(g57
g58
NtRp6039
(dp6040
g61
(dp6041
g69
I4
ssg70
g6035
sg63
(lp6042
S'BlueStatic'
p6043
asbasbasbag56
(g72
g58
NtRp6044
(dp6045
g61
(dp6046
sg70
g5169
sg63
(lp6047
g56
(g77
g58
NtRp6048
(dp6049
g61
(dp6050
sg70
g6044
sg63
(lp6051
g56
(g57
g58
NtRp6052
(dp6053
g61
(dp6054
g69
I4
ssg70
g6048
sg63
(lp6055
S'Reference'
p6056
asbasbasbag56
(g72
g58
NtRp6057
(dp6058
g61
(dp6059
sg70
g5169
sg63
(lp6060
g56
(g77
g58
NtRp6061
(dp6062
g61
(dp6063
sg70
g6057
sg63
(lp6064
g56
(g57
g58
NtRp6065
(dp6066
g61
(dp6067
g69
I4
ssg70
g6061
sg63
(lp6068
S'Balanced'
p6069
asbasbasbag56
(g72
g58
NtRp6070
(dp6071
g61
(dp6072
sg70
g5169
sg63
(lp6073
g56
(g77
g58
NtRp6074
(dp6075
g61
(dp6076
sg70
g6070
sg63
(lp6077
g56
(g57
g58
NtRp6078
(dp6079
g61
(dp6080
g69
I4
ssg70
g6074
sg63
(lp6081
S'Clicker'
p6082
asbasbasbag56
(g72
g58
NtRp6083
(dp6084
g61
(dp6085
sg70
g5169
sg63
(lp6086
g56
(g77
g58
NtRp6087
(dp6088
g61
(dp6089
sg70
g6083
sg63
(lp6090
g56
(g57
g58
NtRp6091
(dp6092
g61
(dp6093
g69
I4
ssg70
g6087
sg63
(lp6094
S'Blend'
p6095
asbasbasbag56
(g72
g58
NtRp6096
(dp6097
g61
(dp6098
sg70
g5169
sg63
(lp6099
g56
(g77
g58
NtRp6100
(dp6101
g61
(dp6102
sg70
g6096
sg63
(lp6103
g56
(g57
g58
NtRp6104
(dp6105
g61
(dp6106
g69
I4
ssg70
g6100
sg63
(lp6107
S'HotAirBalloons'
p6108
asbasbasbag56
(g72
g58
NtRp6109
(dp6110
g61
(dp6111
sg70
g5169
sg63
(lp6112
g56
(g77
g58
NtRp6113
(dp6114
g61
(dp6115
sg70
g6109
sg63
(lp6116
g56
(g57
g58
NtRp6117
(dp6118
g61
(dp6119
g69
I4
ssg70
g6113
sg63
(lp6120
S'Frozenage'
p6121
asbasbasbag56
(g72
g58
NtRp6122
(dp6123
g61
(dp6124
sg70
g5169
sg63
(lp6125
g56
(g77
g58
NtRp6126
(dp6127
g61
(dp6128
sg70
g6122
sg63
(lp6129
g56
(g57
g58
NtRp6130
(dp6131
g61
(dp6132
g69
I4
ssg70
g6126
sg63
(lp6133
S'Squarely'
p6134
asbasbasbag56
(g72
g58
NtRp6135
(dp6136
g61
(dp6137
sg70
g5169
sg63
(lp6138
g56
(g77
g58
NtRp6139
(dp6140
g61
(dp6141
sg70
g6135
sg63
(lp6142
g56
(g57
g58
NtRp6143
(dp6144
g61
(dp6145
g69
I4
ssg70
g6139
sg63
(lp6146
S'Stardust'
p6147
asbasbasbag56
(g72
g58
NtRp6148
(dp6149
g61
(dp6150
sg70
g5169
sg63
(lp6151
g56
(g77
g58
NtRp6152
(dp6153
g61
(dp6154
sg70
g6148
sg63
(lp6155
g56
(g57
g58
NtRp6156
(dp6157
g61
(dp6158
g69
I4
ssg70
g6152
sg63
(lp6159
S'Whitelight'
p6160
asbasbasbag56
(g72
g58
NtRp6161
(dp6162
g61
(dp6163
sg70
g5169
sg63
(lp6164
g56
(g77
g58
NtRp6165
(dp6166
g61
(dp6167
sg70
g6161
sg63
(lp6168
g56
(g57
g58
NtRp6169
(dp6170
g61
(dp6171
g69
I4
ssg70
g6165
sg63
(lp6172
S'Efflorescence'
p6173
asbasbasbag56
(g72
g58
NtRp6174
(dp6175
g61
(dp6176
sg70
g5169
sg63
(lp6177
g56
(g77
g58
NtRp6178
(dp6179
g61
(dp6180
sg70
g6174
sg63
(lp6181
g56
(g57
g58
NtRp6182
(dp6183
g61
(dp6184
g69
I4
ssg70
g6178
sg63
(lp6185
S'TheMissingPiece'
p6186
asbasbasbag56
(g72
g58
NtRp6187
(dp6188
g61
(dp6189
sg70
g5169
sg63
(lp6190
g56
(g77
g58
NtRp6191
(dp6192
g61
(dp6193
sg70
g6187
sg63
(lp6194
g56
(g57
g58
NtRp6195
(dp6196
g61
(dp6197
g69
I4
ssg70
g6191
sg63
(lp6198
S'Extracts'
p6199
asbasbasbag56
(g72
g58
NtRp6200
(dp6201
g61
(dp6202
sg70
g5169
sg63
(lp6203
g56
(g77
g58
NtRp6204
(dp6205
g61
(dp6206
sg70
g6200
sg63
(lp6207
g56
(g57
g58
NtRp6208
(dp6209
g61
(dp6210
g69
I4
ssg70
g6204
sg63
(lp6211
S'Neutral'
p6212
asbasbasbag56
(g72
g58
NtRp6213
(dp6214
g61
(dp6215
sg70
g5169
sg63
(lp6216
g56
(g77
g58
NtRp6217
(dp6218
g61
(dp6219
sg70
g6213
sg63
(lp6220
g56
(g57
g58
NtRp6221
(dp6222
g61
(dp6223
g69
I4
ssg70
g6217
sg63
(lp6224
S'OldArchitecture'
p6225
asbasbasbag56
(g72
g58
NtRp6226
(dp6227
g61
(dp6228
sg70
g5169
sg63
(lp6229
g56
(g77
g58
NtRp6230
(dp6231
g61
(dp6232
sg70
g6226
sg63
(lp6233
g56
(g57
g58
NtRp6234
(dp6235
g61
(dp6236
g69
I4
ssg70
g6230
sg63
(lp6237
S'Miscellaneous'
p6238
asbasbasbag56
(g72
g58
NtRp6239
(dp6240
g61
(dp6241
sg70
g5169
sg63
(lp6242
g56
(g77
g58
NtRp6243
(dp6244
g61
(dp6245
sg70
g6239
sg63
(lp6246
g56
(g57
g58
NtRp6247
(dp6248
g61
(dp6249
g69
I4
ssg70
g6243
sg63
(lp6250
S'TinyBlue'
p6251
asbasbasbag56
(g72
g58
NtRp6252
(dp6253
g61
(dp6254
sg70
g5169
sg63
(lp6255
g56
(g77
g58
NtRp6256
(dp6257
g61
(dp6258
sg70
g6252
sg63
(lp6259
g56
(g57
g58
NtRp6260
(dp6261
g61
(dp6262
g69
I4
ssg70
g6256
sg63
(lp6263
S'Bounderies'
p6264
asbasbasbag56
(g72
g58
NtRp6265
(dp6266
g61
(dp6267
sg70
g5169
sg63
(lp6268
g56
(g77
g58
NtRp6269
(dp6270
g61
(dp6271
sg70
g6265
sg63
(lp6272
g56
(g57
g58
NtRp6273
(dp6274
g61
(dp6275
g69
I4
ssg70
g6269
sg63
(lp6276
S'Replenish'
p6277
asbasbasbag56
(g72
g58
NtRp6278
(dp6279
g61
(dp6280
sg70
g5169
sg63
(lp6281
g56
(g77
g58
NtRp6282
(dp6283
g61
(dp6284
sg70
g6278
sg63
(lp6285
g56
(g57
g58
NtRp6286
(dp6287
g61
(dp6288
g69
I4
ssg70
g6282
sg63
(lp6289
S'Hibiscus'
p6290
asbasbasbag56
(g72
g58
NtRp6291
(dp6292
g61
(dp6293
sg70
g5169
sg63
(lp6294
g56
(g77
g58
NtRp6295
(dp6296
g61
(dp6297
sg70
g6291
sg63
(lp6298
g56
(g57
g58
NtRp6299
(dp6300
g61
(dp6301
g69
I4
ssg70
g6295
sg63
(lp6302
S'Transient'
p6303
asbasbasbag56
(g72
g58
NtRp6304
(dp6305
g61
(dp6306
sg70
g5169
sg63
(lp6307
g56
(g77
g58
NtRp6308
(dp6309
g61
(dp6310
sg70
g6304
sg63
(lp6311
g56
(g57
g58
NtRp6312
(dp6313
g61
(dp6314
g69
I4
ssg70
g6308
sg63
(lp6315
S'Pressurized'
p6316
asbasbasbag56
(g72
g58
NtRp6317
(dp6318
g61
(dp6319
sg70
g5169
sg63
(lp6320
g56
(g77
g58
NtRp6321
(dp6322
g61
(dp6323
sg70
g6317
sg63
(lp6324
g56
(g57
g58
NtRp6325
(dp6326
g61
(dp6327
g69
I4
ssg70
g6321
sg63
(lp6328
S'OrangeandBlack'
p6329
asbasbasbag56
(g72
g58
NtRp6330
(dp6331
g61
(dp6332
sg70
g5169
sg63
(lp6333
g56
(g77
g58
NtRp6334
(dp6335
g61
(dp6336
sg70
g6330
sg63
(lp6337
g56
(g57
g58
NtRp6338
(dp6339
g61
(dp6340
g69
I4
ssg70
g6334
sg63
(lp6341
S'GreenandPlain'
p6342
asbasbasbag56
(g72
g58
NtRp6343
(dp6344
g61
(dp6345
sg70
g5169
sg63
(lp6346
g56
(g77
g58
NtRp6347
(dp6348
g61
(dp6349
sg70
g6343
sg63
(lp6350
g56
(g57
g58
NtRp6351
(dp6352
g61
(dp6353
g69
I4
ssg70
g6347
sg63
(lp6354
S'Industrial'
p6355
asbasbasbag56
(g72
g58
NtRp6356
(dp6357
g61
(dp6358
sg70
g5169
sg63
(lp6359
g56
(g77
g58
NtRp6360
(dp6361
g61
(dp6362
sg70
g6356
sg63
(lp6363
g56
(g57
g58
NtRp6364
(dp6365
g61
(dp6366
g69
I4
ssg70
g6360
sg63
(lp6367
S'Subordinate'
p6368
asbasbasbag56
(g72
g58
NtRp6369
(dp6370
g61
(dp6371
sg70
g5169
sg63
(lp6372
g56
(g77
g58
NtRp6373
(dp6374
g61
(dp6375
sg70
g6369
sg63
(lp6376
g56
(g57
g58
NtRp6377
(dp6378
g61
(dp6379
g69
I4
ssg70
g6373
sg63
(lp6380
S'CityLights'
p6381
asbasbasbag56
(g72
g58
NtRp6382
(dp6383
g61
(dp6384
sg70
g5169
sg63
(lp6385
g56
(g77
g58
NtRp6386
(dp6387
g61
(dp6388
sg70
g6382
sg63
(lp6389
g56
(g57
g58
NtRp6390
(dp6391
g61
(dp6392
g69
I4
ssg70
g6386
sg63
(lp6393
S'KeepitSimple'
p6394
asbasbasbag56
(g72
g58
NtRp6395
(dp6396
g61
(dp6397
sg70
g5169
sg63
(lp6398
g56
(g77
g58
NtRp6399
(dp6400
g61
(dp6401
sg70
g6395
sg63
(lp6402
g56
(g57
g58
NtRp6403
(dp6404
g61
(dp6405
g69
I4
ssg70
g6399
sg63
(lp6406
S'Interlude'
p6407
asbasbasbag56
(g72
g58
NtRp6408
(dp6409
g61
(dp6410
sg70
g5169
sg63
(lp6411
g56
(g77
g58
NtRp6412
(dp6413
g61
(dp6414
sg70
g6408
sg63
(lp6415
g56
(g57
g58
NtRp6416
(dp6417
g61
(dp6418
g69
I4
ssg70
g6412
sg63
(lp6419
S'Thingreenline'
p6420
asbasbasbasbasbasbasbasbasbsS'etype'
p6421
S"<type 'exceptions.ImportError'>"
p6422
sS'date'
p6423
S'Sun Jan 08 19:27:25 2012'
p6424
sS'response'
p6425
g56
(g57
g58
NtRp6426
(dp6427
g61
(dp6428
sg63
(lp6429
g56
(g65
g58
NtRp6430
(dp6431
g61
(dp6432
g69
I5
ssg70
Nsg63
(lp6433
g56
(g72
g58
NtRp6434
(dp6435
g61
(dp6436
sg70
g6430
sg63
(lp6437
g56
(g77
g58
NtRp6438
(dp6439
g61
(dp6440
g81
g82
ssg70
g6434
sg63
(lp6441
g180
asbag56
(g77
g58
NtRp6442
(dp6443
g61
(dp6444
g88
g89
ssg70
g6434
sg63
(lp6445
S':'
asbag56
(g77
g58
NtRp6446
(dp6447
g61
(dp6448
sg70
g6434
sg63
(lp6449
g56
(g57
g58
NtRp6450
(dp6451
g61
(dp6452
g69
I5
ssg70
g6446
sg63
(lp6453
S'<cStringIO.StringO object at 0x03CB97A0>'
p6454
asbasbasbag56
(g72
g58
NtRp6455
(dp6456
g61
(dp6457
sg70
g6430
sg63
(lp6458
g56
(g77
g58
NtRp6459
(dp6460
g61
(dp6461
g81
g82
ssg70
g6455
sg63
(lp6462
g246
asbag56
(g77
g58
NtRp6463
(dp6464
g61
(dp6465
g88
g89
ssg70
g6455
sg63
(lp6466
S':'
asbag56
(g77
g58
NtRp6467
(dp6468
g61
(dp6469
sg70
g6455
sg63
(lp6470
g56
(g57
g58
NtRp6471
(dp6472
g61
(dp6473
g69
I5
ssg70
g6467
sg63
(lp6474
g56
(g65
g58
NtRp6475
(dp6476
g61
(dp6477
g69
I4
ssg70
Nsg63
(lp6478
g56
(g72
g58
NtRp6479
(dp6480
g61
(dp6481
sg70
g6475
sg63
(lp6482
g56
(g77
g58
NtRp6483
(dp6484
g61
(dp6485
g81
g82
ssg70
g6479
sg63
(lp6486
S'session_id_admin'
p6487
asbag56
(g77
g58
NtRp6488
(dp6489
g61
(dp6490
g88
g89
ssg70
g6479
sg63
(lp6491
S':'
asbag56
(g77
g58
NtRp6492
(dp6493
g61
(dp6494
sg70
g6479
sg63
(lp6495
g56
(g57
g58
NtRp6496
(dp6497
g61
(dp6498
g69
I4
ssg70
g6492
sg63
(lp6499
g56
(g65
g58
NtRp6500
(dp6501
g61
(dp6502
g69
I3
ssg70
Nsg63
(lp6503
g56
(g72
g58
NtRp6504
(dp6505
g61
(dp6506
sg70
g6500
sg63
(lp6507
g56
(g77
g58
NtRp6508
(dp6509
g61
(dp6510
g81
g82
ssg70
g6504
sg63
(lp6511
g296
asbag56
(g77
g58
NtRp6512
(dp6513
g61
(dp6514
g88
g89
ssg70
g6504
sg63
(lp6515
S':'
asbag56
(g77
g58
NtRp6516
(dp6517
g61
(dp6518
sg70
g6504
sg63
(lp6519
g56
(g57
g58
NtRp6520
(dp6521
g61
(dp6522
g69
I3
ssg70
g6516
sg63
(lp6523
S''
asbasbasbag56
(g72
g58
NtRp6524
(dp6525
g61
(dp6526
sg70
g6500
sg63
(lp6527
g56
(g77
g58
NtRp6528
(dp6529
g61
(dp6530
g81
g82
ssg70
g6524
sg63
(lp6531
g317
asbag56
(g77
g58
NtRp6532
(dp6533
g61
(dp6534
g88
g89
ssg70
g6524
sg63
(lp6535
S':'
asbag56
(g77
g58
NtRp6536
(dp6537
g61
(dp6538
sg70
g6524
sg63
(lp6539
g56
(g57
g58
NtRp6540
(dp6541
g61
(dp6542
g69
I3
ssg70
g6536
sg63
(lp6543
S''
asbasbasbag56
(g72
g58
NtRp6544
(dp6545
g61
(dp6546
sg70
g6500
sg63
(lp6547
g56
(g77
g58
NtRp6548
(dp6549
g61
(dp6550
g81
g82
ssg70
g6544
sg63
(lp6551
g338
asbag56
(g77
g58
NtRp6552
(dp6553
g61
(dp6554
g88
g89
ssg70
g6544
sg63
(lp6555
S':'
asbag56
(g77
g58
NtRp6556
(dp6557
g61
(dp6558
sg70
g6544
sg63
(lp6559
g56
(g57
g58
NtRp6560
(dp6561
g61
(dp6562
g69
I3
ssg70
g6556
sg63
(lp6563
S''
asbasbasbag56
(g72
g58
NtRp6564
(dp6565
g61
(dp6566
sg70
g6500
sg63
(lp6567
g56
(g77
g58
NtRp6568
(dp6569
g61
(dp6570
g81
g82
ssg70
g6564
sg63
(lp6571
g359
asbag56
(g77
g58
NtRp6572
(dp6573
g61
(dp6574
g88
g89
ssg70
g6564
sg63
(lp6575
S':'
asbag56
(g77
g58
NtRp6576
(dp6577
g61
(dp6578
sg70
g6564
sg63
(lp6579
g56
(g57
g58
NtRp6580
(dp6581
g61
(dp6582
g69
I3
ssg70
g6576
sg63
(lp6583
S''
asbasbasbag56
(g72
g58
NtRp6584
(dp6585
g61
(dp6586
sg70
g6500
sg63
(lp6587
g56
(g77
g58
NtRp6588
(dp6589
g61
(dp6590
g81
g82
ssg70
g6584
sg63
(lp6591
g380
asbag56
(g77
g58
NtRp6592
(dp6593
g61
(dp6594
g88
g89
ssg70
g6584
sg63
(lp6595
S':'
asbag56
(g77
g58
NtRp6596
(dp6597
g61
(dp6598
sg70
g6584
sg63
(lp6599
g56
(g57
g58
NtRp6600
(dp6601
g61
(dp6602
g69
I3
ssg70
g6596
sg63
(lp6603
S''
asbasbasbag56
(g72
g58
NtRp6604
(dp6605
g61
(dp6606
sg70
g6500
sg63
(lp6607
g56
(g77
g58
NtRp6608
(dp6609
g61
(dp6610
g81
g82
ssg70
g6604
sg63
(lp6611
g401
asbag56
(g77
g58
NtRp6612
(dp6613
g61
(dp6614
g88
g89
ssg70
g6604
sg63
(lp6615
S':'
asbag56
(g77
g58
NtRp6616
(dp6617
g61
(dp6618
sg70
g6604
sg63
(lp6619
g56
(g57
g58
NtRp6620
(dp6621
g61
(dp6622
g69
I3
ssg70
g6616
sg63
(lp6623
S'/'
asbasbasbag56
(g72
g58
NtRp6624
(dp6625
g61
(dp6626
sg70
g6500
sg63
(lp6627
g56
(g77
g58
NtRp6628
(dp6629
g61
(dp6630
g81
g82
ssg70
g6624
sg63
(lp6631
g422
asbag56
(g77
g58
NtRp6632
(dp6633
g61
(dp6634
g88
g89
ssg70
g6624
sg63
(lp6635
S':'
asbag56
(g77
g58
NtRp6636
(dp6637
g61
(dp6638
sg70
g6624
sg63
(lp6639
g56
(g57
g58
NtRp6640
(dp6641
g61
(dp6642
g69
I3
ssg70
g6636
sg63
(lp6643
S''
asbasbasbag56
(g72
g58
NtRp6644
(dp6645
g61
(dp6646
sg70
g6500
sg63
(lp6647
g56
(g77
g58
NtRp6648
(dp6649
g61
(dp6650
g81
g82
ssg70
g6644
sg63
(lp6651
g443
asbag56
(g77
g58
NtRp6652
(dp6653
g61
(dp6654
g88
g89
ssg70
g6644
sg63
(lp6655
S':'
asbag56
(g77
g58
NtRp6656
(dp6657
g61
(dp6658
sg70
g6644
sg63
(lp6659
g56
(g57
g58
NtRp6660
(dp6661
g61
(dp6662
g69
I3
ssg70
g6656
sg63
(lp6663
S''
asbasbasbasbasbasbasbasbasbasbasbag56
(g72
g58
NtRp6664
(dp6665
g61
(dp6666
sg70
g6430
sg63
(lp6667
g56
(g77
g58
NtRp6668
(dp6669
g61
(dp6670
g81
g82
ssg70
g6664
sg63
(lp6671
S'files'
p6672
asbag56
(g77
g58
NtRp6673
(dp6674
g61
(dp6675
g88
g89
ssg70
g6664
sg63
(lp6676
S':'
asbag56
(g77
g58
NtRp6677
(dp6678
g61
(dp6679
sg70
g6664
sg63
(lp6680
g56
(g57
g58
NtRp6681
(dp6682
g61
(dp6683
g69
I5
ssg70
g6677
sg63
(lp6684
g56
(g65
g58
NtRp6685
(dp6686
g61
(dp6687
g69
I4
ssg70
Nsg63
(lp6688
sbasbasbasbag56
(g72
g58
NtRp6689
(dp6690
g61
(dp6691
sg70
g6430
sg63
(lp6692
g56
(g77
g58
NtRp6693
(dp6694
g61
(dp6695
g81
g82
ssg70
g6689
sg63
(lp6696
S'flash'
p6697
asbag56
(g77
g58
NtRp6698
(dp6699
g61
(dp6700
g88
g89
ssg70
g6689
sg63
(lp6701
S':'
asbag56
(g77
g58
NtRp6702
(dp6703
g61
(dp6704
sg70
g6689
sg63
(lp6705
g56
(g57
g58
NtRp6706
(dp6707
g61
(dp6708
g69
I5
ssg70
g6702
sg63
(lp6709
S''
asbasbasbag56
(g72
g58
NtRp6710
(dp6711
g61
(dp6712
sg70
g6430
sg63
(lp6713
g56
(g77
g58
NtRp6714
(dp6715
g61
(dp6716
g81
g82
ssg70
g6710
sg63
(lp6717
S'generic_patterns'
p6718
asbag56
(g77
g58
NtRp6719
(dp6720
g61
(dp6721
g88
g89
ssg70
g6710
sg63
(lp6722
S':'
asbag56
(g77
g58
NtRp6723
(dp6724
g61
(dp6725
sg70
g6710
sg63
(lp6726
g56
(g57
g58
NtRp6727
(dp6728
g61
(dp6729
g69
I5
ssg70
g6723
sg63
(lp6730
g56
(g65
g58
NtRp6731
(dp6732
g61
(dp6733
g69
I4
ssg70
Nsg63
(lp6734
sbasbasbasbag56
(g72
g58
NtRp6735
(dp6736
g61
(dp6737
sg70
g6430
sg63
(lp6738
g56
(g77
g58
NtRp6739
(dp6740
g61
(dp6741
g81
g82
ssg70
g6735
sg63
(lp6742
S'headers'
p6743
asbag56
(g77
g58
NtRp6744
(dp6745
g61
(dp6746
g88
g89
ssg70
g6735
sg63
(lp6747
S':'
asbag56
(g77
g58
NtRp6748
(dp6749
g61
(dp6750
sg70
g6735
sg63
(lp6751
g56
(g57
g58
NtRp6752
(dp6753
g61
(dp6754
g69
I5
ssg70
g6748
sg63
(lp6755
g56
(g65
g58
NtRp6756
(dp6757
g61
(dp6758
g69
I4
ssg70
Nsg63
(lp6759
g56
(g72
g58
NtRp6760
(dp6761
g61
(dp6762
sg70
g6756
sg63
(lp6763
g56
(g77
g58
NtRp6764
(dp6765
g61
(dp6766
g81
g82
ssg70
g6760
sg63
(lp6767
S'Cache-Control'
p6768
asbag56
(g77
g58
NtRp6769
(dp6770
g61
(dp6771
g88
g89
ssg70
g6760
sg63
(lp6772
S':'
asbag56
(g77
g58
NtRp6773
(dp6774
g61
(dp6775
sg70
g6760
sg63
(lp6776
g56
(g57
g58
NtRp6777
(dp6778
g61
(dp6779
g69
I4
ssg70
g6773
sg63
(lp6780
S'no-store, no-cache, must-revalidate, post-check=0, pre-check=0'
p6781
asbasbasbag56
(g72
g58
NtRp6782
(dp6783
g61
(dp6784
sg70
g6756
sg63
(lp6785
g56
(g77
g58
NtRp6786
(dp6787
g61
(dp6788
g81
g82
ssg70
g6782
sg63
(lp6789
S'Content-Type'
p6790
asbag56
(g77
g58
NtRp6791
(dp6792
g61
(dp6793
g88
g89
ssg70
g6782
sg63
(lp6794
S':'
asbag56
(g77
g58
NtRp6795
(dp6796
g61
(dp6797
sg70
g6782
sg63
(lp6798
g56
(g57
g58
NtRp6799
(dp6800
g61
(dp6801
g69
I4
ssg70
g6795
sg63
(lp6802
S'text/html; charset=utf-8'
p6803
asbasbasbag56
(g72
g58
NtRp6804
(dp6805
g61
(dp6806
sg70
g6756
sg63
(lp6807
g56
(g77
g58
NtRp6808
(dp6809
g61
(dp6810
g81
g82
ssg70
g6804
sg63
(lp6811
S'Expires'
p6812
asbag56
(g77
g58
NtRp6813
(dp6814
g61
(dp6815
g88
g89
ssg70
g6804
sg63
(lp6816
S':'
asbag56
(g77
g58
NtRp6817
(dp6818
g61
(dp6819
sg70
g6804
sg63
(lp6820
g56
(g57
g58
NtRp6821
(dp6822
g61
(dp6823
g69
I4
ssg70
g6817
sg63
(lp6824
S'Sun, 08 Jan 2012 11:27:25 GMT'
p6825
asbasbasbag56
(g72
g58
NtRp6826
(dp6827
g61
(dp6828
sg70
g6756
sg63
(lp6829
g56
(g77
g58
NtRp6830
(dp6831
g61
(dp6832
g81
g82
ssg70
g6826
sg63
(lp6833
S'Pragma'
p6834
asbag56
(g77
g58
NtRp6835
(dp6836
g61
(dp6837
g88
g89
ssg70
g6826
sg63
(lp6838
S':'
asbag56
(g77
g58
NtRp6839
(dp6840
g61
(dp6841
sg70
g6826
sg63
(lp6842
g56
(g57
g58
NtRp6843
(dp6844
g61
(dp6845
g69
I4
ssg70
g6839
sg63
(lp6846
S'no-cache'
p6847
asbasbasbag56
(g72
g58
NtRp6848
(dp6849
g61
(dp6850
sg70
g6756
sg63
(lp6851
g56
(g77
g58
NtRp6852
(dp6853
g61
(dp6854
g81
g82
ssg70
g6848
sg63
(lp6855
S'X-Powered-By'
p6856
asbag56
(g77
g58
NtRp6857
(dp6858
g61
(dp6859
g88
g89
ssg70
g6848
sg63
(lp6860
S':'
asbag56
(g77
g58
NtRp6861
(dp6862
g61
(dp6863
sg70
g6848
sg63
(lp6864
g56
(g57
g58
NtRp6865
(dp6866
g61
(dp6867
g69
I4
ssg70
g6861
sg63
(lp6868
S'web2py'
p6869
asbasbasbasbasbasbasbag56
(g72
g58
NtRp6870
(dp6871
g61
(dp6872
sg70
g6430
sg63
(lp6873
g56
(g77
g58
NtRp6874
(dp6875
g61
(dp6876
g81
g82
ssg70
g6870
sg63
(lp6877
S'menu'
p6878
asbag56
(g77
g58
NtRp6879
(dp6880
g61
(dp6881
g88
g89
ssg70
g6870
sg63
(lp6882
S':'
asbag56
(g77
g58
NtRp6883
(dp6884
g61
(dp6885
sg70
g6870
sg63
(lp6886
g56
(g57
g58
NtRp6887
(dp6888
g61
(dp6889
g69
I5
ssg70
g6883
sg63
(lp6890
g56
(g65
g58
NtRp6891
(dp6892
g61
(dp6893
g69
I4
ssg70
Nsg63
(lp6894
sbasbasbasbag56
(g72
g58
NtRp6895
(dp6896
g61
(dp6897
sg70
g6430
sg63
(lp6898
g56
(g77
g58
NtRp6899
(dp6900
g61
(dp6901
g81
g82
ssg70
g6895
sg63
(lp6902
S'meta'
p6903
asbag56
(g77
g58
NtRp6904
(dp6905
g61
(dp6906
g88
g89
ssg70
g6895
sg63
(lp6907
S':'
asbag56
(g77
g58
NtRp6908
(dp6909
g61
(dp6910
sg70
g6895
sg63
(lp6911
g56
(g57
g58
NtRp6912
(dp6913
g61
(dp6914
g69
I5
ssg70
g6908
sg63
(lp6915
g56
(g65
g58
NtRp6916
(dp6917
g61
(dp6918
g69
I4
ssg70
Nsg63
(lp6919
sbasbasbasbag56
(g72
g58
NtRp6920
(dp6921
g61
(dp6922
sg70
g6430
sg63
(lp6923
g56
(g77
g58
NtRp6924
(dp6925
g61
(dp6926
g81
g82
ssg70
g6920
sg63
(lp6927
S'postprocessing'
p6928
asbag56
(g77
g58
NtRp6929
(dp6930
g61
(dp6931
g88
g89
ssg70
g6920
sg63
(lp6932
S':'
asbag56
(g77
g58
NtRp6933
(dp6934
g61
(dp6935
sg70
g6920
sg63
(lp6936
g56
(g57
g58
NtRp6937
(dp6938
g61
(dp6939
g69
I5
ssg70
g6933
sg63
(lp6940
g56
(g65
g58
NtRp6941
(dp6942
g61
(dp6943
g69
I4
ssg70
Nsg63
(lp6944
sbasbasbasbag56
(g72
g58
NtRp6945
(dp6946
g61
(dp6947
sg70
g6430
sg63
(lp6948
g56
(g77
g58
NtRp6949
(dp6950
g61
(dp6951
g81
g82
ssg70
g6945
sg63
(lp6952
S'session_file'
p6953
asbag56
(g77
g58
NtRp6954
(dp6955
g61
(dp6956
g88
g89
ssg70
g6945
sg63
(lp6957
S':'
asbag56
(g77
g58
NtRp6958
(dp6959
g61
(dp6960
sg70
g6945
sg63
(lp6961
g56
(g57
g58
NtRp6962
(dp6963
g61
(dp6964
g69
I5
ssg70
g6958
sg63
(lp6965
S"<open file 'D:\\Workbench\\web2py_src\\applications\\admin\\sessions\\127.0.0.1-1aec4a0c-943f-4e5e-8f75-13d106ec6506', mode 'rb+' at 0x03C811D8>"
p6966
asbasbasbag56
(g72
g58
NtRp6967
(dp6968
g61
(dp6969
sg70
g6430
sg63
(lp6970
g56
(g77
g58
NtRp6971
(dp6972
g61
(dp6973
g81
g82
ssg70
g6967
sg63
(lp6974
S'session_filename'
p6975
asbag56
(g77
g58
NtRp6976
(dp6977
g61
(dp6978
g88
g89
ssg70
g6967
sg63
(lp6979
S':'
asbag56
(g77
g58
NtRp6980
(dp6981
g61
(dp6982
sg70
g6967
sg63
(lp6983
g56
(g57
g58
NtRp6984
(dp6985
g61
(dp6986
g69
I5
ssg70
g6980
sg63
(lp6987
S'D:\\Workbench\\web2py_src\\applications\\admin\\sessions\\127.0.0.1-1aec4a0c-943f-4e5e-8f75-13d106ec6506'
p6988
asbasbasbag56
(g72
g58
NtRp6989
(dp6990
g61
(dp6991
sg70
g6430
sg63
(lp6992
g56
(g77
g58
NtRp6993
(dp6994
g61
(dp6995
g81
g82
ssg70
g6989
sg63
(lp6996
S'session_id'
p6997
asbag56
(g77
g58
NtRp6998
(dp6999
g61
(dp7000
g88
g89
ssg70
g6989
sg63
(lp7001
S':'
asbag56
(g77
g58
NtRp7002
(dp7003
g61
(dp7004
sg70
g6989
sg63
(lp7005
g56
(g57
g58
NtRp7006
(dp7007
g61
(dp7008
g69
I5
ssg70
g7002
sg63
(lp7009
S'127.0.0.1-1aec4a0c-943f-4e5e-8f75-13d106ec6506'
p7010
asbasbasbag56
(g72
g58
NtRp7011
(dp7012
g61
(dp7013
sg70
g6430
sg63
(lp7014
g56
(g77
g58
NtRp7015
(dp7016
g61
(dp7017
g81
g82
ssg70
g7011
sg63
(lp7018
S'session_id_name'
p7019
asbag56
(g77
g58
NtRp7020
(dp7021
g61
(dp7022
g88
g89
ssg70
g7011
sg63
(lp7023
S':'
asbag56
(g77
g58
NtRp7024
(dp7025
g61
(dp7026
sg70
g7011
sg63
(lp7027
g56
(g57
g58
NtRp7028
(dp7029
g61
(dp7030
g69
I5
ssg70
g7024
sg63
(lp7031
g6487
asbasbasbag56
(g72
g58
NtRp7032
(dp7033
g61
(dp7034
sg70
g6430
sg63
(lp7035
g56
(g77
g58
NtRp7036
(dp7037
g61
(dp7038
g81
g82
ssg70
g7032
sg63
(lp7039
S'session_locked'
p7040
asbag56
(g77
g58
NtRp7041
(dp7042
g61
(dp7043
g88
g89
ssg70
g7032
sg63
(lp7044
S':'
asbag56
(g77
g58
NtRp7045
(dp7046
g61
(dp7047
sg70
g7032
sg63
(lp7048
g56
(g57
g58
NtRp7049
(dp7050
g61
(dp7051
g69
I5
ssg70
g7045
sg63
(lp7052
g2074
asbasbasbag56
(g72
g58
NtRp7053
(dp7054
g61
(dp7055
sg70
g6430
sg63
(lp7056
g56
(g77
g58
NtRp7057
(dp7058
g61
(dp7059
g81
g82
ssg70
g7053
sg63
(lp7060
S'session_new'
p7061
asbag56
(g77
g58
NtRp7062
(dp7063
g61
(dp7064
g88
g89
ssg70
g7053
sg63
(lp7065
S':'
asbag56
(g77
g58
NtRp7066
(dp7067
g61
(dp7068
sg70
g7053
sg63
(lp7069
g56
(g57
g58
NtRp7070
(dp7071
g61
(dp7072
g69
I5
ssg70
g7066
sg63
(lp7073
g99
asbasbasbag56
(g72
g58
NtRp7074
(dp7075
g61
(dp7076
sg70
g6430
sg63
(lp7077
g56
(g77
g58
NtRp7078
(dp7079
g61
(dp7080
g81
g82
ssg70
g7074
sg63
(lp7081
S'status'
p7082
asbag56
(g77
g58
NtRp7083
(dp7084
g61
(dp7085
g88
g89
ssg70
g7074
sg63
(lp7086
S':'
asbag56
(g77
g58
NtRp7087
(dp7088
g61
(dp7089
sg70
g7074
sg63
(lp7090
g56
(g57
g58
NtRp7091
(dp7092
g61
(dp7093
g69
I5
ssg70
g7087
sg63
(lp7094
S'200'
p7095
asbasbasbag56
(g72
g58
NtRp7096
(dp7097
g61
(dp7098
sg70
g6430
sg63
(lp7099
g56
(g77
g58
NtRp7100
(dp7101
g61
(dp7102
g81
g82
ssg70
g7096
sg63
(lp7103
g2675
asbag56
(g77
g58
NtRp7104
(dp7105
g61
(dp7106
g88
g89
ssg70
g7096
sg63
(lp7107
S':'
asbag56
(g77
g58
NtRp7108
(dp7109
g61
(dp7110
sg70
g7096
sg63
(lp7111
g56
(g57
g58
NtRp7112
(dp7113
g61
(dp7114
g69
I5
ssg70
g7108
sg63
(lp7115
g2688
asbasbasbag56
(g72
g58
NtRp7116
(dp7117
g61
(dp7118
sg70
g6430
sg63
(lp7119
g56
(g77
g58
NtRp7120
(dp7121
g61
(dp7122
g81
g82
ssg70
g7116
sg63
(lp7123
S'view'
p7124
asbag56
(g77
g58
NtRp7125
(dp7126
g61
(dp7127
g88
g89
ssg70
g7116
sg63
(lp7128
S':'
asbag56
(g77
g58
NtRp7129
(dp7130
g61
(dp7131
sg70
g7116
sg63
(lp7132
g56
(g57
g58
NtRp7133
(dp7134
g61
(dp7135
g69
I5
ssg70
g7129
sg63
(lp7136
S'default/ticket.html'
p7137
asbasbasbasbasbsS'locals'
p7138
(dp7139
S'OBJECT'
p7140
S"<class 'gluon.html.OBJECT'>"
p7141
sS'SQLDB'
p7142
S"<class 'gluon.dal.DAL'>"
p7143
sg3829
S"<Storage {'check_version': True, 'themes': ['Def...: 'c;\\xe1p\\xbb\\x07S\\xd3\\xbeP\\x96\\x962\\xb5{\\xe1'}>"
p7144
sS'LINK'
p7145
S"<class 'gluon.html.LINK'>"
p7146
sS'BR'
p7147
S"<class 'gluon.html.BR'>"
p7148
sS'local_import'
p7149
S'<function <lambda>>'
p7150
sS'OPTGROUP'
p7151
S"<class 'gluon.html.OPTGROUP'>"
p7152
sS'compile2'
p7153
S'<function compile2>'
p7154
sS'PRE'
p7155
S"<class 'gluon.html.PRE'>"
p7156
sS'IS_INT_IN_RANGE'
p7157
S"<class 'gluon.validators.IS_INT_IN_RANGE'>"
p7158
sS'IS_LOWER'
p7159
S"<class 'gluon.validators.IS_LOWER'>"
p7160
sS'IS_STRONG'
p7161
S"<class 'gluon.validators.IS_STRONG'>"
p7162
sS'cache'
p7163
S'<gluon.cache.Cache object>'
p7164
sS'IS_IN_DB'
p7165
S"<class 'gluon.validators.IS_IN_DB'>"
p7166
sS'TAG'
p7167
S'<gluon.html.__TAG__ object>'
p7168
sS'WEB2PY_VERSION_URL'
p7169
S"'http://web2py.com/examples/default/version'"
p7170
sS'SQLField'
p7171
S"<class 'gluon.dal.Field'>"
p7172
sS'BODY'
p7173
S"<class 'gluon.html.BODY'>"
p7174
sS'IS_DATE_IN_RANGE'
p7175
S"<class 'gluon.validators.IS_DATE_IN_RANGE'>"
p7176
sS'IFRAME'
p7177
S"<class 'gluon.html.IFRAME'>"
p7178
sS'regex_include'
p7179
S'<_sre.SRE_Pattern object>'
p7180
sS'URL'
p7181
S'<function URL>'
p7182
sS'__file__'
p7183
S"r'D:\\Workbench\\web2py_src\\applications\\admin\\models\\access.py'"
p7184
sS'P'
S"<class 'gluon.html.P'>"
p7185
sS'TFOOT'
p7186
S"<class 'gluon.html.TFOOT'>"
p7187
sS'XHTML'
p7188
S"<class 'gluon.html.XHTML'>"
p7189
sS'TD'
p7190
S"<class 'gluon.html.TD'>"
p7191
sS'ON'
p7192
g2074
sS'TicketStorage'
p7193
S"<class 'gluon.restricted.TicketStorage'>"
p7194
sS'OL'
p7195
S"<class 'gluon.html.OL'>"
p7196
sS'TEXTAREA'
p7197
S"<class 'gluon.html.TEXTAREA'>"
p7198
sS'MENU'
p7199
S"<class 'gluon.html.MENU'>"
p7200
sS'STYLE'
p7201
S"<class 'gluon.html.STYLE'>"
p7202
sS'WEB2PY_URL'
p7203
S"'http://web2py.com'"
p7204
sS'LOAD'
p7205
S'<gluon.compileapp.LoadFactory object>'
p7206
sS'CODE'
p7207
S"<class 'gluon.html.CODE'>"
p7208
sS'HTTP'
p7209
S"<class 'gluon.http.HTTP'>"
p7210
sS'HR'
p7211
S"<class 'gluon.html.HR'>"
p7212
sS'IS_DATETIME'
p7213
S"<class 'gluon.validators.IS_DATETIME'>"
p7214
sS'stat'
p7215
S"<module 'stat' from 'C:\\Python27\\Lib\\stat.pyc'>"
p7216
sS'LABEL'
p7217
S"<class 'gluon.html.LABEL'>"
p7218
sS'META'
p7219
S"<class 'gluon.html.META'>"
p7220
sS'A'
S"<class 'gluon.html.A'>"
p7221
sS'SELECT'
p7222
S"<class 'gluon.html.SELECT'>"
p7223
sS'DEMO_MODE'
p7224
g99
sS'LAYOUTS_APP'
p7225
S"'http://web2py.com/layouts'"
p7226
sS'FONT_SIZE'
p7227
S'10'
p7228
sS'CENTER'
p7229
S"<class 'gluon.html.CENTER'>"
p7230
sg3809
S'<function restricted>'
p7231
sS'urllib'
p7232
S"<module 'urllib' from 'C:\\Python27\\Lib\\urllib.pyc'>"
p7233
sS'COL'
p7234
S"<class 'gluon.html.COL'>"
p7235
sS'__builtins__'
p7236
S"{'ArithmeticError': <type 'exceptions.ArithmeticError'>, 'AssertionError': <type 'exceptions.AssertionError'>, 'AttributeError': <type 'exceptions.AttributeError'>, 'BaseException': <type 'exceptions.BaseException'>, 'BufferError': <type 'exceptions.BufferError'>, 'BytesWarning': <type 'exceptions.BytesWarning'>, 'DeprecationWarning': <type 'exceptions.DeprecationWarning'>, 'EOFError': <type 'exceptions.EOFError'>, 'Ellipsis': Ellipsis, 'EnvironmentError': <type 'exceptions.EnvironmentError'>, ...}"
p7237
sS'HTML'
p7238
S"<class 'gluon.html.HTML'>"
p7239
sS'SQLFORM'
p7240
S"<class 'gluon.sqlhtml.SQLFORM'>"
p7241
sS'tar_compiled'
p7242
S'<function tar_compiled>'
p7243
sS'cgi'
p7244
S"<module 'cgi' from 'C:\\Python27\\Lib\\cgi.pyc'>"
p7245
sS'redirect'
p7246
S'<function redirect>'
p7247
sS'FIELDSET'
p7248
S"<class 'gluon.html.FIELDSET'>"
p7249
sS'IS_EQUAL_TO'
p7250
S"<class 'gluon.validators.IS_EQUAL_TO'>"
p7251
sS'FILTER_APPS'
p7252
S'[]'
p7253
sS'embed64'
p7254
S'<function embed64>'
p7255
sS'IS_LIST_OF'
p7256
S"<class 'gluon.validators.IS_LIST_OF'>"
p7257
sS'INPUT'
p7258
S"<class 'gluon.html.INPUT'>"
p7259
sS'EMBED'
p7260
S"<class 'gluon.html.EMBED'>"
p7261
sS'FORM'
p7262
S"<class 'gluon.html.FORM'>"
p7263
sS'CLEANUP'
p7264
S"<class 'gluon.validators.CLEANUP'>"
p7265
sS'socket'
p7266
S"<module 'socket' from 'C:\\Python27\\Lib\\socket.pyc'>"
p7267
sS'H2'
p7268
S"<class 'gluon.html.H2'>"
p7269
sS'H3'
p7270
S"<class 'gluon.html.H3'>"
p7271
sS'BUTTON'
p7272
S"<class 'gluon.html.BUTTON'>"
p7273
sS'H1'
p7274
S"<class 'gluon.html.H1'>"
p7275
sS'H6'
p7276
S"<class 'gluon.html.H6'>"
p7277
sS'H4'
p7278
S"<class 'gluon.html.H4'>"
p7279
sS'H5'
p7280
S"<class 'gluon.html.H5'>"
p7281
sS'UL'
p7282
S"<class 'gluon.html.UL'>"
p7283
sS'IS_UPPER'
p7284
S"<class 'gluon.validators.IS_UPPER'>"
p7285
sS'xmlescape'
p7286
S'<function xmlescape>'
p7287
sS'IS_TIME'
p7288
S"<class 'gluon.validators.IS_TIME'>"
p7289
sS'os'
p7290
S"<module 'os' from 'C:\\Python27\\Lib\\os.pyc'>"
p7291
sS'compile_application'
p7292
S'<function compile_application>'
p7293
sS'RestrictedError'
p7294
S"<class 'gluon.restricted.RestrictedError'>"
p7295
sS'OPTION'
p7296
S"<class 'gluon.html.OPTION'>"
p7297
sS'TITLE'
p7298
S"<class 'gluon.html.TITLE'>"
p7299
sS'CRYPT'
p7300
S"<class 'gluon.validators.CRYPT'>"
p7301
sS'IS_EMPTY_OR'
p7302
S"<class 'gluon.validators.IS_EMPTY_OR'>"
p7303
sS'MARKMIN'
p7304
S"<class 'gluon.html.MARKMIN'>"
p7305
sS'sys'
p7306
S"<module 'sys' (built-in)>"
p7307
sS'MULTI_USER_MODE'
p7308
g99
sS'regex_tables'
p7309
S'<_sre.SRE_Pattern object>'
p7310
sS'EM'
p7311
S"<class 'gluon.html.EM'>"
p7312
sS'DISPLAY'
p7313
S"'onload'"
p7314
sS'SCRIPT'
p7315
S"<class 'gluon.html.SCRIPT'>"
p7316
sS'have_mercurial'
p7317
g99
sS'EXPIRATION'
p7318
S'3600'
p7319
sS'findT'
p7320
S'<function findT>'
p7321
sS'TABLE'
p7322
S"<class 'gluon.html.TABLE'>"
p7323
sS'IS_EXPR'
p7324
S"<class 'gluon.validators.IS_EXPR'>"
p7325
sS'IS_IPV4'
p7326
S"<class 'gluon.validators.IS_IPV4'>"
p7327
sS'IS_LENGTH'
p7328
S"<class 'gluon.validators.IS_LENGTH'>"
p7329
sS'XML'
p7330
S"<class 'gluon.html.XML'>"
p7331
sS'B'
S"<class 'gluon.html.B'>"
p7332
sS'IMG'
p7333
S"<class 'gluon.html.IMG'>"
p7334
sS'SQLTABLE'
p7335
S"<class 'gluon.sqlhtml.SQLTABLE'>"
p7336
sS'IS_MATCH'
p7337
S"<class 'gluon.validators.IS_MATCH'>"
p7338
sS'untar'
p7339
S'<function untar>'
p7340
sS'IS_ALPHANUMERIC'
p7341
S"<class 'gluon.validators.IS_ALPHANUMERIC'>"
p7342
sS'cleanpath'
p7343
S'<function cleanpath>'
p7344
sS'SPAN'
p7345
S"<class 'gluon.html.SPAN'>"
p7346
sS'PLUGINS_APP'
p7347
S"'http://web2py.com/plugins'"
p7348
sS'IS_SLUG'
p7349
S"<class 'gluon.validators.IS_SLUG'>"
p7350
sS'CHECK_VERSION'
p7351
g2074
sS'REPLACE_TAB_BY_SPACES'
p7352
S'4'
sS'md5_hash'
p7353
S'<function md5_hash>'
p7354
sS'update_all_languages'
p7355
S'<function update_all_languages>'
p7356
sS'TEXT_EDITOR'
p7357
S"'edit_area'"
p7358
sS'IS_DATE'
p7359
S"<class 'gluon.validators.IS_DATE'>"
p7360
sS'IS_EMAIL'
p7361
S"<class 'gluon.validators.IS_EMAIL'>"
p7362
sS'tar'
p7363
S'<function tar>'
p7364
sS'up'
p7365
S'<function up>'
p7366
sS'IS_NOT_EMPTY'
p7367
S"<class 'gluon.validators.IS_NOT_EMPTY'>"
p7368
sS'IS_FLOAT_IN_RANGE'
p7369
S"<class 'gluon.validators.IS_FLOAT_IN_RANGE'>"
p7370
sS'BEAUTIFY'
p7371
S"<class 'gluon.html.BEAUTIFY'>"
p7372
sS'TBODY'
p7373
S"<class 'gluon.html.TBODY'>"
p7374
sS'CAT'
p7375
S"<class 'gluon.html.CAT'>"
p7376
sS'Field'
p7377
S"<class 'gluon.dal.Field'>"
p7378
sS'DIV'
p7379
S"<class 'gluon.html.DIV'>"
p7380
sS'shutil'
p7381
S"<module 'shutil' from 'C:\\Python27\\Lib\\shutil.pyc'>"
p7382
sS'LEGEND'
p7383
S"<class 'gluon.html.LEGEND'>"
p7384
sS'COLGROUP'
p7385
S"<class 'gluon.html.COLGROUP'>"
p7386
sS'DAL'
p7387
S"<class 'gluon.dal.DAL'>"
p7388
sS'TT'
p7389
S"<class 'gluon.html.TT'>"
p7390
sS'TR'
p7391
S"<class 'gluon.html.TR'>"
p7392
sS'FULL_SCREEN'
p7393
S"'false'"
p7394
sS'LI'
p7395
S"<class 'gluon.html.LI'>"
p7396
sS'listdir'
p7397
S'<function listdir>'
p7398
sS'TH'
p7399
S"<class 'gluon.html.TH'>"
p7400
sS'remove_compiled_application'
p7401
S'<function remove_compiled_application>'
p7402
sS'IS_URL'
p7403
S"<class 'gluon.validators.IS_URL'>"
p7404
sS'dedent'
p7405
S'<function dedent>'
p7406
sS'HEAD'
p7407
S"<class 'gluon.html.HEAD'>"
p7408
sS'IS_DATETIME_IN_RANGE'
p7409
S"<class 'gluon.validators.IS_DATETIME_IN_RANGE'>"
p7410
sS'IS_IMAGE'
p7411
S"<class 'gluon.validators.IS_IMAGE'>"
p7412
sS'I'
S"<class 'gluon.html.I'>"
p7413
sS'regex_expose'
p7414
S'<_sre.SRE_Pattern object>'
p7415
sS'IS_NOT_IN_DB'
p7416
S"<class 'gluon.validators.IS_NOT_IN_DB'>"
p7417
sS'ALLOW_TOGGLE'
p7418
S"'true'"
p7419
sg6425
S"<Storage {'status': 200, 'body': <cStringIO.Stri...B0>, 'files': [], 'view': 'default/ticket.html'}>"
p7420
sS'THEAD'
p7421
S"<class 'gluon.html.THEAD'>"
p7422
sS'IS_NULL_OR'
p7423
S"<class 'gluon.validators.IS_EMPTY_OR'>"
p7424
sS'fix_newlines'
p7425
S'<function fix_newlines>'
p7426
sS'GAE_APPCFG'
p7427
S"r'D:\\usr\\local\\bin\\appcfg.py'"
p7428
sg55
S"<Storage {'body': <cStringIO.StringO object at 0..._vars': <Storage {}>, 'post_vars': <Storage {}>}>"
p7429
sS'difflib'
p7430
S"<module 'difflib' from 'C:\\Python27\\Lib\\difflib.pyc'>"
p7431
sS'IS_IN_SET'
p7432
S"<class 'gluon.validators.IS_IN_SET'>"
p7433
sS'TWITTER_HASH'
p7434
S"'web2py'"
p7435
sS'IS_UPLOAD_FILENAME'
p7436
S"<class 'gluon.validators.IS_UPLOAD_FILENAME'>"
p7437
sS'time'
p7438
S"<module 'time' (built-in)>"
p7439
sS'IS_DECIMAL_IN_RANGE'
p7440
S"<class 'gluon.validators.IS_DECIMAL_IN_RANGE'>"
p7441
sS'regex_extend'
p7442
S'<_sre.SRE_Pattern object>'
p7443
sS're'
p7444
S"<module 're' from 'C:\\Python27\\Lib\\re.pyc'>"
p7445
sS'T'
S'<gluon.languages.translator object>'
p7446
sssS'traceback'
p7447
S'Traceback (most recent call last):\n  File "D:\\Workbench\\web2py_src\\gluon\\restricted.py", line 194, in restricted\n    exec ccode in environment\n  File "D:\\Workbench\\web2py_src\\applications\\admin\\models\\access.py", line 2, in <module>\n    from gluon import portalocker\nImportError: cannot import name portalocker\n'
p7448
s.