(dp1
S'output'
p2
S''
sS'layer'
p3
S'D:\\Workbench\\private\\web2py_src\\applications\\examples\\controllers/transform.py'
p4
sS'code'
p5
S'\ndef index():\n    return dict()\n\ndef upload():\n    data = request.vars.myfile.value\n\nresponse._vars=response._caller(upload)\n'
p6
sS'snapshot'
p7
(dp8
S'exception'
p9
(dp10
S'__hash__'
p11
S"<method-wrapper '__hash__' of exceptions.AttributeError object>"
p12
sS'__setattr__'
p13
S"<method-wrapper '__setattr__' of exceptions.AttributeError object>"
p14
sS'__reduce_ex__'
p15
S'<built-in method __reduce_ex__ of exceptions.AttributeError object>'
p16
sS'__getslice__'
p17
S"<method-wrapper '__getslice__' of exceptions.AttributeError object>"
p18
sS'__getitem__'
p19
S"<method-wrapper '__getitem__' of exceptions.AttributeError object>"
p20
sS'__setstate__'
p21
S'<built-in method __setstate__ of exceptions.AttributeError object>'
p22
sS'__reduce__'
p23
S'<built-in method __reduce__ of exceptions.AttributeError object>'
p24
sS'__str__'
p25
S"<method-wrapper '__str__' of exceptions.AttributeError object>"
p26
sS'__format__'
p27
S'<built-in method __format__ of exceptions.AttributeError object>'
p28
sS'__getattribute__'
p29
S"<method-wrapper '__getattribute__' of exceptions.AttributeError object>"
p30
sS'__class__'
p31
S"<type 'exceptions.AttributeError'>"
p32
sS'__unicode__'
p33
S'<built-in method __unicode__ of exceptions.AttributeError object>'
p34
sS'__delattr__'
p35
S"<method-wrapper '__delattr__' of exceptions.AttributeError object>"
p36
sS'__subclasshook__'
p37
S'<built-in method __subclasshook__ of type object>'
p38
sS'__repr__'
p39
S"<method-wrapper '__repr__' of exceptions.AttributeError object>"
p40
sS'args'
p41
S'("\'NoneType\' object has no attribute \'value\'",)'
p42
sS'__dict__'
p43
S'{}'
p44
sS'__sizeof__'
p45
S'<built-in method __sizeof__ of exceptions.AttributeError object>'
p46
sS'__doc__'
p47
S"'Attribute not found.'"
p48
sS'__init__'
p49
S"<method-wrapper '__init__' of exceptions.AttributeError object>"
p50
sS'__new__'
p51
S'<built-in method __new__ of type object>'
p52
ssS'evalue'
p53
S"'NoneType' object has no attribute 'value'"
p54
sS'request'
p55
ccopy_reg
_reconstructor
p56
(cgluon.html
BEAUTIFY
p57
c__builtin__
object
p58
NtRp59
(dp60
S'attributes'
p61
(dp62
sS'components'
p63
(lp64
g56
(cgluon.html
TABLE
p65
g58
NtRp66
(dp67
g61
(dp68
S'level'
p69
I5
ssS'parent'
p70
Nsg63
(lp71
g56
(cgluon.html
TR
p72
g58
NtRp73
(dp74
g61
(dp75
sg70
g66
sg63
(lp76
g56
(cgluon.html
TD
p77
g58
NtRp78
(dp79
g61
(dp80
S'_style'
p81
S'font-weight:bold;'
p82
ssg70
g73
sg63
(lp83
S'ajax'
p84
asbag56
(g77
g58
NtRp85
(dp86
g61
(dp87
S'_valign'
p88
S'top'
p89
ssg70
g73
sg63
(lp90
S':'
asbag56
(g77
g58
NtRp91
(dp92
g61
(dp93
sg70
g73
sg63
(lp94
g56
(g57
g58
NtRp95
(dp96
g61
(dp97
g69
I5
ssg70
g91
sg63
(lp98
S'False'
p99
asbasbasbag56
(g72
g58
NtRp100
(dp101
g61
(dp102
sg70
g66
sg63
(lp103
g56
(g77
g58
NtRp104
(dp105
g61
(dp106
g81
g82
ssg70
g100
sg63
(lp107
S'application'
p108
asbag56
(g77
g58
NtRp109
(dp110
g61
(dp111
g88
g89
ssg70
g100
sg63
(lp112
S':'
asbag56
(g77
g58
NtRp113
(dp114
g61
(dp115
sg70
g100
sg63
(lp116
g56
(g57
g58
NtRp117
(dp118
g61
(dp119
g69
I5
ssg70
g113
sg63
(lp120
S'examples'
p121
asbasbasbag56
(g72
g58
NtRp122
(dp123
g61
(dp124
sg70
g66
sg63
(lp125
g56
(g77
g58
NtRp126
(dp127
g61
(dp128
g81
g82
ssg70
g122
sg63
(lp129
g41
asbag56
(g77
g58
NtRp130
(dp131
g61
(dp132
g88
g89
ssg70
g122
sg63
(lp133
S':'
asbag56
(g77
g58
NtRp134
(dp135
g61
(dp136
sg70
g122
sg63
(lp137
g56
(g57
g58
NtRp138
(dp139
g61
(dp140
g69
I5
ssg70
g134
sg63
(lp141
g56
(g65
g58
NtRp142
(dp143
g61
(dp144
g69
I4
ssg70
Nsg63
(lp145
sbasbasbasbag56
(g72
g58
NtRp146
(dp147
g61
(dp148
sg70
g66
sg63
(lp149
g56
(g77
g58
NtRp150
(dp151
g61
(dp152
g81
g82
ssg70
g146
sg63
(lp153
S'body'
p154
asbag56
(g77
g58
NtRp155
(dp156
g61
(dp157
g88
g89
ssg70
g146
sg63
(lp158
S':'
asbag56
(g77
g58
NtRp159
(dp160
g61
(dp161
sg70
g146
sg63
(lp162
g56
(g57
g58
NtRp163
(dp164
g61
(dp165
g69
I5
ssg70
g159
sg63
(lp166
S"<open file '<fdopen>', mode 'w+b' at 0x05260D30>"
p167
asbasbasbag56
(g72
g58
NtRp168
(dp169
g61
(dp170
sg70
g66
sg63
(lp171
g56
(g77
g58
NtRp172
(dp173
g61
(dp174
g81
g82
ssg70
g168
sg63
(lp175
S'client'
p176
asbag56
(g77
g58
NtRp177
(dp178
g61
(dp179
g88
g89
ssg70
g168
sg63
(lp180
S':'
asbag56
(g77
g58
NtRp181
(dp182
g61
(dp183
sg70
g168
sg63
(lp184
g56
(g57
g58
NtRp185
(dp186
g61
(dp187
g69
I5
ssg70
g181
sg63
(lp188
S'127.0.0.1'
p189
asbasbasbag56
(g72
g58
NtRp190
(dp191
g61
(dp192
sg70
g66
sg63
(lp193
g56
(g77
g58
NtRp194
(dp195
g61
(dp196
g81
g82
ssg70
g190
sg63
(lp197
S'controller'
p198
asbag56
(g77
g58
NtRp199
(dp200
g61
(dp201
g88
g89
ssg70
g190
sg63
(lp202
S':'
asbag56
(g77
g58
NtRp203
(dp204
g61
(dp205
sg70
g190
sg63
(lp206
g56
(g57
g58
NtRp207
(dp208
g61
(dp209
g69
I5
ssg70
g203
sg63
(lp210
S'transform'
p211
asbasbasbag56
(g72
g58
NtRp212
(dp213
g61
(dp214
sg70
g66
sg63
(lp215
g56
(g77
g58
NtRp216
(dp217
g61
(dp218
g81
g82
ssg70
g212
sg63
(lp219
S'cookies'
p220
asbag56
(g77
g58
NtRp221
(dp222
g61
(dp223
g88
g89
ssg70
g212
sg63
(lp224
S':'
asbag56
(g77
g58
NtRp225
(dp226
g61
(dp227
sg70
g212
sg63
(lp228
g56
(g57
g58
NtRp229
(dp230
g61
(dp231
g69
I5
ssg70
g225
sg63
(lp232
g56
(g65
g58
NtRp233
(dp234
g61
(dp235
g69
I4
ssg70
Nsg63
(lp236
g56
(g72
g58
NtRp237
(dp238
g61
(dp239
sg70
g233
sg63
(lp240
g56
(g77
g58
NtRp241
(dp242
g61
(dp243
g81
g82
ssg70
g237
sg63
(lp244
S'session_id_admin'
p245
asbag56
(g77
g58
NtRp246
(dp247
g61
(dp248
g88
g89
ssg70
g237
sg63
(lp249
S':'
asbag56
(g77
g58
NtRp250
(dp251
g61
(dp252
sg70
g237
sg63
(lp253
g56
(g57
g58
NtRp254
(dp255
g61
(dp256
g69
I4
ssg70
g250
sg63
(lp257
g56
(g65
g58
NtRp258
(dp259
g61
(dp260
g69
I3
ssg70
Nsg63
(lp261
g56
(g72
g58
NtRp262
(dp263
g61
(dp264
sg70
g258
sg63
(lp265
g56
(g77
g58
NtRp266
(dp267
g61
(dp268
g81
g82
ssg70
g262
sg63
(lp269
S'comment'
p270
asbag56
(g77
g58
NtRp271
(dp272
g61
(dp273
g88
g89
ssg70
g262
sg63
(lp274
S':'
asbag56
(g77
g58
NtRp275
(dp276
g61
(dp277
sg70
g262
sg63
(lp278
g56
(g57
g58
NtRp279
(dp280
g61
(dp281
g69
I3
ssg70
g275
sg63
(lp282
S''
asbasbasbag56
(g72
g58
NtRp283
(dp284
g61
(dp285
sg70
g258
sg63
(lp286
g56
(g77
g58
NtRp287
(dp288
g61
(dp289
g81
g82
ssg70
g283
sg63
(lp290
S'domain'
p291
asbag56
(g77
g58
NtRp292
(dp293
g61
(dp294
g88
g89
ssg70
g283
sg63
(lp295
S':'
asbag56
(g77
g58
NtRp296
(dp297
g61
(dp298
sg70
g283
sg63
(lp299
g56
(g57
g58
NtRp300
(dp301
g61
(dp302
g69
I3
ssg70
g296
sg63
(lp303
S''
asbasbasbag56
(g72
g58
NtRp304
(dp305
g61
(dp306
sg70
g258
sg63
(lp307
g56
(g77
g58
NtRp308
(dp309
g61
(dp310
g81
g82
ssg70
g304
sg63
(lp311
S'expires'
p312
asbag56
(g77
g58
NtRp313
(dp314
g61
(dp315
g88
g89
ssg70
g304
sg63
(lp316
S':'
asbag56
(g77
g58
NtRp317
(dp318
g61
(dp319
sg70
g304
sg63
(lp320
g56
(g57
g58
NtRp321
(dp322
g61
(dp323
g69
I3
ssg70
g317
sg63
(lp324
S''
asbasbasbag56
(g72
g58
NtRp325
(dp326
g61
(dp327
sg70
g258
sg63
(lp328
g56
(g77
g58
NtRp329
(dp330
g61
(dp331
g81
g82
ssg70
g325
sg63
(lp332
S'httponly'
p333
asbag56
(g77
g58
NtRp334
(dp335
g61
(dp336
g88
g89
ssg70
g325
sg63
(lp337
S':'
asbag56
(g77
g58
NtRp338
(dp339
g61
(dp340
sg70
g325
sg63
(lp341
g56
(g57
g58
NtRp342
(dp343
g61
(dp344
g69
I3
ssg70
g338
sg63
(lp345
S''
asbasbasbag56
(g72
g58
NtRp346
(dp347
g61
(dp348
sg70
g258
sg63
(lp349
g56
(g77
g58
NtRp350
(dp351
g61
(dp352
g81
g82
ssg70
g346
sg63
(lp353
S'max-age'
p354
asbag56
(g77
g58
NtRp355
(dp356
g61
(dp357
g88
g89
ssg70
g346
sg63
(lp358
S':'
asbag56
(g77
g58
NtRp359
(dp360
g61
(dp361
sg70
g346
sg63
(lp362
g56
(g57
g58
NtRp363
(dp364
g61
(dp365
g69
I3
ssg70
g359
sg63
(lp366
S''
asbasbasbag56
(g72
g58
NtRp367
(dp368
g61
(dp369
sg70
g258
sg63
(lp370
g56
(g77
g58
NtRp371
(dp372
g61
(dp373
g81
g82
ssg70
g367
sg63
(lp374
S'path'
p375
asbag56
(g77
g58
NtRp376
(dp377
g61
(dp378
g88
g89
ssg70
g367
sg63
(lp379
S':'
asbag56
(g77
g58
NtRp380
(dp381
g61
(dp382
sg70
g367
sg63
(lp383
g56
(g57
g58
NtRp384
(dp385
g61
(dp386
g69
I3
ssg70
g380
sg63
(lp387
S''
asbasbasbag56
(g72
g58
NtRp388
(dp389
g61
(dp390
sg70
g258
sg63
(lp391
g56
(g77
g58
NtRp392
(dp393
g61
(dp394
g81
g82
ssg70
g388
sg63
(lp395
S'secure'
p396
asbag56
(g77
g58
NtRp397
(dp398
g61
(dp399
g88
g89
ssg70
g388
sg63
(lp400
S':'
asbag56
(g77
g58
NtRp401
(dp402
g61
(dp403
sg70
g388
sg63
(lp404
g56
(g57
g58
NtRp405
(dp406
g61
(dp407
g69
I3
ssg70
g401
sg63
(lp408
S''
asbasbasbag56
(g72
g58
NtRp409
(dp410
g61
(dp411
sg70
g258
sg63
(lp412
g56
(g77
g58
NtRp413
(dp414
g61
(dp415
g81
g82
ssg70
g409
sg63
(lp416
S'version'
p417
asbag56
(g77
g58
NtRp418
(dp419
g61
(dp420
g88
g89
ssg70
g409
sg63
(lp421
S':'
asbag56
(g77
g58
NtRp422
(dp423
g61
(dp424
sg70
g409
sg63
(lp425
g56
(g57
g58
NtRp426
(dp427
g61
(dp428
g69
I3
ssg70
g422
sg63
(lp429
S''
asbasbasbasbasbasbasbag56
(g72
g58
NtRp430
(dp431
g61
(dp432
sg70
g233
sg63
(lp433
g56
(g77
g58
NtRp434
(dp435
g61
(dp436
g81
g82
ssg70
g430
sg63
(lp437
S'session_id_examples'
p438
asbag56
(g77
g58
NtRp439
(dp440
g61
(dp441
g88
g89
ssg70
g430
sg63
(lp442
S':'
asbag56
(g77
g58
NtRp443
(dp444
g61
(dp445
sg70
g430
sg63
(lp446
g56
(g57
g58
NtRp447
(dp448
g61
(dp449
g69
I4
ssg70
g443
sg63
(lp450
g56
(g65
g58
NtRp451
(dp452
g61
(dp453
g69
I3
ssg70
Nsg63
(lp454
g56
(g72
g58
NtRp455
(dp456
g61
(dp457
sg70
g451
sg63
(lp458
g56
(g77
g58
NtRp459
(dp460
g61
(dp461
g81
g82
ssg70
g455
sg63
(lp462
g270
asbag56
(g77
g58
NtRp463
(dp464
g61
(dp465
g88
g89
ssg70
g455
sg63
(lp466
S':'
asbag56
(g77
g58
NtRp467
(dp468
g61
(dp469
sg70
g455
sg63
(lp470
g56
(g57
g58
NtRp471
(dp472
g61
(dp473
g69
I3
ssg70
g467
sg63
(lp474
S''
asbasbasbag56
(g72
g58
NtRp475
(dp476
g61
(dp477
sg70
g451
sg63
(lp478
g56
(g77
g58
NtRp479
(dp480
g61
(dp481
g81
g82
ssg70
g475
sg63
(lp482
g291
asbag56
(g77
g58
NtRp483
(dp484
g61
(dp485
g88
g89
ssg70
g475
sg63
(lp486
S':'
asbag56
(g77
g58
NtRp487
(dp488
g61
(dp489
sg70
g475
sg63
(lp490
g56
(g57
g58
NtRp491
(dp492
g61
(dp493
g69
I3
ssg70
g487
sg63
(lp494
S''
asbasbasbag56
(g72
g58
NtRp495
(dp496
g61
(dp497
sg70
g451
sg63
(lp498
g56
(g77
g58
NtRp499
(dp500
g61
(dp501
g81
g82
ssg70
g495
sg63
(lp502
g312
asbag56
(g77
g58
NtRp503
(dp504
g61
(dp505
g88
g89
ssg70
g495
sg63
(lp506
S':'
asbag56
(g77
g58
NtRp507
(dp508
g61
(dp509
sg70
g495
sg63
(lp510
g56
(g57
g58
NtRp511
(dp512
g61
(dp513
g69
I3
ssg70
g507
sg63
(lp514
S''
asbasbasbag56
(g72
g58
NtRp515
(dp516
g61
(dp517
sg70
g451
sg63
(lp518
g56
(g77
g58
NtRp519
(dp520
g61
(dp521
g81
g82
ssg70
g515
sg63
(lp522
g333
asbag56
(g77
g58
NtRp523
(dp524
g61
(dp525
g88
g89
ssg70
g515
sg63
(lp526
S':'
asbag56
(g77
g58
NtRp527
(dp528
g61
(dp529
sg70
g515
sg63
(lp530
g56
(g57
g58
NtRp531
(dp532
g61
(dp533
g69
I3
ssg70
g527
sg63
(lp534
S''
asbasbasbag56
(g72
g58
NtRp535
(dp536
g61
(dp537
sg70
g451
sg63
(lp538
g56
(g77
g58
NtRp539
(dp540
g61
(dp541
g81
g82
ssg70
g535
sg63
(lp542
g354
asbag56
(g77
g58
NtRp543
(dp544
g61
(dp545
g88
g89
ssg70
g535
sg63
(lp546
S':'
asbag56
(g77
g58
NtRp547
(dp548
g61
(dp549
sg70
g535
sg63
(lp550
g56
(g57
g58
NtRp551
(dp552
g61
(dp553
g69
I3
ssg70
g547
sg63
(lp554
S''
asbasbasbag56
(g72
g58
NtRp555
(dp556
g61
(dp557
sg70
g451
sg63
(lp558
g56
(g77
g58
NtRp559
(dp560
g61
(dp561
g81
g82
ssg70
g555
sg63
(lp562
g375
asbag56
(g77
g58
NtRp563
(dp564
g61
(dp565
g88
g89
ssg70
g555
sg63
(lp566
S':'
asbag56
(g77
g58
NtRp567
(dp568
g61
(dp569
sg70
g555
sg63
(lp570
g56
(g57
g58
NtRp571
(dp572
g61
(dp573
g69
I3
ssg70
g567
sg63
(lp574
S''
asbasbasbag56
(g72
g58
NtRp575
(dp576
g61
(dp577
sg70
g451
sg63
(lp578
g56
(g77
g58
NtRp579
(dp580
g61
(dp581
g81
g82
ssg70
g575
sg63
(lp582
g396
asbag56
(g77
g58
NtRp583
(dp584
g61
(dp585
g88
g89
ssg70
g575
sg63
(lp586
S':'
asbag56
(g77
g58
NtRp587
(dp588
g61
(dp589
sg70
g575
sg63
(lp590
g56
(g57
g58
NtRp591
(dp592
g61
(dp593
g69
I3
ssg70
g587
sg63
(lp594
S''
asbasbasbag56
(g72
g58
NtRp595
(dp596
g61
(dp597
sg70
g451
sg63
(lp598
g56
(g77
g58
NtRp599
(dp600
g61
(dp601
g81
g82
ssg70
g595
sg63
(lp602
g417
asbag56
(g77
g58
NtRp603
(dp604
g61
(dp605
g88
g89
ssg70
g595
sg63
(lp606
S':'
asbag56
(g77
g58
NtRp607
(dp608
g61
(dp609
sg70
g595
sg63
(lp610
g56
(g57
g58
NtRp611
(dp612
g61
(dp613
g69
I3
ssg70
g607
sg63
(lp614
S''
asbasbasbasbasbasbasbag56
(g72
g58
NtRp615
(dp616
g61
(dp617
sg70
g233
sg63
(lp618
g56
(g77
g58
NtRp619
(dp620
g61
(dp621
g81
g82
ssg70
g615
sg63
(lp622
S'session_id_welcome'
p623
asbag56
(g77
g58
NtRp624
(dp625
g61
(dp626
g88
g89
ssg70
g615
sg63
(lp627
S':'
asbag56
(g77
g58
NtRp628
(dp629
g61
(dp630
sg70
g615
sg63
(lp631
g56
(g57
g58
NtRp632
(dp633
g61
(dp634
g69
I4
ssg70
g628
sg63
(lp635
g56
(g65
g58
NtRp636
(dp637
g61
(dp638
g69
I3
ssg70
Nsg63
(lp639
g56
(g72
g58
NtRp640
(dp641
g61
(dp642
sg70
g636
sg63
(lp643
g56
(g77
g58
NtRp644
(dp645
g61
(dp646
g81
g82
ssg70
g640
sg63
(lp647
g270
asbag56
(g77
g58
NtRp648
(dp649
g61
(dp650
g88
g89
ssg70
g640
sg63
(lp651
S':'
asbag56
(g77
g58
NtRp652
(dp653
g61
(dp654
sg70
g640
sg63
(lp655
g56
(g57
g58
NtRp656
(dp657
g61
(dp658
g69
I3
ssg70
g652
sg63
(lp659
S''
asbasbasbag56
(g72
g58
NtRp660
(dp661
g61
(dp662
sg70
g636
sg63
(lp663
g56
(g77
g58
NtRp664
(dp665
g61
(dp666
g81
g82
ssg70
g660
sg63
(lp667
g291
asbag56
(g77
g58
NtRp668
(dp669
g61
(dp670
g88
g89
ssg70
g660
sg63
(lp671
S':'
asbag56
(g77
g58
NtRp672
(dp673
g61
(dp674
sg70
g660
sg63
(lp675
g56
(g57
g58
NtRp676
(dp677
g61
(dp678
g69
I3
ssg70
g672
sg63
(lp679
S''
asbasbasbag56
(g72
g58
NtRp680
(dp681
g61
(dp682
sg70
g636
sg63
(lp683
g56
(g77
g58
NtRp684
(dp685
g61
(dp686
g81
g82
ssg70
g680
sg63
(lp687
g312
asbag56
(g77
g58
NtRp688
(dp689
g61
(dp690
g88
g89
ssg70
g680
sg63
(lp691
S':'
asbag56
(g77
g58
NtRp692
(dp693
g61
(dp694
sg70
g680
sg63
(lp695
g56
(g57
g58
NtRp696
(dp697
g61
(dp698
g69
I3
ssg70
g692
sg63
(lp699
S''
asbasbasbag56
(g72
g58
NtRp700
(dp701
g61
(dp702
sg70
g636
sg63
(lp703
g56
(g77
g58
NtRp704
(dp705
g61
(dp706
g81
g82
ssg70
g700
sg63
(lp707
g333
asbag56
(g77
g58
NtRp708
(dp709
g61
(dp710
g88
g89
ssg70
g700
sg63
(lp711
S':'
asbag56
(g77
g58
NtRp712
(dp713
g61
(dp714
sg70
g700
sg63
(lp715
g56
(g57
g58
NtRp716
(dp717
g61
(dp718
g69
I3
ssg70
g712
sg63
(lp719
S''
asbasbasbag56
(g72
g58
NtRp720
(dp721
g61
(dp722
sg70
g636
sg63
(lp723
g56
(g77
g58
NtRp724
(dp725
g61
(dp726
g81
g82
ssg70
g720
sg63
(lp727
g354
asbag56
(g77
g58
NtRp728
(dp729
g61
(dp730
g88
g89
ssg70
g720
sg63
(lp731
S':'
asbag56
(g77
g58
NtRp732
(dp733
g61
(dp734
sg70
g720
sg63
(lp735
g56
(g57
g58
NtRp736
(dp737
g61
(dp738
g69
I3
ssg70
g732
sg63
(lp739
S''
asbasbasbag56
(g72
g58
NtRp740
(dp741
g61
(dp742
sg70
g636
sg63
(lp743
g56
(g77
g58
NtRp744
(dp745
g61
(dp746
g81
g82
ssg70
g740
sg63
(lp747
g375
asbag56
(g77
g58
NtRp748
(dp749
g61
(dp750
g88
g89
ssg70
g740
sg63
(lp751
S':'
asbag56
(g77
g58
NtRp752
(dp753
g61
(dp754
sg70
g740
sg63
(lp755
g56
(g57
g58
NtRp756
(dp757
g61
(dp758
g69
I3
ssg70
g752
sg63
(lp759
S''
asbasbasbag56
(g72
g58
NtRp760
(dp761
g61
(dp762
sg70
g636
sg63
(lp763
g56
(g77
g58
NtRp764
(dp765
g61
(dp766
g81
g82
ssg70
g760
sg63
(lp767
g396
asbag56
(g77
g58
NtRp768
(dp769
g61
(dp770
g88
g89
ssg70
g760
sg63
(lp771
S':'
asbag56
(g77
g58
NtRp772
(dp773
g61
(dp774
sg70
g760
sg63
(lp775
g56
(g57
g58
NtRp776
(dp777
g61
(dp778
g69
I3
ssg70
g772
sg63
(lp779
S''
asbasbasbag56
(g72
g58
NtRp780
(dp781
g61
(dp782
sg70
g636
sg63
(lp783
g56
(g77
g58
NtRp784
(dp785
g61
(dp786
g81
g82
ssg70
g780
sg63
(lp787
g417
asbag56
(g77
g58
NtRp788
(dp789
g61
(dp790
g88
g89
ssg70
g780
sg63
(lp791
S':'
asbag56
(g77
g58
NtRp792
(dp793
g61
(dp794
sg70
g780
sg63
(lp795
g56
(g57
g58
NtRp796
(dp797
g61
(dp798
g69
I3
ssg70
g792
sg63
(lp799
S''
asbasbasbasbasbasbasbasbasbasbasbag56
(g72
g58
NtRp800
(dp801
g61
(dp802
sg70
g66
sg63
(lp803
g56
(g77
g58
NtRp804
(dp805
g61
(dp806
g81
g82
ssg70
g800
sg63
(lp807
S'env'
p808
asbag56
(g77
g58
NtRp809
(dp810
g61
(dp811
g88
g89
ssg70
g800
sg63
(lp812
S':'
asbag56
(g77
g58
NtRp813
(dp814
g61
(dp815
sg70
g800
sg63
(lp816
g56
(g57
g58
NtRp817
(dp818
g61
(dp819
g69
I5
ssg70
g813
sg63
(lp820
g56
(g65
g58
NtRp821
(dp822
g61
(dp823
g69
I4
ssg70
Nsg63
(lp824
g56
(g72
g58
NtRp825
(dp826
g61
(dp827
sg70
g821
sg63
(lp828
g56
(g77
g58
NtRp829
(dp830
g61
(dp831
g81
g82
ssg70
g825
sg63
(lp832
S'app_folders'
p833
asbag56
(g77
g58
NtRp834
(dp835
g61
(dp836
g88
g89
ssg70
g825
sg63
(lp837
S':'
asbag56
(g77
g58
NtRp838
(dp839
g61
(dp840
sg70
g825
sg63
(lp841
g56
(g57
g58
NtRp842
(dp843
g61
(dp844
g69
I4
ssg70
g838
sg63
(lp845
S"set(['D:\\\\Workbench\\\\private\\\\web2py_src\\\\applications\\\\welcome\\\\', 'D:\\\\Workbench\\\\private\\\\web2py_src\\\\applications\\\\examples\\\\', 'D:\\\\Workbench\\\\private\\\\web2py_src\\\\applications\\\\admin\\\\'])"
p846
asbasbasbag56
(g72
g58
NtRp847
(dp848
g61
(dp849
sg70
g821
sg63
(lp850
g56
(g77
g58
NtRp851
(dp852
g61
(dp853
g81
g82
ssg70
g847
sg63
(lp854
S'applications_parent'
p855
asbag56
(g77
g58
NtRp856
(dp857
g61
(dp858
g88
g89
ssg70
g847
sg63
(lp859
S':'
asbag56
(g77
g58
NtRp860
(dp861
g61
(dp862
sg70
g847
sg63
(lp863
g56
(g57
g58
NtRp864
(dp865
g61
(dp866
g69
I4
ssg70
g860
sg63
(lp867
S'D:\\Workbench\\private\\web2py_src'
p868
asbasbasbag56
(g72
g58
NtRp869
(dp870
g61
(dp871
sg70
g821
sg63
(lp872
g56
(g77
g58
NtRp873
(dp874
g61
(dp875
g81
g82
ssg70
g869
sg63
(lp876
S'comspec'
p877
asbag56
(g77
g58
NtRp878
(dp879
g61
(dp880
g88
g89
ssg70
g869
sg63
(lp881
S':'
asbag56
(g77
g58
NtRp882
(dp883
g61
(dp884
sg70
g869
sg63
(lp885
g56
(g57
g58
NtRp886
(dp887
g61
(dp888
g69
I4
ssg70
g882
sg63
(lp889
S'C:\\Windows\\system32\\cmd.exe'
p890
asbasbasbag56
(g72
g58
NtRp891
(dp892
g61
(dp893
sg70
g821
sg63
(lp894
g56
(g77
g58
NtRp895
(dp896
g61
(dp897
g81
g82
ssg70
g891
sg63
(lp898
S'content_length'
p899
asbag56
(g77
g58
NtRp900
(dp901
g61
(dp902
g88
g89
ssg70
g891
sg63
(lp903
S':'
asbag56
(g77
g58
NtRp904
(dp905
g61
(dp906
sg70
g891
sg63
(lp907
g56
(g57
g58
NtRp908
(dp909
g61
(dp910
g69
I4
ssg70
g904
sg63
(lp911
S'44'
p912
asbasbasbag56
(g72
g58
NtRp913
(dp914
g61
(dp915
sg70
g821
sg63
(lp916
g56
(g77
g58
NtRp917
(dp918
g61
(dp919
g81
g82
ssg70
g913
sg63
(lp920
S'content_type'
p921
asbag56
(g77
g58
NtRp922
(dp923
g61
(dp924
g88
g89
ssg70
g913
sg63
(lp925
S':'
asbag56
(g77
g58
NtRp926
(dp927
g61
(dp928
sg70
g913
sg63
(lp929
g56
(g57
g58
NtRp930
(dp931
g61
(dp932
g69
I4
ssg70
g926
sg63
(lp933
S'multipart/form-data; boundary=----WebKitFormBoundaryynerEomLskLbAIxn'
p934
asbasbasbag56
(g72
g58
NtRp935
(dp936
g61
(dp937
sg70
g821
sg63
(lp938
g56
(g77
g58
NtRp939
(dp940
g61
(dp941
g81
g82
ssg70
g935
sg63
(lp942
S'db_sessions'
p943
asbag56
(g77
g58
NtRp944
(dp945
g61
(dp946
g88
g89
ssg70
g935
sg63
(lp947
S':'
asbag56
(g77
g58
NtRp948
(dp949
g61
(dp950
sg70
g935
sg63
(lp951
g56
(g57
g58
NtRp952
(dp953
g61
(dp954
g69
I4
ssg70
g948
sg63
(lp955
S'set([])'
p956
asbasbasbag56
(g72
g58
NtRp957
(dp958
g61
(dp959
sg70
g821
sg63
(lp960
g56
(g77
g58
NtRp961
(dp962
g61
(dp963
g81
g82
ssg70
g957
sg63
(lp964
S'debugging'
p965
asbag56
(g77
g58
NtRp966
(dp967
g61
(dp968
g88
g89
ssg70
g957
sg63
(lp969
S':'
asbag56
(g77
g58
NtRp970
(dp971
g61
(dp972
sg70
g957
sg63
(lp973
g56
(g57
g58
NtRp974
(dp975
g61
(dp976
g69
I4
ssg70
g970
sg63
(lp977
g99
asbasbasbag56
(g72
g58
NtRp978
(dp979
g61
(dp980
sg70
g821
sg63
(lp981
g56
(g77
g58
NtRp982
(dp983
g61
(dp984
g81
g82
ssg70
g978
sg63
(lp985
S'document_root'
p986
asbag56
(g77
g58
NtRp987
(dp988
g61
(dp989
g88
g89
ssg70
g978
sg63
(lp990
S':'
asbag56
(g77
g58
NtRp991
(dp992
g61
(dp993
sg70
g978
sg63
(lp994
g56
(g57
g58
NtRp995
(dp996
g61
(dp997
g69
I4
ssg70
g991
sg63
(lp998
S'D:/Workbench/documentroot'
p999
asbasbasbag56
(g72
g58
NtRp1000
(dp1001
g61
(dp1002
sg70
g821
sg63
(lp1003
g56
(g77
g58
NtRp1004
(dp1005
g61
(dp1006
g81
g82
ssg70
g1000
sg63
(lp1007
S'gateway_interface'
p1008
asbag56
(g77
g58
NtRp1009
(dp1010
g61
(dp1011
g88
g89
ssg70
g1000
sg63
(lp1012
S':'
asbag56
(g77
g58
NtRp1013
(dp1014
g61
(dp1015
sg70
g1000
sg63
(lp1016
g56
(g57
g58
NtRp1017
(dp1018
g61
(dp1019
g69
I4
ssg70
g1013
sg63
(lp1020
S'CGI/1.1'
p1021
asbasbasbag56
(g72
g58
NtRp1022
(dp1023
g61
(dp1024
sg70
g821
sg63
(lp1025
g56
(g77
g58
NtRp1026
(dp1027
g61
(dp1028
g81
g82
ssg70
g1022
sg63
(lp1029
S'gluon_parent'
p1030
asbag56
(g77
g58
NtRp1031
(dp1032
g61
(dp1033
g88
g89
ssg70
g1022
sg63
(lp1034
S':'
asbag56
(g77
g58
NtRp1035
(dp1036
g61
(dp1037
sg70
g1022
sg63
(lp1038
g56
(g57
g58
NtRp1039
(dp1040
g61
(dp1041
g69
I4
ssg70
g1035
sg63
(lp1042
g868
asbasbasbag56
(g72
g58
NtRp1043
(dp1044
g61
(dp1045
sg70
g821
sg63
(lp1046
g56
(g77
g58
NtRp1047
(dp1048
g61
(dp1049
g81
g82
ssg70
g1043
sg63
(lp1050
S'http_accept'
p1051
asbag56
(g77
g58
NtRp1052
(dp1053
g61
(dp1054
g88
g89
ssg70
g1043
sg63
(lp1055
S':'
asbag56
(g77
g58
NtRp1056
(dp1057
g61
(dp1058
sg70
g1043
sg63
(lp1059
g56
(g57
g58
NtRp1060
(dp1061
g61
(dp1062
g69
I4
ssg70
g1056
sg63
(lp1063
S'text/html,application/xhtml+xml,application/xml;q=0.9,*/*;q=0.8'
p1064
asbasbasbag56
(g72
g58
NtRp1065
(dp1066
g61
(dp1067
sg70
g821
sg63
(lp1068
g56
(g77
g58
NtRp1069
(dp1070
g61
(dp1071
g81
g82
ssg70
g1065
sg63
(lp1072
S'http_accept_charset'
p1073
asbag56
(g77
g58
NtRp1074
(dp1075
g61
(dp1076
g88
g89
ssg70
g1065
sg63
(lp1077
S':'
asbag56
(g77
g58
NtRp1078
(dp1079
g61
(dp1080
sg70
g1065
sg63
(lp1081
g56
(g57
g58
NtRp1082
(dp1083
g61
(dp1084
g69
I4
ssg70
g1078
sg63
(lp1085
S'GBK,utf-8;q=0.7,*;q=0.3'
p1086
asbasbasbag56
(g72
g58
NtRp1087
(dp1088
g61
(dp1089
sg70
g821
sg63
(lp1090
g56
(g77
g58
NtRp1091
(dp1092
g61
(dp1093
g81
g82
ssg70
g1087
sg63
(lp1094
S'http_accept_encoding'
p1095
asbag56
(g77
g58
NtRp1096
(dp1097
g61
(dp1098
g88
g89
ssg70
g1087
sg63
(lp1099
S':'
asbag56
(g77
g58
NtRp1100
(dp1101
g61
(dp1102
sg70
g1087
sg63
(lp1103
g56
(g57
g58
NtRp1104
(dp1105
g61
(dp1106
g69
I4
ssg70
g1100
sg63
(lp1107
S'gzip,deflate,sdch'
p1108
asbasbasbag56
(g72
g58
NtRp1109
(dp1110
g61
(dp1111
sg70
g821
sg63
(lp1112
g56
(g77
g58
NtRp1113
(dp1114
g61
(dp1115
g81
g82
ssg70
g1109
sg63
(lp1116
S'http_accept_language'
p1117
asbag56
(g77
g58
NtRp1118
(dp1119
g61
(dp1120
g88
g89
ssg70
g1109
sg63
(lp1121
S':'
asbag56
(g77
g58
NtRp1122
(dp1123
g61
(dp1124
sg70
g1109
sg63
(lp1125
g56
(g57
g58
NtRp1126
(dp1127
g61
(dp1128
g69
I4
ssg70
g1122
sg63
(lp1129
S'zh-CN,zh;q=0.8'
p1130
asbasbasbag56
(g72
g58
NtRp1131
(dp1132
g61
(dp1133
sg70
g821
sg63
(lp1134
g56
(g77
g58
NtRp1135
(dp1136
g61
(dp1137
g81
g82
ssg70
g1131
sg63
(lp1138
S'http_cache_control'
p1139
asbag56
(g77
g58
NtRp1140
(dp1141
g61
(dp1142
g88
g89
ssg70
g1131
sg63
(lp1143
S':'
asbag56
(g77
g58
NtRp1144
(dp1145
g61
(dp1146
sg70
g1131
sg63
(lp1147
g56
(g57
g58
NtRp1148
(dp1149
g61
(dp1150
g69
I4
ssg70
g1144
sg63
(lp1151
S'max-age=0'
p1152
asbasbasbag56
(g72
g58
NtRp1153
(dp1154
g61
(dp1155
sg70
g821
sg63
(lp1156
g56
(g77
g58
NtRp1157
(dp1158
g61
(dp1159
g81
g82
ssg70
g1153
sg63
(lp1160
S'http_connection'
p1161
asbag56
(g77
g58
NtRp1162
(dp1163
g61
(dp1164
g88
g89
ssg70
g1153
sg63
(lp1165
S':'
asbag56
(g77
g58
NtRp1166
(dp1167
g61
(dp1168
sg70
g1153
sg63
(lp1169
g56
(g57
g58
NtRp1170
(dp1171
g61
(dp1172
g69
I4
ssg70
g1166
sg63
(lp1173
S'keep-alive'
p1174
asbasbasbag56
(g72
g58
NtRp1175
(dp1176
g61
(dp1177
sg70
g821
sg63
(lp1178
g56
(g77
g58
NtRp1179
(dp1180
g61
(dp1181
g81
g82
ssg70
g1175
sg63
(lp1182
S'http_cookie'
p1183
asbag56
(g77
g58
NtRp1184
(dp1185
g61
(dp1186
g88
g89
ssg70
g1175
sg63
(lp1187
S':'
asbag56
(g77
g58
NtRp1188
(dp1189
g61
(dp1190
sg70
g1175
sg63
(lp1191
g56
(g57
g58
NtRp1192
(dp1193
g61
(dp1194
g69
I4
ssg70
g1188
sg63
(lp1195
S'session_id_welcome=127.0.0.1-8fd1c522-eb06-41bf-9a95-c4b822b521ee; session_id_admin=127.0.0.1-ff48f25e-6c97-4890-a878-ca73335d6648; session_id_examples=127.0.0.1-74cdd304-417e-44a7-ae7c-4c8c3c432899'
p1196
asbasbasbag56
(g72
g58
NtRp1197
(dp1198
g61
(dp1199
sg70
g821
sg63
(lp1200
g56
(g77
g58
NtRp1201
(dp1202
g61
(dp1203
g81
g82
ssg70
g1197
sg63
(lp1204
S'http_host'
p1205
asbag56
(g77
g58
NtRp1206
(dp1207
g61
(dp1208
g88
g89
ssg70
g1197
sg63
(lp1209
S':'
asbag56
(g77
g58
NtRp1210
(dp1211
g61
(dp1212
sg70
g1197
sg63
(lp1213
g56
(g57
g58
NtRp1214
(dp1215
g61
(dp1216
g69
I4
ssg70
g1210
sg63
(lp1217
S'localhost'
p1218
asbasbasbag56
(g72
g58
NtRp1219
(dp1220
g61
(dp1221
sg70
g821
sg63
(lp1222
g56
(g77
g58
NtRp1223
(dp1224
g61
(dp1225
g81
g82
ssg70
g1219
sg63
(lp1226
S'http_origin'
p1227
asbag56
(g77
g58
NtRp1228
(dp1229
g61
(dp1230
g88
g89
ssg70
g1219
sg63
(lp1231
S':'
asbag56
(g77
g58
NtRp1232
(dp1233
g61
(dp1234
sg70
g1219
sg63
(lp1235
g56
(g57
g58
NtRp1236
(dp1237
g61
(dp1238
g69
I4
ssg70
g1232
sg63
(lp1239
S'http://localhost'
p1240
asbasbasbag56
(g72
g58
NtRp1241
(dp1242
g61
(dp1243
sg70
g821
sg63
(lp1244
g56
(g77
g58
NtRp1245
(dp1246
g61
(dp1247
g81
g82
ssg70
g1241
sg63
(lp1248
S'http_referer'
p1249
asbag56
(g77
g58
NtRp1250
(dp1251
g61
(dp1252
g88
g89
ssg70
g1241
sg63
(lp1253
S':'
asbag56
(g77
g58
NtRp1254
(dp1255
g61
(dp1256
sg70
g1241
sg63
(lp1257
g56
(g57
g58
NtRp1258
(dp1259
g61
(dp1260
g69
I4
ssg70
g1254
sg63
(lp1261
S'http://localhost/examples/transform/index'
p1262
asbasbasbag56
(g72
g58
NtRp1263
(dp1264
g61
(dp1265
sg70
g821
sg63
(lp1266
g56
(g77
g58
NtRp1267
(dp1268
g61
(dp1269
g81
g82
ssg70
g1263
sg63
(lp1270
S'http_user_agent'
p1271
asbag56
(g77
g58
NtRp1272
(dp1273
g61
(dp1274
g88
g89
ssg70
g1263
sg63
(lp1275
S':'
asbag56
(g77
g58
NtRp1276
(dp1277
g61
(dp1278
sg70
g1263
sg63
(lp1279
g56
(g57
g58
NtRp1280
(dp1281
g61
(dp1282
g69
I4
ssg70
g1276
sg63
(lp1283
S'Mozilla/5.0 (Windows NT 6.1) AppleWebKit/535.11 (KHTML, like Gecko) Chrome/17.0.963.66 Safari/535.11'
p1284
asbasbasbag56
(g72
g58
NtRp1285
(dp1286
g61
(dp1287
sg70
g821
sg63
(lp1288
g56
(g77
g58
NtRp1289
(dp1290
g61
(dp1291
g81
g82
ssg70
g1285
sg63
(lp1292
S'is_jython'
p1293
asbag56
(g77
g58
NtRp1294
(dp1295
g61
(dp1296
g88
g89
ssg70
g1285
sg63
(lp1297
S':'
asbag56
(g77
g58
NtRp1298
(dp1299
g61
(dp1300
sg70
g1285
sg63
(lp1301
g56
(g57
g58
NtRp1302
(dp1303
g61
(dp1304
g69
I4
ssg70
g1298
sg63
(lp1305
g99
asbasbasbag56
(g72
g58
NtRp1306
(dp1307
g61
(dp1308
sg70
g821
sg63
(lp1309
g56
(g77
g58
NtRp1310
(dp1311
g61
(dp1312
g81
g82
ssg70
g1306
sg63
(lp1313
S'mod_wsgi_application_group'
p1314
asbag56
(g77
g58
NtRp1315
(dp1316
g61
(dp1317
g88
g89
ssg70
g1306
sg63
(lp1318
S':'
asbag56
(g77
g58
NtRp1319
(dp1320
g61
(dp1321
sg70
g1306
sg63
(lp1322
g56
(g57
g58
NtRp1323
(dp1324
g61
(dp1325
g69
I4
ssg70
g1319
sg63
(lp1326
S'XIAOFTANG-NB.tencent.com|'
p1327
asbasbasbag56
(g72
g58
NtRp1328
(dp1329
g61
(dp1330
sg70
g821
sg63
(lp1331
g56
(g77
g58
NtRp1332
(dp1333
g61
(dp1334
g81
g82
ssg70
g1328
sg63
(lp1335
S'mod_wsgi_callable_object'
p1336
asbag56
(g77
g58
NtRp1337
(dp1338
g61
(dp1339
g88
g89
ssg70
g1328
sg63
(lp1340
S':'
asbag56
(g77
g58
NtRp1341
(dp1342
g61
(dp1343
sg70
g1328
sg63
(lp1344
g56
(g57
g58
NtRp1345
(dp1346
g61
(dp1347
g69
I4
ssg70
g1341
sg63
(lp1348
S'application'
p1349
asbasbasbag56
(g72
g58
NtRp1350
(dp1351
g61
(dp1352
sg70
g821
sg63
(lp1353
g56
(g77
g58
NtRp1354
(dp1355
g61
(dp1356
g81
g82
ssg70
g1350
sg63
(lp1357
S'mod_wsgi_handler_script'
p1358
asbag56
(g77
g58
NtRp1359
(dp1360
g61
(dp1361
g88
g89
ssg70
g1350
sg63
(lp1362
S':'
asbag56
(g77
g58
NtRp1363
(dp1364
g61
(dp1365
sg70
g1350
sg63
(lp1366
g56
(g57
g58
NtRp1367
(dp1368
g61
(dp1369
g69
I4
ssg70
g1363
sg63
(lp1370
S''
asbasbasbag56
(g72
g58
NtRp1371
(dp1372
g61
(dp1373
sg70
g821
sg63
(lp1374
g56
(g77
g58
NtRp1375
(dp1376
g61
(dp1377
g81
g82
ssg70
g1371
sg63
(lp1378
S'mod_wsgi_input_chunked'
p1379
asbag56
(g77
g58
NtRp1380
(dp1381
g61
(dp1382
g88
g89
ssg70
g1371
sg63
(lp1383
S':'
asbag56
(g77
g58
NtRp1384
(dp1385
g61
(dp1386
sg70
g1371
sg63
(lp1387
g56
(g57
g58
NtRp1388
(dp1389
g61
(dp1390
g69
I4
ssg70
g1384
sg63
(lp1391
S'0'
asbasbasbag56
(g72
g58
NtRp1392
(dp1393
g61
(dp1394
sg70
g821
sg63
(lp1395
g56
(g77
g58
NtRp1396
(dp1397
g61
(dp1398
g81
g82
ssg70
g1392
sg63
(lp1399
S'mod_wsgi_process_group'
p1400
asbag56
(g77
g58
NtRp1401
(dp1402
g61
(dp1403
g88
g89
ssg70
g1392
sg63
(lp1404
S':'
asbag56
(g77
g58
NtRp1405
(dp1406
g61
(dp1407
sg70
g1392
sg63
(lp1408
g56
(g57
g58
NtRp1409
(dp1410
g61
(dp1411
g69
I4
ssg70
g1405
sg63
(lp1412
S''
asbasbasbag56
(g72
g58
NtRp1413
(dp1414
g61
(dp1415
sg70
g821
sg63
(lp1416
g56
(g77
g58
NtRp1417
(dp1418
g61
(dp1419
g81
g82
ssg70
g1413
sg63
(lp1420
S'mod_wsgi_request_handler'
p1421
asbag56
(g77
g58
NtRp1422
(dp1423
g61
(dp1424
g88
g89
ssg70
g1413
sg63
(lp1425
S':'
asbag56
(g77
g58
NtRp1426
(dp1427
g61
(dp1428
sg70
g1413
sg63
(lp1429
g56
(g57
g58
NtRp1430
(dp1431
g61
(dp1432
g69
I4
ssg70
g1426
sg63
(lp1433
S'wsgi-script'
p1434
asbasbasbag56
(g72
g58
NtRp1435
(dp1436
g61
(dp1437
sg70
g821
sg63
(lp1438
g56
(g77
g58
NtRp1439
(dp1440
g61
(dp1441
g81
g82
ssg70
g1435
sg63
(lp1442
S'mod_wsgi_script_reloading'
p1443
asbag56
(g77
g58
NtRp1444
(dp1445
g61
(dp1446
g88
g89
ssg70
g1435
sg63
(lp1447
S':'
asbag56
(g77
g58
NtRp1448
(dp1449
g61
(dp1450
sg70
g1435
sg63
(lp1451
g56
(g57
g58
NtRp1452
(dp1453
g61
(dp1454
g69
I4
ssg70
g1448
sg63
(lp1455
S'1'
asbasbasbag56
(g72
g58
NtRp1456
(dp1457
g61
(dp1458
sg70
g821
sg63
(lp1459
g56
(g77
g58
NtRp1460
(dp1461
g61
(dp1462
g81
g82
ssg70
g1456
sg63
(lp1463
S'mod_wsgi_version'
p1464
asbag56
(g77
g58
NtRp1465
(dp1466
g61
(dp1467
g88
g89
ssg70
g1456
sg63
(lp1468
S':'
asbag56
(g77
g58
NtRp1469
(dp1470
g61
(dp1471
sg70
g1456
sg63
(lp1472
g56
(g57
g58
NtRp1473
(dp1474
g61
(dp1475
g69
I4
ssg70
g1469
sg63
(lp1476
g56
(g65
g58
NtRp1477
(dp1478
g61
(dp1479
g69
I3
ssg70
Nsg63
(lp1480
g56
(g72
g58
NtRp1481
(dp1482
g61
(dp1483
sg70
g1477
sg63
(lp1484
g56
(g77
g58
NtRp1485
(dp1486
g61
(dp1487
sg70
g1481
sg63
(lp1488
g56
(g57
g58
NtRp1489
(dp1490
g61
(dp1491
g69
I3
ssg70
g1485
sg63
(lp1492
S'3'
asbasbasbag56
(g72
g58
NtRp1493
(dp1494
g61
(dp1495
sg70
g1477
sg63
(lp1496
g56
(g77
g58
NtRp1497
(dp1498
g61
(dp1499
sg70
g1493
sg63
(lp1500
g56
(g57
g58
NtRp1501
(dp1502
g61
(dp1503
g69
I3
ssg70
g1497
sg63
(lp1504
S'3'
asbasbasbasbasbasbasbag56
(g72
g58
NtRp1505
(dp1506
g61
(dp1507
sg70
g821
sg63
(lp1508
g56
(g77
g58
NtRp1509
(dp1510
g61
(dp1511
g81
g82
ssg70
g1505
sg63
(lp1512
S'path_info'
p1513
asbag56
(g77
g58
NtRp1514
(dp1515
g61
(dp1516
g88
g89
ssg70
g1505
sg63
(lp1517
S':'
asbag56
(g77
g58
NtRp1518
(dp1519
g61
(dp1520
sg70
g1505
sg63
(lp1521
g56
(g57
g58
NtRp1522
(dp1523
g61
(dp1524
g69
I4
ssg70
g1518
sg63
(lp1525
S'/examples/transform/upload'
p1526
asbasbasbag56
(g72
g58
NtRp1527
(dp1528
g61
(dp1529
sg70
g821
sg63
(lp1530
g56
(g77
g58
NtRp1531
(dp1532
g61
(dp1533
g81
g82
ssg70
g1527
sg63
(lp1534
S'path_translated'
p1535
asbag56
(g77
g58
NtRp1536
(dp1537
g61
(dp1538
g88
g89
ssg70
g1527
sg63
(lp1539
S':'
asbag56
(g77
g58
NtRp1540
(dp1541
g61
(dp1542
sg70
g1527
sg63
(lp1543
g56
(g57
g58
NtRp1544
(dp1545
g61
(dp1546
g69
I4
ssg70
g1540
sg63
(lp1547
S'D:\\Workbench\\private\\web2py_src\\wsgihandler.py\\examples\\transform\\upload'
p1548
asbasbasbag56
(g72
g58
NtRp1549
(dp1550
g61
(dp1551
sg70
g821
sg63
(lp1552
g56
(g77
g58
NtRp1553
(dp1554
g61
(dp1555
g81
g82
ssg70
g1549
sg63
(lp1556
S'pathext'
p1557
asbag56
(g77
g58
NtRp1558
(dp1559
g61
(dp1560
g88
g89
ssg70
g1549
sg63
(lp1561
S':'
asbag56
(g77
g58
NtRp1562
(dp1563
g61
(dp1564
sg70
g1549
sg63
(lp1565
g56
(g57
g58
NtRp1566
(dp1567
g61
(dp1568
g69
I4
ssg70
g1562
sg63
(lp1569
S'.COM;.EXE;.BAT;.CMD;.VBS;.VBE;.JS;.JSE;.WSF;.WSH;.MSC;.py;.pyw'
p1570
asbasbasbag56
(g72
g58
NtRp1571
(dp1572
g61
(dp1573
sg70
g821
sg63
(lp1574
g56
(g77
g58
NtRp1575
(dp1576
g61
(dp1577
g81
g82
ssg70
g1571
sg63
(lp1578
S'query_string'
p1579
asbag56
(g77
g58
NtRp1580
(dp1581
g61
(dp1582
g88
g89
ssg70
g1571
sg63
(lp1583
S':'
asbag56
(g77
g58
NtRp1584
(dp1585
g61
(dp1586
sg70
g1571
sg63
(lp1587
g56
(g57
g58
NtRp1588
(dp1589
g61
(dp1590
g69
I4
ssg70
g1584
sg63
(lp1591
S''
asbasbasbag56
(g72
g58
NtRp1592
(dp1593
g61
(dp1594
sg70
g821
sg63
(lp1595
g56
(g77
g58
NtRp1596
(dp1597
g61
(dp1598
g81
g82
ssg70
g1592
sg63
(lp1599
S'remote_addr'
p1600
asbag56
(g77
g58
NtRp1601
(dp1602
g61
(dp1603
g88
g89
ssg70
g1592
sg63
(lp1604
S':'
asbag56
(g77
g58
NtRp1605
(dp1606
g61
(dp1607
sg70
g1592
sg63
(lp1608
g56
(g57
g58
NtRp1609
(dp1610
g61
(dp1611
g69
I4
ssg70
g1605
sg63
(lp1612
g189
asbasbasbag56
(g72
g58
NtRp1613
(dp1614
g61
(dp1615
sg70
g821
sg63
(lp1616
g56
(g77
g58
NtRp1617
(dp1618
g61
(dp1619
g81
g82
ssg70
g1613
sg63
(lp1620
S'remote_port'
p1621
asbag56
(g77
g58
NtRp1622
(dp1623
g61
(dp1624
g88
g89
ssg70
g1613
sg63
(lp1625
S':'
asbag56
(g77
g58
NtRp1626
(dp1627
g61
(dp1628
sg70
g1613
sg63
(lp1629
g56
(g57
g58
NtRp1630
(dp1631
g61
(dp1632
g69
I4
ssg70
g1626
sg63
(lp1633
S'27838'
p1634
asbasbasbag56
(g72
g58
NtRp1635
(dp1636
g61
(dp1637
sg70
g821
sg63
(lp1638
g56
(g77
g58
NtRp1639
(dp1640
g61
(dp1641
g81
g82
ssg70
g1635
sg63
(lp1642
S'request_method'
p1643
asbag56
(g77
g58
NtRp1644
(dp1645
g61
(dp1646
g88
g89
ssg70
g1635
sg63
(lp1647
S':'
asbag56
(g77
g58
NtRp1648
(dp1649
g61
(dp1650
sg70
g1635
sg63
(lp1651
g56
(g57
g58
NtRp1652
(dp1653
g61
(dp1654
g69
I4
ssg70
g1648
sg63
(lp1655
S'POST'
p1656
asbasbasbag56
(g72
g58
NtRp1657
(dp1658
g61
(dp1659
sg70
g821
sg63
(lp1660
g56
(g77
g58
NtRp1661
(dp1662
g61
(dp1663
g81
g82
ssg70
g1657
sg63
(lp1664
S'request_uri'
p1665
asbag56
(g77
g58
NtRp1666
(dp1667
g61
(dp1668
g88
g89
ssg70
g1657
sg63
(lp1669
S':'
asbag56
(g77
g58
NtRp1670
(dp1671
g61
(dp1672
sg70
g1657
sg63
(lp1673
g56
(g57
g58
NtRp1674
(dp1675
g61
(dp1676
g69
I4
ssg70
g1670
sg63
(lp1677
S'/examples/transform/upload'
p1678
asbasbasbag56
(g72
g58
NtRp1679
(dp1680
g61
(dp1681
sg70
g821
sg63
(lp1682
g56
(g77
g58
NtRp1683
(dp1684
g61
(dp1685
g81
g82
ssg70
g1679
sg63
(lp1686
S'script_filename'
p1687
asbag56
(g77
g58
NtRp1688
(dp1689
g61
(dp1690
g88
g89
ssg70
g1679
sg63
(lp1691
S':'
asbag56
(g77
g58
NtRp1692
(dp1693
g61
(dp1694
sg70
g1679
sg63
(lp1695
g56
(g57
g58
NtRp1696
(dp1697
g61
(dp1698
g69
I4
ssg70
g1692
sg63
(lp1699
S'D:/Workbench/private/web2py_src/wsgihandler.py'
p1700
asbasbasbag56
(g72
g58
NtRp1701
(dp1702
g61
(dp1703
sg70
g821
sg63
(lp1704
g56
(g77
g58
NtRp1705
(dp1706
g61
(dp1707
g81
g82
ssg70
g1701
sg63
(lp1708
S'script_name'
p1709
asbag56
(g77
g58
NtRp1710
(dp1711
g61
(dp1712
g88
g89
ssg70
g1701
sg63
(lp1713
S':'
asbag56
(g77
g58
NtRp1714
(dp1715
g61
(dp1716
sg70
g1701
sg63
(lp1717
g56
(g57
g58
NtRp1718
(dp1719
g61
(dp1720
g69
I4
ssg70
g1714
sg63
(lp1721
S''
asbasbasbag56
(g72
g58
NtRp1722
(dp1723
g61
(dp1724
sg70
g821
sg63
(lp1725
g56
(g77
g58
NtRp1726
(dp1727
g61
(dp1728
g81
g82
ssg70
g1722
sg63
(lp1729
S'server_addr'
p1730
asbag56
(g77
g58
NtRp1731
(dp1732
g61
(dp1733
g88
g89
ssg70
g1722
sg63
(lp1734
S':'
asbag56
(g77
g58
NtRp1735
(dp1736
g61
(dp1737
sg70
g1722
sg63
(lp1738
g56
(g57
g58
NtRp1739
(dp1740
g61
(dp1741
g69
I4
ssg70
g1735
sg63
(lp1742
S'127.0.0.1'
p1743
asbasbasbag56
(g72
g58
NtRp1744
(dp1745
g61
(dp1746
sg70
g821
sg63
(lp1747
g56
(g77
g58
NtRp1748
(dp1749
g61
(dp1750
g81
g82
ssg70
g1744
sg63
(lp1751
S'server_admin'
p1752
asbag56
(g77
g58
NtRp1753
(dp1754
g61
(dp1755
g88
g89
ssg70
g1744
sg63
(lp1756
S':'
asbag56
(g77
g58
NtRp1757
(dp1758
g61
(dp1759
sg70
g1744
sg63
(lp1760
g56
(g57
g58
NtRp1761
(dp1762
g61
(dp1763
g69
I4
ssg70
g1757
sg63
(lp1764
S'admin@tencent.com'
p1765
asbasbasbag56
(g72
g58
NtRp1766
(dp1767
g61
(dp1768
sg70
g821
sg63
(lp1769
g56
(g77
g58
NtRp1770
(dp1771
g61
(dp1772
g81
g82
ssg70
g1766
sg63
(lp1773
S'server_name'
p1774
asbag56
(g77
g58
NtRp1775
(dp1776
g61
(dp1777
g88
g89
ssg70
g1766
sg63
(lp1778
S':'
asbag56
(g77
g58
NtRp1779
(dp1780
g61
(dp1781
sg70
g1766
sg63
(lp1782
g56
(g57
g58
NtRp1783
(dp1784
g61
(dp1785
g69
I4
ssg70
g1779
sg63
(lp1786
S'localhost'
p1787
asbasbasbag56
(g72
g58
NtRp1788
(dp1789
g61
(dp1790
sg70
g821
sg63
(lp1791
g56
(g77
g58
NtRp1792
(dp1793
g61
(dp1794
g81
g82
ssg70
g1788
sg63
(lp1795
S'server_port'
p1796
asbag56
(g77
g58
NtRp1797
(dp1798
g61
(dp1799
g88
g89
ssg70
g1788
sg63
(lp1800
S':'
asbag56
(g77
g58
NtRp1801
(dp1802
g61
(dp1803
sg70
g1788
sg63
(lp1804
g56
(g57
g58
NtRp1805
(dp1806
g61
(dp1807
g69
I4
ssg70
g1801
sg63
(lp1808
S'80'
p1809
asbasbasbag56
(g72
g58
NtRp1810
(dp1811
g61
(dp1812
sg70
g821
sg63
(lp1813
g56
(g77
g58
NtRp1814
(dp1815
g61
(dp1816
g81
g82
ssg70
g1810
sg63
(lp1817
S'server_protocol'
p1818
asbag56
(g77
g58
NtRp1819
(dp1820
g61
(dp1821
g88
g89
ssg70
g1810
sg63
(lp1822
S':'
asbag56
(g77
g58
NtRp1823
(dp1824
g61
(dp1825
sg70
g1810
sg63
(lp1826
g56
(g57
g58
NtRp1827
(dp1828
g61
(dp1829
g69
I4
ssg70
g1823
sg63
(lp1830
S'HTTP/1.1'
p1831
asbasbasbag56
(g72
g58
NtRp1832
(dp1833
g61
(dp1834
sg70
g821
sg63
(lp1835
g56
(g77
g58
NtRp1836
(dp1837
g61
(dp1838
g81
g82
ssg70
g1832
sg63
(lp1839
S'server_signature'
p1840
asbag56
(g77
g58
NtRp1841
(dp1842
g61
(dp1843
g88
g89
ssg70
g1832
sg63
(lp1844
S':'
asbag56
(g77
g58
NtRp1845
(dp1846
g61
(dp1847
sg70
g1832
sg63
(lp1848
g56
(g57
g58
NtRp1849
(dp1850
g61
(dp1851
g69
I4
ssg70
g1845
sg63
(lp1852
S''
asbasbasbag56
(g72
g58
NtRp1853
(dp1854
g61
(dp1855
sg70
g821
sg63
(lp1856
g56
(g77
g58
NtRp1857
(dp1858
g61
(dp1859
g81
g82
ssg70
g1853
sg63
(lp1860
S'server_software'
p1861
asbag56
(g77
g58
NtRp1862
(dp1863
g61
(dp1864
g88
g89
ssg70
g1853
sg63
(lp1865
S':'
asbag56
(g77
g58
NtRp1866
(dp1867
g61
(dp1868
sg70
g1853
sg63
(lp1869
g56
(g57
g58
NtRp1870
(dp1871
g61
(dp1872
g69
I4
ssg70
g1866
sg63
(lp1873
S'Apache/2.2.21 (Win32) PHP/5.2.17 mod_wsgi/3.3 Python/2.7.2'
p1874
asbasbasbag56
(g72
g58
NtRp1875
(dp1876
g61
(dp1877
sg70
g821
sg63
(lp1878
g56
(g77
g58
NtRp1879
(dp1880
g61
(dp1881
g81
g82
ssg70
g1875
sg63
(lp1882
S'systemroot'
p1883
asbag56
(g77
g58
NtRp1884
(dp1885
g61
(dp1886
g88
g89
ssg70
g1875
sg63
(lp1887
S':'
asbag56
(g77
g58
NtRp1888
(dp1889
g61
(dp1890
sg70
g1875
sg63
(lp1891
g56
(g57
g58
NtRp1892
(dp1893
g61
(dp1894
g69
I4
ssg70
g1888
sg63
(lp1895
S'C:\\Windows'
p1896
asbasbasbag56
(g72
g58
NtRp1897
(dp1898
g61
(dp1899
sg70
g821
sg63
(lp1900
g56
(g77
g58
NtRp1901
(dp1902
g61
(dp1903
g81
g82
ssg70
g1897
sg63
(lp1904
S'web2py_path'
p1905
asbag56
(g77
g58
NtRp1906
(dp1907
g61
(dp1908
g88
g89
ssg70
g1897
sg63
(lp1909
S':'
asbag56
(g77
g58
NtRp1910
(dp1911
g61
(dp1912
sg70
g1897
sg63
(lp1913
g56
(g57
g58
NtRp1914
(dp1915
g61
(dp1916
g69
I4
ssg70
g1910
sg63
(lp1917
g868
asbasbasbag56
(g72
g58
NtRp1918
(dp1919
g61
(dp1920
sg70
g821
sg63
(lp1921
g56
(g77
g58
NtRp1922
(dp1923
g61
(dp1924
g81
g82
ssg70
g1918
sg63
(lp1925
S'web2py_version'
p1926
asbag56
(g77
g58
NtRp1927
(dp1928
g61
(dp1929
g88
g89
ssg70
g1918
sg63
(lp1930
S':'
asbag56
(g77
g58
NtRp1931
(dp1932
g61
(dp1933
sg70
g1918
sg63
(lp1934
g56
(g57
g58
NtRp1935
(dp1936
g61
(dp1937
g69
I4
ssg70
g1931
sg63
(lp1938
g56
(g65
g58
NtRp1939
(dp1940
g61
(dp1941
g69
I3
ssg70
Nsg63
(lp1942
g56
(g72
g58
NtRp1943
(dp1944
g61
(dp1945
sg70
g1939
sg63
(lp1946
g56
(g77
g58
NtRp1947
(dp1948
g61
(dp1949
sg70
g1943
sg63
(lp1950
g56
(g57
g58
NtRp1951
(dp1952
g61
(dp1953
g69
I3
ssg70
g1947
sg63
(lp1954
S'1'
asbasbasbag56
(g72
g58
NtRp1955
(dp1956
g61
(dp1957
sg70
g1939
sg63
(lp1958
g56
(g77
g58
NtRp1959
(dp1960
g61
(dp1961
sg70
g1955
sg63
(lp1962
g56
(g57
g58
NtRp1963
(dp1964
g61
(dp1965
g69
I3
ssg70
g1959
sg63
(lp1966
S'99'
p1967
asbasbasbag56
(g72
g58
NtRp1968
(dp1969
g61
(dp1970
sg70
g1939
sg63
(lp1971
g56
(g77
g58
NtRp1972
(dp1973
g61
(dp1974
sg70
g1968
sg63
(lp1975
g56
(g57
g58
NtRp1976
(dp1977
g61
(dp1978
g69
I3
ssg70
g1972
sg63
(lp1979
S'2'
asbasbasbag56
(g72
g58
NtRp1980
(dp1981
g61
(dp1982
sg70
g1939
sg63
(lp1983
g56
(g77
g58
NtRp1984
(dp1985
g61
(dp1986
sg70
g1980
sg63
(lp1987
g56
(g57
g58
NtRp1988
(dp1989
g61
(dp1990
g69
I3
ssg70
g1984
sg63
(lp1991
S'datetime.datetime(2011, 9, 26, 6, 55, 33)'
p1992
asbasbasbag56
(g72
g58
NtRp1993
(dp1994
g61
(dp1995
sg70
g1939
sg63
(lp1996
g56
(g77
g58
NtRp1997
(dp1998
g61
(dp1999
sg70
g1993
sg63
(lp2000
g56
(g57
g58
NtRp2001
(dp2002
g61
(dp2003
g69
I3
ssg70
g1997
sg63
(lp2004
S'stable'
p2005
asbasbasbasbasbasbasbag56
(g72
g58
NtRp2006
(dp2007
g61
(dp2008
sg70
g821
sg63
(lp2009
g56
(g77
g58
NtRp2010
(dp2011
g61
(dp2012
g81
g82
ssg70
g2006
sg63
(lp2013
S'windir'
p2014
asbag56
(g77
g58
NtRp2015
(dp2016
g61
(dp2017
g88
g89
ssg70
g2006
sg63
(lp2018
S':'
asbag56
(g77
g58
NtRp2019
(dp2020
g61
(dp2021
sg70
g2006
sg63
(lp2022
g56
(g57
g58
NtRp2023
(dp2024
g61
(dp2025
g69
I4
ssg70
g2019
sg63
(lp2026
S'C:\\Windows'
p2027
asbasbasbag56
(g72
g58
NtRp2028
(dp2029
g61
(dp2030
sg70
g821
sg63
(lp2031
g56
(g77
g58
NtRp2032
(dp2033
g61
(dp2034
g81
g82
ssg70
g2028
sg63
(lp2035
S'wsgi_errors'
p2036
asbag56
(g77
g58
NtRp2037
(dp2038
g61
(dp2039
g88
g89
ssg70
g2028
sg63
(lp2040
S':'
asbag56
(g77
g58
NtRp2041
(dp2042
g61
(dp2043
sg70
g2028
sg63
(lp2044
g56
(g57
g58
NtRp2045
(dp2046
g61
(dp2047
g69
I4
ssg70
g2041
sg63
(lp2048
S'<mod_wsgi.Log object at 0x0412EB60>'
p2049
asbasbasbag56
(g72
g58
NtRp2050
(dp2051
g61
(dp2052
sg70
g821
sg63
(lp2053
g56
(g77
g58
NtRp2054
(dp2055
g61
(dp2056
g81
g82
ssg70
g2050
sg63
(lp2057
S'wsgi_file_wrapper'
p2058
asbag56
(g77
g58
NtRp2059
(dp2060
g61
(dp2061
g88
g89
ssg70
g2050
sg63
(lp2062
S':'
asbag56
(g77
g58
NtRp2063
(dp2064
g61
(dp2065
sg70
g2050
sg63
(lp2066
g56
(g57
g58
NtRp2067
(dp2068
g61
(dp2069
g69
I4
ssg70
g2063
sg63
(lp2070
S'<built-in method file_wrapper of mod_wsgi.Adapter object at 0x04200E30>'
p2071
asbasbasbag56
(g72
g58
NtRp2072
(dp2073
g61
(dp2074
sg70
g821
sg63
(lp2075
g56
(g77
g58
NtRp2076
(dp2077
g61
(dp2078
g81
g82
ssg70
g2072
sg63
(lp2079
S'wsgi_input'
p2080
asbag56
(g77
g58
NtRp2081
(dp2082
g61
(dp2083
g88
g89
ssg70
g2072
sg63
(lp2084
S':'
asbag56
(g77
g58
NtRp2085
(dp2086
g61
(dp2087
sg70
g2072
sg63
(lp2088
g56
(g57
g58
NtRp2089
(dp2090
g61
(dp2091
g69
I4
ssg70
g2085
sg63
(lp2092
S'<mod_wsgi.Input object at 0x03F730C0>'
p2093
asbasbasbag56
(g72
g58
NtRp2094
(dp2095
g61
(dp2096
sg70
g821
sg63
(lp2097
g56
(g77
g58
NtRp2098
(dp2099
g61
(dp2100
g81
g82
ssg70
g2094
sg63
(lp2101
S'wsgi_multiprocess'
p2102
asbag56
(g77
g58
NtRp2103
(dp2104
g61
(dp2105
g88
g89
ssg70
g2094
sg63
(lp2106
S':'
asbag56
(g77
g58
NtRp2107
(dp2108
g61
(dp2109
sg70
g2094
sg63
(lp2110
g56
(g57
g58
NtRp2111
(dp2112
g61
(dp2113
g69
I4
ssg70
g2107
sg63
(lp2114
g99
asbasbasbag56
(g72
g58
NtRp2115
(dp2116
g61
(dp2117
sg70
g821
sg63
(lp2118
g56
(g77
g58
NtRp2119
(dp2120
g61
(dp2121
g81
g82
ssg70
g2115
sg63
(lp2122
S'wsgi_multithread'
p2123
asbag56
(g77
g58
NtRp2124
(dp2125
g61
(dp2126
g88
g89
ssg70
g2115
sg63
(lp2127
S':'
asbag56
(g77
g58
NtRp2128
(dp2129
g61
(dp2130
sg70
g2115
sg63
(lp2131
g56
(g57
g58
NtRp2132
(dp2133
g61
(dp2134
g69
I4
ssg70
g2128
sg63
(lp2135
S'True'
p2136
asbasbasbag56
(g72
g58
NtRp2137
(dp2138
g61
(dp2139
sg70
g821
sg63
(lp2140
g56
(g77
g58
NtRp2141
(dp2142
g61
(dp2143
g81
g82
ssg70
g2137
sg63
(lp2144
S'wsgi_run_once'
p2145
asbag56
(g77
g58
NtRp2146
(dp2147
g61
(dp2148
g88
g89
ssg70
g2137
sg63
(lp2149
S':'
asbag56
(g77
g58
NtRp2150
(dp2151
g61
(dp2152
sg70
g2137
sg63
(lp2153
g56
(g57
g58
NtRp2154
(dp2155
g61
(dp2156
g69
I4
ssg70
g2150
sg63
(lp2157
g99
asbasbasbag56
(g72
g58
NtRp2158
(dp2159
g61
(dp2160
sg70
g821
sg63
(lp2161
g56
(g77
g58
NtRp2162
(dp2163
g61
(dp2164
g81
g82
ssg70
g2158
sg63
(lp2165
S'wsgi_url_scheme'
p2166
asbag56
(g77
g58
NtRp2167
(dp2168
g61
(dp2169
g88
g89
ssg70
g2158
sg63
(lp2170
S':'
asbag56
(g77
g58
NtRp2171
(dp2172
g61
(dp2173
sg70
g2158
sg63
(lp2174
g56
(g57
g58
NtRp2175
(dp2176
g61
(dp2177
g69
I4
ssg70
g2171
sg63
(lp2178
S'http'
p2179
asbasbasbag56
(g72
g58
NtRp2180
(dp2181
g61
(dp2182
sg70
g821
sg63
(lp2183
g56
(g77
g58
NtRp2184
(dp2185
g61
(dp2186
g81
g82
ssg70
g2180
sg63
(lp2187
S'wsgi_version'
p2188
asbag56
(g77
g58
NtRp2189
(dp2190
g61
(dp2191
g88
g89
ssg70
g2180
sg63
(lp2192
S':'
asbag56
(g77
g58
NtRp2193
(dp2194
g61
(dp2195
sg70
g2180
sg63
(lp2196
g56
(g57
g58
NtRp2197
(dp2198
g61
(dp2199
g69
I4
ssg70
g2193
sg63
(lp2200
g56
(g65
g58
NtRp2201
(dp2202
g61
(dp2203
g69
I3
ssg70
Nsg63
(lp2204
g56
(g72
g58
NtRp2205
(dp2206
g61
(dp2207
sg70
g2201
sg63
(lp2208
g56
(g77
g58
NtRp2209
(dp2210
g61
(dp2211
sg70
g2205
sg63
(lp2212
g56
(g57
g58
NtRp2213
(dp2214
g61
(dp2215
g69
I3
ssg70
g2209
sg63
(lp2216
S'1'
asbasbasbag56
(g72
g58
NtRp2217
(dp2218
g61
(dp2219
sg70
g2201
sg63
(lp2220
g56
(g77
g58
NtRp2221
(dp2222
g61
(dp2223
sg70
g2217
sg63
(lp2224
g56
(g57
g58
NtRp2225
(dp2226
g61
(dp2227
g69
I3
ssg70
g2221
sg63
(lp2228
S'1'
asbasbasbasbasbasbasbasbasbasbasbag56
(g72
g58
NtRp2229
(dp2230
g61
(dp2231
sg70
g66
sg63
(lp2232
g56
(g77
g58
NtRp2233
(dp2234
g61
(dp2235
g81
g82
ssg70
g2229
sg63
(lp2236
S'extension'
p2237
asbag56
(g77
g58
NtRp2238
(dp2239
g61
(dp2240
g88
g89
ssg70
g2229
sg63
(lp2241
S':'
asbag56
(g77
g58
NtRp2242
(dp2243
g61
(dp2244
sg70
g2229
sg63
(lp2245
g56
(g57
g58
NtRp2246
(dp2247
g61
(dp2248
g69
I5
ssg70
g2242
sg63
(lp2249
S'html'
p2250
asbasbasbag56
(g72
g58
NtRp2251
(dp2252
g61
(dp2253
sg70
g66
sg63
(lp2254
g56
(g77
g58
NtRp2255
(dp2256
g61
(dp2257
g81
g82
ssg70
g2251
sg63
(lp2258
S'folder'
p2259
asbag56
(g77
g58
NtRp2260
(dp2261
g61
(dp2262
g88
g89
ssg70
g2251
sg63
(lp2263
S':'
asbag56
(g77
g58
NtRp2264
(dp2265
g61
(dp2266
sg70
g2251
sg63
(lp2267
g56
(g57
g58
NtRp2268
(dp2269
g61
(dp2270
g69
I5
ssg70
g2264
sg63
(lp2271
S'D:\\Workbench\\private\\web2py_src\\applications\\examples\\'
p2272
asbasbasbag56
(g72
g58
NtRp2273
(dp2274
g61
(dp2275
sg70
g66
sg63
(lp2276
g56
(g77
g58
NtRp2277
(dp2278
g61
(dp2279
g81
g82
ssg70
g2273
sg63
(lp2280
S'function'
p2281
asbag56
(g77
g58
NtRp2282
(dp2283
g61
(dp2284
g88
g89
ssg70
g2273
sg63
(lp2285
S':'
asbag56
(g77
g58
NtRp2286
(dp2287
g61
(dp2288
sg70
g2273
sg63
(lp2289
g56
(g57
g58
NtRp2290
(dp2291
g61
(dp2292
g69
I5
ssg70
g2286
sg63
(lp2293
S'upload'
p2294
asbasbasbag56
(g72
g58
NtRp2295
(dp2296
g61
(dp2297
sg70
g66
sg63
(lp2298
g56
(g77
g58
NtRp2299
(dp2300
g61
(dp2301
g81
g82
ssg70
g2295
sg63
(lp2302
S'get_vars'
p2303
asbag56
(g77
g58
NtRp2304
(dp2305
g61
(dp2306
g88
g89
ssg70
g2295
sg63
(lp2307
S':'
asbag56
(g77
g58
NtRp2308
(dp2309
g61
(dp2310
sg70
g2295
sg63
(lp2311
g56
(g57
g58
NtRp2312
(dp2313
g61
(dp2314
g69
I5
ssg70
g2308
sg63
(lp2315
g56
(g65
g58
NtRp2316
(dp2317
g61
(dp2318
g69
I4
ssg70
Nsg63
(lp2319
sbasbasbasbag56
(g72
g58
NtRp2320
(dp2321
g61
(dp2322
sg70
g66
sg63
(lp2323
g56
(g77
g58
NtRp2324
(dp2325
g61
(dp2326
g81
g82
ssg70
g2320
sg63
(lp2327
S'global_settings'
p2328
asbag56
(g77
g58
NtRp2329
(dp2330
g61
(dp2331
g88
g89
ssg70
g2320
sg63
(lp2332
S':'
asbag56
(g77
g58
NtRp2333
(dp2334
g61
(dp2335
sg70
g2320
sg63
(lp2336
g56
(g57
g58
NtRp2337
(dp2338
g61
(dp2339
g69
I5
ssg70
g2333
sg63
(lp2340
g56
(g65
g58
NtRp2341
(dp2342
g61
(dp2343
g69
I4
ssg70
Nsg63
(lp2344
g56
(g72
g58
NtRp2345
(dp2346
g61
(dp2347
sg70
g2341
sg63
(lp2348
g56
(g77
g58
NtRp2349
(dp2350
g61
(dp2351
g81
g82
ssg70
g2345
sg63
(lp2352
g833
asbag56
(g77
g58
NtRp2353
(dp2354
g61
(dp2355
g88
g89
ssg70
g2345
sg63
(lp2356
S':'
asbag56
(g77
g58
NtRp2357
(dp2358
g61
(dp2359
sg70
g2345
sg63
(lp2360
g56
(g57
g58
NtRp2361
(dp2362
g61
(dp2363
g69
I4
ssg70
g2357
sg63
(lp2364
S"set(['D:\\\\Workbench\\\\private\\\\web2py_src\\\\applications\\\\welcome\\\\', 'D:\\\\Workbench\\\\private\\\\web2py_src\\\\applications\\\\examples\\\\', 'D:\\\\Workbench\\\\private\\\\web2py_src\\\\applications\\\\admin\\\\'])"
p2365
asbasbasbag56
(g72
g58
NtRp2366
(dp2367
g61
(dp2368
sg70
g2341
sg63
(lp2369
g56
(g77
g58
NtRp2370
(dp2371
g61
(dp2372
g81
g82
ssg70
g2366
sg63
(lp2373
g855
asbag56
(g77
g58
NtRp2374
(dp2375
g61
(dp2376
g88
g89
ssg70
g2366
sg63
(lp2377
S':'
asbag56
(g77
g58
NtRp2378
(dp2379
g61
(dp2380
sg70
g2366
sg63
(lp2381
g56
(g57
g58
NtRp2382
(dp2383
g61
(dp2384
g69
I4
ssg70
g2378
sg63
(lp2385
g868
asbasbasbag56
(g72
g58
NtRp2386
(dp2387
g61
(dp2388
sg70
g2341
sg63
(lp2389
g56
(g77
g58
NtRp2390
(dp2391
g61
(dp2392
g81
g82
ssg70
g2386
sg63
(lp2393
g943
asbag56
(g77
g58
NtRp2394
(dp2395
g61
(dp2396
g88
g89
ssg70
g2386
sg63
(lp2397
S':'
asbag56
(g77
g58
NtRp2398
(dp2399
g61
(dp2400
sg70
g2386
sg63
(lp2401
g56
(g57
g58
NtRp2402
(dp2403
g61
(dp2404
g69
I4
ssg70
g2398
sg63
(lp2405
S'set([])'
p2406
asbasbasbag56
(g72
g58
NtRp2407
(dp2408
g61
(dp2409
sg70
g2341
sg63
(lp2410
g56
(g77
g58
NtRp2411
(dp2412
g61
(dp2413
g81
g82
ssg70
g2407
sg63
(lp2414
g965
asbag56
(g77
g58
NtRp2415
(dp2416
g61
(dp2417
g88
g89
ssg70
g2407
sg63
(lp2418
S':'
asbag56
(g77
g58
NtRp2419
(dp2420
g61
(dp2421
sg70
g2407
sg63
(lp2422
g56
(g57
g58
NtRp2423
(dp2424
g61
(dp2425
g69
I4
ssg70
g2419
sg63
(lp2426
g99
asbasbasbag56
(g72
g58
NtRp2427
(dp2428
g61
(dp2429
sg70
g2341
sg63
(lp2430
g56
(g77
g58
NtRp2431
(dp2432
g61
(dp2433
g81
g82
ssg70
g2427
sg63
(lp2434
g1030
asbag56
(g77
g58
NtRp2435
(dp2436
g61
(dp2437
g88
g89
ssg70
g2427
sg63
(lp2438
S':'
asbag56
(g77
g58
NtRp2439
(dp2440
g61
(dp2441
sg70
g2427
sg63
(lp2442
g56
(g57
g58
NtRp2443
(dp2444
g61
(dp2445
g69
I4
ssg70
g2439
sg63
(lp2446
g868
asbasbasbag56
(g72
g58
NtRp2447
(dp2448
g61
(dp2449
sg70
g2341
sg63
(lp2450
g56
(g77
g58
NtRp2451
(dp2452
g61
(dp2453
g81
g82
ssg70
g2447
sg63
(lp2454
g1293
asbag56
(g77
g58
NtRp2455
(dp2456
g61
(dp2457
g88
g89
ssg70
g2447
sg63
(lp2458
S':'
asbag56
(g77
g58
NtRp2459
(dp2460
g61
(dp2461
sg70
g2447
sg63
(lp2462
g56
(g57
g58
NtRp2463
(dp2464
g61
(dp2465
g69
I4
ssg70
g2459
sg63
(lp2466
g99
asbasbasbag56
(g72
g58
NtRp2467
(dp2468
g61
(dp2469
sg70
g2341
sg63
(lp2470
g56
(g77
g58
NtRp2471
(dp2472
g61
(dp2473
g81
g82
ssg70
g2467
sg63
(lp2474
g1926
asbag56
(g77
g58
NtRp2475
(dp2476
g61
(dp2477
g88
g89
ssg70
g2467
sg63
(lp2478
S':'
asbag56
(g77
g58
NtRp2479
(dp2480
g61
(dp2481
sg70
g2467
sg63
(lp2482
g56
(g57
g58
NtRp2483
(dp2484
g61
(dp2485
g69
I4
ssg70
g2479
sg63
(lp2486
g56
(g65
g58
NtRp2487
(dp2488
g61
(dp2489
g69
I3
ssg70
Nsg63
(lp2490
g56
(g72
g58
NtRp2491
(dp2492
g61
(dp2493
sg70
g2487
sg63
(lp2494
g56
(g77
g58
NtRp2495
(dp2496
g61
(dp2497
sg70
g2491
sg63
(lp2498
g56
(g57
g58
NtRp2499
(dp2500
g61
(dp2501
g69
I3
ssg70
g2495
sg63
(lp2502
S'1'
asbasbasbag56
(g72
g58
NtRp2503
(dp2504
g61
(dp2505
sg70
g2487
sg63
(lp2506
g56
(g77
g58
NtRp2507
(dp2508
g61
(dp2509
sg70
g2503
sg63
(lp2510
g56
(g57
g58
NtRp2511
(dp2512
g61
(dp2513
g69
I3
ssg70
g2507
sg63
(lp2514
S'99'
p2515
asbasbasbag56
(g72
g58
NtRp2516
(dp2517
g61
(dp2518
sg70
g2487
sg63
(lp2519
g56
(g77
g58
NtRp2520
(dp2521
g61
(dp2522
sg70
g2516
sg63
(lp2523
g56
(g57
g58
NtRp2524
(dp2525
g61
(dp2526
g69
I3
ssg70
g2520
sg63
(lp2527
S'2'
asbasbasbag56
(g72
g58
NtRp2528
(dp2529
g61
(dp2530
sg70
g2487
sg63
(lp2531
g56
(g77
g58
NtRp2532
(dp2533
g61
(dp2534
sg70
g2528
sg63
(lp2535
g56
(g57
g58
NtRp2536
(dp2537
g61
(dp2538
g69
I3
ssg70
g2532
sg63
(lp2539
S'datetime.datetime(2011, 9, 26, 6, 55, 33)'
p2540
asbasbasbag56
(g72
g58
NtRp2541
(dp2542
g61
(dp2543
sg70
g2487
sg63
(lp2544
g56
(g77
g58
NtRp2545
(dp2546
g61
(dp2547
sg70
g2541
sg63
(lp2548
g56
(g57
g58
NtRp2549
(dp2550
g61
(dp2551
g69
I3
ssg70
g2545
sg63
(lp2552
g2005
asbasbasbasbasbasbasbasbasbasbasbag56
(g72
g58
NtRp2553
(dp2554
g61
(dp2555
sg70
g66
sg63
(lp2556
g56
(g77
g58
NtRp2557
(dp2558
g61
(dp2559
g81
g82
ssg70
g2553
sg63
(lp2560
S'is_https'
p2561
asbag56
(g77
g58
NtRp2562
(dp2563
g61
(dp2564
g88
g89
ssg70
g2553
sg63
(lp2565
S':'
asbag56
(g77
g58
NtRp2566
(dp2567
g61
(dp2568
sg70
g2553
sg63
(lp2569
g56
(g57
g58
NtRp2570
(dp2571
g61
(dp2572
g69
I5
ssg70
g2566
sg63
(lp2573
g99
asbasbasbag56
(g72
g58
NtRp2574
(dp2575
g61
(dp2576
sg70
g66
sg63
(lp2577
g56
(g77
g58
NtRp2578
(dp2579
g61
(dp2580
g81
g82
ssg70
g2574
sg63
(lp2581
S'is_local'
p2582
asbag56
(g77
g58
NtRp2583
(dp2584
g61
(dp2585
g88
g89
ssg70
g2574
sg63
(lp2586
S':'
asbag56
(g77
g58
NtRp2587
(dp2588
g61
(dp2589
sg70
g2574
sg63
(lp2590
g56
(g57
g58
NtRp2591
(dp2592
g61
(dp2593
g69
I5
ssg70
g2587
sg63
(lp2594
g2136
asbasbasbag56
(g72
g58
NtRp2595
(dp2596
g61
(dp2597
sg70
g66
sg63
(lp2598
g56
(g77
g58
NtRp2599
(dp2600
g61
(dp2601
g81
g82
ssg70
g2595
sg63
(lp2602
S'is_restful'
p2603
asbag56
(g77
g58
NtRp2604
(dp2605
g61
(dp2606
g88
g89
ssg70
g2595
sg63
(lp2607
S':'
asbag56
(g77
g58
NtRp2608
(dp2609
g61
(dp2610
sg70
g2595
sg63
(lp2611
g56
(g57
g58
NtRp2612
(dp2613
g61
(dp2614
g69
I5
ssg70
g2608
sg63
(lp2615
g99
asbasbasbag56
(g72
g58
NtRp2616
(dp2617
g61
(dp2618
sg70
g66
sg63
(lp2619
g56
(g77
g58
NtRp2620
(dp2621
g61
(dp2622
g81
g82
ssg70
g2616
sg63
(lp2623
S'now'
p2624
asbag56
(g77
g58
NtRp2625
(dp2626
g61
(dp2627
g88
g89
ssg70
g2616
sg63
(lp2628
S':'
asbag56
(g77
g58
NtRp2629
(dp2630
g61
(dp2631
sg70
g2616
sg63
(lp2632
g56
(g57
g58
NtRp2633
(dp2634
g61
(dp2635
g69
I5
ssg70
g2629
sg63
(lp2636
S'datetime.datetime(2012, 3, 7, 22, 47, 39, 974000)'
p2637
asbasbasbag56
(g72
g58
NtRp2638
(dp2639
g61
(dp2640
sg70
g66
sg63
(lp2641
g56
(g77
g58
NtRp2642
(dp2643
g61
(dp2644
g81
g82
ssg70
g2638
sg63
(lp2645
S'post_vars'
p2646
asbag56
(g77
g58
NtRp2647
(dp2648
g61
(dp2649
g88
g89
ssg70
g2638
sg63
(lp2650
S':'
asbag56
(g77
g58
NtRp2651
(dp2652
g61
(dp2653
sg70
g2638
sg63
(lp2654
g56
(g57
g58
NtRp2655
(dp2656
g61
(dp2657
g69
I5
ssg70
g2651
sg63
(lp2658
g56
(g65
g58
NtRp2659
(dp2660
g61
(dp2661
g69
I4
ssg70
Nsg63
(lp2662
sbasbasbasbag56
(g72
g58
NtRp2663
(dp2664
g61
(dp2665
sg70
g66
sg63
(lp2666
g56
(g77
g58
NtRp2667
(dp2668
g61
(dp2669
g81
g82
ssg70
g2663
sg63
(lp2670
S'url'
p2671
asbag56
(g77
g58
NtRp2672
(dp2673
g61
(dp2674
g88
g89
ssg70
g2663
sg63
(lp2675
S':'
asbag56
(g77
g58
NtRp2676
(dp2677
g61
(dp2678
sg70
g2663
sg63
(lp2679
g56
(g57
g58
NtRp2680
(dp2681
g61
(dp2682
g69
I5
ssg70
g2676
sg63
(lp2683
S'/examples/transform/upload'
p2684
asbasbasbag56
(g72
g58
NtRp2685
(dp2686
g61
(dp2687
sg70
g66
sg63
(lp2688
g56
(g77
g58
NtRp2689
(dp2690
g61
(dp2691
g81
g82
ssg70
g2685
sg63
(lp2692
S'utcnow'
p2693
asbag56
(g77
g58
NtRp2694
(dp2695
g61
(dp2696
g88
g89
ssg70
g2685
sg63
(lp2697
S':'
asbag56
(g77
g58
NtRp2698
(dp2699
g61
(dp2700
sg70
g2685
sg63
(lp2701
g56
(g57
g58
NtRp2702
(dp2703
g61
(dp2704
g69
I5
ssg70
g2698
sg63
(lp2705
S'datetime.datetime(2012, 3, 7, 14, 47, 39, 974000)'
p2706
asbasbasbag56
(g72
g58
NtRp2707
(dp2708
g61
(dp2709
sg70
g66
sg63
(lp2710
g56
(g77
g58
NtRp2711
(dp2712
g61
(dp2713
g81
g82
ssg70
g2707
sg63
(lp2714
S'uuid'
p2715
asbag56
(g77
g58
NtRp2716
(dp2717
g61
(dp2718
g88
g89
ssg70
g2707
sg63
(lp2719
S':'
asbag56
(g77
g58
NtRp2720
(dp2721
g61
(dp2722
sg70
g2707
sg63
(lp2723
g56
(g57
g58
NtRp2724
(dp2725
g61
(dp2726
g69
I5
ssg70
g2720
sg63
(lp2727
S'examples/127.0.0.1.2012-03-07.22-47-39.f3b8f369-8eeb-4f4e-988f-a69e4ac8d477'
p2728
asbasbasbag56
(g72
g58
NtRp2729
(dp2730
g61
(dp2731
sg70
g66
sg63
(lp2732
g56
(g77
g58
NtRp2733
(dp2734
g61
(dp2735
g81
g82
ssg70
g2729
sg63
(lp2736
S'vars'
p2737
asbag56
(g77
g58
NtRp2738
(dp2739
g61
(dp2740
g88
g89
ssg70
g2729
sg63
(lp2741
S':'
asbag56
(g77
g58
NtRp2742
(dp2743
g61
(dp2744
sg70
g2729
sg63
(lp2745
g56
(g57
g58
NtRp2746
(dp2747
g61
(dp2748
g69
I5
ssg70
g2742
sg63
(lp2749
g56
(g65
g58
NtRp2750
(dp2751
g61
(dp2752
g69
I4
ssg70
Nsg63
(lp2753
sbasbasbasbag56
(g72
g58
NtRp2754
(dp2755
g61
(dp2756
sg70
g66
sg63
(lp2757
g56
(g77
g58
NtRp2758
(dp2759
g61
(dp2760
g81
g82
ssg70
g2754
sg63
(lp2761
S'wsgi'
p2762
asbag56
(g77
g58
NtRp2763
(dp2764
g61
(dp2765
g88
g89
ssg70
g2754
sg63
(lp2766
S':'
asbag56
(g77
g58
NtRp2767
(dp2768
g61
(dp2769
sg70
g2754
sg63
(lp2770
g56
(g57
g58
NtRp2771
(dp2772
g61
(dp2773
g69
I5
ssg70
g2767
sg63
(lp2774
g56
(g65
g58
NtRp2775
(dp2776
g61
(dp2777
g69
I4
ssg70
Nsg63
(lp2778
g56
(g72
g58
NtRp2779
(dp2780
g61
(dp2781
sg70
g2775
sg63
(lp2782
g56
(g77
g58
NtRp2783
(dp2784
g61
(dp2785
g81
g82
ssg70
g2779
sg63
(lp2786
S'environ'
p2787
asbag56
(g77
g58
NtRp2788
(dp2789
g61
(dp2790
g88
g89
ssg70
g2779
sg63
(lp2791
S':'
asbag56
(g77
g58
NtRp2792
(dp2793
g61
(dp2794
sg70
g2779
sg63
(lp2795
g56
(g57
g58
NtRp2796
(dp2797
g61
(dp2798
g69
I4
ssg70
g2792
sg63
(lp2799
g56
(g65
g58
NtRp2800
(dp2801
g61
(dp2802
g69
I3
ssg70
Nsg63
(lp2803
g56
(g72
g58
NtRp2804
(dp2805
g61
(dp2806
sg70
g2800
sg63
(lp2807
g56
(g77
g58
NtRp2808
(dp2809
g61
(dp2810
g81
g82
ssg70
g2804
sg63
(lp2811
S'COMSPEC'
p2812
asbag56
(g77
g58
NtRp2813
(dp2814
g61
(dp2815
g88
g89
ssg70
g2804
sg63
(lp2816
S':'
asbag56
(g77
g58
NtRp2817
(dp2818
g61
(dp2819
sg70
g2804
sg63
(lp2820
g56
(g57
g58
NtRp2821
(dp2822
g61
(dp2823
g69
I3
ssg70
g2817
sg63
(lp2824
g890
asbasbasbag56
(g72
g58
NtRp2825
(dp2826
g61
(dp2827
sg70
g2800
sg63
(lp2828
g56
(g77
g58
NtRp2829
(dp2830
g61
(dp2831
g81
g82
ssg70
g2825
sg63
(lp2832
S'CONTENT_LENGTH'
p2833
asbag56
(g77
g58
NtRp2834
(dp2835
g61
(dp2836
g88
g89
ssg70
g2825
sg63
(lp2837
S':'
asbag56
(g77
g58
NtRp2838
(dp2839
g61
(dp2840
sg70
g2825
sg63
(lp2841
g56
(g57
g58
NtRp2842
(dp2843
g61
(dp2844
g69
I3
ssg70
g2838
sg63
(lp2845
g912
asbasbasbag56
(g72
g58
NtRp2846
(dp2847
g61
(dp2848
sg70
g2800
sg63
(lp2849
g56
(g77
g58
NtRp2850
(dp2851
g61
(dp2852
g81
g82
ssg70
g2846
sg63
(lp2853
S'CONTENT_TYPE'
p2854
asbag56
(g77
g58
NtRp2855
(dp2856
g61
(dp2857
g88
g89
ssg70
g2846
sg63
(lp2858
S':'
asbag56
(g77
g58
NtRp2859
(dp2860
g61
(dp2861
sg70
g2846
sg63
(lp2862
g56
(g57
g58
NtRp2863
(dp2864
g61
(dp2865
g69
I3
ssg70
g2859
sg63
(lp2866
g934
asbasbasbag56
(g72
g58
NtRp2867
(dp2868
g61
(dp2869
sg70
g2800
sg63
(lp2870
g56
(g77
g58
NtRp2871
(dp2872
g61
(dp2873
g81
g82
ssg70
g2867
sg63
(lp2874
S'DOCUMENT_ROOT'
p2875
asbag56
(g77
g58
NtRp2876
(dp2877
g61
(dp2878
g88
g89
ssg70
g2867
sg63
(lp2879
S':'
asbag56
(g77
g58
NtRp2880
(dp2881
g61
(dp2882
sg70
g2867
sg63
(lp2883
g56
(g57
g58
NtRp2884
(dp2885
g61
(dp2886
g69
I3
ssg70
g2880
sg63
(lp2887
g999
asbasbasbag56
(g72
g58
NtRp2888
(dp2889
g61
(dp2890
sg70
g2800
sg63
(lp2891
g56
(g77
g58
NtRp2892
(dp2893
g61
(dp2894
g81
g82
ssg70
g2888
sg63
(lp2895
S'GATEWAY_INTERFACE'
p2896
asbag56
(g77
g58
NtRp2897
(dp2898
g61
(dp2899
g88
g89
ssg70
g2888
sg63
(lp2900
S':'
asbag56
(g77
g58
NtRp2901
(dp2902
g61
(dp2903
sg70
g2888
sg63
(lp2904
g56
(g57
g58
NtRp2905
(dp2906
g61
(dp2907
g69
I3
ssg70
g2901
sg63
(lp2908
g1021
asbasbasbag56
(g72
g58
NtRp2909
(dp2910
g61
(dp2911
sg70
g2800
sg63
(lp2912
g56
(g77
g58
NtRp2913
(dp2914
g61
(dp2915
g81
g82
ssg70
g2909
sg63
(lp2916
S'HTTP_ACCEPT'
p2917
asbag56
(g77
g58
NtRp2918
(dp2919
g61
(dp2920
g88
g89
ssg70
g2909
sg63
(lp2921
S':'
asbag56
(g77
g58
NtRp2922
(dp2923
g61
(dp2924
sg70
g2909
sg63
(lp2925
g56
(g57
g58
NtRp2926
(dp2927
g61
(dp2928
g69
I3
ssg70
g2922
sg63
(lp2929
g1064
asbasbasbag56
(g72
g58
NtRp2930
(dp2931
g61
(dp2932
sg70
g2800
sg63
(lp2933
g56
(g77
g58
NtRp2934
(dp2935
g61
(dp2936
g81
g82
ssg70
g2930
sg63
(lp2937
S'HTTP_ACCEPT_CHARSET'
p2938
asbag56
(g77
g58
NtRp2939
(dp2940
g61
(dp2941
g88
g89
ssg70
g2930
sg63
(lp2942
S':'
asbag56
(g77
g58
NtRp2943
(dp2944
g61
(dp2945
sg70
g2930
sg63
(lp2946
g56
(g57
g58
NtRp2947
(dp2948
g61
(dp2949
g69
I3
ssg70
g2943
sg63
(lp2950
g1086
asbasbasbag56
(g72
g58
NtRp2951
(dp2952
g61
(dp2953
sg70
g2800
sg63
(lp2954
g56
(g77
g58
NtRp2955
(dp2956
g61
(dp2957
g81
g82
ssg70
g2951
sg63
(lp2958
S'HTTP_ACCEPT_ENCODING'
p2959
asbag56
(g77
g58
NtRp2960
(dp2961
g61
(dp2962
g88
g89
ssg70
g2951
sg63
(lp2963
S':'
asbag56
(g77
g58
NtRp2964
(dp2965
g61
(dp2966
sg70
g2951
sg63
(lp2967
g56
(g57
g58
NtRp2968
(dp2969
g61
(dp2970
g69
I3
ssg70
g2964
sg63
(lp2971
g1108
asbasbasbag56
(g72
g58
NtRp2972
(dp2973
g61
(dp2974
sg70
g2800
sg63
(lp2975
g56
(g77
g58
NtRp2976
(dp2977
g61
(dp2978
g81
g82
ssg70
g2972
sg63
(lp2979
S'HTTP_ACCEPT_LANGUAGE'
p2980
asbag56
(g77
g58
NtRp2981
(dp2982
g61
(dp2983
g88
g89
ssg70
g2972
sg63
(lp2984
S':'
asbag56
(g77
g58
NtRp2985
(dp2986
g61
(dp2987
sg70
g2972
sg63
(lp2988
g56
(g57
g58
NtRp2989
(dp2990
g61
(dp2991
g69
I3
ssg70
g2985
sg63
(lp2992
g1130
asbasbasbag56
(g72
g58
NtRp2993
(dp2994
g61
(dp2995
sg70
g2800
sg63
(lp2996
g56
(g77
g58
NtRp2997
(dp2998
g61
(dp2999
g81
g82
ssg70
g2993
sg63
(lp3000
S'HTTP_CACHE_CONTROL'
p3001
asbag56
(g77
g58
NtRp3002
(dp3003
g61
(dp3004
g88
g89
ssg70
g2993
sg63
(lp3005
S':'
asbag56
(g77
g58
NtRp3006
(dp3007
g61
(dp3008
sg70
g2993
sg63
(lp3009
g56
(g57
g58
NtRp3010
(dp3011
g61
(dp3012
g69
I3
ssg70
g3006
sg63
(lp3013
g1152
asbasbasbag56
(g72
g58
NtRp3014
(dp3015
g61
(dp3016
sg70
g2800
sg63
(lp3017
g56
(g77
g58
NtRp3018
(dp3019
g61
(dp3020
g81
g82
ssg70
g3014
sg63
(lp3021
S'HTTP_CONNECTION'
p3022
asbag56
(g77
g58
NtRp3023
(dp3024
g61
(dp3025
g88
g89
ssg70
g3014
sg63
(lp3026
S':'
asbag56
(g77
g58
NtRp3027
(dp3028
g61
(dp3029
sg70
g3014
sg63
(lp3030
g56
(g57
g58
NtRp3031
(dp3032
g61
(dp3033
g69
I3
ssg70
g3027
sg63
(lp3034
g1174
asbasbasbag56
(g72
g58
NtRp3035
(dp3036
g61
(dp3037
sg70
g2800
sg63
(lp3038
g56
(g77
g58
NtRp3039
(dp3040
g61
(dp3041
g81
g82
ssg70
g3035
sg63
(lp3042
S'HTTP_COOKIE'
p3043
asbag56
(g77
g58
NtRp3044
(dp3045
g61
(dp3046
g88
g89
ssg70
g3035
sg63
(lp3047
S':'
asbag56
(g77
g58
NtRp3048
(dp3049
g61
(dp3050
sg70
g3035
sg63
(lp3051
g56
(g57
g58
NtRp3052
(dp3053
g61
(dp3054
g69
I3
ssg70
g3048
sg63
(lp3055
g1196
asbasbasbag56
(g72
g58
NtRp3056
(dp3057
g61
(dp3058
sg70
g2800
sg63
(lp3059
g56
(g77
g58
NtRp3060
(dp3061
g61
(dp3062
g81
g82
ssg70
g3056
sg63
(lp3063
S'HTTP_HOST'
p3064
asbag56
(g77
g58
NtRp3065
(dp3066
g61
(dp3067
g88
g89
ssg70
g3056
sg63
(lp3068
S':'
asbag56
(g77
g58
NtRp3069
(dp3070
g61
(dp3071
sg70
g3056
sg63
(lp3072
g56
(g57
g58
NtRp3073
(dp3074
g61
(dp3075
g69
I3
ssg70
g3069
sg63
(lp3076
g1218
asbasbasbag56
(g72
g58
NtRp3077
(dp3078
g61
(dp3079
sg70
g2800
sg63
(lp3080
g56
(g77
g58
NtRp3081
(dp3082
g61
(dp3083
g81
g82
ssg70
g3077
sg63
(lp3084
S'HTTP_ORIGIN'
p3085
asbag56
(g77
g58
NtRp3086
(dp3087
g61
(dp3088
g88
g89
ssg70
g3077
sg63
(lp3089
S':'
asbag56
(g77
g58
NtRp3090
(dp3091
g61
(dp3092
sg70
g3077
sg63
(lp3093
g56
(g57
g58
NtRp3094
(dp3095
g61
(dp3096
g69
I3
ssg70
g3090
sg63
(lp3097
g1240
asbasbasbag56
(g72
g58
NtRp3098
(dp3099
g61
(dp3100
sg70
g2800
sg63
(lp3101
g56
(g77
g58
NtRp3102
(dp3103
g61
(dp3104
g81
g82
ssg70
g3098
sg63
(lp3105
S'HTTP_REFERER'
p3106
asbag56
(g77
g58
NtRp3107
(dp3108
g61
(dp3109
g88
g89
ssg70
g3098
sg63
(lp3110
S':'
asbag56
(g77
g58
NtRp3111
(dp3112
g61
(dp3113
sg70
g3098
sg63
(lp3114
g56
(g57
g58
NtRp3115
(dp3116
g61
(dp3117
g69
I3
ssg70
g3111
sg63
(lp3118
g1262
asbasbasbag56
(g72
g58
NtRp3119
(dp3120
g61
(dp3121
sg70
g2800
sg63
(lp3122
g56
(g77
g58
NtRp3123
(dp3124
g61
(dp3125
g81
g82
ssg70
g3119
sg63
(lp3126
S'HTTP_USER_AGENT'
p3127
asbag56
(g77
g58
NtRp3128
(dp3129
g61
(dp3130
g88
g89
ssg70
g3119
sg63
(lp3131
S':'
asbag56
(g77
g58
NtRp3132
(dp3133
g61
(dp3134
sg70
g3119
sg63
(lp3135
g56
(g57
g58
NtRp3136
(dp3137
g61
(dp3138
g69
I3
ssg70
g3132
sg63
(lp3139
g1284
asbasbasbag56
(g72
g58
NtRp3140
(dp3141
g61
(dp3142
sg70
g2800
sg63
(lp3143
g56
(g77
g58
NtRp3144
(dp3145
g61
(dp3146
g81
g82
ssg70
g3140
sg63
(lp3147
S'PATHEXT'
p3148
asbag56
(g77
g58
NtRp3149
(dp3150
g61
(dp3151
g88
g89
ssg70
g3140
sg63
(lp3152
S':'
asbag56
(g77
g58
NtRp3153
(dp3154
g61
(dp3155
sg70
g3140
sg63
(lp3156
g56
(g57
g58
NtRp3157
(dp3158
g61
(dp3159
g69
I3
ssg70
g3153
sg63
(lp3160
g1570
asbasbasbag56
(g72
g58
NtRp3161
(dp3162
g61
(dp3163
sg70
g2800
sg63
(lp3164
g56
(g77
g58
NtRp3165
(dp3166
g61
(dp3167
g81
g82
ssg70
g3161
sg63
(lp3168
S'PATH_INFO'
p3169
asbag56
(g77
g58
NtRp3170
(dp3171
g61
(dp3172
g88
g89
ssg70
g3161
sg63
(lp3173
S':'
asbag56
(g77
g58
NtRp3174
(dp3175
g61
(dp3176
sg70
g3161
sg63
(lp3177
g56
(g57
g58
NtRp3178
(dp3179
g61
(dp3180
g69
I3
ssg70
g3174
sg63
(lp3181
g1526
asbasbasbag56
(g72
g58
NtRp3182
(dp3183
g61
(dp3184
sg70
g2800
sg63
(lp3185
g56
(g77
g58
NtRp3186
(dp3187
g61
(dp3188
g81
g82
ssg70
g3182
sg63
(lp3189
S'PATH_TRANSLATED'
p3190
asbag56
(g77
g58
NtRp3191
(dp3192
g61
(dp3193
g88
g89
ssg70
g3182
sg63
(lp3194
S':'
asbag56
(g77
g58
NtRp3195
(dp3196
g61
(dp3197
sg70
g3182
sg63
(lp3198
g56
(g57
g58
NtRp3199
(dp3200
g61
(dp3201
g69
I3
ssg70
g3195
sg63
(lp3202
g1548
asbasbasbag56
(g72
g58
NtRp3203
(dp3204
g61
(dp3205
sg70
g2800
sg63
(lp3206
g56
(g77
g58
NtRp3207
(dp3208
g61
(dp3209
g81
g82
ssg70
g3203
sg63
(lp3210
S'QUERY_STRING'
p3211
asbag56
(g77
g58
NtRp3212
(dp3213
g61
(dp3214
g88
g89
ssg70
g3203
sg63
(lp3215
S':'
asbag56
(g77
g58
NtRp3216
(dp3217
g61
(dp3218
sg70
g3203
sg63
(lp3219
g56
(g57
g58
NtRp3220
(dp3221
g61
(dp3222
g69
I3
ssg70
g3216
sg63
(lp3223
S''
asbasbasbag56
(g72
g58
NtRp3224
(dp3225
g61
(dp3226
sg70
g2800
sg63
(lp3227
g56
(g77
g58
NtRp3228
(dp3229
g61
(dp3230
g81
g82
ssg70
g3224
sg63
(lp3231
S'REMOTE_ADDR'
p3232
asbag56
(g77
g58
NtRp3233
(dp3234
g61
(dp3235
g88
g89
ssg70
g3224
sg63
(lp3236
S':'
asbag56
(g77
g58
NtRp3237
(dp3238
g61
(dp3239
sg70
g3224
sg63
(lp3240
g56
(g57
g58
NtRp3241
(dp3242
g61
(dp3243
g69
I3
ssg70
g3237
sg63
(lp3244
g189
asbasbasbag56
(g72
g58
NtRp3245
(dp3246
g61
(dp3247
sg70
g2800
sg63
(lp3248
g56
(g77
g58
NtRp3249
(dp3250
g61
(dp3251
g81
g82
ssg70
g3245
sg63
(lp3252
S'REMOTE_PORT'
p3253
asbag56
(g77
g58
NtRp3254
(dp3255
g61
(dp3256
g88
g89
ssg70
g3245
sg63
(lp3257
S':'
asbag56
(g77
g58
NtRp3258
(dp3259
g61
(dp3260
sg70
g3245
sg63
(lp3261
g56
(g57
g58
NtRp3262
(dp3263
g61
(dp3264
g69
I3
ssg70
g3258
sg63
(lp3265
g1634
asbasbasbag56
(g72
g58
NtRp3266
(dp3267
g61
(dp3268
sg70
g2800
sg63
(lp3269
g56
(g77
g58
NtRp3270
(dp3271
g61
(dp3272
g81
g82
ssg70
g3266
sg63
(lp3273
S'REQUEST_METHOD'
p3274
asbag56
(g77
g58
NtRp3275
(dp3276
g61
(dp3277
g88
g89
ssg70
g3266
sg63
(lp3278
S':'
asbag56
(g77
g58
NtRp3279
(dp3280
g61
(dp3281
sg70
g3266
sg63
(lp3282
g56
(g57
g58
NtRp3283
(dp3284
g61
(dp3285
g69
I3
ssg70
g3279
sg63
(lp3286
g1656
asbasbasbag56
(g72
g58
NtRp3287
(dp3288
g61
(dp3289
sg70
g2800
sg63
(lp3290
g56
(g77
g58
NtRp3291
(dp3292
g61
(dp3293
g81
g82
ssg70
g3287
sg63
(lp3294
S'REQUEST_URI'
p3295
asbag56
(g77
g58
NtRp3296
(dp3297
g61
(dp3298
g88
g89
ssg70
g3287
sg63
(lp3299
S':'
asbag56
(g77
g58
NtRp3300
(dp3301
g61
(dp3302
sg70
g3287
sg63
(lp3303
g56
(g57
g58
NtRp3304
(dp3305
g61
(dp3306
g69
I3
ssg70
g3300
sg63
(lp3307
g1678
asbasbasbag56
(g72
g58
NtRp3308
(dp3309
g61
(dp3310
sg70
g2800
sg63
(lp3311
g56
(g77
g58
NtRp3312
(dp3313
g61
(dp3314
g81
g82
ssg70
g3308
sg63
(lp3315
S'SCRIPT_FILENAME'
p3316
asbag56
(g77
g58
NtRp3317
(dp3318
g61
(dp3319
g88
g89
ssg70
g3308
sg63
(lp3320
S':'
asbag56
(g77
g58
NtRp3321
(dp3322
g61
(dp3323
sg70
g3308
sg63
(lp3324
g56
(g57
g58
NtRp3325
(dp3326
g61
(dp3327
g69
I3
ssg70
g3321
sg63
(lp3328
g1700
asbasbasbag56
(g72
g58
NtRp3329
(dp3330
g61
(dp3331
sg70
g2800
sg63
(lp3332
g56
(g77
g58
NtRp3333
(dp3334
g61
(dp3335
g81
g82
ssg70
g3329
sg63
(lp3336
S'SCRIPT_NAME'
p3337
asbag56
(g77
g58
NtRp3338
(dp3339
g61
(dp3340
g88
g89
ssg70
g3329
sg63
(lp3341
S':'
asbag56
(g77
g58
NtRp3342
(dp3343
g61
(dp3344
sg70
g3329
sg63
(lp3345
g56
(g57
g58
NtRp3346
(dp3347
g61
(dp3348
g69
I3
ssg70
g3342
sg63
(lp3349
S''
asbasbasbag56
(g72
g58
NtRp3350
(dp3351
g61
(dp3352
sg70
g2800
sg63
(lp3353
g56
(g77
g58
NtRp3354
(dp3355
g61
(dp3356
g81
g82
ssg70
g3350
sg63
(lp3357
S'SERVER_ADDR'
p3358
asbag56
(g77
g58
NtRp3359
(dp3360
g61
(dp3361
g88
g89
ssg70
g3350
sg63
(lp3362
S':'
asbag56
(g77
g58
NtRp3363
(dp3364
g61
(dp3365
sg70
g3350
sg63
(lp3366
g56
(g57
g58
NtRp3367
(dp3368
g61
(dp3369
g69
I3
ssg70
g3363
sg63
(lp3370
g1743
asbasbasbag56
(g72
g58
NtRp3371
(dp3372
g61
(dp3373
sg70
g2800
sg63
(lp3374
g56
(g77
g58
NtRp3375
(dp3376
g61
(dp3377
g81
g82
ssg70
g3371
sg63
(lp3378
S'SERVER_ADMIN'
p3379
asbag56
(g77
g58
NtRp3380
(dp3381
g61
(dp3382
g88
g89
ssg70
g3371
sg63
(lp3383
S':'
asbag56
(g77
g58
NtRp3384
(dp3385
g61
(dp3386
sg70
g3371
sg63
(lp3387
g56
(g57
g58
NtRp3388
(dp3389
g61
(dp3390
g69
I3
ssg70
g3384
sg63
(lp3391
g1765
asbasbasbag56
(g72
g58
NtRp3392
(dp3393
g61
(dp3394
sg70
g2800
sg63
(lp3395
g56
(g77
g58
NtRp3396
(dp3397
g61
(dp3398
g81
g82
ssg70
g3392
sg63
(lp3399
S'SERVER_NAME'
p3400
asbag56
(g77
g58
NtRp3401
(dp3402
g61
(dp3403
g88
g89
ssg70
g3392
sg63
(lp3404
S':'
asbag56
(g77
g58
NtRp3405
(dp3406
g61
(dp3407
sg70
g3392
sg63
(lp3408
g56
(g57
g58
NtRp3409
(dp3410
g61
(dp3411
g69
I3
ssg70
g3405
sg63
(lp3412
g1787
asbasbasbag56
(g72
g58
NtRp3413
(dp3414
g61
(dp3415
sg70
g2800
sg63
(lp3416
g56
(g77
g58
NtRp3417
(dp3418
g61
(dp3419
g81
g82
ssg70
g3413
sg63
(lp3420
S'SERVER_PORT'
p3421
asbag56
(g77
g58
NtRp3422
(dp3423
g61
(dp3424
g88
g89
ssg70
g3413
sg63
(lp3425
S':'
asbag56
(g77
g58
NtRp3426
(dp3427
g61
(dp3428
sg70
g3413
sg63
(lp3429
g56
(g57
g58
NtRp3430
(dp3431
g61
(dp3432
g69
I3
ssg70
g3426
sg63
(lp3433
g1809
asbasbasbag56
(g72
g58
NtRp3434
(dp3435
g61
(dp3436
sg70
g2800
sg63
(lp3437
g56
(g77
g58
NtRp3438
(dp3439
g61
(dp3440
g81
g82
ssg70
g3434
sg63
(lp3441
S'SERVER_PROTOCOL'
p3442
asbag56
(g77
g58
NtRp3443
(dp3444
g61
(dp3445
g88
g89
ssg70
g3434
sg63
(lp3446
S':'
asbag56
(g77
g58
NtRp3447
(dp3448
g61
(dp3449
sg70
g3434
sg63
(lp3450
g56
(g57
g58
NtRp3451
(dp3452
g61
(dp3453
g69
I3
ssg70
g3447
sg63
(lp3454
g1831
asbasbasbag56
(g72
g58
NtRp3455
(dp3456
g61
(dp3457
sg70
g2800
sg63
(lp3458
g56
(g77
g58
NtRp3459
(dp3460
g61
(dp3461
g81
g82
ssg70
g3455
sg63
(lp3462
S'SERVER_SIGNATURE'
p3463
asbag56
(g77
g58
NtRp3464
(dp3465
g61
(dp3466
g88
g89
ssg70
g3455
sg63
(lp3467
S':'
asbag56
(g77
g58
NtRp3468
(dp3469
g61
(dp3470
sg70
g3455
sg63
(lp3471
g56
(g57
g58
NtRp3472
(dp3473
g61
(dp3474
g69
I3
ssg70
g3468
sg63
(lp3475
S''
asbasbasbag56
(g72
g58
NtRp3476
(dp3477
g61
(dp3478
sg70
g2800
sg63
(lp3479
g56
(g77
g58
NtRp3480
(dp3481
g61
(dp3482
g81
g82
ssg70
g3476
sg63
(lp3483
S'SERVER_SOFTWARE'
p3484
asbag56
(g77
g58
NtRp3485
(dp3486
g61
(dp3487
g88
g89
ssg70
g3476
sg63
(lp3488
S':'
asbag56
(g77
g58
NtRp3489
(dp3490
g61
(dp3491
sg70
g3476
sg63
(lp3492
g56
(g57
g58
NtRp3493
(dp3494
g61
(dp3495
g69
I3
ssg70
g3489
sg63
(lp3496
g1874
asbasbasbag56
(g72
g58
NtRp3497
(dp3498
g61
(dp3499
sg70
g2800
sg63
(lp3500
g56
(g77
g58
NtRp3501
(dp3502
g61
(dp3503
g81
g82
ssg70
g3497
sg63
(lp3504
S'SystemRoot'
p3505
asbag56
(g77
g58
NtRp3506
(dp3507
g61
(dp3508
g88
g89
ssg70
g3497
sg63
(lp3509
S':'
asbag56
(g77
g58
NtRp3510
(dp3511
g61
(dp3512
sg70
g3497
sg63
(lp3513
g56
(g57
g58
NtRp3514
(dp3515
g61
(dp3516
g69
I3
ssg70
g3510
sg63
(lp3517
g1896
asbasbasbag56
(g72
g58
NtRp3518
(dp3519
g61
(dp3520
sg70
g2800
sg63
(lp3521
g56
(g77
g58
NtRp3522
(dp3523
g61
(dp3524
g81
g82
ssg70
g3518
sg63
(lp3525
S'WINDIR'
p3526
asbag56
(g77
g58
NtRp3527
(dp3528
g61
(dp3529
g88
g89
ssg70
g3518
sg63
(lp3530
S':'
asbag56
(g77
g58
NtRp3531
(dp3532
g61
(dp3533
sg70
g3518
sg63
(lp3534
g56
(g57
g58
NtRp3535
(dp3536
g61
(dp3537
g69
I3
ssg70
g3531
sg63
(lp3538
g2027
asbasbasbag56
(g72
g58
NtRp3539
(dp3540
g61
(dp3541
sg70
g2800
sg63
(lp3542
g56
(g77
g58
NtRp3543
(dp3544
g61
(dp3545
g81
g82
ssg70
g3539
sg63
(lp3546
S'mod_wsgi.application_group'
p3547
asbag56
(g77
g58
NtRp3548
(dp3549
g61
(dp3550
g88
g89
ssg70
g3539
sg63
(lp3551
S':'
asbag56
(g77
g58
NtRp3552
(dp3553
g61
(dp3554
sg70
g3539
sg63
(lp3555
g56
(g57
g58
NtRp3556
(dp3557
g61
(dp3558
g69
I3
ssg70
g3552
sg63
(lp3559
g1327
asbasbasbag56
(g72
g58
NtRp3560
(dp3561
g61
(dp3562
sg70
g2800
sg63
(lp3563
g56
(g77
g58
NtRp3564
(dp3565
g61
(dp3566
g81
g82
ssg70
g3560
sg63
(lp3567
S'mod_wsgi.callable_object'
p3568
asbag56
(g77
g58
NtRp3569
(dp3570
g61
(dp3571
g88
g89
ssg70
g3560
sg63
(lp3572
S':'
asbag56
(g77
g58
NtRp3573
(dp3574
g61
(dp3575
sg70
g3560
sg63
(lp3576
g56
(g57
g58
NtRp3577
(dp3578
g61
(dp3579
g69
I3
ssg70
g3573
sg63
(lp3580
g1349
asbasbasbag56
(g72
g58
NtRp3581
(dp3582
g61
(dp3583
sg70
g2800
sg63
(lp3584
g56
(g77
g58
NtRp3585
(dp3586
g61
(dp3587
g81
g82
ssg70
g3581
sg63
(lp3588
S'mod_wsgi.handler_script'
p3589
asbag56
(g77
g58
NtRp3590
(dp3591
g61
(dp3592
g88
g89
ssg70
g3581
sg63
(lp3593
S':'
asbag56
(g77
g58
NtRp3594
(dp3595
g61
(dp3596
sg70
g3581
sg63
(lp3597
g56
(g57
g58
NtRp3598
(dp3599
g61
(dp3600
g69
I3
ssg70
g3594
sg63
(lp3601
S''
asbasbasbag56
(g72
g58
NtRp3602
(dp3603
g61
(dp3604
sg70
g2800
sg63
(lp3605
g56
(g77
g58
NtRp3606
(dp3607
g61
(dp3608
g81
g82
ssg70
g3602
sg63
(lp3609
S'mod_wsgi.input_chunked'
p3610
asbag56
(g77
g58
NtRp3611
(dp3612
g61
(dp3613
g88
g89
ssg70
g3602
sg63
(lp3614
S':'
asbag56
(g77
g58
NtRp3615
(dp3616
g61
(dp3617
sg70
g3602
sg63
(lp3618
g56
(g57
g58
NtRp3619
(dp3620
g61
(dp3621
g69
I3
ssg70
g3615
sg63
(lp3622
S'0'
asbasbasbag56
(g72
g58
NtRp3623
(dp3624
g61
(dp3625
sg70
g2800
sg63
(lp3626
g56
(g77
g58
NtRp3627
(dp3628
g61
(dp3629
g81
g82
ssg70
g3623
sg63
(lp3630
S'mod_wsgi.process_group'
p3631
asbag56
(g77
g58
NtRp3632
(dp3633
g61
(dp3634
g88
g89
ssg70
g3623
sg63
(lp3635
S':'
asbag56
(g77
g58
NtRp3636
(dp3637
g61
(dp3638
sg70
g3623
sg63
(lp3639
g56
(g57
g58
NtRp3640
(dp3641
g61
(dp3642
g69
I3
ssg70
g3636
sg63
(lp3643
S''
asbasbasbag56
(g72
g58
NtRp3644
(dp3645
g61
(dp3646
sg70
g2800
sg63
(lp3647
g56
(g77
g58
NtRp3648
(dp3649
g61
(dp3650
g81
g82
ssg70
g3644
sg63
(lp3651
S'mod_wsgi.request_handler'
p3652
asbag56
(g77
g58
NtRp3653
(dp3654
g61
(dp3655
g88
g89
ssg70
g3644
sg63
(lp3656
S':'
asbag56
(g77
g58
NtRp3657
(dp3658
g61
(dp3659
sg70
g3644
sg63
(lp3660
g56
(g57
g58
NtRp3661
(dp3662
g61
(dp3663
g69
I3
ssg70
g3657
sg63
(lp3664
g1434
asbasbasbag56
(g72
g58
NtRp3665
(dp3666
g61
(dp3667
sg70
g2800
sg63
(lp3668
g56
(g77
g58
NtRp3669
(dp3670
g61
(dp3671
g81
g82
ssg70
g3665
sg63
(lp3672
S'mod_wsgi.script_reloading'
p3673
asbag56
(g77
g58
NtRp3674
(dp3675
g61
(dp3676
g88
g89
ssg70
g3665
sg63
(lp3677
S':'
asbag56
(g77
g58
NtRp3678
(dp3679
g61
(dp3680
sg70
g3665
sg63
(lp3681
g56
(g57
g58
NtRp3682
(dp3683
g61
(dp3684
g69
I3
ssg70
g3678
sg63
(lp3685
S'1'
asbasbasbag56
(g72
g58
NtRp3686
(dp3687
g61
(dp3688
sg70
g2800
sg63
(lp3689
g56
(g77
g58
NtRp3690
(dp3691
g61
(dp3692
g81
g82
ssg70
g3686
sg63
(lp3693
S'mod_wsgi.version'
p3694
asbag56
(g77
g58
NtRp3695
(dp3696
g61
(dp3697
g88
g89
ssg70
g3686
sg63
(lp3698
S':'
asbag56
(g77
g58
NtRp3699
(dp3700
g61
(dp3701
sg70
g3686
sg63
(lp3702
g56
(g57
g58
NtRp3703
(dp3704
g61
(dp3705
g69
I3
ssg70
g3699
sg63
(lp3706
g56
(g65
g58
NtRp3707
(dp3708
g61
(dp3709
g69
I2
ssg70
Nsg63
(lp3710
g56
(g72
g58
NtRp3711
(dp3712
g61
(dp3713
sg70
g3707
sg63
(lp3714
g56
(g77
g58
NtRp3715
(dp3716
g61
(dp3717
sg70
g3711
sg63
(lp3718
g56
(g57
g58
NtRp3719
(dp3720
g61
(dp3721
g69
I2
ssg70
g3715
sg63
(lp3722
S'3'
asbasbasbag56
(g72
g58
NtRp3723
(dp3724
g61
(dp3725
sg70
g3707
sg63
(lp3726
g56
(g77
g58
NtRp3727
(dp3728
g61
(dp3729
sg70
g3723
sg63
(lp3730
g56
(g57
g58
NtRp3731
(dp3732
g61
(dp3733
g69
I2
ssg70
g3727
sg63
(lp3734
S'3'
asbasbasbasbasbasbasbag56
(g72
g58
NtRp3735
(dp3736
g61
(dp3737
sg70
g2800
sg63
(lp3738
g56
(g77
g58
NtRp3739
(dp3740
g61
(dp3741
g81
g82
ssg70
g3735
sg63
(lp3742
S'wsgi.errors'
p3743
asbag56
(g77
g58
NtRp3744
(dp3745
g61
(dp3746
g88
g89
ssg70
g3735
sg63
(lp3747
S':'
asbag56
(g77
g58
NtRp3748
(dp3749
g61
(dp3750
sg70
g3735
sg63
(lp3751
g56
(g57
g58
NtRp3752
(dp3753
g61
(dp3754
g69
I3
ssg70
g3748
sg63
(lp3755
S'<mod_wsgi.Log object at 0x0412EB60>'
p3756
asbasbasbag56
(g72
g58
NtRp3757
(dp3758
g61
(dp3759
sg70
g2800
sg63
(lp3760
g56
(g77
g58
NtRp3761
(dp3762
g61
(dp3763
g81
g82
ssg70
g3757
sg63
(lp3764
S'wsgi.file_wrapper'
p3765
asbag56
(g77
g58
NtRp3766
(dp3767
g61
(dp3768
g88
g89
ssg70
g3757
sg63
(lp3769
S':'
asbag56
(g77
g58
NtRp3770
(dp3771
g61
(dp3772
sg70
g3757
sg63
(lp3773
g56
(g57
g58
NtRp3774
(dp3775
g61
(dp3776
g69
I3
ssg70
g3770
sg63
(lp3777
S'<built-in method file_wrapper of mod_wsgi.Adapter object at 0x04200E30>'
p3778
asbasbasbag56
(g72
g58
NtRp3779
(dp3780
g61
(dp3781
sg70
g2800
sg63
(lp3782
g56
(g77
g58
NtRp3783
(dp3784
g61
(dp3785
g81
g82
ssg70
g3779
sg63
(lp3786
S'wsgi.input'
p3787
asbag56
(g77
g58
NtRp3788
(dp3789
g61
(dp3790
g88
g89
ssg70
g3779
sg63
(lp3791
S':'
asbag56
(g77
g58
NtRp3792
(dp3793
g61
(dp3794
sg70
g3779
sg63
(lp3795
g56
(g57
g58
NtRp3796
(dp3797
g61
(dp3798
g69
I3
ssg70
g3792
sg63
(lp3799
S"<open file '<fdopen>', mode 'w+b' at 0x05260D30>"
p3800
asbasbasbag56
(g72
g58
NtRp3801
(dp3802
g61
(dp3803
sg70
g2800
sg63
(lp3804
g56
(g77
g58
NtRp3805
(dp3806
g61
(dp3807
g81
g82
ssg70
g3801
sg63
(lp3808
S'wsgi.multiprocess'
p3809
asbag56
(g77
g58
NtRp3810
(dp3811
g61
(dp3812
g88
g89
ssg70
g3801
sg63
(lp3813
S':'
asbag56
(g77
g58
NtRp3814
(dp3815
g61
(dp3816
sg70
g3801
sg63
(lp3817
g56
(g57
g58
NtRp3818
(dp3819
g61
(dp3820
g69
I3
ssg70
g3814
sg63
(lp3821
g99
asbasbasbag56
(g72
g58
NtRp3822
(dp3823
g61
(dp3824
sg70
g2800
sg63
(lp3825
g56
(g77
g58
NtRp3826
(dp3827
g61
(dp3828
g81
g82
ssg70
g3822
sg63
(lp3829
S'wsgi.multithread'
p3830
asbag56
(g77
g58
NtRp3831
(dp3832
g61
(dp3833
g88
g89
ssg70
g3822
sg63
(lp3834
S':'
asbag56
(g77
g58
NtRp3835
(dp3836
g61
(dp3837
sg70
g3822
sg63
(lp3838
g56
(g57
g58
NtRp3839
(dp3840
g61
(dp3841
g69
I3
ssg70
g3835
sg63
(lp3842
g2136
asbasbasbag56
(g72
g58
NtRp3843
(dp3844
g61
(dp3845
sg70
g2800
sg63
(lp3846
g56
(g77
g58
NtRp3847
(dp3848
g61
(dp3849
g81
g82
ssg70
g3843
sg63
(lp3850
S'wsgi.run_once'
p3851
asbag56
(g77
g58
NtRp3852
(dp3853
g61
(dp3854
g88
g89
ssg70
g3843
sg63
(lp3855
S':'
asbag56
(g77
g58
NtRp3856
(dp3857
g61
(dp3858
sg70
g3843
sg63
(lp3859
g56
(g57
g58
NtRp3860
(dp3861
g61
(dp3862
g69
I3
ssg70
g3856
sg63
(lp3863
g99
asbasbasbag56
(g72
g58
NtRp3864
(dp3865
g61
(dp3866
sg70
g2800
sg63
(lp3867
g56
(g77
g58
NtRp3868
(dp3869
g61
(dp3870
g81
g82
ssg70
g3864
sg63
(lp3871
S'wsgi.url_scheme'
p3872
asbag56
(g77
g58
NtRp3873
(dp3874
g61
(dp3875
g88
g89
ssg70
g3864
sg63
(lp3876
S':'
asbag56
(g77
g58
NtRp3877
(dp3878
g61
(dp3879
sg70
g3864
sg63
(lp3880
g56
(g57
g58
NtRp3881
(dp3882
g61
(dp3883
g69
I3
ssg70
g3877
sg63
(lp3884
g2179
asbasbasbag56
(g72
g58
NtRp3885
(dp3886
g61
(dp3887
sg70
g2800
sg63
(lp3888
g56
(g77
g58
NtRp3889
(dp3890
g61
(dp3891
g81
g82
ssg70
g3885
sg63
(lp3892
S'wsgi.version'
p3893
asbag56
(g77
g58
NtRp3894
(dp3895
g61
(dp3896
g88
g89
ssg70
g3885
sg63
(lp3897
S':'
asbag56
(g77
g58
NtRp3898
(dp3899
g61
(dp3900
sg70
g3885
sg63
(lp3901
g56
(g57
g58
NtRp3902
(dp3903
g61
(dp3904
g69
I3
ssg70
g3898
sg63
(lp3905
S'1'
asbasbasbasbasbasbasbasbasbasbasbasbasbsS'frames'
p3906
(lp3907
(dp3908
S'file'
p3909
S'D:\\Workbench\\private\\web2py_src\\gluon\\restricted.py'
p3910
sS'dump'
p3911
(dp3912
S'environment'
p3913
S"{'A': <class 'gluon.html.A'>, 'B': <class 'gluon.html.B'>, 'BEAUTIFY': <class 'gluon.html.BEAUTIFY'>, 'BODY': <class 'gluon.html.BODY'>, 'BR': <class 'gluon.html.BR'>, 'BUTTON': <class 'gluon.html.BUTTON'>, 'CAT': <class 'gluon.html.CAT'>, 'CENTER': <class 'gluon.html.CENTER'>, 'CLEANUP': <class 'gluon.validators.CLEANUP'>, 'CODE': <class 'gluon.html.CODE'>, ...}"
p3914
sS'ccode'
p3915
S'<code object <module> at 041E04A0, file "D:\\Work...tions\\examples\\controllers/transform.py", line 2>'
p3916
ssS'lnum'
p3917
I194
sS'lines'
p3918
(dp3919
I192
S'        else:'
p3920
sI193
S'            ccode = compile2(code,layer)'
p3921
sI194
S'        exec ccode in environment'
p3922
sI195
S'    except HTTP:'
p3923
sI196
S'        raise'
p3924
sI197
S'    except Exception, error:'
p3925
sI198
S'        # XXX Show exception in Wing IDE if running in debugger'
p3926
sI189
S'    try:'
p3927
sI190
S'        if type(code) == types.CodeType:'
p3928
sI191
S'            ccode = code'
p3929
ssS'call'
p3930
S"(code='\\ndef index():\\n    return dict()\\n\\ndef upload():\\n ...e.value\\n\\nresponse._vars=response._caller(upload)\\n', environment={'A': <class 'gluon.html.A'>, 'B': <class 'gluon.html.B'>, 'BEAUTIFY': <class 'gluon.html.BEAUTIFY'>, 'BODY': <class 'gluon.html.BODY'>, 'BR': <class 'gluon.html.BR'>, 'BUTTON': <class 'gluon.html.BUTTON'>, 'CAT': <class 'gluon.html.CAT'>, 'CENTER': <class 'gluon.html.CENTER'>, 'CLEANUP': <class 'gluon.validators.CLEANUP'>, 'CODE': <class 'gluon.html.CODE'>, ...}, layer=r'D:\\Workbench\\private\\web2py_src\\applications\\examples\\controllers/transform.py')"
p3931
sS'func'
p3932
S'restricted'
p3933
sa(dp3934
g3909
S'D:\\Workbench\\private\\web2py_src\\applications\\examples\\controllers\\transform.py'
p3935
sg3911
(dp3936
sg3917
I8
sg3918
(dp3937
I1
S''
sI2
S'def index():'
p3938
sI3
S'    return dict()'
p3939
sI4
S''
sI5
S'def upload():'
p3940
sI6
S'    data = request.vars.myfile.value'
p3941
ssg3930
S'()'
p3942
sg3932
S'<module>'
p3943
sa(dp3944
g3909
S'D:\\Workbench\\private\\web2py_src\\gluon\\globals.py'
p3945
sg3911
(dp3946
S'self'
p3947
S'undefined'
p3948
sS'f'
S'<function upload>'
p3949
ssg3917
I149
sg3918
(dp3950
I144
S'        self.meta = Storage()      # used by web2py_ajax.html'
p3951
sI145
S'        self.menu = []             # used by the default view layout'
p3952
sI146
S'        self.files = []            # used by web2py_ajax.html'
p3953
sI147
S'        self.generic_patterns = [] # patterns to allow generic views'
p3954
sI148
S'        self._vars = None'
p3955
sI149
S'        self._caller = lambda f: f()'
p3956
sI150
S'        self._view_environment = None'
p3957
sI151
S'        self._custom_commit = None'
p3958
sI152
S'        self._custom_rollback = None'
p3959
sI153
S''
ssg3930
S'(f=<function upload>)'
p3960
sg3932
S'<lambda>'
p3961
sa(dp3962
g3909
S'D:\\Workbench\\private\\web2py_src\\applications\\examples\\controllers\\transform.py'
p3963
sg3911
(dp3964
S'global request'
p3965
S"<Storage {'body': <open file '<fdopen>', mode 'w..._vars': <Storage {}>, 'post_vars': <Storage {}>}>"
p3966
sS'request.vars'
p3967
S'<Storage {}>'
p3968
sS'data'
p3969
g3948
sS'request.vars.myfile'
p3970
S'None'
p3971
sS'request.vars.myfile.value'
p3972
g3948
ssg3917
I6
sg3918
(dp3973
I1
S''
sI2
S'def index():'
p3974
sI3
S'    return dict()'
p3975
sI4
S''
sI5
S'def upload():'
p3976
sI6
S'    data = request.vars.myfile.value'
p3977
ssg3930
S'()'
p3978
sg3932
S'upload'
p3979
sasS'pyver'
p3980
S'Python 2.7.2: C:\\Program Files\\Apache Software Foundation\\Apache2.2\\bin\\httpd.exe'
p3981
sS'session'
p3982
g56
(g57
g58
NtRp3983
(dp3984
g61
(dp3985
sg63
(lp3986
g56
(g65
g58
NtRp3987
(dp3988
g61
(dp3989
g69
I5
ssg70
Nsg63
(lp3990
sbasbsS'etype'
p3991
S"<type 'exceptions.AttributeError'>"
p3992
sS'date'
p3993
S'Wed Mar 07 22:47:40 2012'
p3994
sS'response'
p3995
g56
(g57
g58
NtRp3996
(dp3997
g61
(dp3998
sg63
(lp3999
g56
(g65
g58
NtRp4000
(dp4001
g61
(dp4002
g69
I5
ssg70
Nsg63
(lp4003
g56
(g72
g58
NtRp4004
(dp4005
g61
(dp4006
sg70
g4000
sg63
(lp4007
g56
(g77
g58
NtRp4008
(dp4009
g61
(dp4010
g81
g82
ssg70
g4004
sg63
(lp4011
g154
asbag56
(g77
g58
NtRp4012
(dp4013
g61
(dp4014
g88
g89
ssg70
g4004
sg63
(lp4015
S':'
asbag56
(g77
g58
NtRp4016
(dp4017
g61
(dp4018
sg70
g4004
sg63
(lp4019
g56
(g57
g58
NtRp4020
(dp4021
g61
(dp4022
g69
I5
ssg70
g4016
sg63
(lp4023
S'<cStringIO.StringO object at 0x0527DE80>'
p4024
asbasbasbag56
(g72
g58
NtRp4025
(dp4026
g61
(dp4027
sg70
g4000
sg63
(lp4028
g56
(g77
g58
NtRp4029
(dp4030
g61
(dp4031
g81
g82
ssg70
g4025
sg63
(lp4032
g220
asbag56
(g77
g58
NtRp4033
(dp4034
g61
(dp4035
g88
g89
ssg70
g4025
sg63
(lp4036
S':'
asbag56
(g77
g58
NtRp4037
(dp4038
g61
(dp4039
sg70
g4025
sg63
(lp4040
g56
(g57
g58
NtRp4041
(dp4042
g61
(dp4043
g69
I5
ssg70
g4037
sg63
(lp4044
g56
(g65
g58
NtRp4045
(dp4046
g61
(dp4047
g69
I4
ssg70
Nsg63
(lp4048
g56
(g72
g58
NtRp4049
(dp4050
g61
(dp4051
sg70
g4045
sg63
(lp4052
g56
(g77
g58
NtRp4053
(dp4054
g61
(dp4055
g81
g82
ssg70
g4049
sg63
(lp4056
S'session_id_examples'
p4057
asbag56
(g77
g58
NtRp4058
(dp4059
g61
(dp4060
g88
g89
ssg70
g4049
sg63
(lp4061
S':'
asbag56
(g77
g58
NtRp4062
(dp4063
g61
(dp4064
sg70
g4049
sg63
(lp4065
g56
(g57
g58
NtRp4066
(dp4067
g61
(dp4068
g69
I4
ssg70
g4062
sg63
(lp4069
g56
(g65
g58
NtRp4070
(dp4071
g61
(dp4072
g69
I3
ssg70
Nsg63
(lp4073
g56
(g72
g58
NtRp4074
(dp4075
g61
(dp4076
sg70
g4070
sg63
(lp4077
g56
(g77
g58
NtRp4078
(dp4079
g61
(dp4080
g81
g82
ssg70
g4074
sg63
(lp4081
g270
asbag56
(g77
g58
NtRp4082
(dp4083
g61
(dp4084
g88
g89
ssg70
g4074
sg63
(lp4085
S':'
asbag56
(g77
g58
NtRp4086
(dp4087
g61
(dp4088
sg70
g4074
sg63
(lp4089
g56
(g57
g58
NtRp4090
(dp4091
g61
(dp4092
g69
I3
ssg70
g4086
sg63
(lp4093
S''
asbasbasbag56
(g72
g58
NtRp4094
(dp4095
g61
(dp4096
sg70
g4070
sg63
(lp4097
g56
(g77
g58
NtRp4098
(dp4099
g61
(dp4100
g81
g82
ssg70
g4094
sg63
(lp4101
g291
asbag56
(g77
g58
NtRp4102
(dp4103
g61
(dp4104
g88
g89
ssg70
g4094
sg63
(lp4105
S':'
asbag56
(g77
g58
NtRp4106
(dp4107
g61
(dp4108
sg70
g4094
sg63
(lp4109
g56
(g57
g58
NtRp4110
(dp4111
g61
(dp4112
g69
I3
ssg70
g4106
sg63
(lp4113
S''
asbasbasbag56
(g72
g58
NtRp4114
(dp4115
g61
(dp4116
sg70
g4070
sg63
(lp4117
g56
(g77
g58
NtRp4118
(dp4119
g61
(dp4120
g81
g82
ssg70
g4114
sg63
(lp4121
g312
asbag56
(g77
g58
NtRp4122
(dp4123
g61
(dp4124
g88
g89
ssg70
g4114
sg63
(lp4125
S':'
asbag56
(g77
g58
NtRp4126
(dp4127
g61
(dp4128
sg70
g4114
sg63
(lp4129
g56
(g57
g58
NtRp4130
(dp4131
g61
(dp4132
g69
I3
ssg70
g4126
sg63
(lp4133
S''
asbasbasbag56
(g72
g58
NtRp4134
(dp4135
g61
(dp4136
sg70
g4070
sg63
(lp4137
g56
(g77
g58
NtRp4138
(dp4139
g61
(dp4140
g81
g82
ssg70
g4134
sg63
(lp4141
g333
asbag56
(g77
g58
NtRp4142
(dp4143
g61
(dp4144
g88
g89
ssg70
g4134
sg63
(lp4145
S':'
asbag56
(g77
g58
NtRp4146
(dp4147
g61
(dp4148
sg70
g4134
sg63
(lp4149
g56
(g57
g58
NtRp4150
(dp4151
g61
(dp4152
g69
I3
ssg70
g4146
sg63
(lp4153
S''
asbasbasbag56
(g72
g58
NtRp4154
(dp4155
g61
(dp4156
sg70
g4070
sg63
(lp4157
g56
(g77
g58
NtRp4158
(dp4159
g61
(dp4160
g81
g82
ssg70
g4154
sg63
(lp4161
g354
asbag56
(g77
g58
NtRp4162
(dp4163
g61
(dp4164
g88
g89
ssg70
g4154
sg63
(lp4165
S':'
asbag56
(g77
g58
NtRp4166
(dp4167
g61
(dp4168
sg70
g4154
sg63
(lp4169
g56
(g57
g58
NtRp4170
(dp4171
g61
(dp4172
g69
I3
ssg70
g4166
sg63
(lp4173
S''
asbasbasbag56
(g72
g58
NtRp4174
(dp4175
g61
(dp4176
sg70
g4070
sg63
(lp4177
g56
(g77
g58
NtRp4178
(dp4179
g61
(dp4180
g81
g82
ssg70
g4174
sg63
(lp4181
g375
asbag56
(g77
g58
NtRp4182
(dp4183
g61
(dp4184
g88
g89
ssg70
g4174
sg63
(lp4185
S':'
asbag56
(g77
g58
NtRp4186
(dp4187
g61
(dp4188
sg70
g4174
sg63
(lp4189
g56
(g57
g58
NtRp4190
(dp4191
g61
(dp4192
g69
I3
ssg70
g4186
sg63
(lp4193
S'/'
asbasbasbag56
(g72
g58
NtRp4194
(dp4195
g61
(dp4196
sg70
g4070
sg63
(lp4197
g56
(g77
g58
NtRp4198
(dp4199
g61
(dp4200
g81
g82
ssg70
g4194
sg63
(lp4201
g396
asbag56
(g77
g58
NtRp4202
(dp4203
g61
(dp4204
g88
g89
ssg70
g4194
sg63
(lp4205
S':'
asbag56
(g77
g58
NtRp4206
(dp4207
g61
(dp4208
sg70
g4194
sg63
(lp4209
g56
(g57
g58
NtRp4210
(dp4211
g61
(dp4212
g69
I3
ssg70
g4206
sg63
(lp4213
S''
asbasbasbag56
(g72
g58
NtRp4214
(dp4215
g61
(dp4216
sg70
g4070
sg63
(lp4217
g56
(g77
g58
NtRp4218
(dp4219
g61
(dp4220
g81
g82
ssg70
g4214
sg63
(lp4221
g417
asbag56
(g77
g58
NtRp4222
(dp4223
g61
(dp4224
g88
g89
ssg70
g4214
sg63
(lp4225
S':'
asbag56
(g77
g58
NtRp4226
(dp4227
g61
(dp4228
sg70
g4214
sg63
(lp4229
g56
(g57
g58
NtRp4230
(dp4231
g61
(dp4232
g69
I3
ssg70
g4226
sg63
(lp4233
S''
asbasbasbasbasbasbasbasbasbasbasbag56
(g72
g58
NtRp4234
(dp4235
g61
(dp4236
sg70
g4000
sg63
(lp4237
g56
(g77
g58
NtRp4238
(dp4239
g61
(dp4240
g81
g82
ssg70
g4234
sg63
(lp4241
S'files'
p4242
asbag56
(g77
g58
NtRp4243
(dp4244
g61
(dp4245
g88
g89
ssg70
g4234
sg63
(lp4246
S':'
asbag56
(g77
g58
NtRp4247
(dp4248
g61
(dp4249
sg70
g4234
sg63
(lp4250
g56
(g57
g58
NtRp4251
(dp4252
g61
(dp4253
g69
I5
ssg70
g4247
sg63
(lp4254
g56
(g65
g58
NtRp4255
(dp4256
g61
(dp4257
g69
I4
ssg70
Nsg63
(lp4258
sbasbasbasbag56
(g72
g58
NtRp4259
(dp4260
g61
(dp4261
sg70
g4000
sg63
(lp4262
g56
(g77
g58
NtRp4263
(dp4264
g61
(dp4265
g81
g82
ssg70
g4259
sg63
(lp4266
S'flash'
p4267
asbag56
(g77
g58
NtRp4268
(dp4269
g61
(dp4270
g88
g89
ssg70
g4259
sg63
(lp4271
S':'
asbag56
(g77
g58
NtRp4272
(dp4273
g61
(dp4274
sg70
g4259
sg63
(lp4275
g56
(g57
g58
NtRp4276
(dp4277
g61
(dp4278
g69
I5
ssg70
g4272
sg63
(lp4279
S''
asbasbasbag56
(g72
g58
NtRp4280
(dp4281
g61
(dp4282
sg70
g4000
sg63
(lp4283
g56
(g77
g58
NtRp4284
(dp4285
g61
(dp4286
g81
g82
ssg70
g4280
sg63
(lp4287
S'generic_patterns'
p4288
asbag56
(g77
g58
NtRp4289
(dp4290
g61
(dp4291
g88
g89
ssg70
g4280
sg63
(lp4292
S':'
asbag56
(g77
g58
NtRp4293
(dp4294
g61
(dp4295
sg70
g4280
sg63
(lp4296
g56
(g57
g58
NtRp4297
(dp4298
g61
(dp4299
g69
I5
ssg70
g4293
sg63
(lp4300
g56
(g65
g58
NtRp4301
(dp4302
g61
(dp4303
g69
I4
ssg70
Nsg63
(lp4304
sbasbasbasbag56
(g72
g58
NtRp4305
(dp4306
g61
(dp4307
sg70
g4000
sg63
(lp4308
g56
(g77
g58
NtRp4309
(dp4310
g61
(dp4311
g81
g82
ssg70
g4305
sg63
(lp4312
S'headers'
p4313
asbag56
(g77
g58
NtRp4314
(dp4315
g61
(dp4316
g88
g89
ssg70
g4305
sg63
(lp4317
S':'
asbag56
(g77
g58
NtRp4318
(dp4319
g61
(dp4320
sg70
g4305
sg63
(lp4321
g56
(g57
g58
NtRp4322
(dp4323
g61
(dp4324
g69
I5
ssg70
g4318
sg63
(lp4325
g56
(g65
g58
NtRp4326
(dp4327
g61
(dp4328
g69
I4
ssg70
Nsg63
(lp4329
g56
(g72
g58
NtRp4330
(dp4331
g61
(dp4332
sg70
g4326
sg63
(lp4333
g56
(g77
g58
NtRp4334
(dp4335
g61
(dp4336
g81
g82
ssg70
g4330
sg63
(lp4337
S'Cache-Control'
p4338
asbag56
(g77
g58
NtRp4339
(dp4340
g61
(dp4341
g88
g89
ssg70
g4330
sg63
(lp4342
S':'
asbag56
(g77
g58
NtRp4343
(dp4344
g61
(dp4345
sg70
g4330
sg63
(lp4346
g56
(g57
g58
NtRp4347
(dp4348
g61
(dp4349
g69
I4
ssg70
g4343
sg63
(lp4350
S'no-store, no-cache, must-revalidate, post-check=0, pre-check=0'
p4351
asbasbasbag56
(g72
g58
NtRp4352
(dp4353
g61
(dp4354
sg70
g4326
sg63
(lp4355
g56
(g77
g58
NtRp4356
(dp4357
g61
(dp4358
g81
g82
ssg70
g4352
sg63
(lp4359
S'Content-Type'
p4360
asbag56
(g77
g58
NtRp4361
(dp4362
g61
(dp4363
g88
g89
ssg70
g4352
sg63
(lp4364
S':'
asbag56
(g77
g58
NtRp4365
(dp4366
g61
(dp4367
sg70
g4352
sg63
(lp4368
g56
(g57
g58
NtRp4369
(dp4370
g61
(dp4371
g69
I4
ssg70
g4365
sg63
(lp4372
S'text/html; charset=utf-8'
p4373
asbasbasbag56
(g72
g58
NtRp4374
(dp4375
g61
(dp4376
sg70
g4326
sg63
(lp4377
g56
(g77
g58
NtRp4378
(dp4379
g61
(dp4380
g81
g82
ssg70
g4374
sg63
(lp4381
S'Expires'
p4382
asbag56
(g77
g58
NtRp4383
(dp4384
g61
(dp4385
g88
g89
ssg70
g4374
sg63
(lp4386
S':'
asbag56
(g77
g58
NtRp4387
(dp4388
g61
(dp4389
sg70
g4374
sg63
(lp4390
g56
(g57
g58
NtRp4391
(dp4392
g61
(dp4393
g69
I4
ssg70
g4387
sg63
(lp4394
S'Wed, 07 Mar 2012 14:47:39 GMT'
p4395
asbasbasbag56
(g72
g58
NtRp4396
(dp4397
g61
(dp4398
sg70
g4326
sg63
(lp4399
g56
(g77
g58
NtRp4400
(dp4401
g61
(dp4402
g81
g82
ssg70
g4396
sg63
(lp4403
S'Pragma'
p4404
asbag56
(g77
g58
NtRp4405
(dp4406
g61
(dp4407
g88
g89
ssg70
g4396
sg63
(lp4408
S':'
asbag56
(g77
g58
NtRp4409
(dp4410
g61
(dp4411
sg70
g4396
sg63
(lp4412
g56
(g57
g58
NtRp4413
(dp4414
g61
(dp4415
g69
I4
ssg70
g4409
sg63
(lp4416
S'no-cache'
p4417
asbasbasbag56
(g72
g58
NtRp4418
(dp4419
g61
(dp4420
sg70
g4326
sg63
(lp4421
g56
(g77
g58
NtRp4422
(dp4423
g61
(dp4424
g81
g82
ssg70
g4418
sg63
(lp4425
S'X-Powered-By'
p4426
asbag56
(g77
g58
NtRp4427
(dp4428
g61
(dp4429
g88
g89
ssg70
g4418
sg63
(lp4430
S':'
asbag56
(g77
g58
NtRp4431
(dp4432
g61
(dp4433
sg70
g4418
sg63
(lp4434
g56
(g57
g58
NtRp4435
(dp4436
g61
(dp4437
g69
I4
ssg70
g4431
sg63
(lp4438
S'web2py'
p4439
asbasbasbasbasbasbasbag56
(g72
g58
NtRp4440
(dp4441
g61
(dp4442
sg70
g4000
sg63
(lp4443
g56
(g77
g58
NtRp4444
(dp4445
g61
(dp4446
g81
g82
ssg70
g4440
sg63
(lp4447
S'menu'
p4448
asbag56
(g77
g58
NtRp4449
(dp4450
g61
(dp4451
g88
g89
ssg70
g4440
sg63
(lp4452
S':'
asbag56
(g77
g58
NtRp4453
(dp4454
g61
(dp4455
sg70
g4440
sg63
(lp4456
g56
(g57
g58
NtRp4457
(dp4458
g61
(dp4459
g69
I5
ssg70
g4453
sg63
(lp4460
g56
(g65
g58
NtRp4461
(dp4462
g61
(dp4463
g69
I4
ssg70
Nsg63
(lp4464
sbasbasbasbag56
(g72
g58
NtRp4465
(dp4466
g61
(dp4467
sg70
g4000
sg63
(lp4468
g56
(g77
g58
NtRp4469
(dp4470
g61
(dp4471
g81
g82
ssg70
g4465
sg63
(lp4472
S'meta'
p4473
asbag56
(g77
g58
NtRp4474
(dp4475
g61
(dp4476
g88
g89
ssg70
g4465
sg63
(lp4477
S':'
asbag56
(g77
g58
NtRp4478
(dp4479
g61
(dp4480
sg70
g4465
sg63
(lp4481
g56
(g57
g58
NtRp4482
(dp4483
g61
(dp4484
g69
I5
ssg70
g4478
sg63
(lp4485
g56
(g65
g58
NtRp4486
(dp4487
g61
(dp4488
g69
I4
ssg70
Nsg63
(lp4489
sbasbasbasbag56
(g72
g58
NtRp4490
(dp4491
g61
(dp4492
sg70
g4000
sg63
(lp4493
g56
(g77
g58
NtRp4494
(dp4495
g61
(dp4496
g81
g82
ssg70
g4490
sg63
(lp4497
S'postprocessing'
p4498
asbag56
(g77
g58
NtRp4499
(dp4500
g61
(dp4501
g88
g89
ssg70
g4490
sg63
(lp4502
S':'
asbag56
(g77
g58
NtRp4503
(dp4504
g61
(dp4505
sg70
g4490
sg63
(lp4506
g56
(g57
g58
NtRp4507
(dp4508
g61
(dp4509
g69
I5
ssg70
g4503
sg63
(lp4510
g56
(g65
g58
NtRp4511
(dp4512
g61
(dp4513
g69
I4
ssg70
Nsg63
(lp4514
sbasbasbasbag56
(g72
g58
NtRp4515
(dp4516
g61
(dp4517
sg70
g4000
sg63
(lp4518
g56
(g77
g58
NtRp4519
(dp4520
g61
(dp4521
g81
g82
ssg70
g4515
sg63
(lp4522
S'session_file'
p4523
asbag56
(g77
g58
NtRp4524
(dp4525
g61
(dp4526
g88
g89
ssg70
g4515
sg63
(lp4527
S':'
asbag56
(g77
g58
NtRp4528
(dp4529
g61
(dp4530
sg70
g4515
sg63
(lp4531
g56
(g57
g58
NtRp4532
(dp4533
g61
(dp4534
g69
I5
ssg70
g4528
sg63
(lp4535
S"<open file 'D:\\Workbench\\private\\web2py_src\\applications\\examples\\sessions\\127.0.0.1-74cdd304-417e-44a7-ae7c-4c8c3c432899', mode 'rb+' at 0x05260E38>"
p4536
asbasbasbag56
(g72
g58
NtRp4537
(dp4538
g61
(dp4539
sg70
g4000
sg63
(lp4540
g56
(g77
g58
NtRp4541
(dp4542
g61
(dp4543
g81
g82
ssg70
g4537
sg63
(lp4544
S'session_filename'
p4545
asbag56
(g77
g58
NtRp4546
(dp4547
g61
(dp4548
g88
g89
ssg70
g4537
sg63
(lp4549
S':'
asbag56
(g77
g58
NtRp4550
(dp4551
g61
(dp4552
sg70
g4537
sg63
(lp4553
g56
(g57
g58
NtRp4554
(dp4555
g61
(dp4556
g69
I5
ssg70
g4550
sg63
(lp4557
S'D:\\Workbench\\private\\web2py_src\\applications\\examples\\sessions\\127.0.0.1-74cdd304-417e-44a7-ae7c-4c8c3c432899'
p4558
asbasbasbag56
(g72
g58
NtRp4559
(dp4560
g61
(dp4561
sg70
g4000
sg63
(lp4562
g56
(g77
g58
NtRp4563
(dp4564
g61
(dp4565
g81
g82
ssg70
g4559
sg63
(lp4566
S'session_id'
p4567
asbag56
(g77
g58
NtRp4568
(dp4569
g61
(dp4570
g88
g89
ssg70
g4559
sg63
(lp4571
S':'
asbag56
(g77
g58
NtRp4572
(dp4573
g61
(dp4574
sg70
g4559
sg63
(lp4575
g56
(g57
g58
NtRp4576
(dp4577
g61
(dp4578
g69
I5
ssg70
g4572
sg63
(lp4579
S'127.0.0.1-74cdd304-417e-44a7-ae7c-4c8c3c432899'
p4580
asbasbasbag56
(g72
g58
NtRp4581
(dp4582
g61
(dp4583
sg70
g4000
sg63
(lp4584
g56
(g77
g58
NtRp4585
(dp4586
g61
(dp4587
g81
g82
ssg70
g4581
sg63
(lp4588
S'session_id_name'
p4589
asbag56
(g77
g58
NtRp4590
(dp4591
g61
(dp4592
g88
g89
ssg70
g4581
sg63
(lp4593
S':'
asbag56
(g77
g58
NtRp4594
(dp4595
g61
(dp4596
sg70
g4581
sg63
(lp4597
g56
(g57
g58
NtRp4598
(dp4599
g61
(dp4600
g69
I5
ssg70
g4594
sg63
(lp4601
g4057
asbasbasbag56
(g72
g58
NtRp4602
(dp4603
g61
(dp4604
sg70
g4000
sg63
(lp4605
g56
(g77
g58
NtRp4606
(dp4607
g61
(dp4608
g81
g82
ssg70
g4602
sg63
(lp4609
S'session_locked'
p4610
asbag56
(g77
g58
NtRp4611
(dp4612
g61
(dp4613
g88
g89
ssg70
g4602
sg63
(lp4614
S':'
asbag56
(g77
g58
NtRp4615
(dp4616
g61
(dp4617
sg70
g4602
sg63
(lp4618
g56
(g57
g58
NtRp4619
(dp4620
g61
(dp4621
g69
I5
ssg70
g4615
sg63
(lp4622
g2136
asbasbasbag56
(g72
g58
NtRp4623
(dp4624
g61
(dp4625
sg70
g4000
sg63
(lp4626
g56
(g77
g58
NtRp4627
(dp4628
g61
(dp4629
g81
g82
ssg70
g4623
sg63
(lp4630
S'session_new'
p4631
asbag56
(g77
g58
NtRp4632
(dp4633
g61
(dp4634
g88
g89
ssg70
g4623
sg63
(lp4635
S':'
asbag56
(g77
g58
NtRp4636
(dp4637
g61
(dp4638
sg70
g4623
sg63
(lp4639
g56
(g57
g58
NtRp4640
(dp4641
g61
(dp4642
g69
I5
ssg70
g4636
sg63
(lp4643
g99
asbasbasbag56
(g72
g58
NtRp4644
(dp4645
g61
(dp4646
sg70
g4000
sg63
(lp4647
g56
(g77
g58
NtRp4648
(dp4649
g61
(dp4650
g81
g82
ssg70
g4644
sg63
(lp4651
S'status'
p4652
asbag56
(g77
g58
NtRp4653
(dp4654
g61
(dp4655
g88
g89
ssg70
g4644
sg63
(lp4656
S':'
asbag56
(g77
g58
NtRp4657
(dp4658
g61
(dp4659
sg70
g4644
sg63
(lp4660
g56
(g57
g58
NtRp4661
(dp4662
g61
(dp4663
g69
I5
ssg70
g4657
sg63
(lp4664
S'200'
p4665
asbasbasbag56
(g72
g58
NtRp4666
(dp4667
g61
(dp4668
sg70
g4000
sg63
(lp4669
g56
(g77
g58
NtRp4670
(dp4671
g61
(dp4672
g81
g82
ssg70
g4666
sg63
(lp4673
g2715
asbag56
(g77
g58
NtRp4674
(dp4675
g61
(dp4676
g88
g89
ssg70
g4666
sg63
(lp4677
S':'
asbag56
(g77
g58
NtRp4678
(dp4679
g61
(dp4680
sg70
g4666
sg63
(lp4681
g56
(g57
g58
NtRp4682
(dp4683
g61
(dp4684
g69
I5
ssg70
g4678
sg63
(lp4685
g2728
asbasbasbag56
(g72
g58
NtRp4686
(dp4687
g61
(dp4688
sg70
g4000
sg63
(lp4689
g56
(g77
g58
NtRp4690
(dp4691
g61
(dp4692
g81
g82
ssg70
g4686
sg63
(lp4693
S'view'
p4694
asbag56
(g77
g58
NtRp4695
(dp4696
g61
(dp4697
g88
g89
ssg70
g4686
sg63
(lp4698
S':'
asbag56
(g77
g58
NtRp4699
(dp4700
g61
(dp4701
sg70
g4686
sg63
(lp4702
g56
(g57
g58
NtRp4703
(dp4704
g61
(dp4705
g69
I5
ssg70
g4699
sg63
(lp4706
S'transform/upload.html'
p4707
asbasbasbasbasbsS'locals'
p4708
(dp4709
ssS'traceback'
p4710
S'Traceback (most recent call last):\n  File "D:\\Workbench\\private\\web2py_src\\gluon\\restricted.py", line 194, in restricted\n    exec ccode in environment\n  File "D:\\Workbench\\private\\web2py_src\\applications\\examples\\controllers/transform.py", line 8, in <module>\n  File "D:\\Workbench\\private\\web2py_src\\gluon\\globals.py", line 149, in <lambda>\n    self._caller = lambda f: f()\n  File "D:\\Workbench\\private\\web2py_src\\applications\\examples\\controllers/transform.py", line 6, in upload\n    data = request.vars.myfile.value\nAttributeError: \'NoneType\' object has no attribute \'value\'\n'
p4711
s.