(dp1
S'output'
p2
S''
sS'layer'
p3
S'D:\\Workbench\\private\\web2py_src\\applications\\examples\\controllers/transform.py'
p4
sS'code'
p5
S"\ndef index():\n    return dict()\n\ndef upload():\n    file = request.vars.myfile.file\n    return 'yes' if data else None\n\nresponse._vars=response._caller(upload)\n"
p6
sS'snapshot'
p7
(dp8
S'exception'
p9
(dp10
S'__hash__'
p11
S"<method-wrapper '__hash__' of exceptions.NameError object>"
p12
sS'__setattr__'
p13
S"<method-wrapper '__setattr__' of exceptions.NameError object>"
p14
sS'__reduce_ex__'
p15
S'<built-in method __reduce_ex__ of exceptions.NameError object>'
p16
sS'__getslice__'
p17
S"<method-wrapper '__getslice__' of exceptions.NameError object>"
p18
sS'__getitem__'
p19
S"<method-wrapper '__getitem__' of exceptions.NameError object>"
p20
sS'__setstate__'
p21
S'<built-in method __setstate__ of exceptions.NameError object>'
p22
sS'__reduce__'
p23
S'<built-in method __reduce__ of exceptions.NameError object>'
p24
sS'__str__'
p25
S"<method-wrapper '__str__' of exceptions.NameError object>"
p26
sS'__format__'
p27
S'<built-in method __format__ of exceptions.NameError object>'
p28
sS'__getattribute__'
p29
S"<method-wrapper '__getattribute__' of exceptions.NameError object>"
p30
sS'__class__'
p31
S"<type 'exceptions.NameError'>"
p32
sS'__unicode__'
p33
S'<built-in method __unicode__ of exceptions.NameError object>'
p34
sS'__delattr__'
p35
S"<method-wrapper '__delattr__' of exceptions.NameError object>"
p36
sS'__subclasshook__'
p37
S'<built-in method __subclasshook__ of type object>'
p38
sS'__repr__'
p39
S"<method-wrapper '__repr__' of exceptions.NameError object>"
p40
sS'args'
p41
S'("global name \'data\' is not defined",)'
p42
sS'__dict__'
p43
S'{}'
p44
sS'__sizeof__'
p45
S'<built-in method __sizeof__ of exceptions.NameError object>'
p46
sS'__doc__'
p47
S"'Name not found globally.'"
p48
sS'__init__'
p49
S"<method-wrapper '__init__' of exceptions.NameError object>"
p50
sS'__new__'
p51
S'<built-in method __new__ of type object>'
p52
ssS'evalue'
p53
S"global name 'data' is not defined"
p54
sS'request'
p55
ccopy_reg
_reconstructor
p56
(cgluon.html
BEAUTIFY
p57
c__builtin__
object
p58
NtRp59
(dp60
S'attributes'
p61
(dp62
sS'components'
p63
(lp64
g56
(cgluon.html
TABLE
p65
g58
NtRp66
(dp67
g61
(dp68
S'level'
p69
I5
ssS'parent'
p70
Nsg63
(lp71
g56
(cgluon.html
TR
p72
g58
NtRp73
(dp74
g61
(dp75
sg70
g66
sg63
(lp76
g56
(cgluon.html
TD
p77
g58
NtRp78
(dp79
g61
(dp80
S'_style'
p81
S'font-weight:bold;'
p82
ssg70
g73
sg63
(lp83
S'ajax'
p84
asbag56
(g77
g58
NtRp85
(dp86
g61
(dp87
S'_valign'
p88
S'top'
p89
ssg70
g73
sg63
(lp90
S':'
asbag56
(g77
g58
NtRp91
(dp92
g61
(dp93
sg70
g73
sg63
(lp94
g56
(g57
g58
NtRp95
(dp96
g61
(dp97
g69
I5
ssg70
g91
sg63
(lp98
S'False'
p99
asbasbasbag56
(g72
g58
NtRp100
(dp101
g61
(dp102
sg70
g66
sg63
(lp103
g56
(g77
g58
NtRp104
(dp105
g61
(dp106
g81
g82
ssg70
g100
sg63
(lp107
S'application'
p108
asbag56
(g77
g58
NtRp109
(dp110
g61
(dp111
g88
g89
ssg70
g100
sg63
(lp112
S':'
asbag56
(g77
g58
NtRp113
(dp114
g61
(dp115
sg70
g100
sg63
(lp116
g56
(g57
g58
NtRp117
(dp118
g61
(dp119
g69
I5
ssg70
g113
sg63
(lp120
S'examples'
p121
asbasbasbag56
(g72
g58
NtRp122
(dp123
g61
(dp124
sg70
g66
sg63
(lp125
g56
(g77
g58
NtRp126
(dp127
g61
(dp128
g81
g82
ssg70
g122
sg63
(lp129
g41
asbag56
(g77
g58
NtRp130
(dp131
g61
(dp132
g88
g89
ssg70
g122
sg63
(lp133
S':'
asbag56
(g77
g58
NtRp134
(dp135
g61
(dp136
sg70
g122
sg63
(lp137
g56
(g57
g58
NtRp138
(dp139
g61
(dp140
g69
I5
ssg70
g134
sg63
(lp141
g56
(g65
g58
NtRp142
(dp143
g61
(dp144
g69
I4
ssg70
Nsg63
(lp145
sbasbasbasbag56
(g72
g58
NtRp146
(dp147
g61
(dp148
sg70
g66
sg63
(lp149
g56
(g77
g58
NtRp150
(dp151
g61
(dp152
g81
g82
ssg70
g146
sg63
(lp153
S'body'
p154
asbag56
(g77
g58
NtRp155
(dp156
g61
(dp157
g88
g89
ssg70
g146
sg63
(lp158
S':'
asbag56
(g77
g58
NtRp159
(dp160
g61
(dp161
sg70
g146
sg63
(lp162
g56
(g57
g58
NtRp163
(dp164
g61
(dp165
g69
I5
ssg70
g159
sg63
(lp166
S"<open file '<fdopen>', mode 'w+b' at 0x041EACD8>"
p167
asbasbasbag56
(g72
g58
NtRp168
(dp169
g61
(dp170
sg70
g66
sg63
(lp171
g56
(g77
g58
NtRp172
(dp173
g61
(dp174
g81
g82
ssg70
g168
sg63
(lp175
S'client'
p176
asbag56
(g77
g58
NtRp177
(dp178
g61
(dp179
g88
g89
ssg70
g168
sg63
(lp180
S':'
asbag56
(g77
g58
NtRp181
(dp182
g61
(dp183
sg70
g168
sg63
(lp184
g56
(g57
g58
NtRp185
(dp186
g61
(dp187
g69
I5
ssg70
g181
sg63
(lp188
S'127.0.0.1'
p189
asbasbasbag56
(g72
g58
NtRp190
(dp191
g61
(dp192
sg70
g66
sg63
(lp193
g56
(g77
g58
NtRp194
(dp195
g61
(dp196
g81
g82
ssg70
g190
sg63
(lp197
S'controller'
p198
asbag56
(g77
g58
NtRp199
(dp200
g61
(dp201
g88
g89
ssg70
g190
sg63
(lp202
S':'
asbag56
(g77
g58
NtRp203
(dp204
g61
(dp205
sg70
g190
sg63
(lp206
g56
(g57
g58
NtRp207
(dp208
g61
(dp209
g69
I5
ssg70
g203
sg63
(lp210
S'transform'
p211
asbasbasbag56
(g72
g58
NtRp212
(dp213
g61
(dp214
sg70
g66
sg63
(lp215
g56
(g77
g58
NtRp216
(dp217
g61
(dp218
g81
g82
ssg70
g212
sg63
(lp219
S'cookies'
p220
asbag56
(g77
g58
NtRp221
(dp222
g61
(dp223
g88
g89
ssg70
g212
sg63
(lp224
S':'
asbag56
(g77
g58
NtRp225
(dp226
g61
(dp227
sg70
g212
sg63
(lp228
g56
(g57
g58
NtRp229
(dp230
g61
(dp231
g69
I5
ssg70
g225
sg63
(lp232
g56
(g65
g58
NtRp233
(dp234
g61
(dp235
g69
I4
ssg70
Nsg63
(lp236
g56
(g72
g58
NtRp237
(dp238
g61
(dp239
sg70
g233
sg63
(lp240
g56
(g77
g58
NtRp241
(dp242
g61
(dp243
g81
g82
ssg70
g237
sg63
(lp244
S'ac'
p245
asbag56
(g77
g58
NtRp246
(dp247
g61
(dp248
g88
g89
ssg70
g237
sg63
(lp249
S':'
asbag56
(g77
g58
NtRp250
(dp251
g61
(dp252
sg70
g237
sg63
(lp253
g56
(g57
g58
NtRp254
(dp255
g61
(dp256
g69
I4
ssg70
g250
sg63
(lp257
g56
(g65
g58
NtRp258
(dp259
g61
(dp260
g69
I3
ssg70
Nsg63
(lp261
g56
(g72
g58
NtRp262
(dp263
g61
(dp264
sg70
g258
sg63
(lp265
g56
(g77
g58
NtRp266
(dp267
g61
(dp268
g81
g82
ssg70
g262
sg63
(lp269
S'comment'
p270
asbag56
(g77
g58
NtRp271
(dp272
g61
(dp273
g88
g89
ssg70
g262
sg63
(lp274
S':'
asbag56
(g77
g58
NtRp275
(dp276
g61
(dp277
sg70
g262
sg63
(lp278
g56
(g57
g58
NtRp279
(dp280
g61
(dp281
g69
I3
ssg70
g275
sg63
(lp282
S''
asbasbasbag56
(g72
g58
NtRp283
(dp284
g61
(dp285
sg70
g258
sg63
(lp286
g56
(g77
g58
NtRp287
(dp288
g61
(dp289
g81
g82
ssg70
g283
sg63
(lp290
S'domain'
p291
asbag56
(g77
g58
NtRp292
(dp293
g61
(dp294
g88
g89
ssg70
g283
sg63
(lp295
S':'
asbag56
(g77
g58
NtRp296
(dp297
g61
(dp298
sg70
g283
sg63
(lp299
g56
(g57
g58
NtRp300
(dp301
g61
(dp302
g69
I3
ssg70
g296
sg63
(lp303
S''
asbasbasbag56
(g72
g58
NtRp304
(dp305
g61
(dp306
sg70
g258
sg63
(lp307
g56
(g77
g58
NtRp308
(dp309
g61
(dp310
g81
g82
ssg70
g304
sg63
(lp311
S'expires'
p312
asbag56
(g77
g58
NtRp313
(dp314
g61
(dp315
g88
g89
ssg70
g304
sg63
(lp316
S':'
asbag56
(g77
g58
NtRp317
(dp318
g61
(dp319
sg70
g304
sg63
(lp320
g56
(g57
g58
NtRp321
(dp322
g61
(dp323
g69
I3
ssg70
g317
sg63
(lp324
S''
asbasbasbag56
(g72
g58
NtRp325
(dp326
g61
(dp327
sg70
g258
sg63
(lp328
g56
(g77
g58
NtRp329
(dp330
g61
(dp331
g81
g82
ssg70
g325
sg63
(lp332
S'httponly'
p333
asbag56
(g77
g58
NtRp334
(dp335
g61
(dp336
g88
g89
ssg70
g325
sg63
(lp337
S':'
asbag56
(g77
g58
NtRp338
(dp339
g61
(dp340
sg70
g325
sg63
(lp341
g56
(g57
g58
NtRp342
(dp343
g61
(dp344
g69
I3
ssg70
g338
sg63
(lp345
S''
asbasbasbag56
(g72
g58
NtRp346
(dp347
g61
(dp348
sg70
g258
sg63
(lp349
g56
(g77
g58
NtRp350
(dp351
g61
(dp352
g81
g82
ssg70
g346
sg63
(lp353
S'max-age'
p354
asbag56
(g77
g58
NtRp355
(dp356
g61
(dp357
g88
g89
ssg70
g346
sg63
(lp358
S':'
asbag56
(g77
g58
NtRp359
(dp360
g61
(dp361
sg70
g346
sg63
(lp362
g56
(g57
g58
NtRp363
(dp364
g61
(dp365
g69
I3
ssg70
g359
sg63
(lp366
S''
asbasbasbag56
(g72
g58
NtRp367
(dp368
g61
(dp369
sg70
g258
sg63
(lp370
g56
(g77
g58
NtRp371
(dp372
g61
(dp373
g81
g82
ssg70
g367
sg63
(lp374
S'path'
p375
asbag56
(g77
g58
NtRp376
(dp377
g61
(dp378
g88
g89
ssg70
g367
sg63
(lp379
S':'
asbag56
(g77
g58
NtRp380
(dp381
g61
(dp382
sg70
g367
sg63
(lp383
g56
(g57
g58
NtRp384
(dp385
g61
(dp386
g69
I3
ssg70
g380
sg63
(lp387
S''
asbasbasbag56
(g72
g58
NtRp388
(dp389
g61
(dp390
sg70
g258
sg63
(lp391
g56
(g77
g58
NtRp392
(dp393
g61
(dp394
g81
g82
ssg70
g388
sg63
(lp395
S'secure'
p396
asbag56
(g77
g58
NtRp397
(dp398
g61
(dp399
g88
g89
ssg70
g388
sg63
(lp400
S':'
asbag56
(g77
g58
NtRp401
(dp402
g61
(dp403
sg70
g388
sg63
(lp404
g56
(g57
g58
NtRp405
(dp406
g61
(dp407
g69
I3
ssg70
g401
sg63
(lp408
S''
asbasbasbag56
(g72
g58
NtRp409
(dp410
g61
(dp411
sg70
g258
sg63
(lp412
g56
(g77
g58
NtRp413
(dp414
g61
(dp415
g81
g82
ssg70
g409
sg63
(lp416
S'version'
p417
asbag56
(g77
g58
NtRp418
(dp419
g61
(dp420
g88
g89
ssg70
g409
sg63
(lp421
S':'
asbag56
(g77
g58
NtRp422
(dp423
g61
(dp424
sg70
g409
sg63
(lp425
g56
(g57
g58
NtRp426
(dp427
g61
(dp428
g69
I3
ssg70
g422
sg63
(lp429
S''
asbasbasbasbasbasbasbag56
(g72
g58
NtRp430
(dp431
g61
(dp432
sg70
g233
sg63
(lp433
g56
(g77
g58
NtRp434
(dp435
g61
(dp436
g81
g82
ssg70
g430
sg63
(lp437
S'euin_cookie'
p438
asbag56
(g77
g58
NtRp439
(dp440
g61
(dp441
g88
g89
ssg70
g430
sg63
(lp442
S':'
asbag56
(g77
g58
NtRp443
(dp444
g61
(dp445
sg70
g430
sg63
(lp446
g56
(g57
g58
NtRp447
(dp448
g61
(dp449
g69
I4
ssg70
g443
sg63
(lp450
g56
(g65
g58
NtRp451
(dp452
g61
(dp453
g69
I3
ssg70
Nsg63
(lp454
g56
(g72
g58
NtRp455
(dp456
g61
(dp457
sg70
g451
sg63
(lp458
g56
(g77
g58
NtRp459
(dp460
g61
(dp461
g81
g82
ssg70
g455
sg63
(lp462
g270
asbag56
(g77
g58
NtRp463
(dp464
g61
(dp465
g88
g89
ssg70
g455
sg63
(lp466
S':'
asbag56
(g77
g58
NtRp467
(dp468
g61
(dp469
sg70
g455
sg63
(lp470
g56
(g57
g58
NtRp471
(dp472
g61
(dp473
g69
I3
ssg70
g467
sg63
(lp474
S''
asbasbasbag56
(g72
g58
NtRp475
(dp476
g61
(dp477
sg70
g451
sg63
(lp478
g56
(g77
g58
NtRp479
(dp480
g61
(dp481
g81
g82
ssg70
g475
sg63
(lp482
g291
asbag56
(g77
g58
NtRp483
(dp484
g61
(dp485
g88
g89
ssg70
g475
sg63
(lp486
S':'
asbag56
(g77
g58
NtRp487
(dp488
g61
(dp489
sg70
g475
sg63
(lp490
g56
(g57
g58
NtRp491
(dp492
g61
(dp493
g69
I3
ssg70
g487
sg63
(lp494
S''
asbasbasbag56
(g72
g58
NtRp495
(dp496
g61
(dp497
sg70
g451
sg63
(lp498
g56
(g77
g58
NtRp499
(dp500
g61
(dp501
g81
g82
ssg70
g495
sg63
(lp502
g312
asbag56
(g77
g58
NtRp503
(dp504
g61
(dp505
g88
g89
ssg70
g495
sg63
(lp506
S':'
asbag56
(g77
g58
NtRp507
(dp508
g61
(dp509
sg70
g495
sg63
(lp510
g56
(g57
g58
NtRp511
(dp512
g61
(dp513
g69
I3
ssg70
g507
sg63
(lp514
S''
asbasbasbag56
(g72
g58
NtRp515
(dp516
g61
(dp517
sg70
g451
sg63
(lp518
g56
(g77
g58
NtRp519
(dp520
g61
(dp521
g81
g82
ssg70
g515
sg63
(lp522
g333
asbag56
(g77
g58
NtRp523
(dp524
g61
(dp525
g88
g89
ssg70
g515
sg63
(lp526
S':'
asbag56
(g77
g58
NtRp527
(dp528
g61
(dp529
sg70
g515
sg63
(lp530
g56
(g57
g58
NtRp531
(dp532
g61
(dp533
g69
I3
ssg70
g527
sg63
(lp534
S''
asbasbasbag56
(g72
g58
NtRp535
(dp536
g61
(dp537
sg70
g451
sg63
(lp538
g56
(g77
g58
NtRp539
(dp540
g61
(dp541
g81
g82
ssg70
g535
sg63
(lp542
g354
asbag56
(g77
g58
NtRp543
(dp544
g61
(dp545
g88
g89
ssg70
g535
sg63
(lp546
S':'
asbag56
(g77
g58
NtRp547
(dp548
g61
(dp549
sg70
g535
sg63
(lp550
g56
(g57
g58
NtRp551
(dp552
g61
(dp553
g69
I3
ssg70
g547
sg63
(lp554
S''
asbasbasbag56
(g72
g58
NtRp555
(dp556
g61
(dp557
sg70
g451
sg63
(lp558
g56
(g77
g58
NtRp559
(dp560
g61
(dp561
g81
g82
ssg70
g555
sg63
(lp562
g375
asbag56
(g77
g58
NtRp563
(dp564
g61
(dp565
g88
g89
ssg70
g555
sg63
(lp566
S':'
asbag56
(g77
g58
NtRp567
(dp568
g61
(dp569
sg70
g555
sg63
(lp570
g56
(g57
g58
NtRp571
(dp572
g61
(dp573
g69
I3
ssg70
g567
sg63
(lp574
S''
asbasbasbag56
(g72
g58
NtRp575
(dp576
g61
(dp577
sg70
g451
sg63
(lp578
g56
(g77
g58
NtRp579
(dp580
g61
(dp581
g81
g82
ssg70
g575
sg63
(lp582
g396
asbag56
(g77
g58
NtRp583
(dp584
g61
(dp585
g88
g89
ssg70
g575
sg63
(lp586
S':'
asbag56
(g77
g58
NtRp587
(dp588
g61
(dp589
sg70
g575
sg63
(lp590
g56
(g57
g58
NtRp591
(dp592
g61
(dp593
g69
I3
ssg70
g587
sg63
(lp594
S''
asbasbasbag56
(g72
g58
NtRp595
(dp596
g61
(dp597
sg70
g451
sg63
(lp598
g56
(g77
g58
NtRp599
(dp600
g61
(dp601
g81
g82
ssg70
g595
sg63
(lp602
g417
asbag56
(g77
g58
NtRp603
(dp604
g61
(dp605
g88
g89
ssg70
g595
sg63
(lp606
S':'
asbag56
(g77
g58
NtRp607
(dp608
g61
(dp609
sg70
g595
sg63
(lp610
g56
(g57
g58
NtRp611
(dp612
g61
(dp613
g69
I3
ssg70
g607
sg63
(lp614
S''
asbasbasbasbasbasbasbag56
(g72
g58
NtRp615
(dp616
g61
(dp617
sg70
g233
sg63
(lp618
g56
(g77
g58
NtRp619
(dp620
g61
(dp621
g81
g82
ssg70
g615
sg63
(lp622
S'o_cookie'
p623
asbag56
(g77
g58
NtRp624
(dp625
g61
(dp626
g88
g89
ssg70
g615
sg63
(lp627
S':'
asbag56
(g77
g58
NtRp628
(dp629
g61
(dp630
sg70
g615
sg63
(lp631
g56
(g57
g58
NtRp632
(dp633
g61
(dp634
g69
I4
ssg70
g628
sg63
(lp635
g56
(g65
g58
NtRp636
(dp637
g61
(dp638
g69
I3
ssg70
Nsg63
(lp639
g56
(g72
g58
NtRp640
(dp641
g61
(dp642
sg70
g636
sg63
(lp643
g56
(g77
g58
NtRp644
(dp645
g61
(dp646
g81
g82
ssg70
g640
sg63
(lp647
g270
asbag56
(g77
g58
NtRp648
(dp649
g61
(dp650
g88
g89
ssg70
g640
sg63
(lp651
S':'
asbag56
(g77
g58
NtRp652
(dp653
g61
(dp654
sg70
g640
sg63
(lp655
g56
(g57
g58
NtRp656
(dp657
g61
(dp658
g69
I3
ssg70
g652
sg63
(lp659
S''
asbasbasbag56
(g72
g58
NtRp660
(dp661
g61
(dp662
sg70
g636
sg63
(lp663
g56
(g77
g58
NtRp664
(dp665
g61
(dp666
g81
g82
ssg70
g660
sg63
(lp667
g291
asbag56
(g77
g58
NtRp668
(dp669
g61
(dp670
g88
g89
ssg70
g660
sg63
(lp671
S':'
asbag56
(g77
g58
NtRp672
(dp673
g61
(dp674
sg70
g660
sg63
(lp675
g56
(g57
g58
NtRp676
(dp677
g61
(dp678
g69
I3
ssg70
g672
sg63
(lp679
S''
asbasbasbag56
(g72
g58
NtRp680
(dp681
g61
(dp682
sg70
g636
sg63
(lp683
g56
(g77
g58
NtRp684
(dp685
g61
(dp686
g81
g82
ssg70
g680
sg63
(lp687
g312
asbag56
(g77
g58
NtRp688
(dp689
g61
(dp690
g88
g89
ssg70
g680
sg63
(lp691
S':'
asbag56
(g77
g58
NtRp692
(dp693
g61
(dp694
sg70
g680
sg63
(lp695
g56
(g57
g58
NtRp696
(dp697
g61
(dp698
g69
I3
ssg70
g692
sg63
(lp699
S''
asbasbasbag56
(g72
g58
NtRp700
(dp701
g61
(dp702
sg70
g636
sg63
(lp703
g56
(g77
g58
NtRp704
(dp705
g61
(dp706
g81
g82
ssg70
g700
sg63
(lp707
g333
asbag56
(g77
g58
NtRp708
(dp709
g61
(dp710
g88
g89
ssg70
g700
sg63
(lp711
S':'
asbag56
(g77
g58
NtRp712
(dp713
g61
(dp714
sg70
g700
sg63
(lp715
g56
(g57
g58
NtRp716
(dp717
g61
(dp718
g69
I3
ssg70
g712
sg63
(lp719
S''
asbasbasbag56
(g72
g58
NtRp720
(dp721
g61
(dp722
sg70
g636
sg63
(lp723
g56
(g77
g58
NtRp724
(dp725
g61
(dp726
g81
g82
ssg70
g720
sg63
(lp727
g354
asbag56
(g77
g58
NtRp728
(dp729
g61
(dp730
g88
g89
ssg70
g720
sg63
(lp731
S':'
asbag56
(g77
g58
NtRp732
(dp733
g61
(dp734
sg70
g720
sg63
(lp735
g56
(g57
g58
NtRp736
(dp737
g61
(dp738
g69
I3
ssg70
g732
sg63
(lp739
S''
asbasbasbag56
(g72
g58
NtRp740
(dp741
g61
(dp742
sg70
g636
sg63
(lp743
g56
(g77
g58
NtRp744
(dp745
g61
(dp746
g81
g82
ssg70
g740
sg63
(lp747
g375
asbag56
(g77
g58
NtRp748
(dp749
g61
(dp750
g88
g89
ssg70
g740
sg63
(lp751
S':'
asbag56
(g77
g58
NtRp752
(dp753
g61
(dp754
sg70
g740
sg63
(lp755
g56
(g57
g58
NtRp756
(dp757
g61
(dp758
g69
I3
ssg70
g752
sg63
(lp759
S''
asbasbasbag56
(g72
g58
NtRp760
(dp761
g61
(dp762
sg70
g636
sg63
(lp763
g56
(g77
g58
NtRp764
(dp765
g61
(dp766
g81
g82
ssg70
g760
sg63
(lp767
g396
asbag56
(g77
g58
NtRp768
(dp769
g61
(dp770
g88
g89
ssg70
g760
sg63
(lp771
S':'
asbag56
(g77
g58
NtRp772
(dp773
g61
(dp774
sg70
g760
sg63
(lp775
g56
(g57
g58
NtRp776
(dp777
g61
(dp778
g69
I3
ssg70
g772
sg63
(lp779
S''
asbasbasbag56
(g72
g58
NtRp780
(dp781
g61
(dp782
sg70
g636
sg63
(lp783
g56
(g77
g58
NtRp784
(dp785
g61
(dp786
g81
g82
ssg70
g780
sg63
(lp787
g417
asbag56
(g77
g58
NtRp788
(dp789
g61
(dp790
g88
g89
ssg70
g780
sg63
(lp791
S':'
asbag56
(g77
g58
NtRp792
(dp793
g61
(dp794
sg70
g780
sg63
(lp795
g56
(g57
g58
NtRp796
(dp797
g61
(dp798
g69
I3
ssg70
g792
sg63
(lp799
S''
asbasbasbasbasbasbasbag56
(g72
g58
NtRp800
(dp801
g61
(dp802
sg70
g233
sg63
(lp803
g56
(g77
g58
NtRp804
(dp805
g61
(dp806
g81
g82
ssg70
g800
sg63
(lp807
S'pgv_flv'
p808
asbag56
(g77
g58
NtRp809
(dp810
g61
(dp811
g88
g89
ssg70
g800
sg63
(lp812
S':'
asbag56
(g77
g58
NtRp813
(dp814
g61
(dp815
sg70
g800
sg63
(lp816
g56
(g57
g58
NtRp817
(dp818
g61
(dp819
g69
I4
ssg70
g813
sg63
(lp820
g56
(g65
g58
NtRp821
(dp822
g61
(dp823
g69
I3
ssg70
Nsg63
(lp824
g56
(g72
g58
NtRp825
(dp826
g61
(dp827
sg70
g821
sg63
(lp828
g56
(g77
g58
NtRp829
(dp830
g61
(dp831
g81
g82
ssg70
g825
sg63
(lp832
g270
asbag56
(g77
g58
NtRp833
(dp834
g61
(dp835
g88
g89
ssg70
g825
sg63
(lp836
S':'
asbag56
(g77
g58
NtRp837
(dp838
g61
(dp839
sg70
g825
sg63
(lp840
g56
(g57
g58
NtRp841
(dp842
g61
(dp843
g69
I3
ssg70
g837
sg63
(lp844
S''
asbasbasbag56
(g72
g58
NtRp845
(dp846
g61
(dp847
sg70
g821
sg63
(lp848
g56
(g77
g58
NtRp849
(dp850
g61
(dp851
g81
g82
ssg70
g845
sg63
(lp852
g291
asbag56
(g77
g58
NtRp853
(dp854
g61
(dp855
g88
g89
ssg70
g845
sg63
(lp856
S':'
asbag56
(g77
g58
NtRp857
(dp858
g61
(dp859
sg70
g845
sg63
(lp860
g56
(g57
g58
NtRp861
(dp862
g61
(dp863
g69
I3
ssg70
g857
sg63
(lp864
S''
asbasbasbag56
(g72
g58
NtRp865
(dp866
g61
(dp867
sg70
g821
sg63
(lp868
g56
(g77
g58
NtRp869
(dp870
g61
(dp871
g81
g82
ssg70
g865
sg63
(lp872
g312
asbag56
(g77
g58
NtRp873
(dp874
g61
(dp875
g88
g89
ssg70
g865
sg63
(lp876
S':'
asbag56
(g77
g58
NtRp877
(dp878
g61
(dp879
sg70
g865
sg63
(lp880
g56
(g57
g58
NtRp881
(dp882
g61
(dp883
g69
I3
ssg70
g877
sg63
(lp884
S''
asbasbasbag56
(g72
g58
NtRp885
(dp886
g61
(dp887
sg70
g821
sg63
(lp888
g56
(g77
g58
NtRp889
(dp890
g61
(dp891
g81
g82
ssg70
g885
sg63
(lp892
g333
asbag56
(g77
g58
NtRp893
(dp894
g61
(dp895
g88
g89
ssg70
g885
sg63
(lp896
S':'
asbag56
(g77
g58
NtRp897
(dp898
g61
(dp899
sg70
g885
sg63
(lp900
g56
(g57
g58
NtRp901
(dp902
g61
(dp903
g69
I3
ssg70
g897
sg63
(lp904
S''
asbasbasbag56
(g72
g58
NtRp905
(dp906
g61
(dp907
sg70
g821
sg63
(lp908
g56
(g77
g58
NtRp909
(dp910
g61
(dp911
g81
g82
ssg70
g905
sg63
(lp912
g354
asbag56
(g77
g58
NtRp913
(dp914
g61
(dp915
g88
g89
ssg70
g905
sg63
(lp916
S':'
asbag56
(g77
g58
NtRp917
(dp918
g61
(dp919
sg70
g905
sg63
(lp920
g56
(g57
g58
NtRp921
(dp922
g61
(dp923
g69
I3
ssg70
g917
sg63
(lp924
S''
asbasbasbag56
(g72
g58
NtRp925
(dp926
g61
(dp927
sg70
g821
sg63
(lp928
g56
(g77
g58
NtRp929
(dp930
g61
(dp931
g81
g82
ssg70
g925
sg63
(lp932
g375
asbag56
(g77
g58
NtRp933
(dp934
g61
(dp935
g88
g89
ssg70
g925
sg63
(lp936
S':'
asbag56
(g77
g58
NtRp937
(dp938
g61
(dp939
sg70
g925
sg63
(lp940
g56
(g57
g58
NtRp941
(dp942
g61
(dp943
g69
I3
ssg70
g937
sg63
(lp944
S''
asbasbasbag56
(g72
g58
NtRp945
(dp946
g61
(dp947
sg70
g821
sg63
(lp948
g56
(g77
g58
NtRp949
(dp950
g61
(dp951
g81
g82
ssg70
g945
sg63
(lp952
g396
asbag56
(g77
g58
NtRp953
(dp954
g61
(dp955
g88
g89
ssg70
g945
sg63
(lp956
S':'
asbag56
(g77
g58
NtRp957
(dp958
g61
(dp959
sg70
g945
sg63
(lp960
g56
(g57
g58
NtRp961
(dp962
g61
(dp963
g69
I3
ssg70
g957
sg63
(lp964
S''
asbasbasbag56
(g72
g58
NtRp965
(dp966
g61
(dp967
sg70
g821
sg63
(lp968
g56
(g77
g58
NtRp969
(dp970
g61
(dp971
g81
g82
ssg70
g965
sg63
(lp972
g417
asbag56
(g77
g58
NtRp973
(dp974
g61
(dp975
g88
g89
ssg70
g965
sg63
(lp976
S':'
asbag56
(g77
g58
NtRp977
(dp978
g61
(dp979
sg70
g965
sg63
(lp980
g56
(g57
g58
NtRp981
(dp982
g61
(dp983
g69
I3
ssg70
g977
sg63
(lp984
S''
asbasbasbasbasbasbasbag56
(g72
g58
NtRp985
(dp986
g61
(dp987
sg70
g233
sg63
(lp988
g56
(g77
g58
NtRp989
(dp990
g61
(dp991
g81
g82
ssg70
g985
sg63
(lp992
S'pgv_pvid'
p993
asbag56
(g77
g58
NtRp994
(dp995
g61
(dp996
g88
g89
ssg70
g985
sg63
(lp997
S':'
asbag56
(g77
g58
NtRp998
(dp999
g61
(dp1000
sg70
g985
sg63
(lp1001
g56
(g57
g58
NtRp1002
(dp1003
g61
(dp1004
g69
I4
ssg70
g998
sg63
(lp1005
g56
(g65
g58
NtRp1006
(dp1007
g61
(dp1008
g69
I3
ssg70
Nsg63
(lp1009
g56
(g72
g58
NtRp1010
(dp1011
g61
(dp1012
sg70
g1006
sg63
(lp1013
g56
(g77
g58
NtRp1014
(dp1015
g61
(dp1016
g81
g82
ssg70
g1010
sg63
(lp1017
g270
asbag56
(g77
g58
NtRp1018
(dp1019
g61
(dp1020
g88
g89
ssg70
g1010
sg63
(lp1021
S':'
asbag56
(g77
g58
NtRp1022
(dp1023
g61
(dp1024
sg70
g1010
sg63
(lp1025
g56
(g57
g58
NtRp1026
(dp1027
g61
(dp1028
g69
I3
ssg70
g1022
sg63
(lp1029
S''
asbasbasbag56
(g72
g58
NtRp1030
(dp1031
g61
(dp1032
sg70
g1006
sg63
(lp1033
g56
(g77
g58
NtRp1034
(dp1035
g61
(dp1036
g81
g82
ssg70
g1030
sg63
(lp1037
g291
asbag56
(g77
g58
NtRp1038
(dp1039
g61
(dp1040
g88
g89
ssg70
g1030
sg63
(lp1041
S':'
asbag56
(g77
g58
NtRp1042
(dp1043
g61
(dp1044
sg70
g1030
sg63
(lp1045
g56
(g57
g58
NtRp1046
(dp1047
g61
(dp1048
g69
I3
ssg70
g1042
sg63
(lp1049
S''
asbasbasbag56
(g72
g58
NtRp1050
(dp1051
g61
(dp1052
sg70
g1006
sg63
(lp1053
g56
(g77
g58
NtRp1054
(dp1055
g61
(dp1056
g81
g82
ssg70
g1050
sg63
(lp1057
g312
asbag56
(g77
g58
NtRp1058
(dp1059
g61
(dp1060
g88
g89
ssg70
g1050
sg63
(lp1061
S':'
asbag56
(g77
g58
NtRp1062
(dp1063
g61
(dp1064
sg70
g1050
sg63
(lp1065
g56
(g57
g58
NtRp1066
(dp1067
g61
(dp1068
g69
I3
ssg70
g1062
sg63
(lp1069
S''
asbasbasbag56
(g72
g58
NtRp1070
(dp1071
g61
(dp1072
sg70
g1006
sg63
(lp1073
g56
(g77
g58
NtRp1074
(dp1075
g61
(dp1076
g81
g82
ssg70
g1070
sg63
(lp1077
g333
asbag56
(g77
g58
NtRp1078
(dp1079
g61
(dp1080
g88
g89
ssg70
g1070
sg63
(lp1081
S':'
asbag56
(g77
g58
NtRp1082
(dp1083
g61
(dp1084
sg70
g1070
sg63
(lp1085
g56
(g57
g58
NtRp1086
(dp1087
g61
(dp1088
g69
I3
ssg70
g1082
sg63
(lp1089
S''
asbasbasbag56
(g72
g58
NtRp1090
(dp1091
g61
(dp1092
sg70
g1006
sg63
(lp1093
g56
(g77
g58
NtRp1094
(dp1095
g61
(dp1096
g81
g82
ssg70
g1090
sg63
(lp1097
g354
asbag56
(g77
g58
NtRp1098
(dp1099
g61
(dp1100
g88
g89
ssg70
g1090
sg63
(lp1101
S':'
asbag56
(g77
g58
NtRp1102
(dp1103
g61
(dp1104
sg70
g1090
sg63
(lp1105
g56
(g57
g58
NtRp1106
(dp1107
g61
(dp1108
g69
I3
ssg70
g1102
sg63
(lp1109
S''
asbasbasbag56
(g72
g58
NtRp1110
(dp1111
g61
(dp1112
sg70
g1006
sg63
(lp1113
g56
(g77
g58
NtRp1114
(dp1115
g61
(dp1116
g81
g82
ssg70
g1110
sg63
(lp1117
g375
asbag56
(g77
g58
NtRp1118
(dp1119
g61
(dp1120
g88
g89
ssg70
g1110
sg63
(lp1121
S':'
asbag56
(g77
g58
NtRp1122
(dp1123
g61
(dp1124
sg70
g1110
sg63
(lp1125
g56
(g57
g58
NtRp1126
(dp1127
g61
(dp1128
g69
I3
ssg70
g1122
sg63
(lp1129
S''
asbasbasbag56
(g72
g58
NtRp1130
(dp1131
g61
(dp1132
sg70
g1006
sg63
(lp1133
g56
(g77
g58
NtRp1134
(dp1135
g61
(dp1136
g81
g82
ssg70
g1130
sg63
(lp1137
g396
asbag56
(g77
g58
NtRp1138
(dp1139
g61
(dp1140
g88
g89
ssg70
g1130
sg63
(lp1141
S':'
asbag56
(g77
g58
NtRp1142
(dp1143
g61
(dp1144
sg70
g1130
sg63
(lp1145
g56
(g57
g58
NtRp1146
(dp1147
g61
(dp1148
g69
I3
ssg70
g1142
sg63
(lp1149
S''
asbasbasbag56
(g72
g58
NtRp1150
(dp1151
g61
(dp1152
sg70
g1006
sg63
(lp1153
g56
(g77
g58
NtRp1154
(dp1155
g61
(dp1156
g81
g82
ssg70
g1150
sg63
(lp1157
g417
asbag56
(g77
g58
NtRp1158
(dp1159
g61
(dp1160
g88
g89
ssg70
g1150
sg63
(lp1161
S':'
asbag56
(g77
g58
NtRp1162
(dp1163
g61
(dp1164
sg70
g1150
sg63
(lp1165
g56
(g57
g58
NtRp1166
(dp1167
g61
(dp1168
g69
I3
ssg70
g1162
sg63
(lp1169
S''
asbasbasbasbasbasbasbag56
(g72
g58
NtRp1170
(dp1171
g61
(dp1172
sg70
g233
sg63
(lp1173
g56
(g77
g58
NtRp1174
(dp1175
g61
(dp1176
g81
g82
ssg70
g1170
sg63
(lp1177
S'pgv_r_cookie'
p1178
asbag56
(g77
g58
NtRp1179
(dp1180
g61
(dp1181
g88
g89
ssg70
g1170
sg63
(lp1182
S':'
asbag56
(g77
g58
NtRp1183
(dp1184
g61
(dp1185
sg70
g1170
sg63
(lp1186
g56
(g57
g58
NtRp1187
(dp1188
g61
(dp1189
g69
I4
ssg70
g1183
sg63
(lp1190
g56
(g65
g58
NtRp1191
(dp1192
g61
(dp1193
g69
I3
ssg70
Nsg63
(lp1194
g56
(g72
g58
NtRp1195
(dp1196
g61
(dp1197
sg70
g1191
sg63
(lp1198
g56
(g77
g58
NtRp1199
(dp1200
g61
(dp1201
g81
g82
ssg70
g1195
sg63
(lp1202
g270
asbag56
(g77
g58
NtRp1203
(dp1204
g61
(dp1205
g88
g89
ssg70
g1195
sg63
(lp1206
S':'
asbag56
(g77
g58
NtRp1207
(dp1208
g61
(dp1209
sg70
g1195
sg63
(lp1210
g56
(g57
g58
NtRp1211
(dp1212
g61
(dp1213
g69
I3
ssg70
g1207
sg63
(lp1214
S''
asbasbasbag56
(g72
g58
NtRp1215
(dp1216
g61
(dp1217
sg70
g1191
sg63
(lp1218
g56
(g77
g58
NtRp1219
(dp1220
g61
(dp1221
g81
g82
ssg70
g1215
sg63
(lp1222
g291
asbag56
(g77
g58
NtRp1223
(dp1224
g61
(dp1225
g88
g89
ssg70
g1215
sg63
(lp1226
S':'
asbag56
(g77
g58
NtRp1227
(dp1228
g61
(dp1229
sg70
g1215
sg63
(lp1230
g56
(g57
g58
NtRp1231
(dp1232
g61
(dp1233
g69
I3
ssg70
g1227
sg63
(lp1234
S''
asbasbasbag56
(g72
g58
NtRp1235
(dp1236
g61
(dp1237
sg70
g1191
sg63
(lp1238
g56
(g77
g58
NtRp1239
(dp1240
g61
(dp1241
g81
g82
ssg70
g1235
sg63
(lp1242
g312
asbag56
(g77
g58
NtRp1243
(dp1244
g61
(dp1245
g88
g89
ssg70
g1235
sg63
(lp1246
S':'
asbag56
(g77
g58
NtRp1247
(dp1248
g61
(dp1249
sg70
g1235
sg63
(lp1250
g56
(g57
g58
NtRp1251
(dp1252
g61
(dp1253
g69
I3
ssg70
g1247
sg63
(lp1254
S''
asbasbasbag56
(g72
g58
NtRp1255
(dp1256
g61
(dp1257
sg70
g1191
sg63
(lp1258
g56
(g77
g58
NtRp1259
(dp1260
g61
(dp1261
g81
g82
ssg70
g1255
sg63
(lp1262
g333
asbag56
(g77
g58
NtRp1263
(dp1264
g61
(dp1265
g88
g89
ssg70
g1255
sg63
(lp1266
S':'
asbag56
(g77
g58
NtRp1267
(dp1268
g61
(dp1269
sg70
g1255
sg63
(lp1270
g56
(g57
g58
NtRp1271
(dp1272
g61
(dp1273
g69
I3
ssg70
g1267
sg63
(lp1274
S''
asbasbasbag56
(g72
g58
NtRp1275
(dp1276
g61
(dp1277
sg70
g1191
sg63
(lp1278
g56
(g77
g58
NtRp1279
(dp1280
g61
(dp1281
g81
g82
ssg70
g1275
sg63
(lp1282
g354
asbag56
(g77
g58
NtRp1283
(dp1284
g61
(dp1285
g88
g89
ssg70
g1275
sg63
(lp1286
S':'
asbag56
(g77
g58
NtRp1287
(dp1288
g61
(dp1289
sg70
g1275
sg63
(lp1290
g56
(g57
g58
NtRp1291
(dp1292
g61
(dp1293
g69
I3
ssg70
g1287
sg63
(lp1294
S''
asbasbasbag56
(g72
g58
NtRp1295
(dp1296
g61
(dp1297
sg70
g1191
sg63
(lp1298
g56
(g77
g58
NtRp1299
(dp1300
g61
(dp1301
g81
g82
ssg70
g1295
sg63
(lp1302
g375
asbag56
(g77
g58
NtRp1303
(dp1304
g61
(dp1305
g88
g89
ssg70
g1295
sg63
(lp1306
S':'
asbag56
(g77
g58
NtRp1307
(dp1308
g61
(dp1309
sg70
g1295
sg63
(lp1310
g56
(g57
g58
NtRp1311
(dp1312
g61
(dp1313
g69
I3
ssg70
g1307
sg63
(lp1314
S''
asbasbasbag56
(g72
g58
NtRp1315
(dp1316
g61
(dp1317
sg70
g1191
sg63
(lp1318
g56
(g77
g58
NtRp1319
(dp1320
g61
(dp1321
g81
g82
ssg70
g1315
sg63
(lp1322
g396
asbag56
(g77
g58
NtRp1323
(dp1324
g61
(dp1325
g88
g89
ssg70
g1315
sg63
(lp1326
S':'
asbag56
(g77
g58
NtRp1327
(dp1328
g61
(dp1329
sg70
g1315
sg63
(lp1330
g56
(g57
g58
NtRp1331
(dp1332
g61
(dp1333
g69
I3
ssg70
g1327
sg63
(lp1334
S''
asbasbasbag56
(g72
g58
NtRp1335
(dp1336
g61
(dp1337
sg70
g1191
sg63
(lp1338
g56
(g77
g58
NtRp1339
(dp1340
g61
(dp1341
g81
g82
ssg70
g1335
sg63
(lp1342
g417
asbag56
(g77
g58
NtRp1343
(dp1344
g61
(dp1345
g88
g89
ssg70
g1335
sg63
(lp1346
S':'
asbag56
(g77
g58
NtRp1347
(dp1348
g61
(dp1349
sg70
g1335
sg63
(lp1350
g56
(g57
g58
NtRp1351
(dp1352
g61
(dp1353
g69
I3
ssg70
g1347
sg63
(lp1354
S''
asbasbasbasbasbasbasbag56
(g72
g58
NtRp1355
(dp1356
g61
(dp1357
sg70
g233
sg63
(lp1358
g56
(g77
g58
NtRp1359
(dp1360
g61
(dp1361
g81
g82
ssg70
g1355
sg63
(lp1362
S'pt2gguin'
p1363
asbag56
(g77
g58
NtRp1364
(dp1365
g61
(dp1366
g88
g89
ssg70
g1355
sg63
(lp1367
S':'
asbag56
(g77
g58
NtRp1368
(dp1369
g61
(dp1370
sg70
g1355
sg63
(lp1371
g56
(g57
g58
NtRp1372
(dp1373
g61
(dp1374
g69
I4
ssg70
g1368
sg63
(lp1375
g56
(g65
g58
NtRp1376
(dp1377
g61
(dp1378
g69
I3
ssg70
Nsg63
(lp1379
g56
(g72
g58
NtRp1380
(dp1381
g61
(dp1382
sg70
g1376
sg63
(lp1383
g56
(g77
g58
NtRp1384
(dp1385
g61
(dp1386
g81
g82
ssg70
g1380
sg63
(lp1387
g270
asbag56
(g77
g58
NtRp1388
(dp1389
g61
(dp1390
g88
g89
ssg70
g1380
sg63
(lp1391
S':'
asbag56
(g77
g58
NtRp1392
(dp1393
g61
(dp1394
sg70
g1380
sg63
(lp1395
g56
(g57
g58
NtRp1396
(dp1397
g61
(dp1398
g69
I3
ssg70
g1392
sg63
(lp1399
S''
asbasbasbag56
(g72
g58
NtRp1400
(dp1401
g61
(dp1402
sg70
g1376
sg63
(lp1403
g56
(g77
g58
NtRp1404
(dp1405
g61
(dp1406
g81
g82
ssg70
g1400
sg63
(lp1407
g291
asbag56
(g77
g58
NtRp1408
(dp1409
g61
(dp1410
g88
g89
ssg70
g1400
sg63
(lp1411
S':'
asbag56
(g77
g58
NtRp1412
(dp1413
g61
(dp1414
sg70
g1400
sg63
(lp1415
g56
(g57
g58
NtRp1416
(dp1417
g61
(dp1418
g69
I3
ssg70
g1412
sg63
(lp1419
S''
asbasbasbag56
(g72
g58
NtRp1420
(dp1421
g61
(dp1422
sg70
g1376
sg63
(lp1423
g56
(g77
g58
NtRp1424
(dp1425
g61
(dp1426
g81
g82
ssg70
g1420
sg63
(lp1427
g312
asbag56
(g77
g58
NtRp1428
(dp1429
g61
(dp1430
g88
g89
ssg70
g1420
sg63
(lp1431
S':'
asbag56
(g77
g58
NtRp1432
(dp1433
g61
(dp1434
sg70
g1420
sg63
(lp1435
g56
(g57
g58
NtRp1436
(dp1437
g61
(dp1438
g69
I3
ssg70
g1432
sg63
(lp1439
S''
asbasbasbag56
(g72
g58
NtRp1440
(dp1441
g61
(dp1442
sg70
g1376
sg63
(lp1443
g56
(g77
g58
NtRp1444
(dp1445
g61
(dp1446
g81
g82
ssg70
g1440
sg63
(lp1447
g333
asbag56
(g77
g58
NtRp1448
(dp1449
g61
(dp1450
g88
g89
ssg70
g1440
sg63
(lp1451
S':'
asbag56
(g77
g58
NtRp1452
(dp1453
g61
(dp1454
sg70
g1440
sg63
(lp1455
g56
(g57
g58
NtRp1456
(dp1457
g61
(dp1458
g69
I3
ssg70
g1452
sg63
(lp1459
S''
asbasbasbag56
(g72
g58
NtRp1460
(dp1461
g61
(dp1462
sg70
g1376
sg63
(lp1463
g56
(g77
g58
NtRp1464
(dp1465
g61
(dp1466
g81
g82
ssg70
g1460
sg63
(lp1467
g354
asbag56
(g77
g58
NtRp1468
(dp1469
g61
(dp1470
g88
g89
ssg70
g1460
sg63
(lp1471
S':'
asbag56
(g77
g58
NtRp1472
(dp1473
g61
(dp1474
sg70
g1460
sg63
(lp1475
g56
(g57
g58
NtRp1476
(dp1477
g61
(dp1478
g69
I3
ssg70
g1472
sg63
(lp1479
S''
asbasbasbag56
(g72
g58
NtRp1480
(dp1481
g61
(dp1482
sg70
g1376
sg63
(lp1483
g56
(g77
g58
NtRp1484
(dp1485
g61
(dp1486
g81
g82
ssg70
g1480
sg63
(lp1487
g375
asbag56
(g77
g58
NtRp1488
(dp1489
g61
(dp1490
g88
g89
ssg70
g1480
sg63
(lp1491
S':'
asbag56
(g77
g58
NtRp1492
(dp1493
g61
(dp1494
sg70
g1480
sg63
(lp1495
g56
(g57
g58
NtRp1496
(dp1497
g61
(dp1498
g69
I3
ssg70
g1492
sg63
(lp1499
S''
asbasbasbag56
(g72
g58
NtRp1500
(dp1501
g61
(dp1502
sg70
g1376
sg63
(lp1503
g56
(g77
g58
NtRp1504
(dp1505
g61
(dp1506
g81
g82
ssg70
g1500
sg63
(lp1507
g396
asbag56
(g77
g58
NtRp1508
(dp1509
g61
(dp1510
g88
g89
ssg70
g1500
sg63
(lp1511
S':'
asbag56
(g77
g58
NtRp1512
(dp1513
g61
(dp1514
sg70
g1500
sg63
(lp1515
g56
(g57
g58
NtRp1516
(dp1517
g61
(dp1518
g69
I3
ssg70
g1512
sg63
(lp1519
S''
asbasbasbag56
(g72
g58
NtRp1520
(dp1521
g61
(dp1522
sg70
g1376
sg63
(lp1523
g56
(g77
g58
NtRp1524
(dp1525
g61
(dp1526
g81
g82
ssg70
g1520
sg63
(lp1527
g417
asbag56
(g77
g58
NtRp1528
(dp1529
g61
(dp1530
g88
g89
ssg70
g1520
sg63
(lp1531
S':'
asbag56
(g77
g58
NtRp1532
(dp1533
g61
(dp1534
sg70
g1520
sg63
(lp1535
g56
(g57
g58
NtRp1536
(dp1537
g61
(dp1538
g69
I3
ssg70
g1532
sg63
(lp1539
S''
asbasbasbasbasbasbasbag56
(g72
g58
NtRp1540
(dp1541
g61
(dp1542
sg70
g233
sg63
(lp1543
g56
(g77
g58
NtRp1544
(dp1545
g61
(dp1546
g81
g82
ssg70
g1540
sg63
(lp1547
S'session_id_examples'
p1548
asbag56
(g77
g58
NtRp1549
(dp1550
g61
(dp1551
g88
g89
ssg70
g1540
sg63
(lp1552
S':'
asbag56
(g77
g58
NtRp1553
(dp1554
g61
(dp1555
sg70
g1540
sg63
(lp1556
g56
(g57
g58
NtRp1557
(dp1558
g61
(dp1559
g69
I4
ssg70
g1553
sg63
(lp1560
g56
(g65
g58
NtRp1561
(dp1562
g61
(dp1563
g69
I3
ssg70
Nsg63
(lp1564
g56
(g72
g58
NtRp1565
(dp1566
g61
(dp1567
sg70
g1561
sg63
(lp1568
g56
(g77
g58
NtRp1569
(dp1570
g61
(dp1571
g81
g82
ssg70
g1565
sg63
(lp1572
g270
asbag56
(g77
g58
NtRp1573
(dp1574
g61
(dp1575
g88
g89
ssg70
g1565
sg63
(lp1576
S':'
asbag56
(g77
g58
NtRp1577
(dp1578
g61
(dp1579
sg70
g1565
sg63
(lp1580
g56
(g57
g58
NtRp1581
(dp1582
g61
(dp1583
g69
I3
ssg70
g1577
sg63
(lp1584
S''
asbasbasbag56
(g72
g58
NtRp1585
(dp1586
g61
(dp1587
sg70
g1561
sg63
(lp1588
g56
(g77
g58
NtRp1589
(dp1590
g61
(dp1591
g81
g82
ssg70
g1585
sg63
(lp1592
g291
asbag56
(g77
g58
NtRp1593
(dp1594
g61
(dp1595
g88
g89
ssg70
g1585
sg63
(lp1596
S':'
asbag56
(g77
g58
NtRp1597
(dp1598
g61
(dp1599
sg70
g1585
sg63
(lp1600
g56
(g57
g58
NtRp1601
(dp1602
g61
(dp1603
g69
I3
ssg70
g1597
sg63
(lp1604
S''
asbasbasbag56
(g72
g58
NtRp1605
(dp1606
g61
(dp1607
sg70
g1561
sg63
(lp1608
g56
(g77
g58
NtRp1609
(dp1610
g61
(dp1611
g81
g82
ssg70
g1605
sg63
(lp1612
g312
asbag56
(g77
g58
NtRp1613
(dp1614
g61
(dp1615
g88
g89
ssg70
g1605
sg63
(lp1616
S':'
asbag56
(g77
g58
NtRp1617
(dp1618
g61
(dp1619
sg70
g1605
sg63
(lp1620
g56
(g57
g58
NtRp1621
(dp1622
g61
(dp1623
g69
I3
ssg70
g1617
sg63
(lp1624
S''
asbasbasbag56
(g72
g58
NtRp1625
(dp1626
g61
(dp1627
sg70
g1561
sg63
(lp1628
g56
(g77
g58
NtRp1629
(dp1630
g61
(dp1631
g81
g82
ssg70
g1625
sg63
(lp1632
g333
asbag56
(g77
g58
NtRp1633
(dp1634
g61
(dp1635
g88
g89
ssg70
g1625
sg63
(lp1636
S':'
asbag56
(g77
g58
NtRp1637
(dp1638
g61
(dp1639
sg70
g1625
sg63
(lp1640
g56
(g57
g58
NtRp1641
(dp1642
g61
(dp1643
g69
I3
ssg70
g1637
sg63
(lp1644
S''
asbasbasbag56
(g72
g58
NtRp1645
(dp1646
g61
(dp1647
sg70
g1561
sg63
(lp1648
g56
(g77
g58
NtRp1649
(dp1650
g61
(dp1651
g81
g82
ssg70
g1645
sg63
(lp1652
g354
asbag56
(g77
g58
NtRp1653
(dp1654
g61
(dp1655
g88
g89
ssg70
g1645
sg63
(lp1656
S':'
asbag56
(g77
g58
NtRp1657
(dp1658
g61
(dp1659
sg70
g1645
sg63
(lp1660
g56
(g57
g58
NtRp1661
(dp1662
g61
(dp1663
g69
I3
ssg70
g1657
sg63
(lp1664
S''
asbasbasbag56
(g72
g58
NtRp1665
(dp1666
g61
(dp1667
sg70
g1561
sg63
(lp1668
g56
(g77
g58
NtRp1669
(dp1670
g61
(dp1671
g81
g82
ssg70
g1665
sg63
(lp1672
g375
asbag56
(g77
g58
NtRp1673
(dp1674
g61
(dp1675
g88
g89
ssg70
g1665
sg63
(lp1676
S':'
asbag56
(g77
g58
NtRp1677
(dp1678
g61
(dp1679
sg70
g1665
sg63
(lp1680
g56
(g57
g58
NtRp1681
(dp1682
g61
(dp1683
g69
I3
ssg70
g1677
sg63
(lp1684
S''
asbasbasbag56
(g72
g58
NtRp1685
(dp1686
g61
(dp1687
sg70
g1561
sg63
(lp1688
g56
(g77
g58
NtRp1689
(dp1690
g61
(dp1691
g81
g82
ssg70
g1685
sg63
(lp1692
g396
asbag56
(g77
g58
NtRp1693
(dp1694
g61
(dp1695
g88
g89
ssg70
g1685
sg63
(lp1696
S':'
asbag56
(g77
g58
NtRp1697
(dp1698
g61
(dp1699
sg70
g1685
sg63
(lp1700
g56
(g57
g58
NtRp1701
(dp1702
g61
(dp1703
g69
I3
ssg70
g1697
sg63
(lp1704
S''
asbasbasbag56
(g72
g58
NtRp1705
(dp1706
g61
(dp1707
sg70
g1561
sg63
(lp1708
g56
(g77
g58
NtRp1709
(dp1710
g61
(dp1711
g81
g82
ssg70
g1705
sg63
(lp1712
g417
asbag56
(g77
g58
NtRp1713
(dp1714
g61
(dp1715
g88
g89
ssg70
g1705
sg63
(lp1716
S':'
asbag56
(g77
g58
NtRp1717
(dp1718
g61
(dp1719
sg70
g1705
sg63
(lp1720
g56
(g57
g58
NtRp1721
(dp1722
g61
(dp1723
g69
I3
ssg70
g1717
sg63
(lp1724
S''
asbasbasbasbasbasbasbag56
(g72
g58
NtRp1725
(dp1726
g61
(dp1727
sg70
g233
sg63
(lp1728
g56
(g77
g58
NtRp1729
(dp1730
g61
(dp1731
g81
g82
ssg70
g1725
sg63
(lp1732
S'session_id_welcome'
p1733
asbag56
(g77
g58
NtRp1734
(dp1735
g61
(dp1736
g88
g89
ssg70
g1725
sg63
(lp1737
S':'
asbag56
(g77
g58
NtRp1738
(dp1739
g61
(dp1740
sg70
g1725
sg63
(lp1741
g56
(g57
g58
NtRp1742
(dp1743
g61
(dp1744
g69
I4
ssg70
g1738
sg63
(lp1745
g56
(g65
g58
NtRp1746
(dp1747
g61
(dp1748
g69
I3
ssg70
Nsg63
(lp1749
g56
(g72
g58
NtRp1750
(dp1751
g61
(dp1752
sg70
g1746
sg63
(lp1753
g56
(g77
g58
NtRp1754
(dp1755
g61
(dp1756
g81
g82
ssg70
g1750
sg63
(lp1757
g270
asbag56
(g77
g58
NtRp1758
(dp1759
g61
(dp1760
g88
g89
ssg70
g1750
sg63
(lp1761
S':'
asbag56
(g77
g58
NtRp1762
(dp1763
g61
(dp1764
sg70
g1750
sg63
(lp1765
g56
(g57
g58
NtRp1766
(dp1767
g61
(dp1768
g69
I3
ssg70
g1762
sg63
(lp1769
S''
asbasbasbag56
(g72
g58
NtRp1770
(dp1771
g61
(dp1772
sg70
g1746
sg63
(lp1773
g56
(g77
g58
NtRp1774
(dp1775
g61
(dp1776
g81
g82
ssg70
g1770
sg63
(lp1777
g291
asbag56
(g77
g58
NtRp1778
(dp1779
g61
(dp1780
g88
g89
ssg70
g1770
sg63
(lp1781
S':'
asbag56
(g77
g58
NtRp1782
(dp1783
g61
(dp1784
sg70
g1770
sg63
(lp1785
g56
(g57
g58
NtRp1786
(dp1787
g61
(dp1788
g69
I3
ssg70
g1782
sg63
(lp1789
S''
asbasbasbag56
(g72
g58
NtRp1790
(dp1791
g61
(dp1792
sg70
g1746
sg63
(lp1793
g56
(g77
g58
NtRp1794
(dp1795
g61
(dp1796
g81
g82
ssg70
g1790
sg63
(lp1797
g312
asbag56
(g77
g58
NtRp1798
(dp1799
g61
(dp1800
g88
g89
ssg70
g1790
sg63
(lp1801
S':'
asbag56
(g77
g58
NtRp1802
(dp1803
g61
(dp1804
sg70
g1790
sg63
(lp1805
g56
(g57
g58
NtRp1806
(dp1807
g61
(dp1808
g69
I3
ssg70
g1802
sg63
(lp1809
S''
asbasbasbag56
(g72
g58
NtRp1810
(dp1811
g61
(dp1812
sg70
g1746
sg63
(lp1813
g56
(g77
g58
NtRp1814
(dp1815
g61
(dp1816
g81
g82
ssg70
g1810
sg63
(lp1817
g333
asbag56
(g77
g58
NtRp1818
(dp1819
g61
(dp1820
g88
g89
ssg70
g1810
sg63
(lp1821
S':'
asbag56
(g77
g58
NtRp1822
(dp1823
g61
(dp1824
sg70
g1810
sg63
(lp1825
g56
(g57
g58
NtRp1826
(dp1827
g61
(dp1828
g69
I3
ssg70
g1822
sg63
(lp1829
S''
asbasbasbag56
(g72
g58
NtRp1830
(dp1831
g61
(dp1832
sg70
g1746
sg63
(lp1833
g56
(g77
g58
NtRp1834
(dp1835
g61
(dp1836
g81
g82
ssg70
g1830
sg63
(lp1837
g354
asbag56
(g77
g58
NtRp1838
(dp1839
g61
(dp1840
g88
g89
ssg70
g1830
sg63
(lp1841
S':'
asbag56
(g77
g58
NtRp1842
(dp1843
g61
(dp1844
sg70
g1830
sg63
(lp1845
g56
(g57
g58
NtRp1846
(dp1847
g61
(dp1848
g69
I3
ssg70
g1842
sg63
(lp1849
S''
asbasbasbag56
(g72
g58
NtRp1850
(dp1851
g61
(dp1852
sg70
g1746
sg63
(lp1853
g56
(g77
g58
NtRp1854
(dp1855
g61
(dp1856
g81
g82
ssg70
g1850
sg63
(lp1857
g375
asbag56
(g77
g58
NtRp1858
(dp1859
g61
(dp1860
g88
g89
ssg70
g1850
sg63
(lp1861
S':'
asbag56
(g77
g58
NtRp1862
(dp1863
g61
(dp1864
sg70
g1850
sg63
(lp1865
g56
(g57
g58
NtRp1866
(dp1867
g61
(dp1868
g69
I3
ssg70
g1862
sg63
(lp1869
S''
asbasbasbag56
(g72
g58
NtRp1870
(dp1871
g61
(dp1872
sg70
g1746
sg63
(lp1873
g56
(g77
g58
NtRp1874
(dp1875
g61
(dp1876
g81
g82
ssg70
g1870
sg63
(lp1877
g396
asbag56
(g77
g58
NtRp1878
(dp1879
g61
(dp1880
g88
g89
ssg70
g1870
sg63
(lp1881
S':'
asbag56
(g77
g58
NtRp1882
(dp1883
g61
(dp1884
sg70
g1870
sg63
(lp1885
g56
(g57
g58
NtRp1886
(dp1887
g61
(dp1888
g69
I3
ssg70
g1882
sg63
(lp1889
S''
asbasbasbag56
(g72
g58
NtRp1890
(dp1891
g61
(dp1892
sg70
g1746
sg63
(lp1893
g56
(g77
g58
NtRp1894
(dp1895
g61
(dp1896
g81
g82
ssg70
g1890
sg63
(lp1897
g417
asbag56
(g77
g58
NtRp1898
(dp1899
g61
(dp1900
g88
g89
ssg70
g1890
sg63
(lp1901
S':'
asbag56
(g77
g58
NtRp1902
(dp1903
g61
(dp1904
sg70
g1890
sg63
(lp1905
g56
(g57
g58
NtRp1906
(dp1907
g61
(dp1908
g69
I3
ssg70
g1902
sg63
(lp1909
S''
asbasbasbasbasbasbasbag56
(g72
g58
NtRp1910
(dp1911
g61
(dp1912
sg70
g233
sg63
(lp1913
g56
(g77
g58
NtRp1914
(dp1915
g61
(dp1916
g81
g82
ssg70
g1910
sg63
(lp1917
S'uin_cookie'
p1918
asbag56
(g77
g58
NtRp1919
(dp1920
g61
(dp1921
g88
g89
ssg70
g1910
sg63
(lp1922
S':'
asbag56
(g77
g58
NtRp1923
(dp1924
g61
(dp1925
sg70
g1910
sg63
(lp1926
g56
(g57
g58
NtRp1927
(dp1928
g61
(dp1929
g69
I4
ssg70
g1923
sg63
(lp1930
g56
(g65
g58
NtRp1931
(dp1932
g61
(dp1933
g69
I3
ssg70
Nsg63
(lp1934
g56
(g72
g58
NtRp1935
(dp1936
g61
(dp1937
sg70
g1931
sg63
(lp1938
g56
(g77
g58
NtRp1939
(dp1940
g61
(dp1941
g81
g82
ssg70
g1935
sg63
(lp1942
g270
asbag56
(g77
g58
NtRp1943
(dp1944
g61
(dp1945
g88
g89
ssg70
g1935
sg63
(lp1946
S':'
asbag56
(g77
g58
NtRp1947
(dp1948
g61
(dp1949
sg70
g1935
sg63
(lp1950
g56
(g57
g58
NtRp1951
(dp1952
g61
(dp1953
g69
I3
ssg70
g1947
sg63
(lp1954
S''
asbasbasbag56
(g72
g58
NtRp1955
(dp1956
g61
(dp1957
sg70
g1931
sg63
(lp1958
g56
(g77
g58
NtRp1959
(dp1960
g61
(dp1961
g81
g82
ssg70
g1955
sg63
(lp1962
g291
asbag56
(g77
g58
NtRp1963
(dp1964
g61
(dp1965
g88
g89
ssg70
g1955
sg63
(lp1966
S':'
asbag56
(g77
g58
NtRp1967
(dp1968
g61
(dp1969
sg70
g1955
sg63
(lp1970
g56
(g57
g58
NtRp1971
(dp1972
g61
(dp1973
g69
I3
ssg70
g1967
sg63
(lp1974
S''
asbasbasbag56
(g72
g58
NtRp1975
(dp1976
g61
(dp1977
sg70
g1931
sg63
(lp1978
g56
(g77
g58
NtRp1979
(dp1980
g61
(dp1981
g81
g82
ssg70
g1975
sg63
(lp1982
g312
asbag56
(g77
g58
NtRp1983
(dp1984
g61
(dp1985
g88
g89
ssg70
g1975
sg63
(lp1986
S':'
asbag56
(g77
g58
NtRp1987
(dp1988
g61
(dp1989
sg70
g1975
sg63
(lp1990
g56
(g57
g58
NtRp1991
(dp1992
g61
(dp1993
g69
I3
ssg70
g1987
sg63
(lp1994
S''
asbasbasbag56
(g72
g58
NtRp1995
(dp1996
g61
(dp1997
sg70
g1931
sg63
(lp1998
g56
(g77
g58
NtRp1999
(dp2000
g61
(dp2001
g81
g82
ssg70
g1995
sg63
(lp2002
g333
asbag56
(g77
g58
NtRp2003
(dp2004
g61
(dp2005
g88
g89
ssg70
g1995
sg63
(lp2006
S':'
asbag56
(g77
g58
NtRp2007
(dp2008
g61
(dp2009
sg70
g1995
sg63
(lp2010
g56
(g57
g58
NtRp2011
(dp2012
g61
(dp2013
g69
I3
ssg70
g2007
sg63
(lp2014
S''
asbasbasbag56
(g72
g58
NtRp2015
(dp2016
g61
(dp2017
sg70
g1931
sg63
(lp2018
g56
(g77
g58
NtRp2019
(dp2020
g61
(dp2021
g81
g82
ssg70
g2015
sg63
(lp2022
g354
asbag56
(g77
g58
NtRp2023
(dp2024
g61
(dp2025
g88
g89
ssg70
g2015
sg63
(lp2026
S':'
asbag56
(g77
g58
NtRp2027
(dp2028
g61
(dp2029
sg70
g2015
sg63
(lp2030
g56
(g57
g58
NtRp2031
(dp2032
g61
(dp2033
g69
I3
ssg70
g2027
sg63
(lp2034
S''
asbasbasbag56
(g72
g58
NtRp2035
(dp2036
g61
(dp2037
sg70
g1931
sg63
(lp2038
g56
(g77
g58
NtRp2039
(dp2040
g61
(dp2041
g81
g82
ssg70
g2035
sg63
(lp2042
g375
asbag56
(g77
g58
NtRp2043
(dp2044
g61
(dp2045
g88
g89
ssg70
g2035
sg63
(lp2046
S':'
asbag56
(g77
g58
NtRp2047
(dp2048
g61
(dp2049
sg70
g2035
sg63
(lp2050
g56
(g57
g58
NtRp2051
(dp2052
g61
(dp2053
g69
I3
ssg70
g2047
sg63
(lp2054
S''
asbasbasbag56
(g72
g58
NtRp2055
(dp2056
g61
(dp2057
sg70
g1931
sg63
(lp2058
g56
(g77
g58
NtRp2059
(dp2060
g61
(dp2061
g81
g82
ssg70
g2055
sg63
(lp2062
g396
asbag56
(g77
g58
NtRp2063
(dp2064
g61
(dp2065
g88
g89
ssg70
g2055
sg63
(lp2066
S':'
asbag56
(g77
g58
NtRp2067
(dp2068
g61
(dp2069
sg70
g2055
sg63
(lp2070
g56
(g57
g58
NtRp2071
(dp2072
g61
(dp2073
g69
I3
ssg70
g2067
sg63
(lp2074
S''
asbasbasbag56
(g72
g58
NtRp2075
(dp2076
g61
(dp2077
sg70
g1931
sg63
(lp2078
g56
(g77
g58
NtRp2079
(dp2080
g61
(dp2081
g81
g82
ssg70
g2075
sg63
(lp2082
g417
asbag56
(g77
g58
NtRp2083
(dp2084
g61
(dp2085
g88
g89
ssg70
g2075
sg63
(lp2086
S':'
asbag56
(g77
g58
NtRp2087
(dp2088
g61
(dp2089
sg70
g2075
sg63
(lp2090
g56
(g57
g58
NtRp2091
(dp2092
g61
(dp2093
g69
I3
ssg70
g2087
sg63
(lp2094
S''
asbasbasbasbasbasbasbasbasbasbasbag56
(g72
g58
NtRp2095
(dp2096
g61
(dp2097
sg70
g66
sg63
(lp2098
g56
(g77
g58
NtRp2099
(dp2100
g61
(dp2101
g81
g82
ssg70
g2095
sg63
(lp2102
S'env'
p2103
asbag56
(g77
g58
NtRp2104
(dp2105
g61
(dp2106
g88
g89
ssg70
g2095
sg63
(lp2107
S':'
asbag56
(g77
g58
NtRp2108
(dp2109
g61
(dp2110
sg70
g2095
sg63
(lp2111
g56
(g57
g58
NtRp2112
(dp2113
g61
(dp2114
g69
I5
ssg70
g2108
sg63
(lp2115
g56
(g65
g58
NtRp2116
(dp2117
g61
(dp2118
g69
I4
ssg70
Nsg63
(lp2119
g56
(g72
g58
NtRp2120
(dp2121
g61
(dp2122
sg70
g2116
sg63
(lp2123
g56
(g77
g58
NtRp2124
(dp2125
g61
(dp2126
g81
g82
ssg70
g2120
sg63
(lp2127
S'app_folders'
p2128
asbag56
(g77
g58
NtRp2129
(dp2130
g61
(dp2131
g88
g89
ssg70
g2120
sg63
(lp2132
S':'
asbag56
(g77
g58
NtRp2133
(dp2134
g61
(dp2135
sg70
g2120
sg63
(lp2136
g56
(g57
g58
NtRp2137
(dp2138
g61
(dp2139
g69
I4
ssg70
g2133
sg63
(lp2140
S"set(['D:\\\\Workbench\\\\private\\\\web2py_src\\\\applications\\\\welcome\\\\', 'D:\\\\Workbench\\\\private\\\\web2py_src\\\\applications\\\\examples\\\\', 'D:\\\\Workbench\\\\private\\\\web2py_src\\\\applications\\\\admin\\\\'])"
p2141
asbasbasbag56
(g72
g58
NtRp2142
(dp2143
g61
(dp2144
sg70
g2116
sg63
(lp2145
g56
(g77
g58
NtRp2146
(dp2147
g61
(dp2148
g81
g82
ssg70
g2142
sg63
(lp2149
S'applications_parent'
p2150
asbag56
(g77
g58
NtRp2151
(dp2152
g61
(dp2153
g88
g89
ssg70
g2142
sg63
(lp2154
S':'
asbag56
(g77
g58
NtRp2155
(dp2156
g61
(dp2157
sg70
g2142
sg63
(lp2158
g56
(g57
g58
NtRp2159
(dp2160
g61
(dp2161
g69
I4
ssg70
g2155
sg63
(lp2162
S'D:\\Workbench\\private\\web2py_src'
p2163
asbasbasbag56
(g72
g58
NtRp2164
(dp2165
g61
(dp2166
sg70
g2116
sg63
(lp2167
g56
(g77
g58
NtRp2168
(dp2169
g61
(dp2170
g81
g82
ssg70
g2164
sg63
(lp2171
S'comspec'
p2172
asbag56
(g77
g58
NtRp2173
(dp2174
g61
(dp2175
g88
g89
ssg70
g2164
sg63
(lp2176
S':'
asbag56
(g77
g58
NtRp2177
(dp2178
g61
(dp2179
sg70
g2164
sg63
(lp2180
g56
(g57
g58
NtRp2181
(dp2182
g61
(dp2183
g69
I4
ssg70
g2177
sg63
(lp2184
S'C:\\Windows\\system32\\cmd.exe'
p2185
asbasbasbag56
(g72
g58
NtRp2186
(dp2187
g61
(dp2188
sg70
g2116
sg63
(lp2189
g56
(g77
g58
NtRp2190
(dp2191
g61
(dp2192
g81
g82
ssg70
g2186
sg63
(lp2193
S'content_length'
p2194
asbag56
(g77
g58
NtRp2195
(dp2196
g61
(dp2197
g88
g89
ssg70
g2186
sg63
(lp2198
S':'
asbag56
(g77
g58
NtRp2199
(dp2200
g61
(dp2201
sg70
g2186
sg63
(lp2202
g56
(g57
g58
NtRp2203
(dp2204
g61
(dp2205
g69
I4
ssg70
g2199
sg63
(lp2206
S'6975'
p2207
asbasbasbag56
(g72
g58
NtRp2208
(dp2209
g61
(dp2210
sg70
g2116
sg63
(lp2211
g56
(g77
g58
NtRp2212
(dp2213
g61
(dp2214
g81
g82
ssg70
g2208
sg63
(lp2215
S'content_type'
p2216
asbag56
(g77
g58
NtRp2217
(dp2218
g61
(dp2219
g88
g89
ssg70
g2208
sg63
(lp2220
S':'
asbag56
(g77
g58
NtRp2221
(dp2222
g61
(dp2223
sg70
g2208
sg63
(lp2224
g56
(g57
g58
NtRp2225
(dp2226
g61
(dp2227
g69
I4
ssg70
g2221
sg63
(lp2228
S'multipart/form-data; boundary=---------------------------7dc29e23b00c0'
p2229
asbasbasbag56
(g72
g58
NtRp2230
(dp2231
g61
(dp2232
sg70
g2116
sg63
(lp2233
g56
(g77
g58
NtRp2234
(dp2235
g61
(dp2236
g81
g82
ssg70
g2230
sg63
(lp2237
S'db_sessions'
p2238
asbag56
(g77
g58
NtRp2239
(dp2240
g61
(dp2241
g88
g89
ssg70
g2230
sg63
(lp2242
S':'
asbag56
(g77
g58
NtRp2243
(dp2244
g61
(dp2245
sg70
g2230
sg63
(lp2246
g56
(g57
g58
NtRp2247
(dp2248
g61
(dp2249
g69
I4
ssg70
g2243
sg63
(lp2250
S'set([])'
p2251
asbasbasbag56
(g72
g58
NtRp2252
(dp2253
g61
(dp2254
sg70
g2116
sg63
(lp2255
g56
(g77
g58
NtRp2256
(dp2257
g61
(dp2258
g81
g82
ssg70
g2252
sg63
(lp2259
S'debugging'
p2260
asbag56
(g77
g58
NtRp2261
(dp2262
g61
(dp2263
g88
g89
ssg70
g2252
sg63
(lp2264
S':'
asbag56
(g77
g58
NtRp2265
(dp2266
g61
(dp2267
sg70
g2252
sg63
(lp2268
g56
(g57
g58
NtRp2269
(dp2270
g61
(dp2271
g69
I4
ssg70
g2265
sg63
(lp2272
g99
asbasbasbag56
(g72
g58
NtRp2273
(dp2274
g61
(dp2275
sg70
g2116
sg63
(lp2276
g56
(g77
g58
NtRp2277
(dp2278
g61
(dp2279
g81
g82
ssg70
g2273
sg63
(lp2280
S'document_root'
p2281
asbag56
(g77
g58
NtRp2282
(dp2283
g61
(dp2284
g88
g89
ssg70
g2273
sg63
(lp2285
S':'
asbag56
(g77
g58
NtRp2286
(dp2287
g61
(dp2288
sg70
g2273
sg63
(lp2289
g56
(g57
g58
NtRp2290
(dp2291
g61
(dp2292
g69
I4
ssg70
g2286
sg63
(lp2293
S'D:/Workbench/documentroot'
p2294
asbasbasbag56
(g72
g58
NtRp2295
(dp2296
g61
(dp2297
sg70
g2116
sg63
(lp2298
g56
(g77
g58
NtRp2299
(dp2300
g61
(dp2301
g81
g82
ssg70
g2295
sg63
(lp2302
S'gateway_interface'
p2303
asbag56
(g77
g58
NtRp2304
(dp2305
g61
(dp2306
g88
g89
ssg70
g2295
sg63
(lp2307
S':'
asbag56
(g77
g58
NtRp2308
(dp2309
g61
(dp2310
sg70
g2295
sg63
(lp2311
g56
(g57
g58
NtRp2312
(dp2313
g61
(dp2314
g69
I4
ssg70
g2308
sg63
(lp2315
S'CGI/1.1'
p2316
asbasbasbag56
(g72
g58
NtRp2317
(dp2318
g61
(dp2319
sg70
g2116
sg63
(lp2320
g56
(g77
g58
NtRp2321
(dp2322
g61
(dp2323
g81
g82
ssg70
g2317
sg63
(lp2324
S'gluon_parent'
p2325
asbag56
(g77
g58
NtRp2326
(dp2327
g61
(dp2328
g88
g89
ssg70
g2317
sg63
(lp2329
S':'
asbag56
(g77
g58
NtRp2330
(dp2331
g61
(dp2332
sg70
g2317
sg63
(lp2333
g56
(g57
g58
NtRp2334
(dp2335
g61
(dp2336
g69
I4
ssg70
g2330
sg63
(lp2337
g2163
asbasbasbag56
(g72
g58
NtRp2338
(dp2339
g61
(dp2340
sg70
g2116
sg63
(lp2341
g56
(g77
g58
NtRp2342
(dp2343
g61
(dp2344
g81
g82
ssg70
g2338
sg63
(lp2345
S'http_accept'
p2346
asbag56
(g77
g58
NtRp2347
(dp2348
g61
(dp2349
g88
g89
ssg70
g2338
sg63
(lp2350
S':'
asbag56
(g77
g58
NtRp2351
(dp2352
g61
(dp2353
sg70
g2338
sg63
(lp2354
g56
(g57
g58
NtRp2355
(dp2356
g61
(dp2357
g69
I4
ssg70
g2351
sg63
(lp2358
S'text/html, application/xhtml+xml, */*'
p2359
asbasbasbag56
(g72
g58
NtRp2360
(dp2361
g61
(dp2362
sg70
g2116
sg63
(lp2363
g56
(g77
g58
NtRp2364
(dp2365
g61
(dp2366
g81
g82
ssg70
g2360
sg63
(lp2367
S'http_accept_encoding'
p2368
asbag56
(g77
g58
NtRp2369
(dp2370
g61
(dp2371
g88
g89
ssg70
g2360
sg63
(lp2372
S':'
asbag56
(g77
g58
NtRp2373
(dp2374
g61
(dp2375
sg70
g2360
sg63
(lp2376
g56
(g57
g58
NtRp2377
(dp2378
g61
(dp2379
g69
I4
ssg70
g2373
sg63
(lp2380
S'gzip, deflate'
p2381
asbasbasbag56
(g72
g58
NtRp2382
(dp2383
g61
(dp2384
sg70
g2116
sg63
(lp2385
g56
(g77
g58
NtRp2386
(dp2387
g61
(dp2388
g81
g82
ssg70
g2382
sg63
(lp2389
S'http_accept_language'
p2390
asbag56
(g77
g58
NtRp2391
(dp2392
g61
(dp2393
g88
g89
ssg70
g2382
sg63
(lp2394
S':'
asbag56
(g77
g58
NtRp2395
(dp2396
g61
(dp2397
sg70
g2382
sg63
(lp2398
g56
(g57
g58
NtRp2399
(dp2400
g61
(dp2401
g69
I4
ssg70
g2395
sg63
(lp2402
S'zh-CN'
p2403
asbasbasbag56
(g72
g58
NtRp2404
(dp2405
g61
(dp2406
sg70
g2116
sg63
(lp2407
g56
(g77
g58
NtRp2408
(dp2409
g61
(dp2410
g81
g82
ssg70
g2404
sg63
(lp2411
S'http_connection'
p2412
asbag56
(g77
g58
NtRp2413
(dp2414
g61
(dp2415
g88
g89
ssg70
g2404
sg63
(lp2416
S':'
asbag56
(g77
g58
NtRp2417
(dp2418
g61
(dp2419
sg70
g2404
sg63
(lp2420
g56
(g57
g58
NtRp2421
(dp2422
g61
(dp2423
g69
I4
ssg70
g2417
sg63
(lp2424
S'Keep-Alive'
p2425
asbasbasbag56
(g72
g58
NtRp2426
(dp2427
g61
(dp2428
sg70
g2116
sg63
(lp2429
g56
(g77
g58
NtRp2430
(dp2431
g61
(dp2432
g81
g82
ssg70
g2426
sg63
(lp2433
S'http_cookie'
p2434
asbag56
(g77
g58
NtRp2435
(dp2436
g61
(dp2437
g88
g89
ssg70
g2426
sg63
(lp2438
S':'
asbag56
(g77
g58
NtRp2439
(dp2440
g61
(dp2441
sg70
g2426
sg63
(lp2442
g56
(g57
g58
NtRp2443
(dp2444
g61
(dp2445
g69
I4
ssg70
g2439
sg63
(lp2446
S'ac=1,015,; pgv_pvid=4840772432; pt2gguin=o0395865019; pgv_flv=10.0; pgv_r_cookie=1222927619116; o_cookie=395865019; uin_cookie=395865019; euin_cookie=EA253FA02ECB0D137B9FBE38CDEF378C8B36821E9B481E2F; session_id_welcome=127.0.0.1-25468be9-02eb-447f-8357-ae0fe4d82274; session_id_examples=127.0.0.1-fb5c4bca-37fd-418c-8384-ba77900b1899'
p2447
asbasbasbag56
(g72
g58
NtRp2448
(dp2449
g61
(dp2450
sg70
g2116
sg63
(lp2451
g56
(g77
g58
NtRp2452
(dp2453
g61
(dp2454
g81
g82
ssg70
g2448
sg63
(lp2455
S'http_host'
p2456
asbag56
(g77
g58
NtRp2457
(dp2458
g61
(dp2459
g88
g89
ssg70
g2448
sg63
(lp2460
S':'
asbag56
(g77
g58
NtRp2461
(dp2462
g61
(dp2463
sg70
g2448
sg63
(lp2464
g56
(g57
g58
NtRp2465
(dp2466
g61
(dp2467
g69
I4
ssg70
g2461
sg63
(lp2468
S'tgtoolbox.qq.com'
p2469
asbasbasbag56
(g72
g58
NtRp2470
(dp2471
g61
(dp2472
sg70
g2116
sg63
(lp2473
g56
(g77
g58
NtRp2474
(dp2475
g61
(dp2476
g81
g82
ssg70
g2470
sg63
(lp2477
S'http_pragma'
p2478
asbag56
(g77
g58
NtRp2479
(dp2480
g61
(dp2481
g88
g89
ssg70
g2470
sg63
(lp2482
S':'
asbag56
(g77
g58
NtRp2483
(dp2484
g61
(dp2485
sg70
g2470
sg63
(lp2486
g56
(g57
g58
NtRp2487
(dp2488
g61
(dp2489
g69
I4
ssg70
g2483
sg63
(lp2490
S'no-cache'
p2491
asbasbasbag56
(g72
g58
NtRp2492
(dp2493
g61
(dp2494
sg70
g2116
sg63
(lp2495
g56
(g77
g58
NtRp2496
(dp2497
g61
(dp2498
g81
g82
ssg70
g2492
sg63
(lp2499
S'http_referer'
p2500
asbag56
(g77
g58
NtRp2501
(dp2502
g61
(dp2503
g88
g89
ssg70
g2492
sg63
(lp2504
S':'
asbag56
(g77
g58
NtRp2505
(dp2506
g61
(dp2507
sg70
g2492
sg63
(lp2508
g56
(g57
g58
NtRp2509
(dp2510
g61
(dp2511
g69
I4
ssg70
g2505
sg63
(lp2512
S'http://tgtoolbox.qq.com/examples/transform/index'
p2513
asbasbasbag56
(g72
g58
NtRp2514
(dp2515
g61
(dp2516
sg70
g2116
sg63
(lp2517
g56
(g77
g58
NtRp2518
(dp2519
g61
(dp2520
g81
g82
ssg70
g2514
sg63
(lp2521
S'http_user_agent'
p2522
asbag56
(g77
g58
NtRp2523
(dp2524
g61
(dp2525
g88
g89
ssg70
g2514
sg63
(lp2526
S':'
asbag56
(g77
g58
NtRp2527
(dp2528
g61
(dp2529
sg70
g2514
sg63
(lp2530
g56
(g57
g58
NtRp2531
(dp2532
g61
(dp2533
g69
I4
ssg70
g2527
sg63
(lp2534
S'Mozilla/5.0 (compatible; MSIE 9.0; Windows NT 6.1; Trident/5.0)'
p2535
asbasbasbag56
(g72
g58
NtRp2536
(dp2537
g61
(dp2538
sg70
g2116
sg63
(lp2539
g56
(g77
g58
NtRp2540
(dp2541
g61
(dp2542
g81
g82
ssg70
g2536
sg63
(lp2543
S'is_jython'
p2544
asbag56
(g77
g58
NtRp2545
(dp2546
g61
(dp2547
g88
g89
ssg70
g2536
sg63
(lp2548
S':'
asbag56
(g77
g58
NtRp2549
(dp2550
g61
(dp2551
sg70
g2536
sg63
(lp2552
g56
(g57
g58
NtRp2553
(dp2554
g61
(dp2555
g69
I4
ssg70
g2549
sg63
(lp2556
g99
asbasbasbag56
(g72
g58
NtRp2557
(dp2558
g61
(dp2559
sg70
g2116
sg63
(lp2560
g56
(g77
g58
NtRp2561
(dp2562
g61
(dp2563
g81
g82
ssg70
g2557
sg63
(lp2564
S'mod_wsgi_application_group'
p2565
asbag56
(g77
g58
NtRp2566
(dp2567
g61
(dp2568
g88
g89
ssg70
g2557
sg63
(lp2569
S':'
asbag56
(g77
g58
NtRp2570
(dp2571
g61
(dp2572
sg70
g2557
sg63
(lp2573
g56
(g57
g58
NtRp2574
(dp2575
g61
(dp2576
g69
I4
ssg70
g2570
sg63
(lp2577
S'XIAOFTANG-NB.tencent.com|'
p2578
asbasbasbag56
(g72
g58
NtRp2579
(dp2580
g61
(dp2581
sg70
g2116
sg63
(lp2582
g56
(g77
g58
NtRp2583
(dp2584
g61
(dp2585
g81
g82
ssg70
g2579
sg63
(lp2586
S'mod_wsgi_callable_object'
p2587
asbag56
(g77
g58
NtRp2588
(dp2589
g61
(dp2590
g88
g89
ssg70
g2579
sg63
(lp2591
S':'
asbag56
(g77
g58
NtRp2592
(dp2593
g61
(dp2594
sg70
g2579
sg63
(lp2595
g56
(g57
g58
NtRp2596
(dp2597
g61
(dp2598
g69
I4
ssg70
g2592
sg63
(lp2599
S'application'
p2600
asbasbasbag56
(g72
g58
NtRp2601
(dp2602
g61
(dp2603
sg70
g2116
sg63
(lp2604
g56
(g77
g58
NtRp2605
(dp2606
g61
(dp2607
g81
g82
ssg70
g2601
sg63
(lp2608
S'mod_wsgi_handler_script'
p2609
asbag56
(g77
g58
NtRp2610
(dp2611
g61
(dp2612
g88
g89
ssg70
g2601
sg63
(lp2613
S':'
asbag56
(g77
g58
NtRp2614
(dp2615
g61
(dp2616
sg70
g2601
sg63
(lp2617
g56
(g57
g58
NtRp2618
(dp2619
g61
(dp2620
g69
I4
ssg70
g2614
sg63
(lp2621
S''
asbasbasbag56
(g72
g58
NtRp2622
(dp2623
g61
(dp2624
sg70
g2116
sg63
(lp2625
g56
(g77
g58
NtRp2626
(dp2627
g61
(dp2628
g81
g82
ssg70
g2622
sg63
(lp2629
S'mod_wsgi_input_chunked'
p2630
asbag56
(g77
g58
NtRp2631
(dp2632
g61
(dp2633
g88
g89
ssg70
g2622
sg63
(lp2634
S':'
asbag56
(g77
g58
NtRp2635
(dp2636
g61
(dp2637
sg70
g2622
sg63
(lp2638
g56
(g57
g58
NtRp2639
(dp2640
g61
(dp2641
g69
I4
ssg70
g2635
sg63
(lp2642
S'0'
asbasbasbag56
(g72
g58
NtRp2643
(dp2644
g61
(dp2645
sg70
g2116
sg63
(lp2646
g56
(g77
g58
NtRp2647
(dp2648
g61
(dp2649
g81
g82
ssg70
g2643
sg63
(lp2650
S'mod_wsgi_process_group'
p2651
asbag56
(g77
g58
NtRp2652
(dp2653
g61
(dp2654
g88
g89
ssg70
g2643
sg63
(lp2655
S':'
asbag56
(g77
g58
NtRp2656
(dp2657
g61
(dp2658
sg70
g2643
sg63
(lp2659
g56
(g57
g58
NtRp2660
(dp2661
g61
(dp2662
g69
I4
ssg70
g2656
sg63
(lp2663
S''
asbasbasbag56
(g72
g58
NtRp2664
(dp2665
g61
(dp2666
sg70
g2116
sg63
(lp2667
g56
(g77
g58
NtRp2668
(dp2669
g61
(dp2670
g81
g82
ssg70
g2664
sg63
(lp2671
S'mod_wsgi_request_handler'
p2672
asbag56
(g77
g58
NtRp2673
(dp2674
g61
(dp2675
g88
g89
ssg70
g2664
sg63
(lp2676
S':'
asbag56
(g77
g58
NtRp2677
(dp2678
g61
(dp2679
sg70
g2664
sg63
(lp2680
g56
(g57
g58
NtRp2681
(dp2682
g61
(dp2683
g69
I4
ssg70
g2677
sg63
(lp2684
S'wsgi-script'
p2685
asbasbasbag56
(g72
g58
NtRp2686
(dp2687
g61
(dp2688
sg70
g2116
sg63
(lp2689
g56
(g77
g58
NtRp2690
(dp2691
g61
(dp2692
g81
g82
ssg70
g2686
sg63
(lp2693
S'mod_wsgi_script_reloading'
p2694
asbag56
(g77
g58
NtRp2695
(dp2696
g61
(dp2697
g88
g89
ssg70
g2686
sg63
(lp2698
S':'
asbag56
(g77
g58
NtRp2699
(dp2700
g61
(dp2701
sg70
g2686
sg63
(lp2702
g56
(g57
g58
NtRp2703
(dp2704
g61
(dp2705
g69
I4
ssg70
g2699
sg63
(lp2706
S'1'
asbasbasbag56
(g72
g58
NtRp2707
(dp2708
g61
(dp2709
sg70
g2116
sg63
(lp2710
g56
(g77
g58
NtRp2711
(dp2712
g61
(dp2713
g81
g82
ssg70
g2707
sg63
(lp2714
S'mod_wsgi_version'
p2715
asbag56
(g77
g58
NtRp2716
(dp2717
g61
(dp2718
g88
g89
ssg70
g2707
sg63
(lp2719
S':'
asbag56
(g77
g58
NtRp2720
(dp2721
g61
(dp2722
sg70
g2707
sg63
(lp2723
g56
(g57
g58
NtRp2724
(dp2725
g61
(dp2726
g69
I4
ssg70
g2720
sg63
(lp2727
g56
(g65
g58
NtRp2728
(dp2729
g61
(dp2730
g69
I3
ssg70
Nsg63
(lp2731
g56
(g72
g58
NtRp2732
(dp2733
g61
(dp2734
sg70
g2728
sg63
(lp2735
g56
(g77
g58
NtRp2736
(dp2737
g61
(dp2738
sg70
g2732
sg63
(lp2739
g56
(g57
g58
NtRp2740
(dp2741
g61
(dp2742
g69
I3
ssg70
g2736
sg63
(lp2743
S'3'
asbasbasbag56
(g72
g58
NtRp2744
(dp2745
g61
(dp2746
sg70
g2728
sg63
(lp2747
g56
(g77
g58
NtRp2748
(dp2749
g61
(dp2750
sg70
g2744
sg63
(lp2751
g56
(g57
g58
NtRp2752
(dp2753
g61
(dp2754
g69
I3
ssg70
g2748
sg63
(lp2755
S'3'
asbasbasbasbasbasbasbag56
(g72
g58
NtRp2756
(dp2757
g61
(dp2758
sg70
g2116
sg63
(lp2759
g56
(g77
g58
NtRp2760
(dp2761
g61
(dp2762
g81
g82
ssg70
g2756
sg63
(lp2763
S'path_info'
p2764
asbag56
(g77
g58
NtRp2765
(dp2766
g61
(dp2767
g88
g89
ssg70
g2756
sg63
(lp2768
S':'
asbag56
(g77
g58
NtRp2769
(dp2770
g61
(dp2771
sg70
g2756
sg63
(lp2772
g56
(g57
g58
NtRp2773
(dp2774
g61
(dp2775
g69
I4
ssg70
g2769
sg63
(lp2776
S'/examples/transform/upload'
p2777
asbasbasbag56
(g72
g58
NtRp2778
(dp2779
g61
(dp2780
sg70
g2116
sg63
(lp2781
g56
(g77
g58
NtRp2782
(dp2783
g61
(dp2784
g81
g82
ssg70
g2778
sg63
(lp2785
S'path_translated'
p2786
asbag56
(g77
g58
NtRp2787
(dp2788
g61
(dp2789
g88
g89
ssg70
g2778
sg63
(lp2790
S':'
asbag56
(g77
g58
NtRp2791
(dp2792
g61
(dp2793
sg70
g2778
sg63
(lp2794
g56
(g57
g58
NtRp2795
(dp2796
g61
(dp2797
g69
I4
ssg70
g2791
sg63
(lp2798
S'D:\\Workbench\\private\\web2py_src\\wsgihandler.py\\examples\\transform\\upload'
p2799
asbasbasbag56
(g72
g58
NtRp2800
(dp2801
g61
(dp2802
sg70
g2116
sg63
(lp2803
g56
(g77
g58
NtRp2804
(dp2805
g61
(dp2806
g81
g82
ssg70
g2800
sg63
(lp2807
S'pathext'
p2808
asbag56
(g77
g58
NtRp2809
(dp2810
g61
(dp2811
g88
g89
ssg70
g2800
sg63
(lp2812
S':'
asbag56
(g77
g58
NtRp2813
(dp2814
g61
(dp2815
sg70
g2800
sg63
(lp2816
g56
(g57
g58
NtRp2817
(dp2818
g61
(dp2819
g69
I4
ssg70
g2813
sg63
(lp2820
S'.COM;.EXE;.BAT;.CMD;.VBS;.VBE;.JS;.JSE;.WSF;.WSH;.MSC;.py;.pyw'
p2821
asbasbasbag56
(g72
g58
NtRp2822
(dp2823
g61
(dp2824
sg70
g2116
sg63
(lp2825
g56
(g77
g58
NtRp2826
(dp2827
g61
(dp2828
g81
g82
ssg70
g2822
sg63
(lp2829
S'query_string'
p2830
asbag56
(g77
g58
NtRp2831
(dp2832
g61
(dp2833
g88
g89
ssg70
g2822
sg63
(lp2834
S':'
asbag56
(g77
g58
NtRp2835
(dp2836
g61
(dp2837
sg70
g2822
sg63
(lp2838
g56
(g57
g58
NtRp2839
(dp2840
g61
(dp2841
g69
I4
ssg70
g2835
sg63
(lp2842
S''
asbasbasbag56
(g72
g58
NtRp2843
(dp2844
g61
(dp2845
sg70
g2116
sg63
(lp2846
g56
(g77
g58
NtRp2847
(dp2848
g61
(dp2849
g81
g82
ssg70
g2843
sg63
(lp2850
S'remote_addr'
p2851
asbag56
(g77
g58
NtRp2852
(dp2853
g61
(dp2854
g88
g89
ssg70
g2843
sg63
(lp2855
S':'
asbag56
(g77
g58
NtRp2856
(dp2857
g61
(dp2858
sg70
g2843
sg63
(lp2859
g56
(g57
g58
NtRp2860
(dp2861
g61
(dp2862
g69
I4
ssg70
g2856
sg63
(lp2863
g189
asbasbasbag56
(g72
g58
NtRp2864
(dp2865
g61
(dp2866
sg70
g2116
sg63
(lp2867
g56
(g77
g58
NtRp2868
(dp2869
g61
(dp2870
g81
g82
ssg70
g2864
sg63
(lp2871
S'remote_port'
p2872
asbag56
(g77
g58
NtRp2873
(dp2874
g61
(dp2875
g88
g89
ssg70
g2864
sg63
(lp2876
S':'
asbag56
(g77
g58
NtRp2877
(dp2878
g61
(dp2879
sg70
g2864
sg63
(lp2880
g56
(g57
g58
NtRp2881
(dp2882
g61
(dp2883
g69
I4
ssg70
g2877
sg63
(lp2884
S'52195'
p2885
asbasbasbag56
(g72
g58
NtRp2886
(dp2887
g61
(dp2888
sg70
g2116
sg63
(lp2889
g56
(g77
g58
NtRp2890
(dp2891
g61
(dp2892
g81
g82
ssg70
g2886
sg63
(lp2893
S'request_method'
p2894
asbag56
(g77
g58
NtRp2895
(dp2896
g61
(dp2897
g88
g89
ssg70
g2886
sg63
(lp2898
S':'
asbag56
(g77
g58
NtRp2899
(dp2900
g61
(dp2901
sg70
g2886
sg63
(lp2902
g56
(g57
g58
NtRp2903
(dp2904
g61
(dp2905
g69
I4
ssg70
g2899
sg63
(lp2906
S'POST'
p2907
asbasbasbag56
(g72
g58
NtRp2908
(dp2909
g61
(dp2910
sg70
g2116
sg63
(lp2911
g56
(g77
g58
NtRp2912
(dp2913
g61
(dp2914
g81
g82
ssg70
g2908
sg63
(lp2915
S'request_uri'
p2916
asbag56
(g77
g58
NtRp2917
(dp2918
g61
(dp2919
g88
g89
ssg70
g2908
sg63
(lp2920
S':'
asbag56
(g77
g58
NtRp2921
(dp2922
g61
(dp2923
sg70
g2908
sg63
(lp2924
g56
(g57
g58
NtRp2925
(dp2926
g61
(dp2927
g69
I4
ssg70
g2921
sg63
(lp2928
S'/examples/transform/upload'
p2929
asbasbasbag56
(g72
g58
NtRp2930
(dp2931
g61
(dp2932
sg70
g2116
sg63
(lp2933
g56
(g77
g58
NtRp2934
(dp2935
g61
(dp2936
g81
g82
ssg70
g2930
sg63
(lp2937
S'script_filename'
p2938
asbag56
(g77
g58
NtRp2939
(dp2940
g61
(dp2941
g88
g89
ssg70
g2930
sg63
(lp2942
S':'
asbag56
(g77
g58
NtRp2943
(dp2944
g61
(dp2945
sg70
g2930
sg63
(lp2946
g56
(g57
g58
NtRp2947
(dp2948
g61
(dp2949
g69
I4
ssg70
g2943
sg63
(lp2950
S'D:/Workbench/private/web2py_src/wsgihandler.py'
p2951
asbasbasbag56
(g72
g58
NtRp2952
(dp2953
g61
(dp2954
sg70
g2116
sg63
(lp2955
g56
(g77
g58
NtRp2956
(dp2957
g61
(dp2958
g81
g82
ssg70
g2952
sg63
(lp2959
S'script_name'
p2960
asbag56
(g77
g58
NtRp2961
(dp2962
g61
(dp2963
g88
g89
ssg70
g2952
sg63
(lp2964
S':'
asbag56
(g77
g58
NtRp2965
(dp2966
g61
(dp2967
sg70
g2952
sg63
(lp2968
g56
(g57
g58
NtRp2969
(dp2970
g61
(dp2971
g69
I4
ssg70
g2965
sg63
(lp2972
S''
asbasbasbag56
(g72
g58
NtRp2973
(dp2974
g61
(dp2975
sg70
g2116
sg63
(lp2976
g56
(g77
g58
NtRp2977
(dp2978
g61
(dp2979
g81
g82
ssg70
g2973
sg63
(lp2980
S'server_addr'
p2981
asbag56
(g77
g58
NtRp2982
(dp2983
g61
(dp2984
g88
g89
ssg70
g2973
sg63
(lp2985
S':'
asbag56
(g77
g58
NtRp2986
(dp2987
g61
(dp2988
sg70
g2973
sg63
(lp2989
g56
(g57
g58
NtRp2990
(dp2991
g61
(dp2992
g69
I4
ssg70
g2986
sg63
(lp2993
S'127.0.0.1'
p2994
asbasbasbag56
(g72
g58
NtRp2995
(dp2996
g61
(dp2997
sg70
g2116
sg63
(lp2998
g56
(g77
g58
NtRp2999
(dp3000
g61
(dp3001
g81
g82
ssg70
g2995
sg63
(lp3002
S'server_admin'
p3003
asbag56
(g77
g58
NtRp3004
(dp3005
g61
(dp3006
g88
g89
ssg70
g2995
sg63
(lp3007
S':'
asbag56
(g77
g58
NtRp3008
(dp3009
g61
(dp3010
sg70
g2995
sg63
(lp3011
g56
(g57
g58
NtRp3012
(dp3013
g61
(dp3014
g69
I4
ssg70
g3008
sg63
(lp3015
S'admin@tencent.com'
p3016
asbasbasbag56
(g72
g58
NtRp3017
(dp3018
g61
(dp3019
sg70
g2116
sg63
(lp3020
g56
(g77
g58
NtRp3021
(dp3022
g61
(dp3023
g81
g82
ssg70
g3017
sg63
(lp3024
S'server_name'
p3025
asbag56
(g77
g58
NtRp3026
(dp3027
g61
(dp3028
g88
g89
ssg70
g3017
sg63
(lp3029
S':'
asbag56
(g77
g58
NtRp3030
(dp3031
g61
(dp3032
sg70
g3017
sg63
(lp3033
g56
(g57
g58
NtRp3034
(dp3035
g61
(dp3036
g69
I4
ssg70
g3030
sg63
(lp3037
S'tgtoolbox.qq.com'
p3038
asbasbasbag56
(g72
g58
NtRp3039
(dp3040
g61
(dp3041
sg70
g2116
sg63
(lp3042
g56
(g77
g58
NtRp3043
(dp3044
g61
(dp3045
g81
g82
ssg70
g3039
sg63
(lp3046
S'server_port'
p3047
asbag56
(g77
g58
NtRp3048
(dp3049
g61
(dp3050
g88
g89
ssg70
g3039
sg63
(lp3051
S':'
asbag56
(g77
g58
NtRp3052
(dp3053
g61
(dp3054
sg70
g3039
sg63
(lp3055
g56
(g57
g58
NtRp3056
(dp3057
g61
(dp3058
g69
I4
ssg70
g3052
sg63
(lp3059
S'80'
p3060
asbasbasbag56
(g72
g58
NtRp3061
(dp3062
g61
(dp3063
sg70
g2116
sg63
(lp3064
g56
(g77
g58
NtRp3065
(dp3066
g61
(dp3067
g81
g82
ssg70
g3061
sg63
(lp3068
S'server_protocol'
p3069
asbag56
(g77
g58
NtRp3070
(dp3071
g61
(dp3072
g88
g89
ssg70
g3061
sg63
(lp3073
S':'
asbag56
(g77
g58
NtRp3074
(dp3075
g61
(dp3076
sg70
g3061
sg63
(lp3077
g56
(g57
g58
NtRp3078
(dp3079
g61
(dp3080
g69
I4
ssg70
g3074
sg63
(lp3081
S'HTTP/1.1'
p3082
asbasbasbag56
(g72
g58
NtRp3083
(dp3084
g61
(dp3085
sg70
g2116
sg63
(lp3086
g56
(g77
g58
NtRp3087
(dp3088
g61
(dp3089
g81
g82
ssg70
g3083
sg63
(lp3090
S'server_signature'
p3091
asbag56
(g77
g58
NtRp3092
(dp3093
g61
(dp3094
g88
g89
ssg70
g3083
sg63
(lp3095
S':'
asbag56
(g77
g58
NtRp3096
(dp3097
g61
(dp3098
sg70
g3083
sg63
(lp3099
g56
(g57
g58
NtRp3100
(dp3101
g61
(dp3102
g69
I4
ssg70
g3096
sg63
(lp3103
S''
asbasbasbag56
(g72
g58
NtRp3104
(dp3105
g61
(dp3106
sg70
g2116
sg63
(lp3107
g56
(g77
g58
NtRp3108
(dp3109
g61
(dp3110
g81
g82
ssg70
g3104
sg63
(lp3111
S'server_software'
p3112
asbag56
(g77
g58
NtRp3113
(dp3114
g61
(dp3115
g88
g89
ssg70
g3104
sg63
(lp3116
S':'
asbag56
(g77
g58
NtRp3117
(dp3118
g61
(dp3119
sg70
g3104
sg63
(lp3120
g56
(g57
g58
NtRp3121
(dp3122
g61
(dp3123
g69
I4
ssg70
g3117
sg63
(lp3124
S'Apache/2.2.21 (Win32) PHP/5.2.17 mod_wsgi/3.3 Python/2.7.2'
p3125
asbasbasbag56
(g72
g58
NtRp3126
(dp3127
g61
(dp3128
sg70
g2116
sg63
(lp3129
g56
(g77
g58
NtRp3130
(dp3131
g61
(dp3132
g81
g82
ssg70
g3126
sg63
(lp3133
S'systemroot'
p3134
asbag56
(g77
g58
NtRp3135
(dp3136
g61
(dp3137
g88
g89
ssg70
g3126
sg63
(lp3138
S':'
asbag56
(g77
g58
NtRp3139
(dp3140
g61
(dp3141
sg70
g3126
sg63
(lp3142
g56
(g57
g58
NtRp3143
(dp3144
g61
(dp3145
g69
I4
ssg70
g3139
sg63
(lp3146
S'C:\\Windows'
p3147
asbasbasbag56
(g72
g58
NtRp3148
(dp3149
g61
(dp3150
sg70
g2116
sg63
(lp3151
g56
(g77
g58
NtRp3152
(dp3153
g61
(dp3154
g81
g82
ssg70
g3148
sg63
(lp3155
S'web2py_path'
p3156
asbag56
(g77
g58
NtRp3157
(dp3158
g61
(dp3159
g88
g89
ssg70
g3148
sg63
(lp3160
S':'
asbag56
(g77
g58
NtRp3161
(dp3162
g61
(dp3163
sg70
g3148
sg63
(lp3164
g56
(g57
g58
NtRp3165
(dp3166
g61
(dp3167
g69
I4
ssg70
g3161
sg63
(lp3168
g2163
asbasbasbag56
(g72
g58
NtRp3169
(dp3170
g61
(dp3171
sg70
g2116
sg63
(lp3172
g56
(g77
g58
NtRp3173
(dp3174
g61
(dp3175
g81
g82
ssg70
g3169
sg63
(lp3176
S'web2py_version'
p3177
asbag56
(g77
g58
NtRp3178
(dp3179
g61
(dp3180
g88
g89
ssg70
g3169
sg63
(lp3181
S':'
asbag56
(g77
g58
NtRp3182
(dp3183
g61
(dp3184
sg70
g3169
sg63
(lp3185
g56
(g57
g58
NtRp3186
(dp3187
g61
(dp3188
g69
I4
ssg70
g3182
sg63
(lp3189
g56
(g65
g58
NtRp3190
(dp3191
g61
(dp3192
g69
I3
ssg70
Nsg63
(lp3193
g56
(g72
g58
NtRp3194
(dp3195
g61
(dp3196
sg70
g3190
sg63
(lp3197
g56
(g77
g58
NtRp3198
(dp3199
g61
(dp3200
sg70
g3194
sg63
(lp3201
g56
(g57
g58
NtRp3202
(dp3203
g61
(dp3204
g69
I3
ssg70
g3198
sg63
(lp3205
S'1'
asbasbasbag56
(g72
g58
NtRp3206
(dp3207
g61
(dp3208
sg70
g3190
sg63
(lp3209
g56
(g77
g58
NtRp3210
(dp3211
g61
(dp3212
sg70
g3206
sg63
(lp3213
g56
(g57
g58
NtRp3214
(dp3215
g61
(dp3216
g69
I3
ssg70
g3210
sg63
(lp3217
S'99'
p3218
asbasbasbag56
(g72
g58
NtRp3219
(dp3220
g61
(dp3221
sg70
g3190
sg63
(lp3222
g56
(g77
g58
NtRp3223
(dp3224
g61
(dp3225
sg70
g3219
sg63
(lp3226
g56
(g57
g58
NtRp3227
(dp3228
g61
(dp3229
g69
I3
ssg70
g3223
sg63
(lp3230
S'2'
asbasbasbag56
(g72
g58
NtRp3231
(dp3232
g61
(dp3233
sg70
g3190
sg63
(lp3234
g56
(g77
g58
NtRp3235
(dp3236
g61
(dp3237
sg70
g3231
sg63
(lp3238
g56
(g57
g58
NtRp3239
(dp3240
g61
(dp3241
g69
I3
ssg70
g3235
sg63
(lp3242
S'datetime.datetime(2011, 9, 26, 6, 55, 33)'
p3243
asbasbasbag56
(g72
g58
NtRp3244
(dp3245
g61
(dp3246
sg70
g3190
sg63
(lp3247
g56
(g77
g58
NtRp3248
(dp3249
g61
(dp3250
sg70
g3244
sg63
(lp3251
g56
(g57
g58
NtRp3252
(dp3253
g61
(dp3254
g69
I3
ssg70
g3248
sg63
(lp3255
S'stable'
p3256
asbasbasbasbasbasbasbag56
(g72
g58
NtRp3257
(dp3258
g61
(dp3259
sg70
g2116
sg63
(lp3260
g56
(g77
g58
NtRp3261
(dp3262
g61
(dp3263
g81
g82
ssg70
g3257
sg63
(lp3264
S'windir'
p3265
asbag56
(g77
g58
NtRp3266
(dp3267
g61
(dp3268
g88
g89
ssg70
g3257
sg63
(lp3269
S':'
asbag56
(g77
g58
NtRp3270
(dp3271
g61
(dp3272
sg70
g3257
sg63
(lp3273
g56
(g57
g58
NtRp3274
(dp3275
g61
(dp3276
g69
I4
ssg70
g3270
sg63
(lp3277
S'C:\\Windows'
p3278
asbasbasbag56
(g72
g58
NtRp3279
(dp3280
g61
(dp3281
sg70
g2116
sg63
(lp3282
g56
(g77
g58
NtRp3283
(dp3284
g61
(dp3285
g81
g82
ssg70
g3279
sg63
(lp3286
S'wsgi_errors'
p3287
asbag56
(g77
g58
NtRp3288
(dp3289
g61
(dp3290
g88
g89
ssg70
g3279
sg63
(lp3291
S':'
asbag56
(g77
g58
NtRp3292
(dp3293
g61
(dp3294
sg70
g3279
sg63
(lp3295
g56
(g57
g58
NtRp3296
(dp3297
g61
(dp3298
g69
I4
ssg70
g3292
sg63
(lp3299
S'<mod_wsgi.Log object at 0x052A4D90>'
p3300
asbasbasbag56
(g72
g58
NtRp3301
(dp3302
g61
(dp3303
sg70
g2116
sg63
(lp3304
g56
(g77
g58
NtRp3305
(dp3306
g61
(dp3307
g81
g82
ssg70
g3301
sg63
(lp3308
S'wsgi_file_wrapper'
p3309
asbag56
(g77
g58
NtRp3310
(dp3311
g61
(dp3312
g88
g89
ssg70
g3301
sg63
(lp3313
S':'
asbag56
(g77
g58
NtRp3314
(dp3315
g61
(dp3316
sg70
g3301
sg63
(lp3317
g56
(g57
g58
NtRp3318
(dp3319
g61
(dp3320
g69
I4
ssg70
g3314
sg63
(lp3321
S'<built-in method file_wrapper of mod_wsgi.Adapter object at 0x041E8BF0>'
p3322
asbasbasbag56
(g72
g58
NtRp3323
(dp3324
g61
(dp3325
sg70
g2116
sg63
(lp3326
g56
(g77
g58
NtRp3327
(dp3328
g61
(dp3329
g81
g82
ssg70
g3323
sg63
(lp3330
S'wsgi_input'
p3331
asbag56
(g77
g58
NtRp3332
(dp3333
g61
(dp3334
g88
g89
ssg70
g3323
sg63
(lp3335
S':'
asbag56
(g77
g58
NtRp3336
(dp3337
g61
(dp3338
sg70
g3323
sg63
(lp3339
g56
(g57
g58
NtRp3340
(dp3341
g61
(dp3342
g69
I4
ssg70
g3336
sg63
(lp3343
S'<mod_wsgi.Input object at 0x052A43E0>'
p3344
asbasbasbag56
(g72
g58
NtRp3345
(dp3346
g61
(dp3347
sg70
g2116
sg63
(lp3348
g56
(g77
g58
NtRp3349
(dp3350
g61
(dp3351
g81
g82
ssg70
g3345
sg63
(lp3352
S'wsgi_multiprocess'
p3353
asbag56
(g77
g58
NtRp3354
(dp3355
g61
(dp3356
g88
g89
ssg70
g3345
sg63
(lp3357
S':'
asbag56
(g77
g58
NtRp3358
(dp3359
g61
(dp3360
sg70
g3345
sg63
(lp3361
g56
(g57
g58
NtRp3362
(dp3363
g61
(dp3364
g69
I4
ssg70
g3358
sg63
(lp3365
g99
asbasbasbag56
(g72
g58
NtRp3366
(dp3367
g61
(dp3368
sg70
g2116
sg63
(lp3369
g56
(g77
g58
NtRp3370
(dp3371
g61
(dp3372
g81
g82
ssg70
g3366
sg63
(lp3373
S'wsgi_multithread'
p3374
asbag56
(g77
g58
NtRp3375
(dp3376
g61
(dp3377
g88
g89
ssg70
g3366
sg63
(lp3378
S':'
asbag56
(g77
g58
NtRp3379
(dp3380
g61
(dp3381
sg70
g3366
sg63
(lp3382
g56
(g57
g58
NtRp3383
(dp3384
g61
(dp3385
g69
I4
ssg70
g3379
sg63
(lp3386
S'True'
p3387
asbasbasbag56
(g72
g58
NtRp3388
(dp3389
g61
(dp3390
sg70
g2116
sg63
(lp3391
g56
(g77
g58
NtRp3392
(dp3393
g61
(dp3394
g81
g82
ssg70
g3388
sg63
(lp3395
S'wsgi_run_once'
p3396
asbag56
(g77
g58
NtRp3397
(dp3398
g61
(dp3399
g88
g89
ssg70
g3388
sg63
(lp3400
S':'
asbag56
(g77
g58
NtRp3401
(dp3402
g61
(dp3403
sg70
g3388
sg63
(lp3404
g56
(g57
g58
NtRp3405
(dp3406
g61
(dp3407
g69
I4
ssg70
g3401
sg63
(lp3408
g99
asbasbasbag56
(g72
g58
NtRp3409
(dp3410
g61
(dp3411
sg70
g2116
sg63
(lp3412
g56
(g77
g58
NtRp3413
(dp3414
g61
(dp3415
g81
g82
ssg70
g3409
sg63
(lp3416
S'wsgi_url_scheme'
p3417
asbag56
(g77
g58
NtRp3418
(dp3419
g61
(dp3420
g88
g89
ssg70
g3409
sg63
(lp3421
S':'
asbag56
(g77
g58
NtRp3422
(dp3423
g61
(dp3424
sg70
g3409
sg63
(lp3425
g56
(g57
g58
NtRp3426
(dp3427
g61
(dp3428
g69
I4
ssg70
g3422
sg63
(lp3429
S'http'
p3430
asbasbasbag56
(g72
g58
NtRp3431
(dp3432
g61
(dp3433
sg70
g2116
sg63
(lp3434
g56
(g77
g58
NtRp3435
(dp3436
g61
(dp3437
g81
g82
ssg70
g3431
sg63
(lp3438
S'wsgi_version'
p3439
asbag56
(g77
g58
NtRp3440
(dp3441
g61
(dp3442
g88
g89
ssg70
g3431
sg63
(lp3443
S':'
asbag56
(g77
g58
NtRp3444
(dp3445
g61
(dp3446
sg70
g3431
sg63
(lp3447
g56
(g57
g58
NtRp3448
(dp3449
g61
(dp3450
g69
I4
ssg70
g3444
sg63
(lp3451
g56
(g65
g58
NtRp3452
(dp3453
g61
(dp3454
g69
I3
ssg70
Nsg63
(lp3455
g56
(g72
g58
NtRp3456
(dp3457
g61
(dp3458
sg70
g3452
sg63
(lp3459
g56
(g77
g58
NtRp3460
(dp3461
g61
(dp3462
sg70
g3456
sg63
(lp3463
g56
(g57
g58
NtRp3464
(dp3465
g61
(dp3466
g69
I3
ssg70
g3460
sg63
(lp3467
S'1'
asbasbasbag56
(g72
g58
NtRp3468
(dp3469
g61
(dp3470
sg70
g3452
sg63
(lp3471
g56
(g77
g58
NtRp3472
(dp3473
g61
(dp3474
sg70
g3468
sg63
(lp3475
g56
(g57
g58
NtRp3476
(dp3477
g61
(dp3478
g69
I3
ssg70
g3472
sg63
(lp3479
S'1'
asbasbasbasbasbasbasbasbasbasbasbag56
(g72
g58
NtRp3480
(dp3481
g61
(dp3482
sg70
g66
sg63
(lp3483
g56
(g77
g58
NtRp3484
(dp3485
g61
(dp3486
g81
g82
ssg70
g3480
sg63
(lp3487
S'extension'
p3488
asbag56
(g77
g58
NtRp3489
(dp3490
g61
(dp3491
g88
g89
ssg70
g3480
sg63
(lp3492
S':'
asbag56
(g77
g58
NtRp3493
(dp3494
g61
(dp3495
sg70
g3480
sg63
(lp3496
g56
(g57
g58
NtRp3497
(dp3498
g61
(dp3499
g69
I5
ssg70
g3493
sg63
(lp3500
S'html'
p3501
asbasbasbag56
(g72
g58
NtRp3502
(dp3503
g61
(dp3504
sg70
g66
sg63
(lp3505
g56
(g77
g58
NtRp3506
(dp3507
g61
(dp3508
g81
g82
ssg70
g3502
sg63
(lp3509
S'folder'
p3510
asbag56
(g77
g58
NtRp3511
(dp3512
g61
(dp3513
g88
g89
ssg70
g3502
sg63
(lp3514
S':'
asbag56
(g77
g58
NtRp3515
(dp3516
g61
(dp3517
sg70
g3502
sg63
(lp3518
g56
(g57
g58
NtRp3519
(dp3520
g61
(dp3521
g69
I5
ssg70
g3515
sg63
(lp3522
S'D:\\Workbench\\private\\web2py_src\\applications\\examples\\'
p3523
asbasbasbag56
(g72
g58
NtRp3524
(dp3525
g61
(dp3526
sg70
g66
sg63
(lp3527
g56
(g77
g58
NtRp3528
(dp3529
g61
(dp3530
g81
g82
ssg70
g3524
sg63
(lp3531
S'function'
p3532
asbag56
(g77
g58
NtRp3533
(dp3534
g61
(dp3535
g88
g89
ssg70
g3524
sg63
(lp3536
S':'
asbag56
(g77
g58
NtRp3537
(dp3538
g61
(dp3539
sg70
g3524
sg63
(lp3540
g56
(g57
g58
NtRp3541
(dp3542
g61
(dp3543
g69
I5
ssg70
g3537
sg63
(lp3544
S'upload'
p3545
asbasbasbag56
(g72
g58
NtRp3546
(dp3547
g61
(dp3548
sg70
g66
sg63
(lp3549
g56
(g77
g58
NtRp3550
(dp3551
g61
(dp3552
g81
g82
ssg70
g3546
sg63
(lp3553
S'get_vars'
p3554
asbag56
(g77
g58
NtRp3555
(dp3556
g61
(dp3557
g88
g89
ssg70
g3546
sg63
(lp3558
S':'
asbag56
(g77
g58
NtRp3559
(dp3560
g61
(dp3561
sg70
g3546
sg63
(lp3562
g56
(g57
g58
NtRp3563
(dp3564
g61
(dp3565
g69
I5
ssg70
g3559
sg63
(lp3566
g56
(g65
g58
NtRp3567
(dp3568
g61
(dp3569
g69
I4
ssg70
Nsg63
(lp3570
sbasbasbasbag56
(g72
g58
NtRp3571
(dp3572
g61
(dp3573
sg70
g66
sg63
(lp3574
g56
(g77
g58
NtRp3575
(dp3576
g61
(dp3577
g81
g82
ssg70
g3571
sg63
(lp3578
S'global_settings'
p3579
asbag56
(g77
g58
NtRp3580
(dp3581
g61
(dp3582
g88
g89
ssg70
g3571
sg63
(lp3583
S':'
asbag56
(g77
g58
NtRp3584
(dp3585
g61
(dp3586
sg70
g3571
sg63
(lp3587
g56
(g57
g58
NtRp3588
(dp3589
g61
(dp3590
g69
I5
ssg70
g3584
sg63
(lp3591
g56
(g65
g58
NtRp3592
(dp3593
g61
(dp3594
g69
I4
ssg70
Nsg63
(lp3595
g56
(g72
g58
NtRp3596
(dp3597
g61
(dp3598
sg70
g3592
sg63
(lp3599
g56
(g77
g58
NtRp3600
(dp3601
g61
(dp3602
g81
g82
ssg70
g3596
sg63
(lp3603
g2128
asbag56
(g77
g58
NtRp3604
(dp3605
g61
(dp3606
g88
g89
ssg70
g3596
sg63
(lp3607
S':'
asbag56
(g77
g58
NtRp3608
(dp3609
g61
(dp3610
sg70
g3596
sg63
(lp3611
g56
(g57
g58
NtRp3612
(dp3613
g61
(dp3614
g69
I4
ssg70
g3608
sg63
(lp3615
S"set(['D:\\\\Workbench\\\\private\\\\web2py_src\\\\applications\\\\welcome\\\\', 'D:\\\\Workbench\\\\private\\\\web2py_src\\\\applications\\\\examples\\\\', 'D:\\\\Workbench\\\\private\\\\web2py_src\\\\applications\\\\admin\\\\'])"
p3616
asbasbasbag56
(g72
g58
NtRp3617
(dp3618
g61
(dp3619
sg70
g3592
sg63
(lp3620
g56
(g77
g58
NtRp3621
(dp3622
g61
(dp3623
g81
g82
ssg70
g3617
sg63
(lp3624
g2150
asbag56
(g77
g58
NtRp3625
(dp3626
g61
(dp3627
g88
g89
ssg70
g3617
sg63
(lp3628
S':'
asbag56
(g77
g58
NtRp3629
(dp3630
g61
(dp3631
sg70
g3617
sg63
(lp3632
g56
(g57
g58
NtRp3633
(dp3634
g61
(dp3635
g69
I4
ssg70
g3629
sg63
(lp3636
g2163
asbasbasbag56
(g72
g58
NtRp3637
(dp3638
g61
(dp3639
sg70
g3592
sg63
(lp3640
g56
(g77
g58
NtRp3641
(dp3642
g61
(dp3643
g81
g82
ssg70
g3637
sg63
(lp3644
g2238
asbag56
(g77
g58
NtRp3645
(dp3646
g61
(dp3647
g88
g89
ssg70
g3637
sg63
(lp3648
S':'
asbag56
(g77
g58
NtRp3649
(dp3650
g61
(dp3651
sg70
g3637
sg63
(lp3652
g56
(g57
g58
NtRp3653
(dp3654
g61
(dp3655
g69
I4
ssg70
g3649
sg63
(lp3656
S'set([])'
p3657
asbasbasbag56
(g72
g58
NtRp3658
(dp3659
g61
(dp3660
sg70
g3592
sg63
(lp3661
g56
(g77
g58
NtRp3662
(dp3663
g61
(dp3664
g81
g82
ssg70
g3658
sg63
(lp3665
g2260
asbag56
(g77
g58
NtRp3666
(dp3667
g61
(dp3668
g88
g89
ssg70
g3658
sg63
(lp3669
S':'
asbag56
(g77
g58
NtRp3670
(dp3671
g61
(dp3672
sg70
g3658
sg63
(lp3673
g56
(g57
g58
NtRp3674
(dp3675
g61
(dp3676
g69
I4
ssg70
g3670
sg63
(lp3677
g99
asbasbasbag56
(g72
g58
NtRp3678
(dp3679
g61
(dp3680
sg70
g3592
sg63
(lp3681
g56
(g77
g58
NtRp3682
(dp3683
g61
(dp3684
g81
g82
ssg70
g3678
sg63
(lp3685
g2325
asbag56
(g77
g58
NtRp3686
(dp3687
g61
(dp3688
g88
g89
ssg70
g3678
sg63
(lp3689
S':'
asbag56
(g77
g58
NtRp3690
(dp3691
g61
(dp3692
sg70
g3678
sg63
(lp3693
g56
(g57
g58
NtRp3694
(dp3695
g61
(dp3696
g69
I4
ssg70
g3690
sg63
(lp3697
g2163
asbasbasbag56
(g72
g58
NtRp3698
(dp3699
g61
(dp3700
sg70
g3592
sg63
(lp3701
g56
(g77
g58
NtRp3702
(dp3703
g61
(dp3704
g81
g82
ssg70
g3698
sg63
(lp3705
g2544
asbag56
(g77
g58
NtRp3706
(dp3707
g61
(dp3708
g88
g89
ssg70
g3698
sg63
(lp3709
S':'
asbag56
(g77
g58
NtRp3710
(dp3711
g61
(dp3712
sg70
g3698
sg63
(lp3713
g56
(g57
g58
NtRp3714
(dp3715
g61
(dp3716
g69
I4
ssg70
g3710
sg63
(lp3717
g99
asbasbasbag56
(g72
g58
NtRp3718
(dp3719
g61
(dp3720
sg70
g3592
sg63
(lp3721
g56
(g77
g58
NtRp3722
(dp3723
g61
(dp3724
g81
g82
ssg70
g3718
sg63
(lp3725
g3177
asbag56
(g77
g58
NtRp3726
(dp3727
g61
(dp3728
g88
g89
ssg70
g3718
sg63
(lp3729
S':'
asbag56
(g77
g58
NtRp3730
(dp3731
g61
(dp3732
sg70
g3718
sg63
(lp3733
g56
(g57
g58
NtRp3734
(dp3735
g61
(dp3736
g69
I4
ssg70
g3730
sg63
(lp3737
g56
(g65
g58
NtRp3738
(dp3739
g61
(dp3740
g69
I3
ssg70
Nsg63
(lp3741
g56
(g72
g58
NtRp3742
(dp3743
g61
(dp3744
sg70
g3738
sg63
(lp3745
g56
(g77
g58
NtRp3746
(dp3747
g61
(dp3748
sg70
g3742
sg63
(lp3749
g56
(g57
g58
NtRp3750
(dp3751
g61
(dp3752
g69
I3
ssg70
g3746
sg63
(lp3753
S'1'
asbasbasbag56
(g72
g58
NtRp3754
(dp3755
g61
(dp3756
sg70
g3738
sg63
(lp3757
g56
(g77
g58
NtRp3758
(dp3759
g61
(dp3760
sg70
g3754
sg63
(lp3761
g56
(g57
g58
NtRp3762
(dp3763
g61
(dp3764
g69
I3
ssg70
g3758
sg63
(lp3765
S'99'
p3766
asbasbasbag56
(g72
g58
NtRp3767
(dp3768
g61
(dp3769
sg70
g3738
sg63
(lp3770
g56
(g77
g58
NtRp3771
(dp3772
g61
(dp3773
sg70
g3767
sg63
(lp3774
g56
(g57
g58
NtRp3775
(dp3776
g61
(dp3777
g69
I3
ssg70
g3771
sg63
(lp3778
S'2'
asbasbasbag56
(g72
g58
NtRp3779
(dp3780
g61
(dp3781
sg70
g3738
sg63
(lp3782
g56
(g77
g58
NtRp3783
(dp3784
g61
(dp3785
sg70
g3779
sg63
(lp3786
g56
(g57
g58
NtRp3787
(dp3788
g61
(dp3789
g69
I3
ssg70
g3783
sg63
(lp3790
S'datetime.datetime(2011, 9, 26, 6, 55, 33)'
p3791
asbasbasbag56
(g72
g58
NtRp3792
(dp3793
g61
(dp3794
sg70
g3738
sg63
(lp3795
g56
(g77
g58
NtRp3796
(dp3797
g61
(dp3798
sg70
g3792
sg63
(lp3799
g56
(g57
g58
NtRp3800
(dp3801
g61
(dp3802
g69
I3
ssg70
g3796
sg63
(lp3803
g3256
asbasbasbasbasbasbasbasbasbasbasbag56
(g72
g58
NtRp3804
(dp3805
g61
(dp3806
sg70
g66
sg63
(lp3807
g56
(g77
g58
NtRp3808
(dp3809
g61
(dp3810
g81
g82
ssg70
g3804
sg63
(lp3811
S'is_https'
p3812
asbag56
(g77
g58
NtRp3813
(dp3814
g61
(dp3815
g88
g89
ssg70
g3804
sg63
(lp3816
S':'
asbag56
(g77
g58
NtRp3817
(dp3818
g61
(dp3819
sg70
g3804
sg63
(lp3820
g56
(g57
g58
NtRp3821
(dp3822
g61
(dp3823
g69
I5
ssg70
g3817
sg63
(lp3824
g99
asbasbasbag56
(g72
g58
NtRp3825
(dp3826
g61
(dp3827
sg70
g66
sg63
(lp3828
g56
(g77
g58
NtRp3829
(dp3830
g61
(dp3831
g81
g82
ssg70
g3825
sg63
(lp3832
S'is_local'
p3833
asbag56
(g77
g58
NtRp3834
(dp3835
g61
(dp3836
g88
g89
ssg70
g3825
sg63
(lp3837
S':'
asbag56
(g77
g58
NtRp3838
(dp3839
g61
(dp3840
sg70
g3825
sg63
(lp3841
g56
(g57
g58
NtRp3842
(dp3843
g61
(dp3844
g69
I5
ssg70
g3838
sg63
(lp3845
g3387
asbasbasbag56
(g72
g58
NtRp3846
(dp3847
g61
(dp3848
sg70
g66
sg63
(lp3849
g56
(g77
g58
NtRp3850
(dp3851
g61
(dp3852
g81
g82
ssg70
g3846
sg63
(lp3853
S'is_restful'
p3854
asbag56
(g77
g58
NtRp3855
(dp3856
g61
(dp3857
g88
g89
ssg70
g3846
sg63
(lp3858
S':'
asbag56
(g77
g58
NtRp3859
(dp3860
g61
(dp3861
sg70
g3846
sg63
(lp3862
g56
(g57
g58
NtRp3863
(dp3864
g61
(dp3865
g69
I5
ssg70
g3859
sg63
(lp3866
g99
asbasbasbag56
(g72
g58
NtRp3867
(dp3868
g61
(dp3869
sg70
g66
sg63
(lp3870
g56
(g77
g58
NtRp3871
(dp3872
g61
(dp3873
g81
g82
ssg70
g3867
sg63
(lp3874
S'now'
p3875
asbag56
(g77
g58
NtRp3876
(dp3877
g61
(dp3878
g88
g89
ssg70
g3867
sg63
(lp3879
S':'
asbag56
(g77
g58
NtRp3880
(dp3881
g61
(dp3882
sg70
g3867
sg63
(lp3883
g56
(g57
g58
NtRp3884
(dp3885
g61
(dp3886
g69
I5
ssg70
g3880
sg63
(lp3887
S'datetime.datetime(2012, 3, 8, 22, 30, 2, 690000)'
p3888
asbasbasbag56
(g72
g58
NtRp3889
(dp3890
g61
(dp3891
sg70
g66
sg63
(lp3892
g56
(g77
g58
NtRp3893
(dp3894
g61
(dp3895
g81
g82
ssg70
g3889
sg63
(lp3896
S'post_vars'
p3897
asbag56
(g77
g58
NtRp3898
(dp3899
g61
(dp3900
g88
g89
ssg70
g3889
sg63
(lp3901
S':'
asbag56
(g77
g58
NtRp3902
(dp3903
g61
(dp3904
sg70
g3889
sg63
(lp3905
g56
(g57
g58
NtRp3906
(dp3907
g61
(dp3908
g69
I5
ssg70
g3902
sg63
(lp3909
g56
(g65
g58
NtRp3910
(dp3911
g61
(dp3912
g69
I4
ssg70
Nsg63
(lp3913
g56
(g72
g58
NtRp3914
(dp3915
g61
(dp3916
sg70
g3910
sg63
(lp3917
g56
(g77
g58
NtRp3918
(dp3919
g61
(dp3920
g81
g82
ssg70
g3914
sg63
(lp3921
S'myfile'
p3922
asbag56
(g77
g58
NtRp3923
(dp3924
g61
(dp3925
g88
g89
ssg70
g3914
sg63
(lp3926
S':'
asbag56
(g77
g58
NtRp3927
(dp3928
g61
(dp3929
sg70
g3914
sg63
(lp3930
g56
(g57
g58
NtRp3931
(dp3932
g61
(dp3933
g69
I4
ssg70
g3927
sg63
(lp3934
S'FieldStorage object'
p3935
asbasbasbasbasbasbasbag56
(g72
g58
NtRp3936
(dp3937
g61
(dp3938
sg70
g66
sg63
(lp3939
g56
(g77
g58
NtRp3940
(dp3941
g61
(dp3942
g81
g82
ssg70
g3936
sg63
(lp3943
S'url'
p3944
asbag56
(g77
g58
NtRp3945
(dp3946
g61
(dp3947
g88
g89
ssg70
g3936
sg63
(lp3948
S':'
asbag56
(g77
g58
NtRp3949
(dp3950
g61
(dp3951
sg70
g3936
sg63
(lp3952
g56
(g57
g58
NtRp3953
(dp3954
g61
(dp3955
g69
I5
ssg70
g3949
sg63
(lp3956
S'/examples/transform/upload'
p3957
asbasbasbag56
(g72
g58
NtRp3958
(dp3959
g61
(dp3960
sg70
g66
sg63
(lp3961
g56
(g77
g58
NtRp3962
(dp3963
g61
(dp3964
g81
g82
ssg70
g3958
sg63
(lp3965
S'utcnow'
p3966
asbag56
(g77
g58
NtRp3967
(dp3968
g61
(dp3969
g88
g89
ssg70
g3958
sg63
(lp3970
S':'
asbag56
(g77
g58
NtRp3971
(dp3972
g61
(dp3973
sg70
g3958
sg63
(lp3974
g56
(g57
g58
NtRp3975
(dp3976
g61
(dp3977
g69
I5
ssg70
g3971
sg63
(lp3978
S'datetime.datetime(2012, 3, 8, 14, 30, 2, 690000)'
p3979
asbasbasbag56
(g72
g58
NtRp3980
(dp3981
g61
(dp3982
sg70
g66
sg63
(lp3983
g56
(g77
g58
NtRp3984
(dp3985
g61
(dp3986
g81
g82
ssg70
g3980
sg63
(lp3987
S'uuid'
p3988
asbag56
(g77
g58
NtRp3989
(dp3990
g61
(dp3991
g88
g89
ssg70
g3980
sg63
(lp3992
S':'
asbag56
(g77
g58
NtRp3993
(dp3994
g61
(dp3995
sg70
g3980
sg63
(lp3996
g56
(g57
g58
NtRp3997
(dp3998
g61
(dp3999
g69
I5
ssg70
g3993
sg63
(lp4000
S'examples/127.0.0.1.2012-03-08.22-30-02.c2fba158-d4be-4dc3-9c46-c496248ed099'
p4001
asbasbasbag56
(g72
g58
NtRp4002
(dp4003
g61
(dp4004
sg70
g66
sg63
(lp4005
g56
(g77
g58
NtRp4006
(dp4007
g61
(dp4008
g81
g82
ssg70
g4002
sg63
(lp4009
S'vars'
p4010
asbag56
(g77
g58
NtRp4011
(dp4012
g61
(dp4013
g88
g89
ssg70
g4002
sg63
(lp4014
S':'
asbag56
(g77
g58
NtRp4015
(dp4016
g61
(dp4017
sg70
g4002
sg63
(lp4018
g56
(g57
g58
NtRp4019
(dp4020
g61
(dp4021
g69
I5
ssg70
g4015
sg63
(lp4022
g56
(g65
g58
NtRp4023
(dp4024
g61
(dp4025
g69
I4
ssg70
Nsg63
(lp4026
g56
(g72
g58
NtRp4027
(dp4028
g61
(dp4029
sg70
g4023
sg63
(lp4030
g56
(g77
g58
NtRp4031
(dp4032
g61
(dp4033
g81
g82
ssg70
g4027
sg63
(lp4034
g3922
asbag56
(g77
g58
NtRp4035
(dp4036
g61
(dp4037
g88
g89
ssg70
g4027
sg63
(lp4038
S':'
asbag56
(g77
g58
NtRp4039
(dp4040
g61
(dp4041
sg70
g4027
sg63
(lp4042
g56
(g57
g58
NtRp4043
(dp4044
g61
(dp4045
g69
I4
ssg70
g4039
sg63
(lp4046
g3935
asbasbasbasbasbasbasbag56
(g72
g58
NtRp4047
(dp4048
g61
(dp4049
sg70
g66
sg63
(lp4050
g56
(g77
g58
NtRp4051
(dp4052
g61
(dp4053
g81
g82
ssg70
g4047
sg63
(lp4054
S'wsgi'
p4055
asbag56
(g77
g58
NtRp4056
(dp4057
g61
(dp4058
g88
g89
ssg70
g4047
sg63
(lp4059
S':'
asbag56
(g77
g58
NtRp4060
(dp4061
g61
(dp4062
sg70
g4047
sg63
(lp4063
g56
(g57
g58
NtRp4064
(dp4065
g61
(dp4066
g69
I5
ssg70
g4060
sg63
(lp4067
g56
(g65
g58
NtRp4068
(dp4069
g61
(dp4070
g69
I4
ssg70
Nsg63
(lp4071
g56
(g72
g58
NtRp4072
(dp4073
g61
(dp4074
sg70
g4068
sg63
(lp4075
g56
(g77
g58
NtRp4076
(dp4077
g61
(dp4078
g81
g82
ssg70
g4072
sg63
(lp4079
S'environ'
p4080
asbag56
(g77
g58
NtRp4081
(dp4082
g61
(dp4083
g88
g89
ssg70
g4072
sg63
(lp4084
S':'
asbag56
(g77
g58
NtRp4085
(dp4086
g61
(dp4087
sg70
g4072
sg63
(lp4088
g56
(g57
g58
NtRp4089
(dp4090
g61
(dp4091
g69
I4
ssg70
g4085
sg63
(lp4092
g56
(g65
g58
NtRp4093
(dp4094
g61
(dp4095
g69
I3
ssg70
Nsg63
(lp4096
g56
(g72
g58
NtRp4097
(dp4098
g61
(dp4099
sg70
g4093
sg63
(lp4100
g56
(g77
g58
NtRp4101
(dp4102
g61
(dp4103
g81
g82
ssg70
g4097
sg63
(lp4104
S'COMSPEC'
p4105
asbag56
(g77
g58
NtRp4106
(dp4107
g61
(dp4108
g88
g89
ssg70
g4097
sg63
(lp4109
S':'
asbag56
(g77
g58
NtRp4110
(dp4111
g61
(dp4112
sg70
g4097
sg63
(lp4113
g56
(g57
g58
NtRp4114
(dp4115
g61
(dp4116
g69
I3
ssg70
g4110
sg63
(lp4117
g2185
asbasbasbag56
(g72
g58
NtRp4118
(dp4119
g61
(dp4120
sg70
g4093
sg63
(lp4121
g56
(g77
g58
NtRp4122
(dp4123
g61
(dp4124
g81
g82
ssg70
g4118
sg63
(lp4125
S'CONTENT_LENGTH'
p4126
asbag56
(g77
g58
NtRp4127
(dp4128
g61
(dp4129
g88
g89
ssg70
g4118
sg63
(lp4130
S':'
asbag56
(g77
g58
NtRp4131
(dp4132
g61
(dp4133
sg70
g4118
sg63
(lp4134
g56
(g57
g58
NtRp4135
(dp4136
g61
(dp4137
g69
I3
ssg70
g4131
sg63
(lp4138
g2207
asbasbasbag56
(g72
g58
NtRp4139
(dp4140
g61
(dp4141
sg70
g4093
sg63
(lp4142
g56
(g77
g58
NtRp4143
(dp4144
g61
(dp4145
g81
g82
ssg70
g4139
sg63
(lp4146
S'CONTENT_TYPE'
p4147
asbag56
(g77
g58
NtRp4148
(dp4149
g61
(dp4150
g88
g89
ssg70
g4139
sg63
(lp4151
S':'
asbag56
(g77
g58
NtRp4152
(dp4153
g61
(dp4154
sg70
g4139
sg63
(lp4155
g56
(g57
g58
NtRp4156
(dp4157
g61
(dp4158
g69
I3
ssg70
g4152
sg63
(lp4159
g2229
asbasbasbag56
(g72
g58
NtRp4160
(dp4161
g61
(dp4162
sg70
g4093
sg63
(lp4163
g56
(g77
g58
NtRp4164
(dp4165
g61
(dp4166
g81
g82
ssg70
g4160
sg63
(lp4167
S'DOCUMENT_ROOT'
p4168
asbag56
(g77
g58
NtRp4169
(dp4170
g61
(dp4171
g88
g89
ssg70
g4160
sg63
(lp4172
S':'
asbag56
(g77
g58
NtRp4173
(dp4174
g61
(dp4175
sg70
g4160
sg63
(lp4176
g56
(g57
g58
NtRp4177
(dp4178
g61
(dp4179
g69
I3
ssg70
g4173
sg63
(lp4180
g2294
asbasbasbag56
(g72
g58
NtRp4181
(dp4182
g61
(dp4183
sg70
g4093
sg63
(lp4184
g56
(g77
g58
NtRp4185
(dp4186
g61
(dp4187
g81
g82
ssg70
g4181
sg63
(lp4188
S'GATEWAY_INTERFACE'
p4189
asbag56
(g77
g58
NtRp4190
(dp4191
g61
(dp4192
g88
g89
ssg70
g4181
sg63
(lp4193
S':'
asbag56
(g77
g58
NtRp4194
(dp4195
g61
(dp4196
sg70
g4181
sg63
(lp4197
g56
(g57
g58
NtRp4198
(dp4199
g61
(dp4200
g69
I3
ssg70
g4194
sg63
(lp4201
g2316
asbasbasbag56
(g72
g58
NtRp4202
(dp4203
g61
(dp4204
sg70
g4093
sg63
(lp4205
g56
(g77
g58
NtRp4206
(dp4207
g61
(dp4208
g81
g82
ssg70
g4202
sg63
(lp4209
S'HTTP_ACCEPT'
p4210
asbag56
(g77
g58
NtRp4211
(dp4212
g61
(dp4213
g88
g89
ssg70
g4202
sg63
(lp4214
S':'
asbag56
(g77
g58
NtRp4215
(dp4216
g61
(dp4217
sg70
g4202
sg63
(lp4218
g56
(g57
g58
NtRp4219
(dp4220
g61
(dp4221
g69
I3
ssg70
g4215
sg63
(lp4222
g2359
asbasbasbag56
(g72
g58
NtRp4223
(dp4224
g61
(dp4225
sg70
g4093
sg63
(lp4226
g56
(g77
g58
NtRp4227
(dp4228
g61
(dp4229
g81
g82
ssg70
g4223
sg63
(lp4230
S'HTTP_ACCEPT_ENCODING'
p4231
asbag56
(g77
g58
NtRp4232
(dp4233
g61
(dp4234
g88
g89
ssg70
g4223
sg63
(lp4235
S':'
asbag56
(g77
g58
NtRp4236
(dp4237
g61
(dp4238
sg70
g4223
sg63
(lp4239
g56
(g57
g58
NtRp4240
(dp4241
g61
(dp4242
g69
I3
ssg70
g4236
sg63
(lp4243
g2381
asbasbasbag56
(g72
g58
NtRp4244
(dp4245
g61
(dp4246
sg70
g4093
sg63
(lp4247
g56
(g77
g58
NtRp4248
(dp4249
g61
(dp4250
g81
g82
ssg70
g4244
sg63
(lp4251
S'HTTP_ACCEPT_LANGUAGE'
p4252
asbag56
(g77
g58
NtRp4253
(dp4254
g61
(dp4255
g88
g89
ssg70
g4244
sg63
(lp4256
S':'
asbag56
(g77
g58
NtRp4257
(dp4258
g61
(dp4259
sg70
g4244
sg63
(lp4260
g56
(g57
g58
NtRp4261
(dp4262
g61
(dp4263
g69
I3
ssg70
g4257
sg63
(lp4264
g2403
asbasbasbag56
(g72
g58
NtRp4265
(dp4266
g61
(dp4267
sg70
g4093
sg63
(lp4268
g56
(g77
g58
NtRp4269
(dp4270
g61
(dp4271
g81
g82
ssg70
g4265
sg63
(lp4272
S'HTTP_CONNECTION'
p4273
asbag56
(g77
g58
NtRp4274
(dp4275
g61
(dp4276
g88
g89
ssg70
g4265
sg63
(lp4277
S':'
asbag56
(g77
g58
NtRp4278
(dp4279
g61
(dp4280
sg70
g4265
sg63
(lp4281
g56
(g57
g58
NtRp4282
(dp4283
g61
(dp4284
g69
I3
ssg70
g4278
sg63
(lp4285
g2425
asbasbasbag56
(g72
g58
NtRp4286
(dp4287
g61
(dp4288
sg70
g4093
sg63
(lp4289
g56
(g77
g58
NtRp4290
(dp4291
g61
(dp4292
g81
g82
ssg70
g4286
sg63
(lp4293
S'HTTP_COOKIE'
p4294
asbag56
(g77
g58
NtRp4295
(dp4296
g61
(dp4297
g88
g89
ssg70
g4286
sg63
(lp4298
S':'
asbag56
(g77
g58
NtRp4299
(dp4300
g61
(dp4301
sg70
g4286
sg63
(lp4302
g56
(g57
g58
NtRp4303
(dp4304
g61
(dp4305
g69
I3
ssg70
g4299
sg63
(lp4306
g2447
asbasbasbag56
(g72
g58
NtRp4307
(dp4308
g61
(dp4309
sg70
g4093
sg63
(lp4310
g56
(g77
g58
NtRp4311
(dp4312
g61
(dp4313
g81
g82
ssg70
g4307
sg63
(lp4314
S'HTTP_HOST'
p4315
asbag56
(g77
g58
NtRp4316
(dp4317
g61
(dp4318
g88
g89
ssg70
g4307
sg63
(lp4319
S':'
asbag56
(g77
g58
NtRp4320
(dp4321
g61
(dp4322
sg70
g4307
sg63
(lp4323
g56
(g57
g58
NtRp4324
(dp4325
g61
(dp4326
g69
I3
ssg70
g4320
sg63
(lp4327
g2469
asbasbasbag56
(g72
g58
NtRp4328
(dp4329
g61
(dp4330
sg70
g4093
sg63
(lp4331
g56
(g77
g58
NtRp4332
(dp4333
g61
(dp4334
g81
g82
ssg70
g4328
sg63
(lp4335
S'HTTP_PRAGMA'
p4336
asbag56
(g77
g58
NtRp4337
(dp4338
g61
(dp4339
g88
g89
ssg70
g4328
sg63
(lp4340
S':'
asbag56
(g77
g58
NtRp4341
(dp4342
g61
(dp4343
sg70
g4328
sg63
(lp4344
g56
(g57
g58
NtRp4345
(dp4346
g61
(dp4347
g69
I3
ssg70
g4341
sg63
(lp4348
g2491
asbasbasbag56
(g72
g58
NtRp4349
(dp4350
g61
(dp4351
sg70
g4093
sg63
(lp4352
g56
(g77
g58
NtRp4353
(dp4354
g61
(dp4355
g81
g82
ssg70
g4349
sg63
(lp4356
S'HTTP_REFERER'
p4357
asbag56
(g77
g58
NtRp4358
(dp4359
g61
(dp4360
g88
g89
ssg70
g4349
sg63
(lp4361
S':'
asbag56
(g77
g58
NtRp4362
(dp4363
g61
(dp4364
sg70
g4349
sg63
(lp4365
g56
(g57
g58
NtRp4366
(dp4367
g61
(dp4368
g69
I3
ssg70
g4362
sg63
(lp4369
g2513
asbasbasbag56
(g72
g58
NtRp4370
(dp4371
g61
(dp4372
sg70
g4093
sg63
(lp4373
g56
(g77
g58
NtRp4374
(dp4375
g61
(dp4376
g81
g82
ssg70
g4370
sg63
(lp4377
S'HTTP_USER_AGENT'
p4378
asbag56
(g77
g58
NtRp4379
(dp4380
g61
(dp4381
g88
g89
ssg70
g4370
sg63
(lp4382
S':'
asbag56
(g77
g58
NtRp4383
(dp4384
g61
(dp4385
sg70
g4370
sg63
(lp4386
g56
(g57
g58
NtRp4387
(dp4388
g61
(dp4389
g69
I3
ssg70
g4383
sg63
(lp4390
g2535
asbasbasbag56
(g72
g58
NtRp4391
(dp4392
g61
(dp4393
sg70
g4093
sg63
(lp4394
g56
(g77
g58
NtRp4395
(dp4396
g61
(dp4397
g81
g82
ssg70
g4391
sg63
(lp4398
S'PATHEXT'
p4399
asbag56
(g77
g58
NtRp4400
(dp4401
g61
(dp4402
g88
g89
ssg70
g4391
sg63
(lp4403
S':'
asbag56
(g77
g58
NtRp4404
(dp4405
g61
(dp4406
sg70
g4391
sg63
(lp4407
g56
(g57
g58
NtRp4408
(dp4409
g61
(dp4410
g69
I3
ssg70
g4404
sg63
(lp4411
g2821
asbasbasbag56
(g72
g58
NtRp4412
(dp4413
g61
(dp4414
sg70
g4093
sg63
(lp4415
g56
(g77
g58
NtRp4416
(dp4417
g61
(dp4418
g81
g82
ssg70
g4412
sg63
(lp4419
S'PATH_INFO'
p4420
asbag56
(g77
g58
NtRp4421
(dp4422
g61
(dp4423
g88
g89
ssg70
g4412
sg63
(lp4424
S':'
asbag56
(g77
g58
NtRp4425
(dp4426
g61
(dp4427
sg70
g4412
sg63
(lp4428
g56
(g57
g58
NtRp4429
(dp4430
g61
(dp4431
g69
I3
ssg70
g4425
sg63
(lp4432
g2777
asbasbasbag56
(g72
g58
NtRp4433
(dp4434
g61
(dp4435
sg70
g4093
sg63
(lp4436
g56
(g77
g58
NtRp4437
(dp4438
g61
(dp4439
g81
g82
ssg70
g4433
sg63
(lp4440
S'PATH_TRANSLATED'
p4441
asbag56
(g77
g58
NtRp4442
(dp4443
g61
(dp4444
g88
g89
ssg70
g4433
sg63
(lp4445
S':'
asbag56
(g77
g58
NtRp4446
(dp4447
g61
(dp4448
sg70
g4433
sg63
(lp4449
g56
(g57
g58
NtRp4450
(dp4451
g61
(dp4452
g69
I3
ssg70
g4446
sg63
(lp4453
g2799
asbasbasbag56
(g72
g58
NtRp4454
(dp4455
g61
(dp4456
sg70
g4093
sg63
(lp4457
g56
(g77
g58
NtRp4458
(dp4459
g61
(dp4460
g81
g82
ssg70
g4454
sg63
(lp4461
S'QUERY_STRING'
p4462
asbag56
(g77
g58
NtRp4463
(dp4464
g61
(dp4465
g88
g89
ssg70
g4454
sg63
(lp4466
S':'
asbag56
(g77
g58
NtRp4467
(dp4468
g61
(dp4469
sg70
g4454
sg63
(lp4470
g56
(g57
g58
NtRp4471
(dp4472
g61
(dp4473
g69
I3
ssg70
g4467
sg63
(lp4474
S''
asbasbasbag56
(g72
g58
NtRp4475
(dp4476
g61
(dp4477
sg70
g4093
sg63
(lp4478
g56
(g77
g58
NtRp4479
(dp4480
g61
(dp4481
g81
g82
ssg70
g4475
sg63
(lp4482
S'REMOTE_ADDR'
p4483
asbag56
(g77
g58
NtRp4484
(dp4485
g61
(dp4486
g88
g89
ssg70
g4475
sg63
(lp4487
S':'
asbag56
(g77
g58
NtRp4488
(dp4489
g61
(dp4490
sg70
g4475
sg63
(lp4491
g56
(g57
g58
NtRp4492
(dp4493
g61
(dp4494
g69
I3
ssg70
g4488
sg63
(lp4495
g189
asbasbasbag56
(g72
g58
NtRp4496
(dp4497
g61
(dp4498
sg70
g4093
sg63
(lp4499
g56
(g77
g58
NtRp4500
(dp4501
g61
(dp4502
g81
g82
ssg70
g4496
sg63
(lp4503
S'REMOTE_PORT'
p4504
asbag56
(g77
g58
NtRp4505
(dp4506
g61
(dp4507
g88
g89
ssg70
g4496
sg63
(lp4508
S':'
asbag56
(g77
g58
NtRp4509
(dp4510
g61
(dp4511
sg70
g4496
sg63
(lp4512
g56
(g57
g58
NtRp4513
(dp4514
g61
(dp4515
g69
I3
ssg70
g4509
sg63
(lp4516
g2885
asbasbasbag56
(g72
g58
NtRp4517
(dp4518
g61
(dp4519
sg70
g4093
sg63
(lp4520
g56
(g77
g58
NtRp4521
(dp4522
g61
(dp4523
g81
g82
ssg70
g4517
sg63
(lp4524
S'REQUEST_METHOD'
p4525
asbag56
(g77
g58
NtRp4526
(dp4527
g61
(dp4528
g88
g89
ssg70
g4517
sg63
(lp4529
S':'
asbag56
(g77
g58
NtRp4530
(dp4531
g61
(dp4532
sg70
g4517
sg63
(lp4533
g56
(g57
g58
NtRp4534
(dp4535
g61
(dp4536
g69
I3
ssg70
g4530
sg63
(lp4537
g2907
asbasbasbag56
(g72
g58
NtRp4538
(dp4539
g61
(dp4540
sg70
g4093
sg63
(lp4541
g56
(g77
g58
NtRp4542
(dp4543
g61
(dp4544
g81
g82
ssg70
g4538
sg63
(lp4545
S'REQUEST_URI'
p4546
asbag56
(g77
g58
NtRp4547
(dp4548
g61
(dp4549
g88
g89
ssg70
g4538
sg63
(lp4550
S':'
asbag56
(g77
g58
NtRp4551
(dp4552
g61
(dp4553
sg70
g4538
sg63
(lp4554
g56
(g57
g58
NtRp4555
(dp4556
g61
(dp4557
g69
I3
ssg70
g4551
sg63
(lp4558
g2929
asbasbasbag56
(g72
g58
NtRp4559
(dp4560
g61
(dp4561
sg70
g4093
sg63
(lp4562
g56
(g77
g58
NtRp4563
(dp4564
g61
(dp4565
g81
g82
ssg70
g4559
sg63
(lp4566
S'SCRIPT_FILENAME'
p4567
asbag56
(g77
g58
NtRp4568
(dp4569
g61
(dp4570
g88
g89
ssg70
g4559
sg63
(lp4571
S':'
asbag56
(g77
g58
NtRp4572
(dp4573
g61
(dp4574
sg70
g4559
sg63
(lp4575
g56
(g57
g58
NtRp4576
(dp4577
g61
(dp4578
g69
I3
ssg70
g4572
sg63
(lp4579
g2951
asbasbasbag56
(g72
g58
NtRp4580
(dp4581
g61
(dp4582
sg70
g4093
sg63
(lp4583
g56
(g77
g58
NtRp4584
(dp4585
g61
(dp4586
g81
g82
ssg70
g4580
sg63
(lp4587
S'SCRIPT_NAME'
p4588
asbag56
(g77
g58
NtRp4589
(dp4590
g61
(dp4591
g88
g89
ssg70
g4580
sg63
(lp4592
S':'
asbag56
(g77
g58
NtRp4593
(dp4594
g61
(dp4595
sg70
g4580
sg63
(lp4596
g56
(g57
g58
NtRp4597
(dp4598
g61
(dp4599
g69
I3
ssg70
g4593
sg63
(lp4600
S''
asbasbasbag56
(g72
g58
NtRp4601
(dp4602
g61
(dp4603
sg70
g4093
sg63
(lp4604
g56
(g77
g58
NtRp4605
(dp4606
g61
(dp4607
g81
g82
ssg70
g4601
sg63
(lp4608
S'SERVER_ADDR'
p4609
asbag56
(g77
g58
NtRp4610
(dp4611
g61
(dp4612
g88
g89
ssg70
g4601
sg63
(lp4613
S':'
asbag56
(g77
g58
NtRp4614
(dp4615
g61
(dp4616
sg70
g4601
sg63
(lp4617
g56
(g57
g58
NtRp4618
(dp4619
g61
(dp4620
g69
I3
ssg70
g4614
sg63
(lp4621
g2994
asbasbasbag56
(g72
g58
NtRp4622
(dp4623
g61
(dp4624
sg70
g4093
sg63
(lp4625
g56
(g77
g58
NtRp4626
(dp4627
g61
(dp4628
g81
g82
ssg70
g4622
sg63
(lp4629
S'SERVER_ADMIN'
p4630
asbag56
(g77
g58
NtRp4631
(dp4632
g61
(dp4633
g88
g89
ssg70
g4622
sg63
(lp4634
S':'
asbag56
(g77
g58
NtRp4635
(dp4636
g61
(dp4637
sg70
g4622
sg63
(lp4638
g56
(g57
g58
NtRp4639
(dp4640
g61
(dp4641
g69
I3
ssg70
g4635
sg63
(lp4642
g3016
asbasbasbag56
(g72
g58
NtRp4643
(dp4644
g61
(dp4645
sg70
g4093
sg63
(lp4646
g56
(g77
g58
NtRp4647
(dp4648
g61
(dp4649
g81
g82
ssg70
g4643
sg63
(lp4650
S'SERVER_NAME'
p4651
asbag56
(g77
g58
NtRp4652
(dp4653
g61
(dp4654
g88
g89
ssg70
g4643
sg63
(lp4655
S':'
asbag56
(g77
g58
NtRp4656
(dp4657
g61
(dp4658
sg70
g4643
sg63
(lp4659
g56
(g57
g58
NtRp4660
(dp4661
g61
(dp4662
g69
I3
ssg70
g4656
sg63
(lp4663
g3038
asbasbasbag56
(g72
g58
NtRp4664
(dp4665
g61
(dp4666
sg70
g4093
sg63
(lp4667
g56
(g77
g58
NtRp4668
(dp4669
g61
(dp4670
g81
g82
ssg70
g4664
sg63
(lp4671
S'SERVER_PORT'
p4672
asbag56
(g77
g58
NtRp4673
(dp4674
g61
(dp4675
g88
g89
ssg70
g4664
sg63
(lp4676
S':'
asbag56
(g77
g58
NtRp4677
(dp4678
g61
(dp4679
sg70
g4664
sg63
(lp4680
g56
(g57
g58
NtRp4681
(dp4682
g61
(dp4683
g69
I3
ssg70
g4677
sg63
(lp4684
g3060
asbasbasbag56
(g72
g58
NtRp4685
(dp4686
g61
(dp4687
sg70
g4093
sg63
(lp4688
g56
(g77
g58
NtRp4689
(dp4690
g61
(dp4691
g81
g82
ssg70
g4685
sg63
(lp4692
S'SERVER_PROTOCOL'
p4693
asbag56
(g77
g58
NtRp4694
(dp4695
g61
(dp4696
g88
g89
ssg70
g4685
sg63
(lp4697
S':'
asbag56
(g77
g58
NtRp4698
(dp4699
g61
(dp4700
sg70
g4685
sg63
(lp4701
g56
(g57
g58
NtRp4702
(dp4703
g61
(dp4704
g69
I3
ssg70
g4698
sg63
(lp4705
g3082
asbasbasbag56
(g72
g58
NtRp4706
(dp4707
g61
(dp4708
sg70
g4093
sg63
(lp4709
g56
(g77
g58
NtRp4710
(dp4711
g61
(dp4712
g81
g82
ssg70
g4706
sg63
(lp4713
S'SERVER_SIGNATURE'
p4714
asbag56
(g77
g58
NtRp4715
(dp4716
g61
(dp4717
g88
g89
ssg70
g4706
sg63
(lp4718
S':'
asbag56
(g77
g58
NtRp4719
(dp4720
g61
(dp4721
sg70
g4706
sg63
(lp4722
g56
(g57
g58
NtRp4723
(dp4724
g61
(dp4725
g69
I3
ssg70
g4719
sg63
(lp4726
S''
asbasbasbag56
(g72
g58
NtRp4727
(dp4728
g61
(dp4729
sg70
g4093
sg63
(lp4730
g56
(g77
g58
NtRp4731
(dp4732
g61
(dp4733
g81
g82
ssg70
g4727
sg63
(lp4734
S'SERVER_SOFTWARE'
p4735
asbag56
(g77
g58
NtRp4736
(dp4737
g61
(dp4738
g88
g89
ssg70
g4727
sg63
(lp4739
S':'
asbag56
(g77
g58
NtRp4740
(dp4741
g61
(dp4742
sg70
g4727
sg63
(lp4743
g56
(g57
g58
NtRp4744
(dp4745
g61
(dp4746
g69
I3
ssg70
g4740
sg63
(lp4747
g3125
asbasbasbag56
(g72
g58
NtRp4748
(dp4749
g61
(dp4750
sg70
g4093
sg63
(lp4751
g56
(g77
g58
NtRp4752
(dp4753
g61
(dp4754
g81
g82
ssg70
g4748
sg63
(lp4755
S'SystemRoot'
p4756
asbag56
(g77
g58
NtRp4757
(dp4758
g61
(dp4759
g88
g89
ssg70
g4748
sg63
(lp4760
S':'
asbag56
(g77
g58
NtRp4761
(dp4762
g61
(dp4763
sg70
g4748
sg63
(lp4764
g56
(g57
g58
NtRp4765
(dp4766
g61
(dp4767
g69
I3
ssg70
g4761
sg63
(lp4768
g3147
asbasbasbag56
(g72
g58
NtRp4769
(dp4770
g61
(dp4771
sg70
g4093
sg63
(lp4772
g56
(g77
g58
NtRp4773
(dp4774
g61
(dp4775
g81
g82
ssg70
g4769
sg63
(lp4776
S'WINDIR'
p4777
asbag56
(g77
g58
NtRp4778
(dp4779
g61
(dp4780
g88
g89
ssg70
g4769
sg63
(lp4781
S':'
asbag56
(g77
g58
NtRp4782
(dp4783
g61
(dp4784
sg70
g4769
sg63
(lp4785
g56
(g57
g58
NtRp4786
(dp4787
g61
(dp4788
g69
I3
ssg70
g4782
sg63
(lp4789
g3278
asbasbasbag56
(g72
g58
NtRp4790
(dp4791
g61
(dp4792
sg70
g4093
sg63
(lp4793
g56
(g77
g58
NtRp4794
(dp4795
g61
(dp4796
g81
g82
ssg70
g4790
sg63
(lp4797
S'mod_wsgi.application_group'
p4798
asbag56
(g77
g58
NtRp4799
(dp4800
g61
(dp4801
g88
g89
ssg70
g4790
sg63
(lp4802
S':'
asbag56
(g77
g58
NtRp4803
(dp4804
g61
(dp4805
sg70
g4790
sg63
(lp4806
g56
(g57
g58
NtRp4807
(dp4808
g61
(dp4809
g69
I3
ssg70
g4803
sg63
(lp4810
g2578
asbasbasbag56
(g72
g58
NtRp4811
(dp4812
g61
(dp4813
sg70
g4093
sg63
(lp4814
g56
(g77
g58
NtRp4815
(dp4816
g61
(dp4817
g81
g82
ssg70
g4811
sg63
(lp4818
S'mod_wsgi.callable_object'
p4819
asbag56
(g77
g58
NtRp4820
(dp4821
g61
(dp4822
g88
g89
ssg70
g4811
sg63
(lp4823
S':'
asbag56
(g77
g58
NtRp4824
(dp4825
g61
(dp4826
sg70
g4811
sg63
(lp4827
g56
(g57
g58
NtRp4828
(dp4829
g61
(dp4830
g69
I3
ssg70
g4824
sg63
(lp4831
g2600
asbasbasbag56
(g72
g58
NtRp4832
(dp4833
g61
(dp4834
sg70
g4093
sg63
(lp4835
g56
(g77
g58
NtRp4836
(dp4837
g61
(dp4838
g81
g82
ssg70
g4832
sg63
(lp4839
S'mod_wsgi.handler_script'
p4840
asbag56
(g77
g58
NtRp4841
(dp4842
g61
(dp4843
g88
g89
ssg70
g4832
sg63
(lp4844
S':'
asbag56
(g77
g58
NtRp4845
(dp4846
g61
(dp4847
sg70
g4832
sg63
(lp4848
g56
(g57
g58
NtRp4849
(dp4850
g61
(dp4851
g69
I3
ssg70
g4845
sg63
(lp4852
S''
asbasbasbag56
(g72
g58
NtRp4853
(dp4854
g61
(dp4855
sg70
g4093
sg63
(lp4856
g56
(g77
g58
NtRp4857
(dp4858
g61
(dp4859
g81
g82
ssg70
g4853
sg63
(lp4860
S'mod_wsgi.input_chunked'
p4861
asbag56
(g77
g58
NtRp4862
(dp4863
g61
(dp4864
g88
g89
ssg70
g4853
sg63
(lp4865
S':'
asbag56
(g77
g58
NtRp4866
(dp4867
g61
(dp4868
sg70
g4853
sg63
(lp4869
g56
(g57
g58
NtRp4870
(dp4871
g61
(dp4872
g69
I3
ssg70
g4866
sg63
(lp4873
S'0'
asbasbasbag56
(g72
g58
NtRp4874
(dp4875
g61
(dp4876
sg70
g4093
sg63
(lp4877
g56
(g77
g58
NtRp4878
(dp4879
g61
(dp4880
g81
g82
ssg70
g4874
sg63
(lp4881
S'mod_wsgi.process_group'
p4882
asbag56
(g77
g58
NtRp4883
(dp4884
g61
(dp4885
g88
g89
ssg70
g4874
sg63
(lp4886
S':'
asbag56
(g77
g58
NtRp4887
(dp4888
g61
(dp4889
sg70
g4874
sg63
(lp4890
g56
(g57
g58
NtRp4891
(dp4892
g61
(dp4893
g69
I3
ssg70
g4887
sg63
(lp4894
S''
asbasbasbag56
(g72
g58
NtRp4895
(dp4896
g61
(dp4897
sg70
g4093
sg63
(lp4898
g56
(g77
g58
NtRp4899
(dp4900
g61
(dp4901
g81
g82
ssg70
g4895
sg63
(lp4902
S'mod_wsgi.request_handler'
p4903
asbag56
(g77
g58
NtRp4904
(dp4905
g61
(dp4906
g88
g89
ssg70
g4895
sg63
(lp4907
S':'
asbag56
(g77
g58
NtRp4908
(dp4909
g61
(dp4910
sg70
g4895
sg63
(lp4911
g56
(g57
g58
NtRp4912
(dp4913
g61
(dp4914
g69
I3
ssg70
g4908
sg63
(lp4915
g2685
asbasbasbag56
(g72
g58
NtRp4916
(dp4917
g61
(dp4918
sg70
g4093
sg63
(lp4919
g56
(g77
g58
NtRp4920
(dp4921
g61
(dp4922
g81
g82
ssg70
g4916
sg63
(lp4923
S'mod_wsgi.script_reloading'
p4924
asbag56
(g77
g58
NtRp4925
(dp4926
g61
(dp4927
g88
g89
ssg70
g4916
sg63
(lp4928
S':'
asbag56
(g77
g58
NtRp4929
(dp4930
g61
(dp4931
sg70
g4916
sg63
(lp4932
g56
(g57
g58
NtRp4933
(dp4934
g61
(dp4935
g69
I3
ssg70
g4929
sg63
(lp4936
S'1'
asbasbasbag56
(g72
g58
NtRp4937
(dp4938
g61
(dp4939
sg70
g4093
sg63
(lp4940
g56
(g77
g58
NtRp4941
(dp4942
g61
(dp4943
g81
g82
ssg70
g4937
sg63
(lp4944
S'mod_wsgi.version'
p4945
asbag56
(g77
g58
NtRp4946
(dp4947
g61
(dp4948
g88
g89
ssg70
g4937
sg63
(lp4949
S':'
asbag56
(g77
g58
NtRp4950
(dp4951
g61
(dp4952
sg70
g4937
sg63
(lp4953
g56
(g57
g58
NtRp4954
(dp4955
g61
(dp4956
g69
I3
ssg70
g4950
sg63
(lp4957
g56
(g65
g58
NtRp4958
(dp4959
g61
(dp4960
g69
I2
ssg70
Nsg63
(lp4961
g56
(g72
g58
NtRp4962
(dp4963
g61
(dp4964
sg70
g4958
sg63
(lp4965
g56
(g77
g58
NtRp4966
(dp4967
g61
(dp4968
sg70
g4962
sg63
(lp4969
g56
(g57
g58
NtRp4970
(dp4971
g61
(dp4972
g69
I2
ssg70
g4966
sg63
(lp4973
S'3'
asbasbasbag56
(g72
g58
NtRp4974
(dp4975
g61
(dp4976
sg70
g4958
sg63
(lp4977
g56
(g77
g58
NtRp4978
(dp4979
g61
(dp4980
sg70
g4974
sg63
(lp4981
g56
(g57
g58
NtRp4982
(dp4983
g61
(dp4984
g69
I2
ssg70
g4978
sg63
(lp4985
S'3'
asbasbasbasbasbasbasbag56
(g72
g58
NtRp4986
(dp4987
g61
(dp4988
sg70
g4093
sg63
(lp4989
g56
(g77
g58
NtRp4990
(dp4991
g61
(dp4992
g81
g82
ssg70
g4986
sg63
(lp4993
S'wsgi.errors'
p4994
asbag56
(g77
g58
NtRp4995
(dp4996
g61
(dp4997
g88
g89
ssg70
g4986
sg63
(lp4998
S':'
asbag56
(g77
g58
NtRp4999
(dp5000
g61
(dp5001
sg70
g4986
sg63
(lp5002
g56
(g57
g58
NtRp5003
(dp5004
g61
(dp5005
g69
I3
ssg70
g4999
sg63
(lp5006
S'<mod_wsgi.Log object at 0x052A4D90>'
p5007
asbasbasbag56
(g72
g58
NtRp5008
(dp5009
g61
(dp5010
sg70
g4093
sg63
(lp5011
g56
(g77
g58
NtRp5012
(dp5013
g61
(dp5014
g81
g82
ssg70
g5008
sg63
(lp5015
S'wsgi.file_wrapper'
p5016
asbag56
(g77
g58
NtRp5017
(dp5018
g61
(dp5019
g88
g89
ssg70
g5008
sg63
(lp5020
S':'
asbag56
(g77
g58
NtRp5021
(dp5022
g61
(dp5023
sg70
g5008
sg63
(lp5024
g56
(g57
g58
NtRp5025
(dp5026
g61
(dp5027
g69
I3
ssg70
g5021
sg63
(lp5028
S'<built-in method file_wrapper of mod_wsgi.Adapter object at 0x041E8BF0>'
p5029
asbasbasbag56
(g72
g58
NtRp5030
(dp5031
g61
(dp5032
sg70
g4093
sg63
(lp5033
g56
(g77
g58
NtRp5034
(dp5035
g61
(dp5036
g81
g82
ssg70
g5030
sg63
(lp5037
S'wsgi.input'
p5038
asbag56
(g77
g58
NtRp5039
(dp5040
g61
(dp5041
g88
g89
ssg70
g5030
sg63
(lp5042
S':'
asbag56
(g77
g58
NtRp5043
(dp5044
g61
(dp5045
sg70
g5030
sg63
(lp5046
g56
(g57
g58
NtRp5047
(dp5048
g61
(dp5049
g69
I3
ssg70
g5043
sg63
(lp5050
S"<open file '<fdopen>', mode 'w+b' at 0x041EACD8>"
p5051
asbasbasbag56
(g72
g58
NtRp5052
(dp5053
g61
(dp5054
sg70
g4093
sg63
(lp5055
g56
(g77
g58
NtRp5056
(dp5057
g61
(dp5058
g81
g82
ssg70
g5052
sg63
(lp5059
S'wsgi.multiprocess'
p5060
asbag56
(g77
g58
NtRp5061
(dp5062
g61
(dp5063
g88
g89
ssg70
g5052
sg63
(lp5064
S':'
asbag56
(g77
g58
NtRp5065
(dp5066
g61
(dp5067
sg70
g5052
sg63
(lp5068
g56
(g57
g58
NtRp5069
(dp5070
g61
(dp5071
g69
I3
ssg70
g5065
sg63
(lp5072
g99
asbasbasbag56
(g72
g58
NtRp5073
(dp5074
g61
(dp5075
sg70
g4093
sg63
(lp5076
g56
(g77
g58
NtRp5077
(dp5078
g61
(dp5079
g81
g82
ssg70
g5073
sg63
(lp5080
S'wsgi.multithread'
p5081
asbag56
(g77
g58
NtRp5082
(dp5083
g61
(dp5084
g88
g89
ssg70
g5073
sg63
(lp5085
S':'
asbag56
(g77
g58
NtRp5086
(dp5087
g61
(dp5088
sg70
g5073
sg63
(lp5089
g56
(g57
g58
NtRp5090
(dp5091
g61
(dp5092
g69
I3
ssg70
g5086
sg63
(lp5093
g3387
asbasbasbag56
(g72
g58
NtRp5094
(dp5095
g61
(dp5096
sg70
g4093
sg63
(lp5097
g56
(g77
g58
NtRp5098
(dp5099
g61
(dp5100
g81
g82
ssg70
g5094
sg63
(lp5101
S'wsgi.run_once'
p5102
asbag56
(g77
g58
NtRp5103
(dp5104
g61
(dp5105
g88
g89
ssg70
g5094
sg63
(lp5106
S':'
asbag56
(g77
g58
NtRp5107
(dp5108
g61
(dp5109
sg70
g5094
sg63
(lp5110
g56
(g57
g58
NtRp5111
(dp5112
g61
(dp5113
g69
I3
ssg70
g5107
sg63
(lp5114
g99
asbasbasbag56
(g72
g58
NtRp5115
(dp5116
g61
(dp5117
sg70
g4093
sg63
(lp5118
g56
(g77
g58
NtRp5119
(dp5120
g61
(dp5121
g81
g82
ssg70
g5115
sg63
(lp5122
S'wsgi.url_scheme'
p5123
asbag56
(g77
g58
NtRp5124
(dp5125
g61
(dp5126
g88
g89
ssg70
g5115
sg63
(lp5127
S':'
asbag56
(g77
g58
NtRp5128
(dp5129
g61
(dp5130
sg70
g5115
sg63
(lp5131
g56
(g57
g58
NtRp5132
(dp5133
g61
(dp5134
g69
I3
ssg70
g5128
sg63
(lp5135
g3430
asbasbasbag56
(g72
g58
NtRp5136
(dp5137
g61
(dp5138
sg70
g4093
sg63
(lp5139
g56
(g77
g58
NtRp5140
(dp5141
g61
(dp5142
g81
g82
ssg70
g5136
sg63
(lp5143
S'wsgi.version'
p5144
asbag56
(g77
g58
NtRp5145
(dp5146
g61
(dp5147
g88
g89
ssg70
g5136
sg63
(lp5148
S':'
asbag56
(g77
g58
NtRp5149
(dp5150
g61
(dp5151
sg70
g5136
sg63
(lp5152
g56
(g57
g58
NtRp5153
(dp5154
g61
(dp5155
g69
I3
ssg70
g5149
sg63
(lp5156
S'1'
asbasbasbasbasbasbasbasbasbasbasbasbasbsS'frames'
p5157
(lp5158
(dp5159
S'file'
p5160
S'D:\\Workbench\\private\\web2py_src\\gluon\\restricted.py'
p5161
sS'dump'
p5162
(dp5163
S'environment'
p5164
S"{'A': <class 'gluon.html.A'>, 'B': <class 'gluon.html.B'>, 'BEAUTIFY': <class 'gluon.html.BEAUTIFY'>, 'BODY': <class 'gluon.html.BODY'>, 'BR': <class 'gluon.html.BR'>, 'BUTTON': <class 'gluon.html.BUTTON'>, 'CAT': <class 'gluon.html.CAT'>, 'CENTER': <class 'gluon.html.CENTER'>, 'CLEANUP': <class 'gluon.validators.CLEANUP'>, 'CODE': <class 'gluon.html.CODE'>, ...}"
p5165
sS'ccode'
p5166
S'<code object <module> at 0535B4E8, file "D:\\Work...tions\\examples\\controllers/transform.py", line 2>'
p5167
ssS'lnum'
p5168
I194
sS'lines'
p5169
(dp5170
I192
S'        else:'
p5171
sI193
S'            ccode = compile2(code,layer)'
p5172
sI194
S'        exec ccode in environment'
p5173
sI195
S'    except HTTP:'
p5174
sI196
S'        raise'
p5175
sI197
S'    except Exception, error:'
p5176
sI198
S'        # XXX Show exception in Wing IDE if running in debugger'
p5177
sI189
S'    try:'
p5178
sI190
S'        if type(code) == types.CodeType:'
p5179
sI191
S'            ccode = code'
p5180
ssS'call'
p5181
S"(code='\\ndef index():\\n    return dict()\\n\\ndef upload():\\n ...se None\\n\\nresponse._vars=response._caller(upload)\\n', environment={'A': <class 'gluon.html.A'>, 'B': <class 'gluon.html.B'>, 'BEAUTIFY': <class 'gluon.html.BEAUTIFY'>, 'BODY': <class 'gluon.html.BODY'>, 'BR': <class 'gluon.html.BR'>, 'BUTTON': <class 'gluon.html.BUTTON'>, 'CAT': <class 'gluon.html.CAT'>, 'CENTER': <class 'gluon.html.CENTER'>, 'CLEANUP': <class 'gluon.validators.CLEANUP'>, 'CODE': <class 'gluon.html.CODE'>, ...}, layer=r'D:\\Workbench\\private\\web2py_src\\applications\\examples\\controllers/transform.py')"
p5182
sS'func'
p5183
S'restricted'
p5184
sa(dp5185
g5160
S'D:\\Workbench\\private\\web2py_src\\applications\\examples\\controllers\\transform.py'
p5186
sg5162
(dp5187
sg5168
I9
sg5169
(dp5188
I1
S''
sI2
S'def index():'
p5189
sI3
S'    return dict()'
p5190
sI4
S''
sI5
S'def upload():'
p5191
sI6
S'    file = request.vars.myfile.file'
p5192
sI7
S"    return 'yes' if data else None"
p5193
ssg5181
S'()'
p5194
sg5183
S'<module>'
p5195
sa(dp5196
g5160
S'D:\\Workbench\\private\\web2py_src\\gluon\\globals.py'
p5197
sg5162
(dp5198
S'self'
p5199
S'undefined'
p5200
sS'f'
S'<function upload>'
p5201
ssg5168
I149
sg5169
(dp5202
I144
S'        self.meta = Storage()      # used by web2py_ajax.html'
p5203
sI145
S'        self.menu = []             # used by the default view layout'
p5204
sI146
S'        self.files = []            # used by web2py_ajax.html'
p5205
sI147
S'        self.generic_patterns = [] # patterns to allow generic views'
p5206
sI148
S'        self._vars = None'
p5207
sI149
S'        self._caller = lambda f: f()'
p5208
sI150
S'        self._view_environment = None'
p5209
sI151
S'        self._custom_commit = None'
p5210
sI152
S'        self._custom_rollback = None'
p5211
sI153
S''
ssg5181
S'(f=<function upload>)'
p5212
sg5183
S'<lambda>'
p5213
sa(dp5214
g5160
S'D:\\Workbench\\private\\web2py_src\\applications\\examples\\controllers\\transform.py'
p5215
sg5162
(dp5216
sg5168
I7
sg5169
(dp5217
I1
S''
sI2
S'def index():'
p5218
sI3
S'    return dict()'
p5219
sI4
S''
sI5
S'def upload():'
p5220
sI6
S'    file = request.vars.myfile.file'
p5221
sI7
S"    return 'yes' if data else None"
p5222
ssg5181
S'()'
p5223
sg5183
S'upload'
p5224
sasS'pyver'
p5225
S'Python 2.7.2: C:\\Program Files\\Apache Software Foundation\\Apache2.2\\bin\\httpd.exe'
p5226
sS'session'
p5227
g56
(g57
g58
NtRp5228
(dp5229
g61
(dp5230
sg63
(lp5231
g56
(g65
g58
NtRp5232
(dp5233
g61
(dp5234
g69
I5
ssg70
Nsg63
(lp5235
sbasbsS'etype'
p5236
S"<type 'exceptions.NameError'>"
p5237
sS'date'
p5238
S'Thu Mar 08 22:30:02 2012'
p5239
sS'response'
p5240
g56
(g57
g58
NtRp5241
(dp5242
g61
(dp5243
sg63
(lp5244
g56
(g65
g58
NtRp5245
(dp5246
g61
(dp5247
g69
I5
ssg70
Nsg63
(lp5248
g56
(g72
g58
NtRp5249
(dp5250
g61
(dp5251
sg70
g5245
sg63
(lp5252
g56
(g77
g58
NtRp5253
(dp5254
g61
(dp5255
g81
g82
ssg70
g5249
sg63
(lp5256
g154
asbag56
(g77
g58
NtRp5257
(dp5258
g61
(dp5259
g88
g89
ssg70
g5249
sg63
(lp5260
S':'
asbag56
(g77
g58
NtRp5261
(dp5262
g61
(dp5263
sg70
g5249
sg63
(lp5264
g56
(g57
g58
NtRp5265
(dp5266
g61
(dp5267
g69
I5
ssg70
g5261
sg63
(lp5268
S'<cStringIO.StringO object at 0x05455DA0>'
p5269
asbasbasbag56
(g72
g58
NtRp5270
(dp5271
g61
(dp5272
sg70
g5245
sg63
(lp5273
g56
(g77
g58
NtRp5274
(dp5275
g61
(dp5276
g81
g82
ssg70
g5270
sg63
(lp5277
g220
asbag56
(g77
g58
NtRp5278
(dp5279
g61
(dp5280
g88
g89
ssg70
g5270
sg63
(lp5281
S':'
asbag56
(g77
g58
NtRp5282
(dp5283
g61
(dp5284
sg70
g5270
sg63
(lp5285
g56
(g57
g58
NtRp5286
(dp5287
g61
(dp5288
g69
I5
ssg70
g5282
sg63
(lp5289
g56
(g65
g58
NtRp5290
(dp5291
g61
(dp5292
g69
I4
ssg70
Nsg63
(lp5293
g56
(g72
g58
NtRp5294
(dp5295
g61
(dp5296
sg70
g5290
sg63
(lp5297
g56
(g77
g58
NtRp5298
(dp5299
g61
(dp5300
g81
g82
ssg70
g5294
sg63
(lp5301
S'session_id_examples'
p5302
asbag56
(g77
g58
NtRp5303
(dp5304
g61
(dp5305
g88
g89
ssg70
g5294
sg63
(lp5306
S':'
asbag56
(g77
g58
NtRp5307
(dp5308
g61
(dp5309
sg70
g5294
sg63
(lp5310
g56
(g57
g58
NtRp5311
(dp5312
g61
(dp5313
g69
I4
ssg70
g5307
sg63
(lp5314
g56
(g65
g58
NtRp5315
(dp5316
g61
(dp5317
g69
I3
ssg70
Nsg63
(lp5318
g56
(g72
g58
NtRp5319
(dp5320
g61
(dp5321
sg70
g5315
sg63
(lp5322
g56
(g77
g58
NtRp5323
(dp5324
g61
(dp5325
g81
g82
ssg70
g5319
sg63
(lp5326
g270
asbag56
(g77
g58
NtRp5327
(dp5328
g61
(dp5329
g88
g89
ssg70
g5319
sg63
(lp5330
S':'
asbag56
(g77
g58
NtRp5331
(dp5332
g61
(dp5333
sg70
g5319
sg63
(lp5334
g56
(g57
g58
NtRp5335
(dp5336
g61
(dp5337
g69
I3
ssg70
g5331
sg63
(lp5338
S''
asbasbasbag56
(g72
g58
NtRp5339
(dp5340
g61
(dp5341
sg70
g5315
sg63
(lp5342
g56
(g77
g58
NtRp5343
(dp5344
g61
(dp5345
g81
g82
ssg70
g5339
sg63
(lp5346
g291
asbag56
(g77
g58
NtRp5347
(dp5348
g61
(dp5349
g88
g89
ssg70
g5339
sg63
(lp5350
S':'
asbag56
(g77
g58
NtRp5351
(dp5352
g61
(dp5353
sg70
g5339
sg63
(lp5354
g56
(g57
g58
NtRp5355
(dp5356
g61
(dp5357
g69
I3
ssg70
g5351
sg63
(lp5358
S''
asbasbasbag56
(g72
g58
NtRp5359
(dp5360
g61
(dp5361
sg70
g5315
sg63
(lp5362
g56
(g77
g58
NtRp5363
(dp5364
g61
(dp5365
g81
g82
ssg70
g5359
sg63
(lp5366
g312
asbag56
(g77
g58
NtRp5367
(dp5368
g61
(dp5369
g88
g89
ssg70
g5359
sg63
(lp5370
S':'
asbag56
(g77
g58
NtRp5371
(dp5372
g61
(dp5373
sg70
g5359
sg63
(lp5374
g56
(g57
g58
NtRp5375
(dp5376
g61
(dp5377
g69
I3
ssg70
g5371
sg63
(lp5378
S''
asbasbasbag56
(g72
g58
NtRp5379
(dp5380
g61
(dp5381
sg70
g5315
sg63
(lp5382
g56
(g77
g58
NtRp5383
(dp5384
g61
(dp5385
g81
g82
ssg70
g5379
sg63
(lp5386
g333
asbag56
(g77
g58
NtRp5387
(dp5388
g61
(dp5389
g88
g89
ssg70
g5379
sg63
(lp5390
S':'
asbag56
(g77
g58
NtRp5391
(dp5392
g61
(dp5393
sg70
g5379
sg63
(lp5394
g56
(g57
g58
NtRp5395
(dp5396
g61
(dp5397
g69
I3
ssg70
g5391
sg63
(lp5398
S''
asbasbasbag56
(g72
g58
NtRp5399
(dp5400
g61
(dp5401
sg70
g5315
sg63
(lp5402
g56
(g77
g58
NtRp5403
(dp5404
g61
(dp5405
g81
g82
ssg70
g5399
sg63
(lp5406
g354
asbag56
(g77
g58
NtRp5407
(dp5408
g61
(dp5409
g88
g89
ssg70
g5399
sg63
(lp5410
S':'
asbag56
(g77
g58
NtRp5411
(dp5412
g61
(dp5413
sg70
g5399
sg63
(lp5414
g56
(g57
g58
NtRp5415
(dp5416
g61
(dp5417
g69
I3
ssg70
g5411
sg63
(lp5418
S''
asbasbasbag56
(g72
g58
NtRp5419
(dp5420
g61
(dp5421
sg70
g5315
sg63
(lp5422
g56
(g77
g58
NtRp5423
(dp5424
g61
(dp5425
g81
g82
ssg70
g5419
sg63
(lp5426
g375
asbag56
(g77
g58
NtRp5427
(dp5428
g61
(dp5429
g88
g89
ssg70
g5419
sg63
(lp5430
S':'
asbag56
(g77
g58
NtRp5431
(dp5432
g61
(dp5433
sg70
g5419
sg63
(lp5434
g56
(g57
g58
NtRp5435
(dp5436
g61
(dp5437
g69
I3
ssg70
g5431
sg63
(lp5438
S'/'
asbasbasbag56
(g72
g58
NtRp5439
(dp5440
g61
(dp5441
sg70
g5315
sg63
(lp5442
g56
(g77
g58
NtRp5443
(dp5444
g61
(dp5445
g81
g82
ssg70
g5439
sg63
(lp5446
g396
asbag56
(g77
g58
NtRp5447
(dp5448
g61
(dp5449
g88
g89
ssg70
g5439
sg63
(lp5450
S':'
asbag56
(g77
g58
NtRp5451
(dp5452
g61
(dp5453
sg70
g5439
sg63
(lp5454
g56
(g57
g58
NtRp5455
(dp5456
g61
(dp5457
g69
I3
ssg70
g5451
sg63
(lp5458
S''
asbasbasbag56
(g72
g58
NtRp5459
(dp5460
g61
(dp5461
sg70
g5315
sg63
(lp5462
g56
(g77
g58
NtRp5463
(dp5464
g61
(dp5465
g81
g82
ssg70
g5459
sg63
(lp5466
g417
asbag56
(g77
g58
NtRp5467
(dp5468
g61
(dp5469
g88
g89
ssg70
g5459
sg63
(lp5470
S':'
asbag56
(g77
g58
NtRp5471
(dp5472
g61
(dp5473
sg70
g5459
sg63
(lp5474
g56
(g57
g58
NtRp5475
(dp5476
g61
(dp5477
g69
I3
ssg70
g5471
sg63
(lp5478
S''
asbasbasbasbasbasbasbasbasbasbasbag56
(g72
g58
NtRp5479
(dp5480
g61
(dp5481
sg70
g5245
sg63
(lp5482
g56
(g77
g58
NtRp5483
(dp5484
g61
(dp5485
g81
g82
ssg70
g5479
sg63
(lp5486
S'files'
p5487
asbag56
(g77
g58
NtRp5488
(dp5489
g61
(dp5490
g88
g89
ssg70
g5479
sg63
(lp5491
S':'
asbag56
(g77
g58
NtRp5492
(dp5493
g61
(dp5494
sg70
g5479
sg63
(lp5495
g56
(g57
g58
NtRp5496
(dp5497
g61
(dp5498
g69
I5
ssg70
g5492
sg63
(lp5499
g56
(g65
g58
NtRp5500
(dp5501
g61
(dp5502
g69
I4
ssg70
Nsg63
(lp5503
sbasbasbasbag56
(g72
g58
NtRp5504
(dp5505
g61
(dp5506
sg70
g5245
sg63
(lp5507
g56
(g77
g58
NtRp5508
(dp5509
g61
(dp5510
g81
g82
ssg70
g5504
sg63
(lp5511
S'flash'
p5512
asbag56
(g77
g58
NtRp5513
(dp5514
g61
(dp5515
g88
g89
ssg70
g5504
sg63
(lp5516
S':'
asbag56
(g77
g58
NtRp5517
(dp5518
g61
(dp5519
sg70
g5504
sg63
(lp5520
g56
(g57
g58
NtRp5521
(dp5522
g61
(dp5523
g69
I5
ssg70
g5517
sg63
(lp5524
S''
asbasbasbag56
(g72
g58
NtRp5525
(dp5526
g61
(dp5527
sg70
g5245
sg63
(lp5528
g56
(g77
g58
NtRp5529
(dp5530
g61
(dp5531
g81
g82
ssg70
g5525
sg63
(lp5532
S'generic_patterns'
p5533
asbag56
(g77
g58
NtRp5534
(dp5535
g61
(dp5536
g88
g89
ssg70
g5525
sg63
(lp5537
S':'
asbag56
(g77
g58
NtRp5538
(dp5539
g61
(dp5540
sg70
g5525
sg63
(lp5541
g56
(g57
g58
NtRp5542
(dp5543
g61
(dp5544
g69
I5
ssg70
g5538
sg63
(lp5545
g56
(g65
g58
NtRp5546
(dp5547
g61
(dp5548
g69
I4
ssg70
Nsg63
(lp5549
sbasbasbasbag56
(g72
g58
NtRp5550
(dp5551
g61
(dp5552
sg70
g5245
sg63
(lp5553
g56
(g77
g58
NtRp5554
(dp5555
g61
(dp5556
g81
g82
ssg70
g5550
sg63
(lp5557
S'headers'
p5558
asbag56
(g77
g58
NtRp5559
(dp5560
g61
(dp5561
g88
g89
ssg70
g5550
sg63
(lp5562
S':'
asbag56
(g77
g58
NtRp5563
(dp5564
g61
(dp5565
sg70
g5550
sg63
(lp5566
g56
(g57
g58
NtRp5567
(dp5568
g61
(dp5569
g69
I5
ssg70
g5563
sg63
(lp5570
g56
(g65
g58
NtRp5571
(dp5572
g61
(dp5573
g69
I4
ssg70
Nsg63
(lp5574
g56
(g72
g58
NtRp5575
(dp5576
g61
(dp5577
sg70
g5571
sg63
(lp5578
g56
(g77
g58
NtRp5579
(dp5580
g61
(dp5581
g81
g82
ssg70
g5575
sg63
(lp5582
S'Cache-Control'
p5583
asbag56
(g77
g58
NtRp5584
(dp5585
g61
(dp5586
g88
g89
ssg70
g5575
sg63
(lp5587
S':'
asbag56
(g77
g58
NtRp5588
(dp5589
g61
(dp5590
sg70
g5575
sg63
(lp5591
g56
(g57
g58
NtRp5592
(dp5593
g61
(dp5594
g69
I4
ssg70
g5588
sg63
(lp5595
S'no-store, no-cache, must-revalidate, post-check=0, pre-check=0'
p5596
asbasbasbag56
(g72
g58
NtRp5597
(dp5598
g61
(dp5599
sg70
g5571
sg63
(lp5600
g56
(g77
g58
NtRp5601
(dp5602
g61
(dp5603
g81
g82
ssg70
g5597
sg63
(lp5604
S'Content-Type'
p5605
asbag56
(g77
g58
NtRp5606
(dp5607
g61
(dp5608
g88
g89
ssg70
g5597
sg63
(lp5609
S':'
asbag56
(g77
g58
NtRp5610
(dp5611
g61
(dp5612
sg70
g5597
sg63
(lp5613
g56
(g57
g58
NtRp5614
(dp5615
g61
(dp5616
g69
I4
ssg70
g5610
sg63
(lp5617
S'text/html; charset=utf-8'
p5618
asbasbasbag56
(g72
g58
NtRp5619
(dp5620
g61
(dp5621
sg70
g5571
sg63
(lp5622
g56
(g77
g58
NtRp5623
(dp5624
g61
(dp5625
g81
g82
ssg70
g5619
sg63
(lp5626
S'Expires'
p5627
asbag56
(g77
g58
NtRp5628
(dp5629
g61
(dp5630
g88
g89
ssg70
g5619
sg63
(lp5631
S':'
asbag56
(g77
g58
NtRp5632
(dp5633
g61
(dp5634
sg70
g5619
sg63
(lp5635
g56
(g57
g58
NtRp5636
(dp5637
g61
(dp5638
g69
I4
ssg70
g5632
sg63
(lp5639
S'Thu, 08 Mar 2012 14:30:02 GMT'
p5640
asbasbasbag56
(g72
g58
NtRp5641
(dp5642
g61
(dp5643
sg70
g5571
sg63
(lp5644
g56
(g77
g58
NtRp5645
(dp5646
g61
(dp5647
g81
g82
ssg70
g5641
sg63
(lp5648
S'Pragma'
p5649
asbag56
(g77
g58
NtRp5650
(dp5651
g61
(dp5652
g88
g89
ssg70
g5641
sg63
(lp5653
S':'
asbag56
(g77
g58
NtRp5654
(dp5655
g61
(dp5656
sg70
g5641
sg63
(lp5657
g56
(g57
g58
NtRp5658
(dp5659
g61
(dp5660
g69
I4
ssg70
g5654
sg63
(lp5661
S'no-cache'
p5662
asbasbasbag56
(g72
g58
NtRp5663
(dp5664
g61
(dp5665
sg70
g5571
sg63
(lp5666
g56
(g77
g58
NtRp5667
(dp5668
g61
(dp5669
g81
g82
ssg70
g5663
sg63
(lp5670
S'X-Powered-By'
p5671
asbag56
(g77
g58
NtRp5672
(dp5673
g61
(dp5674
g88
g89
ssg70
g5663
sg63
(lp5675
S':'
asbag56
(g77
g58
NtRp5676
(dp5677
g61
(dp5678
sg70
g5663
sg63
(lp5679
g56
(g57
g58
NtRp5680
(dp5681
g61
(dp5682
g69
I4
ssg70
g5676
sg63
(lp5683
S'web2py'
p5684
asbasbasbasbasbasbasbag56
(g72
g58
NtRp5685
(dp5686
g61
(dp5687
sg70
g5245
sg63
(lp5688
g56
(g77
g58
NtRp5689
(dp5690
g61
(dp5691
g81
g82
ssg70
g5685
sg63
(lp5692
S'menu'
p5693
asbag56
(g77
g58
NtRp5694
(dp5695
g61
(dp5696
g88
g89
ssg70
g5685
sg63
(lp5697
S':'
asbag56
(g77
g58
NtRp5698
(dp5699
g61
(dp5700
sg70
g5685
sg63
(lp5701
g56
(g57
g58
NtRp5702
(dp5703
g61
(dp5704
g69
I5
ssg70
g5698
sg63
(lp5705
g56
(g65
g58
NtRp5706
(dp5707
g61
(dp5708
g69
I4
ssg70
Nsg63
(lp5709
sbasbasbasbag56
(g72
g58
NtRp5710
(dp5711
g61
(dp5712
sg70
g5245
sg63
(lp5713
g56
(g77
g58
NtRp5714
(dp5715
g61
(dp5716
g81
g82
ssg70
g5710
sg63
(lp5717
S'meta'
p5718
asbag56
(g77
g58
NtRp5719
(dp5720
g61
(dp5721
g88
g89
ssg70
g5710
sg63
(lp5722
S':'
asbag56
(g77
g58
NtRp5723
(dp5724
g61
(dp5725
sg70
g5710
sg63
(lp5726
g56
(g57
g58
NtRp5727
(dp5728
g61
(dp5729
g69
I5
ssg70
g5723
sg63
(lp5730
g56
(g65
g58
NtRp5731
(dp5732
g61
(dp5733
g69
I4
ssg70
Nsg63
(lp5734
sbasbasbasbag56
(g72
g58
NtRp5735
(dp5736
g61
(dp5737
sg70
g5245
sg63
(lp5738
g56
(g77
g58
NtRp5739
(dp5740
g61
(dp5741
g81
g82
ssg70
g5735
sg63
(lp5742
S'postprocessing'
p5743
asbag56
(g77
g58
NtRp5744
(dp5745
g61
(dp5746
g88
g89
ssg70
g5735
sg63
(lp5747
S':'
asbag56
(g77
g58
NtRp5748
(dp5749
g61
(dp5750
sg70
g5735
sg63
(lp5751
g56
(g57
g58
NtRp5752
(dp5753
g61
(dp5754
g69
I5
ssg70
g5748
sg63
(lp5755
g56
(g65
g58
NtRp5756
(dp5757
g61
(dp5758
g69
I4
ssg70
Nsg63
(lp5759
sbasbasbasbag56
(g72
g58
NtRp5760
(dp5761
g61
(dp5762
sg70
g5245
sg63
(lp5763
g56
(g77
g58
NtRp5764
(dp5765
g61
(dp5766
g81
g82
ssg70
g5760
sg63
(lp5767
S'session_filename'
p5768
asbag56
(g77
g58
NtRp5769
(dp5770
g61
(dp5771
g88
g89
ssg70
g5760
sg63
(lp5772
S':'
asbag56
(g77
g58
NtRp5773
(dp5774
g61
(dp5775
sg70
g5760
sg63
(lp5776
g56
(g57
g58
NtRp5777
(dp5778
g61
(dp5779
g69
I5
ssg70
g5773
sg63
(lp5780
S'D:\\Workbench\\private\\web2py_src\\applications\\examples\\sessions\\127.0.0.1-7482ebe0-d9a7-432d-b3ac-329f6b9af325'
p5781
asbasbasbag56
(g72
g58
NtRp5782
(dp5783
g61
(dp5784
sg70
g5245
sg63
(lp5785
g56
(g77
g58
NtRp5786
(dp5787
g61
(dp5788
g81
g82
ssg70
g5782
sg63
(lp5789
S'session_id'
p5790
asbag56
(g77
g58
NtRp5791
(dp5792
g61
(dp5793
g88
g89
ssg70
g5782
sg63
(lp5794
S':'
asbag56
(g77
g58
NtRp5795
(dp5796
g61
(dp5797
sg70
g5782
sg63
(lp5798
g56
(g57
g58
NtRp5799
(dp5800
g61
(dp5801
g69
I5
ssg70
g5795
sg63
(lp5802
S'127.0.0.1-7482ebe0-d9a7-432d-b3ac-329f6b9af325'
p5803
asbasbasbag56
(g72
g58
NtRp5804
(dp5805
g61
(dp5806
sg70
g5245
sg63
(lp5807
g56
(g77
g58
NtRp5808
(dp5809
g61
(dp5810
g81
g82
ssg70
g5804
sg63
(lp5811
S'session_id_name'
p5812
asbag56
(g77
g58
NtRp5813
(dp5814
g61
(dp5815
g88
g89
ssg70
g5804
sg63
(lp5816
S':'
asbag56
(g77
g58
NtRp5817
(dp5818
g61
(dp5819
sg70
g5804
sg63
(lp5820
g56
(g57
g58
NtRp5821
(dp5822
g61
(dp5823
g69
I5
ssg70
g5817
sg63
(lp5824
g5302
asbasbasbag56
(g72
g58
NtRp5825
(dp5826
g61
(dp5827
sg70
g5245
sg63
(lp5828
g56
(g77
g58
NtRp5829
(dp5830
g61
(dp5831
g81
g82
ssg70
g5825
sg63
(lp5832
S'session_new'
p5833
asbag56
(g77
g58
NtRp5834
(dp5835
g61
(dp5836
g88
g89
ssg70
g5825
sg63
(lp5837
S':'
asbag56
(g77
g58
NtRp5838
(dp5839
g61
(dp5840
sg70
g5825
sg63
(lp5841
g56
(g57
g58
NtRp5842
(dp5843
g61
(dp5844
g69
I5
ssg70
g5838
sg63
(lp5845
g3387
asbasbasbag56
(g72
g58
NtRp5846
(dp5847
g61
(dp5848
sg70
g5245
sg63
(lp5849
g56
(g77
g58
NtRp5850
(dp5851
g61
(dp5852
g81
g82
ssg70
g5846
sg63
(lp5853
S'status'
p5854
asbag56
(g77
g58
NtRp5855
(dp5856
g61
(dp5857
g88
g89
ssg70
g5846
sg63
(lp5858
S':'
asbag56
(g77
g58
NtRp5859
(dp5860
g61
(dp5861
sg70
g5846
sg63
(lp5862
g56
(g57
g58
NtRp5863
(dp5864
g61
(dp5865
g69
I5
ssg70
g5859
sg63
(lp5866
S'200'
p5867
asbasbasbag56
(g72
g58
NtRp5868
(dp5869
g61
(dp5870
sg70
g5245
sg63
(lp5871
g56
(g77
g58
NtRp5872
(dp5873
g61
(dp5874
g81
g82
ssg70
g5868
sg63
(lp5875
g3988
asbag56
(g77
g58
NtRp5876
(dp5877
g61
(dp5878
g88
g89
ssg70
g5868
sg63
(lp5879
S':'
asbag56
(g77
g58
NtRp5880
(dp5881
g61
(dp5882
sg70
g5868
sg63
(lp5883
g56
(g57
g58
NtRp5884
(dp5885
g61
(dp5886
g69
I5
ssg70
g5880
sg63
(lp5887
g4001
asbasbasbag56
(g72
g58
NtRp5888
(dp5889
g61
(dp5890
sg70
g5245
sg63
(lp5891
g56
(g77
g58
NtRp5892
(dp5893
g61
(dp5894
g81
g82
ssg70
g5888
sg63
(lp5895
S'view'
p5896
asbag56
(g77
g58
NtRp5897
(dp5898
g61
(dp5899
g88
g89
ssg70
g5888
sg63
(lp5900
S':'
asbag56
(g77
g58
NtRp5901
(dp5902
g61
(dp5903
sg70
g5888
sg63
(lp5904
g56
(g57
g58
NtRp5905
(dp5906
g61
(dp5907
g69
I5
ssg70
g5901
sg63
(lp5908
S'transform/upload.html'
p5909
asbasbasbasbasbsS'locals'
p5910
(dp5911
g5160
S"<open file '<fdopen>', mode 'w+b'>"
p5912
sssS'traceback'
p5913
S'Traceback (most recent call last):\n  File "D:\\Workbench\\private\\web2py_src\\gluon\\restricted.py", line 194, in restricted\n    exec ccode in environment\n  File "D:\\Workbench\\private\\web2py_src\\applications\\examples\\controllers/transform.py", line 9, in <module>\n  File "D:\\Workbench\\private\\web2py_src\\gluon\\globals.py", line 149, in <lambda>\n    self._caller = lambda f: f()\n  File "D:\\Workbench\\private\\web2py_src\\applications\\examples\\controllers/transform.py", line 7, in upload\n    return \'yes\' if data else None\nNameError: global name \'data\' is not defined\n'
p5914
s.