(dp1
S'output'
p2
S''
sS'layer'
p3
S'D:\\Workbench\\private\\web2py_src\\applications\\examples\\views\\transform/index.html'
p4
sS'code'
p5
S'response.write(\'<!DOCTYPE html PUBLIC "-//W3C//DTD XHTML 1.0 Transitional//EN" "http://www.w3.org/TR/xhtml1/DTD/xhtml1-transitional.dtd">\\n<html xmlns="http://www.w3.org/1999/xhtml"\\n      xml:lang="\', escape=False)\nresponse.write(T.accepted_language or \'en\')\nresponse.write(\'">\\n  <head>\\n    <title>\', escape=False)\nresponse.write(response.title or request.application)\nresponse.write(\'</title>\\n    <link rel="shortcut icon"\\n\\t  href="\', escape=False)\nresponse.write(URL(request.application,\'static\',\'favicon.ico\'))\nresponse.write(\'" \\n\\t  type="image/vnd.microsoft.icon" />\\n      <meta http-equiv="Content-Type" content="text/html; charset=UTF-8" />\\n      \', escape=False)\n#---- (CSS) -----)\nimport random\nresponse.files.append(URL(\'static\',\'css/menu.css\'))\nresponse.files.append(URL(\'static\',\'css/home.css\'))\n#------ include web2py specific js code (jquery, calendar, form stuff) ------\nresponse.write(\'\\n      \', escape=False)\nresponse.files.insert(0,URL(\'static\',\'js/jquery.js\'))\nresponse.files.insert(1,URL(\'static\',\'css/calendar.css\'))\nresponse.files.insert(2,URL(\'static\',\'js/calendar.js\'))\nfor _item in response.meta or []:\n    response.write(\'\\n     <meta name="\', escape=False)\n    response.write(_item)\n    response.write(\'" content="\', escape=False)\n    response.write(response.meta[_item])\n    response.write(\'" />\', escape=False)\n    pass\nfor _k,_file in enumerate(response.files or []):\n    if _file in response.files[:_k]:\n        continue\n    _file0=_file.lower().split(\'?\')[0]\n    if _file0.endswith(\'.css\'):\n        response.write(\'\\n     <link href="\', escape=False)\n        response.write(_file)\n        response.write(\'" rel="stylesheet" type="text/css" />\', escape=False)\n    elif _file0.endswith(\'.js\'):\n        response.write(\'\\n     <script src="\', escape=False)\n        response.write(_file)\n        response.write(\'" type="text/javascript"></script>\', escape=False)\n        pass\n    pass\nresponse.write(\'\\n\\n    <script type="text/javascript"><!--\\n\\t// These variables are used by the web2py_ajax_init function in web2py_ajax.js (which is loaded below).\\n    var w2p_ajax_confirm_message = "\', escape=False)\nresponse.write(T(\'Are you sure you want to delete this object?\'))\nresponse.write(\'";\\n    var w2p_ajax_date_format = "\', escape=False)\nresponse.write(T(\'%Y-%m-%d\'))\nresponse.write(\'";\\n    var w2p_ajax_datetime_format = "\', escape=False)\nresponse.write(T(\'%Y-%m-%d %H:%M:%S\'))\nresponse.write(\'";\\n    //--></script>\\n\\n    <script src="\', escape=False)\nresponse.write(URL(\'static\',\'js/web2py_ajax.js\'))\nresponse.write(\'" type="text/javascript"></script>\\n\', escape=False)\nresponse.write(\'      \\n      \', escape=False)\nresponse.write(toggle_menuclass())\nresponse.write(\'\\n  <!-- script type="text/javascript">\\n  var _gaq = _gaq || [];\\n  _gaq.push([\\\'_setAccount\\\', \\\'UA-20457543-1\\\']);\\n  _gaq.push([\\\'_trackPageview\\\']);\\n  (function() {\\n    var ga = document.createElement(\\\'script\\\'); ga.type = \\\'text/javascript\\\'; ga.async = t\\\\\\nrue;\\n    ga.src = (\\\'https:\\\' == document.location.protocol ? \\\'https://ssl\\\' : \\\'http://www\\\') + \\\'\\\\\\n.google-analytics.com/ga.js\\\';\\n    var s = document.getElementsByTagName(\\\'script\\\')[0];\\n    s.parentNode.insertBefore(ga, s);\\n  })();\\n  </script //-->\\n  </head>\\n  <body>\\n    <div class="flashdiv">\\n      <blockquote class="flash boxInfo">\', escape=False)\nresponse.write(response.flash or \'\')\nresponse.write(\'</blockquote>\\n    </div>\\n    <div class="general">\\n      <!-- HEADER -->\\n      <div class="headerExt">\\n\\t<div class="headerInt">\\n\\t  <a href="\', escape=False)\nresponse.write(URL(\'default\',\'index\'))\nresponse.write(\'" class="logo"><em style="display:none;">web2py web framework</em></a>\\n\\t  <div class="headermenu">\\n            <a href="\', escape=False)\nresponse.write(URL(\'default\',\'index\'))\nresponse.write(\'"\\n\\t       class="home"><em style="display:none;">\', escape=False)\nresponse.write(T(\'Home\'))\nresponse.write(\'</em></a> \\n            <a href="\', escape=False)\nresponse.write(URL(\'default\',\'what\'))\nresponse.write(\'"  \\n\\t       class="about what"><em style="display:none;">\', escape=False)\nresponse.write(T(\'About\'))\nresponse.write(\'</em></a> \\n            <a href="\', escape=False)\nresponse.write(URL(\'default\',\'download\'))\nresponse.write(\'"  \\n\\t       class="download"><em style="display:none;">\', escape=False)\nresponse.write(T(\'Download\'))\nresponse.write(\'</em></a>\\n            <a href="\', escape=False)\nresponse.write(URL(\'default\',\'who\'))\nresponse.write(\'"\\n\\t       class="staff who"><em style="display:none;">\', escape=False)\nresponse.write(T(\'Staff\'))\nresponse.write(\'</em></a> \\n            <a href="\', escape=False)\nresponse.write(URL(\'default\',\'support\'))\nresponse.write(\'"\\n\\t       class="support"><em style="display:none;">\', escape=False)\nresponse.write(T(\'Support\'))\nresponse.write(\'</em></a> \\n            <a href="\', escape=False)\nresponse.write(URL(\'default\',\'documentation\'))\nresponse.write(\'"\\n\\t       class="documentation"><em style="display:none;">\', escape=False)\nresponse.write(T(\'Documentation\'))\nresponse.write(\'</em></a> \\n\\t  </div>\\n\\t</div>\\n      </div>\\n      \\n      <!-- MAIN CONTENT -->\\n      <div class="content">\\t  \\n\\t\\n\\t\', escape=False)\nresponse.write(\'\\n<h1>BEAUTIFY</h1>\\n\', escape=False)\nresponse.write(FORM(INPUT(_type=\'submit\'),INPUT(_type=\'file\'), _action=\'\', _method=\'post\'))\nresponse.write(\'\\n<h2>Message is</h2>\\n\', escape=False)\nresponse.write(message)\nresponse.write(\'\\n\\t\\n\\t\', escape=False)\nresponse.write(\'\\n\\t<div class="contentright">   \\n          <div class="boxBtDownload">\\n\\t    <a href="\', escape=False)\nresponse.write(URL(\'default\',\'download\'))\nresponse.write(\'"  class="btDownload btDownloadPosicao1">\\n\\t      <div class="boxBtDownloadICO"></div>\\n      \\t      <span id="textBtDownload1">\\n\\t\\t  \', escape=False)\nresponse.write(T(\'Download\'))\nresponse.write(\'    \\n\\t      </span>\\n\\t      <span id="textBtDownload2">\\n\\t\\t\', escape=False)\nresponse.write(T(\'Latest Stable \'))\nresponse.write("Version %s.%s.%s " % request.env.web2py_version[:3] + request.env.web2py_version[4])\nresponse.write(\'\\n\\t      </span>\\n\\t    </a>\\n\\t  </div>     \\n\\t  \\n          <!-- div class="boxSearch1">\\n\\t       <div class="boxSearch2"></div>\\n          </div ****uncomment to show search input***-->\\n\\t  \\n          <div onclick="window.open(\\\'http://www.web2py.com/book\\\')" class="boxInfoBanner" style="margin-top:35px;"></div> \\n          \\n          <div class="leftlink leftlinkIcoA" style="margin-top:35px;">\\n            <a href="\', escape=False)\nresponse.write(URL(\'default\',\'usergroups\'))\nresponse.write(\'" class="btleftlink"> \', escape=False)\nresponse.write(T(\'User groups\'))\nresponse.write(\'</a>\\n          </div>   \\n\\t  <div class="leftlink leftlinkIcoF">\\n            <a href="http://web2py.uservoice.com/" target="_blank" class="btleftlink">\', escape=False)\nresponse.write(T(\'User Voice\'))\nresponse.write(\'</a>\\n          </div>\\n          <div class="leftlink leftlinkIcoB">\\n            <a href="http://twitter.com/web2py" target="_blank" class="btleftlink">Twitter</a>\\n          </div> \\n          <div class="leftlink leftlinkIcoK">\\n            <a href="http://webchat.freenode.net/?channels=web2py" target="_blank" class="btleftlink">\', escape=False)\nresponse.write(T(\'Live Chat (IRC)\'))\nresponse.write(\'</a>\\n          </div>\\n          <div class="leftlink leftlinkIcoC">\\n            <a href="http://www.web2py.com/AlterEgo" target="_blank" class="btleftlink">\', escape=False)\nresponse.write(T(\'F.A.Q.\'))\nresponse.write(\'</a>\\n          </div>\\n          <div class="leftlink leftlinkIcoE">\\n            <a href="\', escape=False)\nresponse.write(URL(\'default\',\'examples\'))\nresponse.write(\'" class="btleftlink">\', escape=False)\nresponse.write(T(\'Quick Examples\'))\nresponse.write(\'</a>\\n          </div>\\n          <div class="leftlink leftlinkIcoD">\\n            <a href="\', escape=False)\nresponse.write(URL(\'default\',\'videos\'))\nresponse.write(\'" class="btleftlink">\', escape=False)\nresponse.write(T(\'Videos\'))\nresponse.write(\'</a>\\n          </div>\\n          \\n          <div class="leftlink leftlinkIcoG">\\n            <a href="http://www.web2pyslices.com/main/default/index" target="_blank" class="btleftlink">web2py Slices</a>\\n          </div>\\n          <div class="leftlink leftlinkIcoH">\\n            <a href="http://www.web2py.com/demo_admin" target="_blank" class="btleftlink">\', escape=False)\nresponse.write(T(\'Interactive demo\'))\nresponse.write(\'</a>\\n          </div>\\n          <div class="leftlink leftlinkIcoI">\\n            <a href="http://www.web2py.com/appliances" target="_blank" class="btleftlink">\', escape=False)\nresponse.write(T(\'Free appliances\'))\nresponse.write(\'</a>\\n          </div>\\n          <div class="leftlink leftlinkIcoJ">\\n            <a href="http://www.web2py.com/plugins" target="_blank" class="btleftlink">\', escape=False)\nresponse.write(T(\'Plugins\'))\nresponse.write(\'</a>\\n          </div>\\n          <div class="leftlink leftlinkIcoE">\\n            <a href="http://www.web2py.com/poweredby" target="_blank" class="btleftlink">\', escape=False)\nresponse.write(T(\'Sites powered by web2py\'))\nresponse.write(\'</a>\\n          </div>\\n\\t \\n\\t</div>\\n\\t\\n\\t\', escape=False)\nresponse.write(\'\\n      </div>\\n      \\n      <!-- RODAPE -->   \\n      <div class="footerExt">\\n\\t<div class="footerInt">\\n    \\t  <!-- div class="Boxfooter1" id="font1">contact</div -->\\n    \\t  <!-- div class="Boxfooter2" id="font1">mobile</div -->\\n    \\t  <div class="Boxfooter3" id="font1">&copy; 2011 by Massimo Di Pierro</div>\\n    \\t  <!-- a href="" class="Boxfooter4"></a> <a href="" class="Boxfooter5"></a -->\\n    \\t  <div class="Boxfooter6"></div>    \\t  \\n  \\t</div>\\n      </div>\\n    </div>    \\n  </body>\\n</html>\\n  \\n\', escape=False)'
p6
sS'snapshot'
p7
(dp8
S'exception'
p9
(dp10
S'__hash__'
p11
S"<method-wrapper '__hash__' of exceptions.NameError object>"
p12
sS'__setattr__'
p13
S"<method-wrapper '__setattr__' of exceptions.NameError object>"
p14
sS'__reduce_ex__'
p15
S'<built-in method __reduce_ex__ of exceptions.NameError object>'
p16
sS'__getslice__'
p17
S"<method-wrapper '__getslice__' of exceptions.NameError object>"
p18
sS'__getitem__'
p19
S"<method-wrapper '__getitem__' of exceptions.NameError object>"
p20
sS'__setstate__'
p21
S'<built-in method __setstate__ of exceptions.NameError object>'
p22
sS'__reduce__'
p23
S'<built-in method __reduce__ of exceptions.NameError object>'
p24
sS'__str__'
p25
S"<method-wrapper '__str__' of exceptions.NameError object>"
p26
sS'__format__'
p27
S'<built-in method __format__ of exceptions.NameError object>'
p28
sS'__getattribute__'
p29
S"<method-wrapper '__getattribute__' of exceptions.NameError object>"
p30
sS'__class__'
p31
S"<type 'exceptions.NameError'>"
p32
sS'__unicode__'
p33
S'<built-in method __unicode__ of exceptions.NameError object>'
p34
sS'__delattr__'
p35
S"<method-wrapper '__delattr__' of exceptions.NameError object>"
p36
sS'__subclasshook__'
p37
S'<built-in method __subclasshook__ of type object>'
p38
sS'__repr__'
p39
S"<method-wrapper '__repr__' of exceptions.NameError object>"
p40
sS'args'
p41
S'("name \'message\' is not defined",)'
p42
sS'__dict__'
p43
S'{}'
p44
sS'__sizeof__'
p45
S'<built-in method __sizeof__ of exceptions.NameError object>'
p46
sS'__doc__'
p47
S"'Name not found globally.'"
p48
sS'__init__'
p49
S"<method-wrapper '__init__' of exceptions.NameError object>"
p50
sS'__new__'
p51
S'<built-in method __new__ of type object>'
p52
ssS'evalue'
p53
S"name 'message' is not defined"
p54
sS'request'
p55
ccopy_reg
_reconstructor
p56
(cgluon.html
BEAUTIFY
p57
c__builtin__
object
p58
NtRp59
(dp60
S'attributes'
p61
(dp62
sS'components'
p63
(lp64
g56
(cgluon.html
TABLE
p65
g58
NtRp66
(dp67
g61
(dp68
S'level'
p69
I5
ssS'parent'
p70
Nsg63
(lp71
g56
(cgluon.html
TR
p72
g58
NtRp73
(dp74
g61
(dp75
sg70
g66
sg63
(lp76
g56
(cgluon.html
TD
p77
g58
NtRp78
(dp79
g61
(dp80
S'_style'
p81
S'font-weight:bold;'
p82
ssg70
g73
sg63
(lp83
S'ajax'
p84
asbag56
(g77
g58
NtRp85
(dp86
g61
(dp87
S'_valign'
p88
S'top'
p89
ssg70
g73
sg63
(lp90
S':'
asbag56
(g77
g58
NtRp91
(dp92
g61
(dp93
sg70
g73
sg63
(lp94
g56
(g57
g58
NtRp95
(dp96
g61
(dp97
g69
I5
ssg70
g91
sg63
(lp98
S'False'
p99
asbasbasbag56
(g72
g58
NtRp100
(dp101
g61
(dp102
sg70
g66
sg63
(lp103
g56
(g77
g58
NtRp104
(dp105
g61
(dp106
g81
g82
ssg70
g100
sg63
(lp107
S'application'
p108
asbag56
(g77
g58
NtRp109
(dp110
g61
(dp111
g88
g89
ssg70
g100
sg63
(lp112
S':'
asbag56
(g77
g58
NtRp113
(dp114
g61
(dp115
sg70
g100
sg63
(lp116
g56
(g57
g58
NtRp117
(dp118
g61
(dp119
g69
I5
ssg70
g113
sg63
(lp120
S'examples'
p121
asbasbasbag56
(g72
g58
NtRp122
(dp123
g61
(dp124
sg70
g66
sg63
(lp125
g56
(g77
g58
NtRp126
(dp127
g61
(dp128
g81
g82
ssg70
g122
sg63
(lp129
g41
asbag56
(g77
g58
NtRp130
(dp131
g61
(dp132
g88
g89
ssg70
g122
sg63
(lp133
S':'
asbag56
(g77
g58
NtRp134
(dp135
g61
(dp136
sg70
g122
sg63
(lp137
g56
(g57
g58
NtRp138
(dp139
g61
(dp140
g69
I5
ssg70
g134
sg63
(lp141
g56
(g65
g58
NtRp142
(dp143
g61
(dp144
g69
I4
ssg70
Nsg63
(lp145
sbasbasbasbag56
(g72
g58
NtRp146
(dp147
g61
(dp148
sg70
g66
sg63
(lp149
g56
(g77
g58
NtRp150
(dp151
g61
(dp152
g81
g82
ssg70
g146
sg63
(lp153
S'body'
p154
asbag56
(g77
g58
NtRp155
(dp156
g61
(dp157
g88
g89
ssg70
g146
sg63
(lp158
S':'
asbag56
(g77
g58
NtRp159
(dp160
g61
(dp161
sg70
g146
sg63
(lp162
g56
(g57
g58
NtRp163
(dp164
g61
(dp165
g69
I5
ssg70
g159
sg63
(lp166
S'<cStringIO.StringO object at 0x03F65AE0>'
p167
asbasbasbag56
(g72
g58
NtRp168
(dp169
g61
(dp170
sg70
g66
sg63
(lp171
g56
(g77
g58
NtRp172
(dp173
g61
(dp174
g81
g82
ssg70
g168
sg63
(lp175
S'client'
p176
asbag56
(g77
g58
NtRp177
(dp178
g61
(dp179
g88
g89
ssg70
g168
sg63
(lp180
S':'
asbag56
(g77
g58
NtRp181
(dp182
g61
(dp183
sg70
g168
sg63
(lp184
g56
(g57
g58
NtRp185
(dp186
g61
(dp187
g69
I5
ssg70
g181
sg63
(lp188
S'127.0.0.1'
p189
asbasbasbag56
(g72
g58
NtRp190
(dp191
g61
(dp192
sg70
g66
sg63
(lp193
g56
(g77
g58
NtRp194
(dp195
g61
(dp196
g81
g82
ssg70
g190
sg63
(lp197
S'controller'
p198
asbag56
(g77
g58
NtRp199
(dp200
g61
(dp201
g88
g89
ssg70
g190
sg63
(lp202
S':'
asbag56
(g77
g58
NtRp203
(dp204
g61
(dp205
sg70
g190
sg63
(lp206
g56
(g57
g58
NtRp207
(dp208
g61
(dp209
g69
I5
ssg70
g203
sg63
(lp210
S'transform'
p211
asbasbasbag56
(g72
g58
NtRp212
(dp213
g61
(dp214
sg70
g66
sg63
(lp215
g56
(g77
g58
NtRp216
(dp217
g61
(dp218
g81
g82
ssg70
g212
sg63
(lp219
S'cookies'
p220
asbag56
(g77
g58
NtRp221
(dp222
g61
(dp223
g88
g89
ssg70
g212
sg63
(lp224
S':'
asbag56
(g77
g58
NtRp225
(dp226
g61
(dp227
sg70
g212
sg63
(lp228
g56
(g57
g58
NtRp229
(dp230
g61
(dp231
g69
I5
ssg70
g225
sg63
(lp232
g56
(g65
g58
NtRp233
(dp234
g61
(dp235
g69
I4
ssg70
Nsg63
(lp236
g56
(g72
g58
NtRp237
(dp238
g61
(dp239
sg70
g233
sg63
(lp240
g56
(g77
g58
NtRp241
(dp242
g61
(dp243
g81
g82
ssg70
g237
sg63
(lp244
S'session_id_admin'
p245
asbag56
(g77
g58
NtRp246
(dp247
g61
(dp248
g88
g89
ssg70
g237
sg63
(lp249
S':'
asbag56
(g77
g58
NtRp250
(dp251
g61
(dp252
sg70
g237
sg63
(lp253
g56
(g57
g58
NtRp254
(dp255
g61
(dp256
g69
I4
ssg70
g250
sg63
(lp257
g56
(g65
g58
NtRp258
(dp259
g61
(dp260
g69
I3
ssg70
Nsg63
(lp261
g56
(g72
g58
NtRp262
(dp263
g61
(dp264
sg70
g258
sg63
(lp265
g56
(g77
g58
NtRp266
(dp267
g61
(dp268
g81
g82
ssg70
g262
sg63
(lp269
S'comment'
p270
asbag56
(g77
g58
NtRp271
(dp272
g61
(dp273
g88
g89
ssg70
g262
sg63
(lp274
S':'
asbag56
(g77
g58
NtRp275
(dp276
g61
(dp277
sg70
g262
sg63
(lp278
g56
(g57
g58
NtRp279
(dp280
g61
(dp281
g69
I3
ssg70
g275
sg63
(lp282
S''
asbasbasbag56
(g72
g58
NtRp283
(dp284
g61
(dp285
sg70
g258
sg63
(lp286
g56
(g77
g58
NtRp287
(dp288
g61
(dp289
g81
g82
ssg70
g283
sg63
(lp290
S'domain'
p291
asbag56
(g77
g58
NtRp292
(dp293
g61
(dp294
g88
g89
ssg70
g283
sg63
(lp295
S':'
asbag56
(g77
g58
NtRp296
(dp297
g61
(dp298
sg70
g283
sg63
(lp299
g56
(g57
g58
NtRp300
(dp301
g61
(dp302
g69
I3
ssg70
g296
sg63
(lp303
S''
asbasbasbag56
(g72
g58
NtRp304
(dp305
g61
(dp306
sg70
g258
sg63
(lp307
g56
(g77
g58
NtRp308
(dp309
g61
(dp310
g81
g82
ssg70
g304
sg63
(lp311
S'expires'
p312
asbag56
(g77
g58
NtRp313
(dp314
g61
(dp315
g88
g89
ssg70
g304
sg63
(lp316
S':'
asbag56
(g77
g58
NtRp317
(dp318
g61
(dp319
sg70
g304
sg63
(lp320
g56
(g57
g58
NtRp321
(dp322
g61
(dp323
g69
I3
ssg70
g317
sg63
(lp324
S''
asbasbasbag56
(g72
g58
NtRp325
(dp326
g61
(dp327
sg70
g258
sg63
(lp328
g56
(g77
g58
NtRp329
(dp330
g61
(dp331
g81
g82
ssg70
g325
sg63
(lp332
S'httponly'
p333
asbag56
(g77
g58
NtRp334
(dp335
g61
(dp336
g88
g89
ssg70
g325
sg63
(lp337
S':'
asbag56
(g77
g58
NtRp338
(dp339
g61
(dp340
sg70
g325
sg63
(lp341
g56
(g57
g58
NtRp342
(dp343
g61
(dp344
g69
I3
ssg70
g338
sg63
(lp345
S''
asbasbasbag56
(g72
g58
NtRp346
(dp347
g61
(dp348
sg70
g258
sg63
(lp349
g56
(g77
g58
NtRp350
(dp351
g61
(dp352
g81
g82
ssg70
g346
sg63
(lp353
S'max-age'
p354
asbag56
(g77
g58
NtRp355
(dp356
g61
(dp357
g88
g89
ssg70
g346
sg63
(lp358
S':'
asbag56
(g77
g58
NtRp359
(dp360
g61
(dp361
sg70
g346
sg63
(lp362
g56
(g57
g58
NtRp363
(dp364
g61
(dp365
g69
I3
ssg70
g359
sg63
(lp366
S''
asbasbasbag56
(g72
g58
NtRp367
(dp368
g61
(dp369
sg70
g258
sg63
(lp370
g56
(g77
g58
NtRp371
(dp372
g61
(dp373
g81
g82
ssg70
g367
sg63
(lp374
S'path'
p375
asbag56
(g77
g58
NtRp376
(dp377
g61
(dp378
g88
g89
ssg70
g367
sg63
(lp379
S':'
asbag56
(g77
g58
NtRp380
(dp381
g61
(dp382
sg70
g367
sg63
(lp383
g56
(g57
g58
NtRp384
(dp385
g61
(dp386
g69
I3
ssg70
g380
sg63
(lp387
S''
asbasbasbag56
(g72
g58
NtRp388
(dp389
g61
(dp390
sg70
g258
sg63
(lp391
g56
(g77
g58
NtRp392
(dp393
g61
(dp394
g81
g82
ssg70
g388
sg63
(lp395
S'secure'
p396
asbag56
(g77
g58
NtRp397
(dp398
g61
(dp399
g88
g89
ssg70
g388
sg63
(lp400
S':'
asbag56
(g77
g58
NtRp401
(dp402
g61
(dp403
sg70
g388
sg63
(lp404
g56
(g57
g58
NtRp405
(dp406
g61
(dp407
g69
I3
ssg70
g401
sg63
(lp408
S''
asbasbasbag56
(g72
g58
NtRp409
(dp410
g61
(dp411
sg70
g258
sg63
(lp412
g56
(g77
g58
NtRp413
(dp414
g61
(dp415
g81
g82
ssg70
g409
sg63
(lp416
S'version'
p417
asbag56
(g77
g58
NtRp418
(dp419
g61
(dp420
g88
g89
ssg70
g409
sg63
(lp421
S':'
asbag56
(g77
g58
NtRp422
(dp423
g61
(dp424
sg70
g409
sg63
(lp425
g56
(g57
g58
NtRp426
(dp427
g61
(dp428
g69
I3
ssg70
g422
sg63
(lp429
S''
asbasbasbasbasbasbasbag56
(g72
g58
NtRp430
(dp431
g61
(dp432
sg70
g233
sg63
(lp433
g56
(g77
g58
NtRp434
(dp435
g61
(dp436
g81
g82
ssg70
g430
sg63
(lp437
S'session_id_examples'
p438
asbag56
(g77
g58
NtRp439
(dp440
g61
(dp441
g88
g89
ssg70
g430
sg63
(lp442
S':'
asbag56
(g77
g58
NtRp443
(dp444
g61
(dp445
sg70
g430
sg63
(lp446
g56
(g57
g58
NtRp447
(dp448
g61
(dp449
g69
I4
ssg70
g443
sg63
(lp450
g56
(g65
g58
NtRp451
(dp452
g61
(dp453
g69
I3
ssg70
Nsg63
(lp454
g56
(g72
g58
NtRp455
(dp456
g61
(dp457
sg70
g451
sg63
(lp458
g56
(g77
g58
NtRp459
(dp460
g61
(dp461
g81
g82
ssg70
g455
sg63
(lp462
g270
asbag56
(g77
g58
NtRp463
(dp464
g61
(dp465
g88
g89
ssg70
g455
sg63
(lp466
S':'
asbag56
(g77
g58
NtRp467
(dp468
g61
(dp469
sg70
g455
sg63
(lp470
g56
(g57
g58
NtRp471
(dp472
g61
(dp473
g69
I3
ssg70
g467
sg63
(lp474
S''
asbasbasbag56
(g72
g58
NtRp475
(dp476
g61
(dp477
sg70
g451
sg63
(lp478
g56
(g77
g58
NtRp479
(dp480
g61
(dp481
g81
g82
ssg70
g475
sg63
(lp482
g291
asbag56
(g77
g58
NtRp483
(dp484
g61
(dp485
g88
g89
ssg70
g475
sg63
(lp486
S':'
asbag56
(g77
g58
NtRp487
(dp488
g61
(dp489
sg70
g475
sg63
(lp490
g56
(g57
g58
NtRp491
(dp492
g61
(dp493
g69
I3
ssg70
g487
sg63
(lp494
S''
asbasbasbag56
(g72
g58
NtRp495
(dp496
g61
(dp497
sg70
g451
sg63
(lp498
g56
(g77
g58
NtRp499
(dp500
g61
(dp501
g81
g82
ssg70
g495
sg63
(lp502
g312
asbag56
(g77
g58
NtRp503
(dp504
g61
(dp505
g88
g89
ssg70
g495
sg63
(lp506
S':'
asbag56
(g77
g58
NtRp507
(dp508
g61
(dp509
sg70
g495
sg63
(lp510
g56
(g57
g58
NtRp511
(dp512
g61
(dp513
g69
I3
ssg70
g507
sg63
(lp514
S''
asbasbasbag56
(g72
g58
NtRp515
(dp516
g61
(dp517
sg70
g451
sg63
(lp518
g56
(g77
g58
NtRp519
(dp520
g61
(dp521
g81
g82
ssg70
g515
sg63
(lp522
g333
asbag56
(g77
g58
NtRp523
(dp524
g61
(dp525
g88
g89
ssg70
g515
sg63
(lp526
S':'
asbag56
(g77
g58
NtRp527
(dp528
g61
(dp529
sg70
g515
sg63
(lp530
g56
(g57
g58
NtRp531
(dp532
g61
(dp533
g69
I3
ssg70
g527
sg63
(lp534
S''
asbasbasbag56
(g72
g58
NtRp535
(dp536
g61
(dp537
sg70
g451
sg63
(lp538
g56
(g77
g58
NtRp539
(dp540
g61
(dp541
g81
g82
ssg70
g535
sg63
(lp542
g354
asbag56
(g77
g58
NtRp543
(dp544
g61
(dp545
g88
g89
ssg70
g535
sg63
(lp546
S':'
asbag56
(g77
g58
NtRp547
(dp548
g61
(dp549
sg70
g535
sg63
(lp550
g56
(g57
g58
NtRp551
(dp552
g61
(dp553
g69
I3
ssg70
g547
sg63
(lp554
S''
asbasbasbag56
(g72
g58
NtRp555
(dp556
g61
(dp557
sg70
g451
sg63
(lp558
g56
(g77
g58
NtRp559
(dp560
g61
(dp561
g81
g82
ssg70
g555
sg63
(lp562
g375
asbag56
(g77
g58
NtRp563
(dp564
g61
(dp565
g88
g89
ssg70
g555
sg63
(lp566
S':'
asbag56
(g77
g58
NtRp567
(dp568
g61
(dp569
sg70
g555
sg63
(lp570
g56
(g57
g58
NtRp571
(dp572
g61
(dp573
g69
I3
ssg70
g567
sg63
(lp574
S''
asbasbasbag56
(g72
g58
NtRp575
(dp576
g61
(dp577
sg70
g451
sg63
(lp578
g56
(g77
g58
NtRp579
(dp580
g61
(dp581
g81
g82
ssg70
g575
sg63
(lp582
g396
asbag56
(g77
g58
NtRp583
(dp584
g61
(dp585
g88
g89
ssg70
g575
sg63
(lp586
S':'
asbag56
(g77
g58
NtRp587
(dp588
g61
(dp589
sg70
g575
sg63
(lp590
g56
(g57
g58
NtRp591
(dp592
g61
(dp593
g69
I3
ssg70
g587
sg63
(lp594
S''
asbasbasbag56
(g72
g58
NtRp595
(dp596
g61
(dp597
sg70
g451
sg63
(lp598
g56
(g77
g58
NtRp599
(dp600
g61
(dp601
g81
g82
ssg70
g595
sg63
(lp602
g417
asbag56
(g77
g58
NtRp603
(dp604
g61
(dp605
g88
g89
ssg70
g595
sg63
(lp606
S':'
asbag56
(g77
g58
NtRp607
(dp608
g61
(dp609
sg70
g595
sg63
(lp610
g56
(g57
g58
NtRp611
(dp612
g61
(dp613
g69
I3
ssg70
g607
sg63
(lp614
S''
asbasbasbasbasbasbasbag56
(g72
g58
NtRp615
(dp616
g61
(dp617
sg70
g233
sg63
(lp618
g56
(g77
g58
NtRp619
(dp620
g61
(dp621
g81
g82
ssg70
g615
sg63
(lp622
S'session_id_welcome'
p623
asbag56
(g77
g58
NtRp624
(dp625
g61
(dp626
g88
g89
ssg70
g615
sg63
(lp627
S':'
asbag56
(g77
g58
NtRp628
(dp629
g61
(dp630
sg70
g615
sg63
(lp631
g56
(g57
g58
NtRp632
(dp633
g61
(dp634
g69
I4
ssg70
g628
sg63
(lp635
g56
(g65
g58
NtRp636
(dp637
g61
(dp638
g69
I3
ssg70
Nsg63
(lp639
g56
(g72
g58
NtRp640
(dp641
g61
(dp642
sg70
g636
sg63
(lp643
g56
(g77
g58
NtRp644
(dp645
g61
(dp646
g81
g82
ssg70
g640
sg63
(lp647
g270
asbag56
(g77
g58
NtRp648
(dp649
g61
(dp650
g88
g89
ssg70
g640
sg63
(lp651
S':'
asbag56
(g77
g58
NtRp652
(dp653
g61
(dp654
sg70
g640
sg63
(lp655
g56
(g57
g58
NtRp656
(dp657
g61
(dp658
g69
I3
ssg70
g652
sg63
(lp659
S''
asbasbasbag56
(g72
g58
NtRp660
(dp661
g61
(dp662
sg70
g636
sg63
(lp663
g56
(g77
g58
NtRp664
(dp665
g61
(dp666
g81
g82
ssg70
g660
sg63
(lp667
g291
asbag56
(g77
g58
NtRp668
(dp669
g61
(dp670
g88
g89
ssg70
g660
sg63
(lp671
S':'
asbag56
(g77
g58
NtRp672
(dp673
g61
(dp674
sg70
g660
sg63
(lp675
g56
(g57
g58
NtRp676
(dp677
g61
(dp678
g69
I3
ssg70
g672
sg63
(lp679
S''
asbasbasbag56
(g72
g58
NtRp680
(dp681
g61
(dp682
sg70
g636
sg63
(lp683
g56
(g77
g58
NtRp684
(dp685
g61
(dp686
g81
g82
ssg70
g680
sg63
(lp687
g312
asbag56
(g77
g58
NtRp688
(dp689
g61
(dp690
g88
g89
ssg70
g680
sg63
(lp691
S':'
asbag56
(g77
g58
NtRp692
(dp693
g61
(dp694
sg70
g680
sg63
(lp695
g56
(g57
g58
NtRp696
(dp697
g61
(dp698
g69
I3
ssg70
g692
sg63
(lp699
S''
asbasbasbag56
(g72
g58
NtRp700
(dp701
g61
(dp702
sg70
g636
sg63
(lp703
g56
(g77
g58
NtRp704
(dp705
g61
(dp706
g81
g82
ssg70
g700
sg63
(lp707
g333
asbag56
(g77
g58
NtRp708
(dp709
g61
(dp710
g88
g89
ssg70
g700
sg63
(lp711
S':'
asbag56
(g77
g58
NtRp712
(dp713
g61
(dp714
sg70
g700
sg63
(lp715
g56
(g57
g58
NtRp716
(dp717
g61
(dp718
g69
I3
ssg70
g712
sg63
(lp719
S''
asbasbasbag56
(g72
g58
NtRp720
(dp721
g61
(dp722
sg70
g636
sg63
(lp723
g56
(g77
g58
NtRp724
(dp725
g61
(dp726
g81
g82
ssg70
g720
sg63
(lp727
g354
asbag56
(g77
g58
NtRp728
(dp729
g61
(dp730
g88
g89
ssg70
g720
sg63
(lp731
S':'
asbag56
(g77
g58
NtRp732
(dp733
g61
(dp734
sg70
g720
sg63
(lp735
g56
(g57
g58
NtRp736
(dp737
g61
(dp738
g69
I3
ssg70
g732
sg63
(lp739
S''
asbasbasbag56
(g72
g58
NtRp740
(dp741
g61
(dp742
sg70
g636
sg63
(lp743
g56
(g77
g58
NtRp744
(dp745
g61
(dp746
g81
g82
ssg70
g740
sg63
(lp747
g375
asbag56
(g77
g58
NtRp748
(dp749
g61
(dp750
g88
g89
ssg70
g740
sg63
(lp751
S':'
asbag56
(g77
g58
NtRp752
(dp753
g61
(dp754
sg70
g740
sg63
(lp755
g56
(g57
g58
NtRp756
(dp757
g61
(dp758
g69
I3
ssg70
g752
sg63
(lp759
S''
asbasbasbag56
(g72
g58
NtRp760
(dp761
g61
(dp762
sg70
g636
sg63
(lp763
g56
(g77
g58
NtRp764
(dp765
g61
(dp766
g81
g82
ssg70
g760
sg63
(lp767
g396
asbag56
(g77
g58
NtRp768
(dp769
g61
(dp770
g88
g89
ssg70
g760
sg63
(lp771
S':'
asbag56
(g77
g58
NtRp772
(dp773
g61
(dp774
sg70
g760
sg63
(lp775
g56
(g57
g58
NtRp776
(dp777
g61
(dp778
g69
I3
ssg70
g772
sg63
(lp779
S''
asbasbasbag56
(g72
g58
NtRp780
(dp781
g61
(dp782
sg70
g636
sg63
(lp783
g56
(g77
g58
NtRp784
(dp785
g61
(dp786
g81
g82
ssg70
g780
sg63
(lp787
g417
asbag56
(g77
g58
NtRp788
(dp789
g61
(dp790
g88
g89
ssg70
g780
sg63
(lp791
S':'
asbag56
(g77
g58
NtRp792
(dp793
g61
(dp794
sg70
g780
sg63
(lp795
g56
(g57
g58
NtRp796
(dp797
g61
(dp798
g69
I3
ssg70
g792
sg63
(lp799
S''
asbasbasbasbasbasbasbasbasbasbasbag56
(g72
g58
NtRp800
(dp801
g61
(dp802
sg70
g66
sg63
(lp803
g56
(g77
g58
NtRp804
(dp805
g61
(dp806
g81
g82
ssg70
g800
sg63
(lp807
S'env'
p808
asbag56
(g77
g58
NtRp809
(dp810
g61
(dp811
g88
g89
ssg70
g800
sg63
(lp812
S':'
asbag56
(g77
g58
NtRp813
(dp814
g61
(dp815
sg70
g800
sg63
(lp816
g56
(g57
g58
NtRp817
(dp818
g61
(dp819
g69
I5
ssg70
g813
sg63
(lp820
g56
(g65
g58
NtRp821
(dp822
g61
(dp823
g69
I4
ssg70
Nsg63
(lp824
g56
(g72
g58
NtRp825
(dp826
g61
(dp827
sg70
g821
sg63
(lp828
g56
(g77
g58
NtRp829
(dp830
g61
(dp831
g81
g82
ssg70
g825
sg63
(lp832
S'app_folders'
p833
asbag56
(g77
g58
NtRp834
(dp835
g61
(dp836
g88
g89
ssg70
g825
sg63
(lp837
S':'
asbag56
(g77
g58
NtRp838
(dp839
g61
(dp840
sg70
g825
sg63
(lp841
g56
(g57
g58
NtRp842
(dp843
g61
(dp844
g69
I4
ssg70
g838
sg63
(lp845
S"set(['D:\\\\Workbench\\\\private\\\\web2py_src\\\\applications\\\\welcome\\\\', 'D:\\\\Workbench\\\\private\\\\web2py_src\\\\applications\\\\examples\\\\', 'D:\\\\Workbench\\\\private\\\\web2py_src\\\\applications\\\\admin\\\\'])"
p846
asbasbasbag56
(g72
g58
NtRp847
(dp848
g61
(dp849
sg70
g821
sg63
(lp850
g56
(g77
g58
NtRp851
(dp852
g61
(dp853
g81
g82
ssg70
g847
sg63
(lp854
S'applications_parent'
p855
asbag56
(g77
g58
NtRp856
(dp857
g61
(dp858
g88
g89
ssg70
g847
sg63
(lp859
S':'
asbag56
(g77
g58
NtRp860
(dp861
g61
(dp862
sg70
g847
sg63
(lp863
g56
(g57
g58
NtRp864
(dp865
g61
(dp866
g69
I4
ssg70
g860
sg63
(lp867
S'D:\\Workbench\\private\\web2py_src'
p868
asbasbasbag56
(g72
g58
NtRp869
(dp870
g61
(dp871
sg70
g821
sg63
(lp872
g56
(g77
g58
NtRp873
(dp874
g61
(dp875
g81
g82
ssg70
g869
sg63
(lp876
S'comspec'
p877
asbag56
(g77
g58
NtRp878
(dp879
g61
(dp880
g88
g89
ssg70
g869
sg63
(lp881
S':'
asbag56
(g77
g58
NtRp882
(dp883
g61
(dp884
sg70
g869
sg63
(lp885
g56
(g57
g58
NtRp886
(dp887
g61
(dp888
g69
I4
ssg70
g882
sg63
(lp889
S'C:\\Windows\\system32\\cmd.exe'
p890
asbasbasbag56
(g72
g58
NtRp891
(dp892
g61
(dp893
sg70
g821
sg63
(lp894
g56
(g77
g58
NtRp895
(dp896
g61
(dp897
g81
g82
ssg70
g891
sg63
(lp898
S'db_sessions'
p899
asbag56
(g77
g58
NtRp900
(dp901
g61
(dp902
g88
g89
ssg70
g891
sg63
(lp903
S':'
asbag56
(g77
g58
NtRp904
(dp905
g61
(dp906
sg70
g891
sg63
(lp907
g56
(g57
g58
NtRp908
(dp909
g61
(dp910
g69
I4
ssg70
g904
sg63
(lp911
S'set([])'
p912
asbasbasbag56
(g72
g58
NtRp913
(dp914
g61
(dp915
sg70
g821
sg63
(lp916
g56
(g77
g58
NtRp917
(dp918
g61
(dp919
g81
g82
ssg70
g913
sg63
(lp920
S'debugging'
p921
asbag56
(g77
g58
NtRp922
(dp923
g61
(dp924
g88
g89
ssg70
g913
sg63
(lp925
S':'
asbag56
(g77
g58
NtRp926
(dp927
g61
(dp928
sg70
g913
sg63
(lp929
g56
(g57
g58
NtRp930
(dp931
g61
(dp932
g69
I4
ssg70
g926
sg63
(lp933
g99
asbasbasbag56
(g72
g58
NtRp934
(dp935
g61
(dp936
sg70
g821
sg63
(lp937
g56
(g77
g58
NtRp938
(dp939
g61
(dp940
g81
g82
ssg70
g934
sg63
(lp941
S'document_root'
p942
asbag56
(g77
g58
NtRp943
(dp944
g61
(dp945
g88
g89
ssg70
g934
sg63
(lp946
S':'
asbag56
(g77
g58
NtRp947
(dp948
g61
(dp949
sg70
g934
sg63
(lp950
g56
(g57
g58
NtRp951
(dp952
g61
(dp953
g69
I4
ssg70
g947
sg63
(lp954
S'D:/Workbench/documentroot'
p955
asbasbasbag56
(g72
g58
NtRp956
(dp957
g61
(dp958
sg70
g821
sg63
(lp959
g56
(g77
g58
NtRp960
(dp961
g61
(dp962
g81
g82
ssg70
g956
sg63
(lp963
S'gateway_interface'
p964
asbag56
(g77
g58
NtRp965
(dp966
g61
(dp967
g88
g89
ssg70
g956
sg63
(lp968
S':'
asbag56
(g77
g58
NtRp969
(dp970
g61
(dp971
sg70
g956
sg63
(lp972
g56
(g57
g58
NtRp973
(dp974
g61
(dp975
g69
I4
ssg70
g969
sg63
(lp976
S'CGI/1.1'
p977
asbasbasbag56
(g72
g58
NtRp978
(dp979
g61
(dp980
sg70
g821
sg63
(lp981
g56
(g77
g58
NtRp982
(dp983
g61
(dp984
g81
g82
ssg70
g978
sg63
(lp985
S'gluon_parent'
p986
asbag56
(g77
g58
NtRp987
(dp988
g61
(dp989
g88
g89
ssg70
g978
sg63
(lp990
S':'
asbag56
(g77
g58
NtRp991
(dp992
g61
(dp993
sg70
g978
sg63
(lp994
g56
(g57
g58
NtRp995
(dp996
g61
(dp997
g69
I4
ssg70
g991
sg63
(lp998
g868
asbasbasbag56
(g72
g58
NtRp999
(dp1000
g61
(dp1001
sg70
g821
sg63
(lp1002
g56
(g77
g58
NtRp1003
(dp1004
g61
(dp1005
g81
g82
ssg70
g999
sg63
(lp1006
S'http_accept'
p1007
asbag56
(g77
g58
NtRp1008
(dp1009
g61
(dp1010
g88
g89
ssg70
g999
sg63
(lp1011
S':'
asbag56
(g77
g58
NtRp1012
(dp1013
g61
(dp1014
sg70
g999
sg63
(lp1015
g56
(g57
g58
NtRp1016
(dp1017
g61
(dp1018
g69
I4
ssg70
g1012
sg63
(lp1019
S'text/html,application/xhtml+xml,application/xml;q=0.9,*/*;q=0.8'
p1020
asbasbasbag56
(g72
g58
NtRp1021
(dp1022
g61
(dp1023
sg70
g821
sg63
(lp1024
g56
(g77
g58
NtRp1025
(dp1026
g61
(dp1027
g81
g82
ssg70
g1021
sg63
(lp1028
S'http_accept_charset'
p1029
asbag56
(g77
g58
NtRp1030
(dp1031
g61
(dp1032
g88
g89
ssg70
g1021
sg63
(lp1033
S':'
asbag56
(g77
g58
NtRp1034
(dp1035
g61
(dp1036
sg70
g1021
sg63
(lp1037
g56
(g57
g58
NtRp1038
(dp1039
g61
(dp1040
g69
I4
ssg70
g1034
sg63
(lp1041
S'GBK,utf-8;q=0.7,*;q=0.3'
p1042
asbasbasbag56
(g72
g58
NtRp1043
(dp1044
g61
(dp1045
sg70
g821
sg63
(lp1046
g56
(g77
g58
NtRp1047
(dp1048
g61
(dp1049
g81
g82
ssg70
g1043
sg63
(lp1050
S'http_accept_encoding'
p1051
asbag56
(g77
g58
NtRp1052
(dp1053
g61
(dp1054
g88
g89
ssg70
g1043
sg63
(lp1055
S':'
asbag56
(g77
g58
NtRp1056
(dp1057
g61
(dp1058
sg70
g1043
sg63
(lp1059
g56
(g57
g58
NtRp1060
(dp1061
g61
(dp1062
g69
I4
ssg70
g1056
sg63
(lp1063
S'gzip,deflate,sdch'
p1064
asbasbasbag56
(g72
g58
NtRp1065
(dp1066
g61
(dp1067
sg70
g821
sg63
(lp1068
g56
(g77
g58
NtRp1069
(dp1070
g61
(dp1071
g81
g82
ssg70
g1065
sg63
(lp1072
S'http_accept_language'
p1073
asbag56
(g77
g58
NtRp1074
(dp1075
g61
(dp1076
g88
g89
ssg70
g1065
sg63
(lp1077
S':'
asbag56
(g77
g58
NtRp1078
(dp1079
g61
(dp1080
sg70
g1065
sg63
(lp1081
g56
(g57
g58
NtRp1082
(dp1083
g61
(dp1084
g69
I4
ssg70
g1078
sg63
(lp1085
S'zh-CN,zh;q=0.8'
p1086
asbasbasbag56
(g72
g58
NtRp1087
(dp1088
g61
(dp1089
sg70
g821
sg63
(lp1090
g56
(g77
g58
NtRp1091
(dp1092
g61
(dp1093
g81
g82
ssg70
g1087
sg63
(lp1094
S'http_connection'
p1095
asbag56
(g77
g58
NtRp1096
(dp1097
g61
(dp1098
g88
g89
ssg70
g1087
sg63
(lp1099
S':'
asbag56
(g77
g58
NtRp1100
(dp1101
g61
(dp1102
sg70
g1087
sg63
(lp1103
g56
(g57
g58
NtRp1104
(dp1105
g61
(dp1106
g69
I4
ssg70
g1100
sg63
(lp1107
S'keep-alive'
p1108
asbasbasbag56
(g72
g58
NtRp1109
(dp1110
g61
(dp1111
sg70
g821
sg63
(lp1112
g56
(g77
g58
NtRp1113
(dp1114
g61
(dp1115
g81
g82
ssg70
g1109
sg63
(lp1116
S'http_cookie'
p1117
asbag56
(g77
g58
NtRp1118
(dp1119
g61
(dp1120
g88
g89
ssg70
g1109
sg63
(lp1121
S':'
asbag56
(g77
g58
NtRp1122
(dp1123
g61
(dp1124
sg70
g1109
sg63
(lp1125
g56
(g57
g58
NtRp1126
(dp1127
g61
(dp1128
g69
I4
ssg70
g1122
sg63
(lp1129
S'session_id_welcome=127.0.0.1-8fd1c522-eb06-41bf-9a95-c4b822b521ee; session_id_admin=127.0.0.1-2544ce9e-6a6d-443e-a775-537d4857e725; session_id_examples=127.0.0.1-74cdd304-417e-44a7-ae7c-4c8c3c432899'
p1130
asbasbasbag56
(g72
g58
NtRp1131
(dp1132
g61
(dp1133
sg70
g821
sg63
(lp1134
g56
(g77
g58
NtRp1135
(dp1136
g61
(dp1137
g81
g82
ssg70
g1131
sg63
(lp1138
S'http_host'
p1139
asbag56
(g77
g58
NtRp1140
(dp1141
g61
(dp1142
g88
g89
ssg70
g1131
sg63
(lp1143
S':'
asbag56
(g77
g58
NtRp1144
(dp1145
g61
(dp1146
sg70
g1131
sg63
(lp1147
g56
(g57
g58
NtRp1148
(dp1149
g61
(dp1150
g69
I4
ssg70
g1144
sg63
(lp1151
S'localhost'
p1152
asbasbasbag56
(g72
g58
NtRp1153
(dp1154
g61
(dp1155
sg70
g821
sg63
(lp1156
g56
(g77
g58
NtRp1157
(dp1158
g61
(dp1159
g81
g82
ssg70
g1153
sg63
(lp1160
S'http_user_agent'
p1161
asbag56
(g77
g58
NtRp1162
(dp1163
g61
(dp1164
g88
g89
ssg70
g1153
sg63
(lp1165
S':'
asbag56
(g77
g58
NtRp1166
(dp1167
g61
(dp1168
sg70
g1153
sg63
(lp1169
g56
(g57
g58
NtRp1170
(dp1171
g61
(dp1172
g69
I4
ssg70
g1166
sg63
(lp1173
S'Mozilla/5.0 (Windows NT 6.1) AppleWebKit/535.11 (KHTML, like Gecko) Chrome/17.0.963.66 Safari/535.11'
p1174
asbasbasbag56
(g72
g58
NtRp1175
(dp1176
g61
(dp1177
sg70
g821
sg63
(lp1178
g56
(g77
g58
NtRp1179
(dp1180
g61
(dp1181
g81
g82
ssg70
g1175
sg63
(lp1182
S'is_jython'
p1183
asbag56
(g77
g58
NtRp1184
(dp1185
g61
(dp1186
g88
g89
ssg70
g1175
sg63
(lp1187
S':'
asbag56
(g77
g58
NtRp1188
(dp1189
g61
(dp1190
sg70
g1175
sg63
(lp1191
g56
(g57
g58
NtRp1192
(dp1193
g61
(dp1194
g69
I4
ssg70
g1188
sg63
(lp1195
g99
asbasbasbag56
(g72
g58
NtRp1196
(dp1197
g61
(dp1198
sg70
g821
sg63
(lp1199
g56
(g77
g58
NtRp1200
(dp1201
g61
(dp1202
g81
g82
ssg70
g1196
sg63
(lp1203
S'mod_wsgi_application_group'
p1204
asbag56
(g77
g58
NtRp1205
(dp1206
g61
(dp1207
g88
g89
ssg70
g1196
sg63
(lp1208
S':'
asbag56
(g77
g58
NtRp1209
(dp1210
g61
(dp1211
sg70
g1196
sg63
(lp1212
g56
(g57
g58
NtRp1213
(dp1214
g61
(dp1215
g69
I4
ssg70
g1209
sg63
(lp1216
S'XIAOFTANG-NB.tencent.com|'
p1217
asbasbasbag56
(g72
g58
NtRp1218
(dp1219
g61
(dp1220
sg70
g821
sg63
(lp1221
g56
(g77
g58
NtRp1222
(dp1223
g61
(dp1224
g81
g82
ssg70
g1218
sg63
(lp1225
S'mod_wsgi_callable_object'
p1226
asbag56
(g77
g58
NtRp1227
(dp1228
g61
(dp1229
g88
g89
ssg70
g1218
sg63
(lp1230
S':'
asbag56
(g77
g58
NtRp1231
(dp1232
g61
(dp1233
sg70
g1218
sg63
(lp1234
g56
(g57
g58
NtRp1235
(dp1236
g61
(dp1237
g69
I4
ssg70
g1231
sg63
(lp1238
S'application'
p1239
asbasbasbag56
(g72
g58
NtRp1240
(dp1241
g61
(dp1242
sg70
g821
sg63
(lp1243
g56
(g77
g58
NtRp1244
(dp1245
g61
(dp1246
g81
g82
ssg70
g1240
sg63
(lp1247
S'mod_wsgi_handler_script'
p1248
asbag56
(g77
g58
NtRp1249
(dp1250
g61
(dp1251
g88
g89
ssg70
g1240
sg63
(lp1252
S':'
asbag56
(g77
g58
NtRp1253
(dp1254
g61
(dp1255
sg70
g1240
sg63
(lp1256
g56
(g57
g58
NtRp1257
(dp1258
g61
(dp1259
g69
I4
ssg70
g1253
sg63
(lp1260
S''
asbasbasbag56
(g72
g58
NtRp1261
(dp1262
g61
(dp1263
sg70
g821
sg63
(lp1264
g56
(g77
g58
NtRp1265
(dp1266
g61
(dp1267
g81
g82
ssg70
g1261
sg63
(lp1268
S'mod_wsgi_input_chunked'
p1269
asbag56
(g77
g58
NtRp1270
(dp1271
g61
(dp1272
g88
g89
ssg70
g1261
sg63
(lp1273
S':'
asbag56
(g77
g58
NtRp1274
(dp1275
g61
(dp1276
sg70
g1261
sg63
(lp1277
g56
(g57
g58
NtRp1278
(dp1279
g61
(dp1280
g69
I4
ssg70
g1274
sg63
(lp1281
S'0'
asbasbasbag56
(g72
g58
NtRp1282
(dp1283
g61
(dp1284
sg70
g821
sg63
(lp1285
g56
(g77
g58
NtRp1286
(dp1287
g61
(dp1288
g81
g82
ssg70
g1282
sg63
(lp1289
S'mod_wsgi_process_group'
p1290
asbag56
(g77
g58
NtRp1291
(dp1292
g61
(dp1293
g88
g89
ssg70
g1282
sg63
(lp1294
S':'
asbag56
(g77
g58
NtRp1295
(dp1296
g61
(dp1297
sg70
g1282
sg63
(lp1298
g56
(g57
g58
NtRp1299
(dp1300
g61
(dp1301
g69
I4
ssg70
g1295
sg63
(lp1302
S''
asbasbasbag56
(g72
g58
NtRp1303
(dp1304
g61
(dp1305
sg70
g821
sg63
(lp1306
g56
(g77
g58
NtRp1307
(dp1308
g61
(dp1309
g81
g82
ssg70
g1303
sg63
(lp1310
S'mod_wsgi_request_handler'
p1311
asbag56
(g77
g58
NtRp1312
(dp1313
g61
(dp1314
g88
g89
ssg70
g1303
sg63
(lp1315
S':'
asbag56
(g77
g58
NtRp1316
(dp1317
g61
(dp1318
sg70
g1303
sg63
(lp1319
g56
(g57
g58
NtRp1320
(dp1321
g61
(dp1322
g69
I4
ssg70
g1316
sg63
(lp1323
S'wsgi-script'
p1324
asbasbasbag56
(g72
g58
NtRp1325
(dp1326
g61
(dp1327
sg70
g821
sg63
(lp1328
g56
(g77
g58
NtRp1329
(dp1330
g61
(dp1331
g81
g82
ssg70
g1325
sg63
(lp1332
S'mod_wsgi_script_reloading'
p1333
asbag56
(g77
g58
NtRp1334
(dp1335
g61
(dp1336
g88
g89
ssg70
g1325
sg63
(lp1337
S':'
asbag56
(g77
g58
NtRp1338
(dp1339
g61
(dp1340
sg70
g1325
sg63
(lp1341
g56
(g57
g58
NtRp1342
(dp1343
g61
(dp1344
g69
I4
ssg70
g1338
sg63
(lp1345
S'1'
asbasbasbag56
(g72
g58
NtRp1346
(dp1347
g61
(dp1348
sg70
g821
sg63
(lp1349
g56
(g77
g58
NtRp1350
(dp1351
g61
(dp1352
g81
g82
ssg70
g1346
sg63
(lp1353
S'mod_wsgi_version'
p1354
asbag56
(g77
g58
NtRp1355
(dp1356
g61
(dp1357
g88
g89
ssg70
g1346
sg63
(lp1358
S':'
asbag56
(g77
g58
NtRp1359
(dp1360
g61
(dp1361
sg70
g1346
sg63
(lp1362
g56
(g57
g58
NtRp1363
(dp1364
g61
(dp1365
g69
I4
ssg70
g1359
sg63
(lp1366
g56
(g65
g58
NtRp1367
(dp1368
g61
(dp1369
g69
I3
ssg70
Nsg63
(lp1370
g56
(g72
g58
NtRp1371
(dp1372
g61
(dp1373
sg70
g1367
sg63
(lp1374
g56
(g77
g58
NtRp1375
(dp1376
g61
(dp1377
sg70
g1371
sg63
(lp1378
g56
(g57
g58
NtRp1379
(dp1380
g61
(dp1381
g69
I3
ssg70
g1375
sg63
(lp1382
S'3'
asbasbasbag56
(g72
g58
NtRp1383
(dp1384
g61
(dp1385
sg70
g1367
sg63
(lp1386
g56
(g77
g58
NtRp1387
(dp1388
g61
(dp1389
sg70
g1383
sg63
(lp1390
g56
(g57
g58
NtRp1391
(dp1392
g61
(dp1393
g69
I3
ssg70
g1387
sg63
(lp1394
S'3'
asbasbasbasbasbasbasbag56
(g72
g58
NtRp1395
(dp1396
g61
(dp1397
sg70
g821
sg63
(lp1398
g56
(g77
g58
NtRp1399
(dp1400
g61
(dp1401
g81
g82
ssg70
g1395
sg63
(lp1402
S'path_info'
p1403
asbag56
(g77
g58
NtRp1404
(dp1405
g61
(dp1406
g88
g89
ssg70
g1395
sg63
(lp1407
S':'
asbag56
(g77
g58
NtRp1408
(dp1409
g61
(dp1410
sg70
g1395
sg63
(lp1411
g56
(g57
g58
NtRp1412
(dp1413
g61
(dp1414
g69
I4
ssg70
g1408
sg63
(lp1415
S'/examples/transform/index'
p1416
asbasbasbag56
(g72
g58
NtRp1417
(dp1418
g61
(dp1419
sg70
g821
sg63
(lp1420
g56
(g77
g58
NtRp1421
(dp1422
g61
(dp1423
g81
g82
ssg70
g1417
sg63
(lp1424
S'path_translated'
p1425
asbag56
(g77
g58
NtRp1426
(dp1427
g61
(dp1428
g88
g89
ssg70
g1417
sg63
(lp1429
S':'
asbag56
(g77
g58
NtRp1430
(dp1431
g61
(dp1432
sg70
g1417
sg63
(lp1433
g56
(g57
g58
NtRp1434
(dp1435
g61
(dp1436
g69
I4
ssg70
g1430
sg63
(lp1437
S'D:\\Workbench\\private\\web2py_src\\wsgihandler.py\\examples\\transform\\index'
p1438
asbasbasbag56
(g72
g58
NtRp1439
(dp1440
g61
(dp1441
sg70
g821
sg63
(lp1442
g56
(g77
g58
NtRp1443
(dp1444
g61
(dp1445
g81
g82
ssg70
g1439
sg63
(lp1446
S'pathext'
p1447
asbag56
(g77
g58
NtRp1448
(dp1449
g61
(dp1450
g88
g89
ssg70
g1439
sg63
(lp1451
S':'
asbag56
(g77
g58
NtRp1452
(dp1453
g61
(dp1454
sg70
g1439
sg63
(lp1455
g56
(g57
g58
NtRp1456
(dp1457
g61
(dp1458
g69
I4
ssg70
g1452
sg63
(lp1459
S'.COM;.EXE;.BAT;.CMD;.VBS;.VBE;.JS;.JSE;.WSF;.WSH;.MSC;.py;.pyw'
p1460
asbasbasbag56
(g72
g58
NtRp1461
(dp1462
g61
(dp1463
sg70
g821
sg63
(lp1464
g56
(g77
g58
NtRp1465
(dp1466
g61
(dp1467
g81
g82
ssg70
g1461
sg63
(lp1468
S'query_string'
p1469
asbag56
(g77
g58
NtRp1470
(dp1471
g61
(dp1472
g88
g89
ssg70
g1461
sg63
(lp1473
S':'
asbag56
(g77
g58
NtRp1474
(dp1475
g61
(dp1476
sg70
g1461
sg63
(lp1477
g56
(g57
g58
NtRp1478
(dp1479
g61
(dp1480
g69
I4
ssg70
g1474
sg63
(lp1481
S''
asbasbasbag56
(g72
g58
NtRp1482
(dp1483
g61
(dp1484
sg70
g821
sg63
(lp1485
g56
(g77
g58
NtRp1486
(dp1487
g61
(dp1488
g81
g82
ssg70
g1482
sg63
(lp1489
S'remote_addr'
p1490
asbag56
(g77
g58
NtRp1491
(dp1492
g61
(dp1493
g88
g89
ssg70
g1482
sg63
(lp1494
S':'
asbag56
(g77
g58
NtRp1495
(dp1496
g61
(dp1497
sg70
g1482
sg63
(lp1498
g56
(g57
g58
NtRp1499
(dp1500
g61
(dp1501
g69
I4
ssg70
g1495
sg63
(lp1502
g189
asbasbasbag56
(g72
g58
NtRp1503
(dp1504
g61
(dp1505
sg70
g821
sg63
(lp1506
g56
(g77
g58
NtRp1507
(dp1508
g61
(dp1509
g81
g82
ssg70
g1503
sg63
(lp1510
S'remote_port'
p1511
asbag56
(g77
g58
NtRp1512
(dp1513
g61
(dp1514
g88
g89
ssg70
g1503
sg63
(lp1515
S':'
asbag56
(g77
g58
NtRp1516
(dp1517
g61
(dp1518
sg70
g1503
sg63
(lp1519
g56
(g57
g58
NtRp1520
(dp1521
g61
(dp1522
g69
I4
ssg70
g1516
sg63
(lp1523
S'27684'
p1524
asbasbasbag56
(g72
g58
NtRp1525
(dp1526
g61
(dp1527
sg70
g821
sg63
(lp1528
g56
(g77
g58
NtRp1529
(dp1530
g61
(dp1531
g81
g82
ssg70
g1525
sg63
(lp1532
S'request_method'
p1533
asbag56
(g77
g58
NtRp1534
(dp1535
g61
(dp1536
g88
g89
ssg70
g1525
sg63
(lp1537
S':'
asbag56
(g77
g58
NtRp1538
(dp1539
g61
(dp1540
sg70
g1525
sg63
(lp1541
g56
(g57
g58
NtRp1542
(dp1543
g61
(dp1544
g69
I4
ssg70
g1538
sg63
(lp1545
S'GET'
p1546
asbasbasbag56
(g72
g58
NtRp1547
(dp1548
g61
(dp1549
sg70
g821
sg63
(lp1550
g56
(g77
g58
NtRp1551
(dp1552
g61
(dp1553
g81
g82
ssg70
g1547
sg63
(lp1554
S'request_uri'
p1555
asbag56
(g77
g58
NtRp1556
(dp1557
g61
(dp1558
g88
g89
ssg70
g1547
sg63
(lp1559
S':'
asbag56
(g77
g58
NtRp1560
(dp1561
g61
(dp1562
sg70
g1547
sg63
(lp1563
g56
(g57
g58
NtRp1564
(dp1565
g61
(dp1566
g69
I4
ssg70
g1560
sg63
(lp1567
S'/examples/transform/index'
p1568
asbasbasbag56
(g72
g58
NtRp1569
(dp1570
g61
(dp1571
sg70
g821
sg63
(lp1572
g56
(g77
g58
NtRp1573
(dp1574
g61
(dp1575
g81
g82
ssg70
g1569
sg63
(lp1576
S'script_filename'
p1577
asbag56
(g77
g58
NtRp1578
(dp1579
g61
(dp1580
g88
g89
ssg70
g1569
sg63
(lp1581
S':'
asbag56
(g77
g58
NtRp1582
(dp1583
g61
(dp1584
sg70
g1569
sg63
(lp1585
g56
(g57
g58
NtRp1586
(dp1587
g61
(dp1588
g69
I4
ssg70
g1582
sg63
(lp1589
S'D:/Workbench/private/web2py_src/wsgihandler.py'
p1590
asbasbasbag56
(g72
g58
NtRp1591
(dp1592
g61
(dp1593
sg70
g821
sg63
(lp1594
g56
(g77
g58
NtRp1595
(dp1596
g61
(dp1597
g81
g82
ssg70
g1591
sg63
(lp1598
S'script_name'
p1599
asbag56
(g77
g58
NtRp1600
(dp1601
g61
(dp1602
g88
g89
ssg70
g1591
sg63
(lp1603
S':'
asbag56
(g77
g58
NtRp1604
(dp1605
g61
(dp1606
sg70
g1591
sg63
(lp1607
g56
(g57
g58
NtRp1608
(dp1609
g61
(dp1610
g69
I4
ssg70
g1604
sg63
(lp1611
S''
asbasbasbag56
(g72
g58
NtRp1612
(dp1613
g61
(dp1614
sg70
g821
sg63
(lp1615
g56
(g77
g58
NtRp1616
(dp1617
g61
(dp1618
g81
g82
ssg70
g1612
sg63
(lp1619
S'server_addr'
p1620
asbag56
(g77
g58
NtRp1621
(dp1622
g61
(dp1623
g88
g89
ssg70
g1612
sg63
(lp1624
S':'
asbag56
(g77
g58
NtRp1625
(dp1626
g61
(dp1627
sg70
g1612
sg63
(lp1628
g56
(g57
g58
NtRp1629
(dp1630
g61
(dp1631
g69
I4
ssg70
g1625
sg63
(lp1632
S'127.0.0.1'
p1633
asbasbasbag56
(g72
g58
NtRp1634
(dp1635
g61
(dp1636
sg70
g821
sg63
(lp1637
g56
(g77
g58
NtRp1638
(dp1639
g61
(dp1640
g81
g82
ssg70
g1634
sg63
(lp1641
S'server_admin'
p1642
asbag56
(g77
g58
NtRp1643
(dp1644
g61
(dp1645
g88
g89
ssg70
g1634
sg63
(lp1646
S':'
asbag56
(g77
g58
NtRp1647
(dp1648
g61
(dp1649
sg70
g1634
sg63
(lp1650
g56
(g57
g58
NtRp1651
(dp1652
g61
(dp1653
g69
I4
ssg70
g1647
sg63
(lp1654
S'admin@tencent.com'
p1655
asbasbasbag56
(g72
g58
NtRp1656
(dp1657
g61
(dp1658
sg70
g821
sg63
(lp1659
g56
(g77
g58
NtRp1660
(dp1661
g61
(dp1662
g81
g82
ssg70
g1656
sg63
(lp1663
S'server_name'
p1664
asbag56
(g77
g58
NtRp1665
(dp1666
g61
(dp1667
g88
g89
ssg70
g1656
sg63
(lp1668
S':'
asbag56
(g77
g58
NtRp1669
(dp1670
g61
(dp1671
sg70
g1656
sg63
(lp1672
g56
(g57
g58
NtRp1673
(dp1674
g61
(dp1675
g69
I4
ssg70
g1669
sg63
(lp1676
S'localhost'
p1677
asbasbasbag56
(g72
g58
NtRp1678
(dp1679
g61
(dp1680
sg70
g821
sg63
(lp1681
g56
(g77
g58
NtRp1682
(dp1683
g61
(dp1684
g81
g82
ssg70
g1678
sg63
(lp1685
S'server_port'
p1686
asbag56
(g77
g58
NtRp1687
(dp1688
g61
(dp1689
g88
g89
ssg70
g1678
sg63
(lp1690
S':'
asbag56
(g77
g58
NtRp1691
(dp1692
g61
(dp1693
sg70
g1678
sg63
(lp1694
g56
(g57
g58
NtRp1695
(dp1696
g61
(dp1697
g69
I4
ssg70
g1691
sg63
(lp1698
S'80'
p1699
asbasbasbag56
(g72
g58
NtRp1700
(dp1701
g61
(dp1702
sg70
g821
sg63
(lp1703
g56
(g77
g58
NtRp1704
(dp1705
g61
(dp1706
g81
g82
ssg70
g1700
sg63
(lp1707
S'server_protocol'
p1708
asbag56
(g77
g58
NtRp1709
(dp1710
g61
(dp1711
g88
g89
ssg70
g1700
sg63
(lp1712
S':'
asbag56
(g77
g58
NtRp1713
(dp1714
g61
(dp1715
sg70
g1700
sg63
(lp1716
g56
(g57
g58
NtRp1717
(dp1718
g61
(dp1719
g69
I4
ssg70
g1713
sg63
(lp1720
S'HTTP/1.1'
p1721
asbasbasbag56
(g72
g58
NtRp1722
(dp1723
g61
(dp1724
sg70
g821
sg63
(lp1725
g56
(g77
g58
NtRp1726
(dp1727
g61
(dp1728
g81
g82
ssg70
g1722
sg63
(lp1729
S'server_signature'
p1730
asbag56
(g77
g58
NtRp1731
(dp1732
g61
(dp1733
g88
g89
ssg70
g1722
sg63
(lp1734
S':'
asbag56
(g77
g58
NtRp1735
(dp1736
g61
(dp1737
sg70
g1722
sg63
(lp1738
g56
(g57
g58
NtRp1739
(dp1740
g61
(dp1741
g69
I4
ssg70
g1735
sg63
(lp1742
S''
asbasbasbag56
(g72
g58
NtRp1743
(dp1744
g61
(dp1745
sg70
g821
sg63
(lp1746
g56
(g77
g58
NtRp1747
(dp1748
g61
(dp1749
g81
g82
ssg70
g1743
sg63
(lp1750
S'server_software'
p1751
asbag56
(g77
g58
NtRp1752
(dp1753
g61
(dp1754
g88
g89
ssg70
g1743
sg63
(lp1755
S':'
asbag56
(g77
g58
NtRp1756
(dp1757
g61
(dp1758
sg70
g1743
sg63
(lp1759
g56
(g57
g58
NtRp1760
(dp1761
g61
(dp1762
g69
I4
ssg70
g1756
sg63
(lp1763
S'Apache/2.2.21 (Win32) PHP/5.2.17 mod_wsgi/3.3 Python/2.7.2'
p1764
asbasbasbag56
(g72
g58
NtRp1765
(dp1766
g61
(dp1767
sg70
g821
sg63
(lp1768
g56
(g77
g58
NtRp1769
(dp1770
g61
(dp1771
g81
g82
ssg70
g1765
sg63
(lp1772
S'systemroot'
p1773
asbag56
(g77
g58
NtRp1774
(dp1775
g61
(dp1776
g88
g89
ssg70
g1765
sg63
(lp1777
S':'
asbag56
(g77
g58
NtRp1778
(dp1779
g61
(dp1780
sg70
g1765
sg63
(lp1781
g56
(g57
g58
NtRp1782
(dp1783
g61
(dp1784
g69
I4
ssg70
g1778
sg63
(lp1785
S'C:\\Windows'
p1786
asbasbasbag56
(g72
g58
NtRp1787
(dp1788
g61
(dp1789
sg70
g821
sg63
(lp1790
g56
(g77
g58
NtRp1791
(dp1792
g61
(dp1793
g81
g82
ssg70
g1787
sg63
(lp1794
S'web2py_path'
p1795
asbag56
(g77
g58
NtRp1796
(dp1797
g61
(dp1798
g88
g89
ssg70
g1787
sg63
(lp1799
S':'
asbag56
(g77
g58
NtRp1800
(dp1801
g61
(dp1802
sg70
g1787
sg63
(lp1803
g56
(g57
g58
NtRp1804
(dp1805
g61
(dp1806
g69
I4
ssg70
g1800
sg63
(lp1807
g868
asbasbasbag56
(g72
g58
NtRp1808
(dp1809
g61
(dp1810
sg70
g821
sg63
(lp1811
g56
(g77
g58
NtRp1812
(dp1813
g61
(dp1814
g81
g82
ssg70
g1808
sg63
(lp1815
S'web2py_version'
p1816
asbag56
(g77
g58
NtRp1817
(dp1818
g61
(dp1819
g88
g89
ssg70
g1808
sg63
(lp1820
S':'
asbag56
(g77
g58
NtRp1821
(dp1822
g61
(dp1823
sg70
g1808
sg63
(lp1824
g56
(g57
g58
NtRp1825
(dp1826
g61
(dp1827
g69
I4
ssg70
g1821
sg63
(lp1828
g56
(g65
g58
NtRp1829
(dp1830
g61
(dp1831
g69
I3
ssg70
Nsg63
(lp1832
g56
(g72
g58
NtRp1833
(dp1834
g61
(dp1835
sg70
g1829
sg63
(lp1836
g56
(g77
g58
NtRp1837
(dp1838
g61
(dp1839
sg70
g1833
sg63
(lp1840
g56
(g57
g58
NtRp1841
(dp1842
g61
(dp1843
g69
I3
ssg70
g1837
sg63
(lp1844
S'1'
asbasbasbag56
(g72
g58
NtRp1845
(dp1846
g61
(dp1847
sg70
g1829
sg63
(lp1848
g56
(g77
g58
NtRp1849
(dp1850
g61
(dp1851
sg70
g1845
sg63
(lp1852
g56
(g57
g58
NtRp1853
(dp1854
g61
(dp1855
g69
I3
ssg70
g1849
sg63
(lp1856
S'99'
p1857
asbasbasbag56
(g72
g58
NtRp1858
(dp1859
g61
(dp1860
sg70
g1829
sg63
(lp1861
g56
(g77
g58
NtRp1862
(dp1863
g61
(dp1864
sg70
g1858
sg63
(lp1865
g56
(g57
g58
NtRp1866
(dp1867
g61
(dp1868
g69
I3
ssg70
g1862
sg63
(lp1869
S'2'
asbasbasbag56
(g72
g58
NtRp1870
(dp1871
g61
(dp1872
sg70
g1829
sg63
(lp1873
g56
(g77
g58
NtRp1874
(dp1875
g61
(dp1876
sg70
g1870
sg63
(lp1877
g56
(g57
g58
NtRp1878
(dp1879
g61
(dp1880
g69
I3
ssg70
g1874
sg63
(lp1881
S'datetime.datetime(2011, 9, 26, 6, 55, 33)'
p1882
asbasbasbag56
(g72
g58
NtRp1883
(dp1884
g61
(dp1885
sg70
g1829
sg63
(lp1886
g56
(g77
g58
NtRp1887
(dp1888
g61
(dp1889
sg70
g1883
sg63
(lp1890
g56
(g57
g58
NtRp1891
(dp1892
g61
(dp1893
g69
I3
ssg70
g1887
sg63
(lp1894
S'stable'
p1895
asbasbasbasbasbasbasbag56
(g72
g58
NtRp1896
(dp1897
g61
(dp1898
sg70
g821
sg63
(lp1899
g56
(g77
g58
NtRp1900
(dp1901
g61
(dp1902
g81
g82
ssg70
g1896
sg63
(lp1903
S'windir'
p1904
asbag56
(g77
g58
NtRp1905
(dp1906
g61
(dp1907
g88
g89
ssg70
g1896
sg63
(lp1908
S':'
asbag56
(g77
g58
NtRp1909
(dp1910
g61
(dp1911
sg70
g1896
sg63
(lp1912
g56
(g57
g58
NtRp1913
(dp1914
g61
(dp1915
g69
I4
ssg70
g1909
sg63
(lp1916
S'C:\\Windows'
p1917
asbasbasbag56
(g72
g58
NtRp1918
(dp1919
g61
(dp1920
sg70
g821
sg63
(lp1921
g56
(g77
g58
NtRp1922
(dp1923
g61
(dp1924
g81
g82
ssg70
g1918
sg63
(lp1925
S'wsgi_errors'
p1926
asbag56
(g77
g58
NtRp1927
(dp1928
g61
(dp1929
g88
g89
ssg70
g1918
sg63
(lp1930
S':'
asbag56
(g77
g58
NtRp1931
(dp1932
g61
(dp1933
sg70
g1918
sg63
(lp1934
g56
(g57
g58
NtRp1935
(dp1936
g61
(dp1937
g69
I4
ssg70
g1931
sg63
(lp1938
S'<mod_wsgi.Log object at 0x03C3BD90>'
p1939
asbasbasbag56
(g72
g58
NtRp1940
(dp1941
g61
(dp1942
sg70
g821
sg63
(lp1943
g56
(g77
g58
NtRp1944
(dp1945
g61
(dp1946
g81
g82
ssg70
g1940
sg63
(lp1947
S'wsgi_file_wrapper'
p1948
asbag56
(g77
g58
NtRp1949
(dp1950
g61
(dp1951
g88
g89
ssg70
g1940
sg63
(lp1952
S':'
asbag56
(g77
g58
NtRp1953
(dp1954
g61
(dp1955
sg70
g1940
sg63
(lp1956
g56
(g57
g58
NtRp1957
(dp1958
g61
(dp1959
g69
I4
ssg70
g1953
sg63
(lp1960
S'<built-in method file_wrapper of mod_wsgi.Adapter object at 0x040299F8>'
p1961
asbasbasbag56
(g72
g58
NtRp1962
(dp1963
g61
(dp1964
sg70
g821
sg63
(lp1965
g56
(g77
g58
NtRp1966
(dp1967
g61
(dp1968
g81
g82
ssg70
g1962
sg63
(lp1969
S'wsgi_input'
p1970
asbag56
(g77
g58
NtRp1971
(dp1972
g61
(dp1973
g88
g89
ssg70
g1962
sg63
(lp1974
S':'
asbag56
(g77
g58
NtRp1975
(dp1976
g61
(dp1977
sg70
g1962
sg63
(lp1978
g56
(g57
g58
NtRp1979
(dp1980
g61
(dp1981
g69
I4
ssg70
g1975
sg63
(lp1982
S'<mod_wsgi.Input object at 0x04013DB8>'
p1983
asbasbasbag56
(g72
g58
NtRp1984
(dp1985
g61
(dp1986
sg70
g821
sg63
(lp1987
g56
(g77
g58
NtRp1988
(dp1989
g61
(dp1990
g81
g82
ssg70
g1984
sg63
(lp1991
S'wsgi_multiprocess'
p1992
asbag56
(g77
g58
NtRp1993
(dp1994
g61
(dp1995
g88
g89
ssg70
g1984
sg63
(lp1996
S':'
asbag56
(g77
g58
NtRp1997
(dp1998
g61
(dp1999
sg70
g1984
sg63
(lp2000
g56
(g57
g58
NtRp2001
(dp2002
g61
(dp2003
g69
I4
ssg70
g1997
sg63
(lp2004
g99
asbasbasbag56
(g72
g58
NtRp2005
(dp2006
g61
(dp2007
sg70
g821
sg63
(lp2008
g56
(g77
g58
NtRp2009
(dp2010
g61
(dp2011
g81
g82
ssg70
g2005
sg63
(lp2012
S'wsgi_multithread'
p2013
asbag56
(g77
g58
NtRp2014
(dp2015
g61
(dp2016
g88
g89
ssg70
g2005
sg63
(lp2017
S':'
asbag56
(g77
g58
NtRp2018
(dp2019
g61
(dp2020
sg70
g2005
sg63
(lp2021
g56
(g57
g58
NtRp2022
(dp2023
g61
(dp2024
g69
I4
ssg70
g2018
sg63
(lp2025
S'True'
p2026
asbasbasbag56
(g72
g58
NtRp2027
(dp2028
g61
(dp2029
sg70
g821
sg63
(lp2030
g56
(g77
g58
NtRp2031
(dp2032
g61
(dp2033
g81
g82
ssg70
g2027
sg63
(lp2034
S'wsgi_run_once'
p2035
asbag56
(g77
g58
NtRp2036
(dp2037
g61
(dp2038
g88
g89
ssg70
g2027
sg63
(lp2039
S':'
asbag56
(g77
g58
NtRp2040
(dp2041
g61
(dp2042
sg70
g2027
sg63
(lp2043
g56
(g57
g58
NtRp2044
(dp2045
g61
(dp2046
g69
I4
ssg70
g2040
sg63
(lp2047
g99
asbasbasbag56
(g72
g58
NtRp2048
(dp2049
g61
(dp2050
sg70
g821
sg63
(lp2051
g56
(g77
g58
NtRp2052
(dp2053
g61
(dp2054
g81
g82
ssg70
g2048
sg63
(lp2055
S'wsgi_url_scheme'
p2056
asbag56
(g77
g58
NtRp2057
(dp2058
g61
(dp2059
g88
g89
ssg70
g2048
sg63
(lp2060
S':'
asbag56
(g77
g58
NtRp2061
(dp2062
g61
(dp2063
sg70
g2048
sg63
(lp2064
g56
(g57
g58
NtRp2065
(dp2066
g61
(dp2067
g69
I4
ssg70
g2061
sg63
(lp2068
S'http'
p2069
asbasbasbag56
(g72
g58
NtRp2070
(dp2071
g61
(dp2072
sg70
g821
sg63
(lp2073
g56
(g77
g58
NtRp2074
(dp2075
g61
(dp2076
g81
g82
ssg70
g2070
sg63
(lp2077
S'wsgi_version'
p2078
asbag56
(g77
g58
NtRp2079
(dp2080
g61
(dp2081
g88
g89
ssg70
g2070
sg63
(lp2082
S':'
asbag56
(g77
g58
NtRp2083
(dp2084
g61
(dp2085
sg70
g2070
sg63
(lp2086
g56
(g57
g58
NtRp2087
(dp2088
g61
(dp2089
g69
I4
ssg70
g2083
sg63
(lp2090
g56
(g65
g58
NtRp2091
(dp2092
g61
(dp2093
g69
I3
ssg70
Nsg63
(lp2094
g56
(g72
g58
NtRp2095
(dp2096
g61
(dp2097
sg70
g2091
sg63
(lp2098
g56
(g77
g58
NtRp2099
(dp2100
g61
(dp2101
sg70
g2095
sg63
(lp2102
g56
(g57
g58
NtRp2103
(dp2104
g61
(dp2105
g69
I3
ssg70
g2099
sg63
(lp2106
S'1'
asbasbasbag56
(g72
g58
NtRp2107
(dp2108
g61
(dp2109
sg70
g2091
sg63
(lp2110
g56
(g77
g58
NtRp2111
(dp2112
g61
(dp2113
sg70
g2107
sg63
(lp2114
g56
(g57
g58
NtRp2115
(dp2116
g61
(dp2117
g69
I3
ssg70
g2111
sg63
(lp2118
S'1'
asbasbasbasbasbasbasbasbasbasbasbag56
(g72
g58
NtRp2119
(dp2120
g61
(dp2121
sg70
g66
sg63
(lp2122
g56
(g77
g58
NtRp2123
(dp2124
g61
(dp2125
g81
g82
ssg70
g2119
sg63
(lp2126
S'extension'
p2127
asbag56
(g77
g58
NtRp2128
(dp2129
g61
(dp2130
g88
g89
ssg70
g2119
sg63
(lp2131
S':'
asbag56
(g77
g58
NtRp2132
(dp2133
g61
(dp2134
sg70
g2119
sg63
(lp2135
g56
(g57
g58
NtRp2136
(dp2137
g61
(dp2138
g69
I5
ssg70
g2132
sg63
(lp2139
S'html'
p2140
asbasbasbag56
(g72
g58
NtRp2141
(dp2142
g61
(dp2143
sg70
g66
sg63
(lp2144
g56
(g77
g58
NtRp2145
(dp2146
g61
(dp2147
g81
g82
ssg70
g2141
sg63
(lp2148
S'folder'
p2149
asbag56
(g77
g58
NtRp2150
(dp2151
g61
(dp2152
g88
g89
ssg70
g2141
sg63
(lp2153
S':'
asbag56
(g77
g58
NtRp2154
(dp2155
g61
(dp2156
sg70
g2141
sg63
(lp2157
g56
(g57
g58
NtRp2158
(dp2159
g61
(dp2160
g69
I5
ssg70
g2154
sg63
(lp2161
S'D:\\Workbench\\private\\web2py_src\\applications\\examples\\'
p2162
asbasbasbag56
(g72
g58
NtRp2163
(dp2164
g61
(dp2165
sg70
g66
sg63
(lp2166
g56
(g77
g58
NtRp2167
(dp2168
g61
(dp2169
g81
g82
ssg70
g2163
sg63
(lp2170
S'function'
p2171
asbag56
(g77
g58
NtRp2172
(dp2173
g61
(dp2174
g88
g89
ssg70
g2163
sg63
(lp2175
S':'
asbag56
(g77
g58
NtRp2176
(dp2177
g61
(dp2178
sg70
g2163
sg63
(lp2179
g56
(g57
g58
NtRp2180
(dp2181
g61
(dp2182
g69
I5
ssg70
g2176
sg63
(lp2183
S'index'
p2184
asbasbasbag56
(g72
g58
NtRp2185
(dp2186
g61
(dp2187
sg70
g66
sg63
(lp2188
g56
(g77
g58
NtRp2189
(dp2190
g61
(dp2191
g81
g82
ssg70
g2185
sg63
(lp2192
S'get_vars'
p2193
asbag56
(g77
g58
NtRp2194
(dp2195
g61
(dp2196
g88
g89
ssg70
g2185
sg63
(lp2197
S':'
asbag56
(g77
g58
NtRp2198
(dp2199
g61
(dp2200
sg70
g2185
sg63
(lp2201
g56
(g57
g58
NtRp2202
(dp2203
g61
(dp2204
g69
I5
ssg70
g2198
sg63
(lp2205
g56
(g65
g58
NtRp2206
(dp2207
g61
(dp2208
g69
I4
ssg70
Nsg63
(lp2209
sbasbasbasbag56
(g72
g58
NtRp2210
(dp2211
g61
(dp2212
sg70
g66
sg63
(lp2213
g56
(g77
g58
NtRp2214
(dp2215
g61
(dp2216
g81
g82
ssg70
g2210
sg63
(lp2217
S'global_settings'
p2218
asbag56
(g77
g58
NtRp2219
(dp2220
g61
(dp2221
g88
g89
ssg70
g2210
sg63
(lp2222
S':'
asbag56
(g77
g58
NtRp2223
(dp2224
g61
(dp2225
sg70
g2210
sg63
(lp2226
g56
(g57
g58
NtRp2227
(dp2228
g61
(dp2229
g69
I5
ssg70
g2223
sg63
(lp2230
g56
(g65
g58
NtRp2231
(dp2232
g61
(dp2233
g69
I4
ssg70
Nsg63
(lp2234
g56
(g72
g58
NtRp2235
(dp2236
g61
(dp2237
sg70
g2231
sg63
(lp2238
g56
(g77
g58
NtRp2239
(dp2240
g61
(dp2241
g81
g82
ssg70
g2235
sg63
(lp2242
g833
asbag56
(g77
g58
NtRp2243
(dp2244
g61
(dp2245
g88
g89
ssg70
g2235
sg63
(lp2246
S':'
asbag56
(g77
g58
NtRp2247
(dp2248
g61
(dp2249
sg70
g2235
sg63
(lp2250
g56
(g57
g58
NtRp2251
(dp2252
g61
(dp2253
g69
I4
ssg70
g2247
sg63
(lp2254
S"set(['D:\\\\Workbench\\\\private\\\\web2py_src\\\\applications\\\\welcome\\\\', 'D:\\\\Workbench\\\\private\\\\web2py_src\\\\applications\\\\examples\\\\', 'D:\\\\Workbench\\\\private\\\\web2py_src\\\\applications\\\\admin\\\\'])"
p2255
asbasbasbag56
(g72
g58
NtRp2256
(dp2257
g61
(dp2258
sg70
g2231
sg63
(lp2259
g56
(g77
g58
NtRp2260
(dp2261
g61
(dp2262
g81
g82
ssg70
g2256
sg63
(lp2263
g855
asbag56
(g77
g58
NtRp2264
(dp2265
g61
(dp2266
g88
g89
ssg70
g2256
sg63
(lp2267
S':'
asbag56
(g77
g58
NtRp2268
(dp2269
g61
(dp2270
sg70
g2256
sg63
(lp2271
g56
(g57
g58
NtRp2272
(dp2273
g61
(dp2274
g69
I4
ssg70
g2268
sg63
(lp2275
g868
asbasbasbag56
(g72
g58
NtRp2276
(dp2277
g61
(dp2278
sg70
g2231
sg63
(lp2279
g56
(g77
g58
NtRp2280
(dp2281
g61
(dp2282
g81
g82
ssg70
g2276
sg63
(lp2283
g899
asbag56
(g77
g58
NtRp2284
(dp2285
g61
(dp2286
g88
g89
ssg70
g2276
sg63
(lp2287
S':'
asbag56
(g77
g58
NtRp2288
(dp2289
g61
(dp2290
sg70
g2276
sg63
(lp2291
g56
(g57
g58
NtRp2292
(dp2293
g61
(dp2294
g69
I4
ssg70
g2288
sg63
(lp2295
S'set([])'
p2296
asbasbasbag56
(g72
g58
NtRp2297
(dp2298
g61
(dp2299
sg70
g2231
sg63
(lp2300
g56
(g77
g58
NtRp2301
(dp2302
g61
(dp2303
g81
g82
ssg70
g2297
sg63
(lp2304
g921
asbag56
(g77
g58
NtRp2305
(dp2306
g61
(dp2307
g88
g89
ssg70
g2297
sg63
(lp2308
S':'
asbag56
(g77
g58
NtRp2309
(dp2310
g61
(dp2311
sg70
g2297
sg63
(lp2312
g56
(g57
g58
NtRp2313
(dp2314
g61
(dp2315
g69
I4
ssg70
g2309
sg63
(lp2316
g99
asbasbasbag56
(g72
g58
NtRp2317
(dp2318
g61
(dp2319
sg70
g2231
sg63
(lp2320
g56
(g77
g58
NtRp2321
(dp2322
g61
(dp2323
g81
g82
ssg70
g2317
sg63
(lp2324
g986
asbag56
(g77
g58
NtRp2325
(dp2326
g61
(dp2327
g88
g89
ssg70
g2317
sg63
(lp2328
S':'
asbag56
(g77
g58
NtRp2329
(dp2330
g61
(dp2331
sg70
g2317
sg63
(lp2332
g56
(g57
g58
NtRp2333
(dp2334
g61
(dp2335
g69
I4
ssg70
g2329
sg63
(lp2336
g868
asbasbasbag56
(g72
g58
NtRp2337
(dp2338
g61
(dp2339
sg70
g2231
sg63
(lp2340
g56
(g77
g58
NtRp2341
(dp2342
g61
(dp2343
g81
g82
ssg70
g2337
sg63
(lp2344
g1183
asbag56
(g77
g58
NtRp2345
(dp2346
g61
(dp2347
g88
g89
ssg70
g2337
sg63
(lp2348
S':'
asbag56
(g77
g58
NtRp2349
(dp2350
g61
(dp2351
sg70
g2337
sg63
(lp2352
g56
(g57
g58
NtRp2353
(dp2354
g61
(dp2355
g69
I4
ssg70
g2349
sg63
(lp2356
g99
asbasbasbag56
(g72
g58
NtRp2357
(dp2358
g61
(dp2359
sg70
g2231
sg63
(lp2360
g56
(g77
g58
NtRp2361
(dp2362
g61
(dp2363
g81
g82
ssg70
g2357
sg63
(lp2364
g1816
asbag56
(g77
g58
NtRp2365
(dp2366
g61
(dp2367
g88
g89
ssg70
g2357
sg63
(lp2368
S':'
asbag56
(g77
g58
NtRp2369
(dp2370
g61
(dp2371
sg70
g2357
sg63
(lp2372
g56
(g57
g58
NtRp2373
(dp2374
g61
(dp2375
g69
I4
ssg70
g2369
sg63
(lp2376
g56
(g65
g58
NtRp2377
(dp2378
g61
(dp2379
g69
I3
ssg70
Nsg63
(lp2380
g56
(g72
g58
NtRp2381
(dp2382
g61
(dp2383
sg70
g2377
sg63
(lp2384
g56
(g77
g58
NtRp2385
(dp2386
g61
(dp2387
sg70
g2381
sg63
(lp2388
g56
(g57
g58
NtRp2389
(dp2390
g61
(dp2391
g69
I3
ssg70
g2385
sg63
(lp2392
S'1'
asbasbasbag56
(g72
g58
NtRp2393
(dp2394
g61
(dp2395
sg70
g2377
sg63
(lp2396
g56
(g77
g58
NtRp2397
(dp2398
g61
(dp2399
sg70
g2393
sg63
(lp2400
g56
(g57
g58
NtRp2401
(dp2402
g61
(dp2403
g69
I3
ssg70
g2397
sg63
(lp2404
S'99'
p2405
asbasbasbag56
(g72
g58
NtRp2406
(dp2407
g61
(dp2408
sg70
g2377
sg63
(lp2409
g56
(g77
g58
NtRp2410
(dp2411
g61
(dp2412
sg70
g2406
sg63
(lp2413
g56
(g57
g58
NtRp2414
(dp2415
g61
(dp2416
g69
I3
ssg70
g2410
sg63
(lp2417
S'2'
asbasbasbag56
(g72
g58
NtRp2418
(dp2419
g61
(dp2420
sg70
g2377
sg63
(lp2421
g56
(g77
g58
NtRp2422
(dp2423
g61
(dp2424
sg70
g2418
sg63
(lp2425
g56
(g57
g58
NtRp2426
(dp2427
g61
(dp2428
g69
I3
ssg70
g2422
sg63
(lp2429
S'datetime.datetime(2011, 9, 26, 6, 55, 33)'
p2430
asbasbasbag56
(g72
g58
NtRp2431
(dp2432
g61
(dp2433
sg70
g2377
sg63
(lp2434
g56
(g77
g58
NtRp2435
(dp2436
g61
(dp2437
sg70
g2431
sg63
(lp2438
g56
(g57
g58
NtRp2439
(dp2440
g61
(dp2441
g69
I3
ssg70
g2435
sg63
(lp2442
g1895
asbasbasbasbasbasbasbasbasbasbasbag56
(g72
g58
NtRp2443
(dp2444
g61
(dp2445
sg70
g66
sg63
(lp2446
g56
(g77
g58
NtRp2447
(dp2448
g61
(dp2449
g81
g82
ssg70
g2443
sg63
(lp2450
S'is_https'
p2451
asbag56
(g77
g58
NtRp2452
(dp2453
g61
(dp2454
g88
g89
ssg70
g2443
sg63
(lp2455
S':'
asbag56
(g77
g58
NtRp2456
(dp2457
g61
(dp2458
sg70
g2443
sg63
(lp2459
g56
(g57
g58
NtRp2460
(dp2461
g61
(dp2462
g69
I5
ssg70
g2456
sg63
(lp2463
g99
asbasbasbag56
(g72
g58
NtRp2464
(dp2465
g61
(dp2466
sg70
g66
sg63
(lp2467
g56
(g77
g58
NtRp2468
(dp2469
g61
(dp2470
g81
g82
ssg70
g2464
sg63
(lp2471
S'is_local'
p2472
asbag56
(g77
g58
NtRp2473
(dp2474
g61
(dp2475
g88
g89
ssg70
g2464
sg63
(lp2476
S':'
asbag56
(g77
g58
NtRp2477
(dp2478
g61
(dp2479
sg70
g2464
sg63
(lp2480
g56
(g57
g58
NtRp2481
(dp2482
g61
(dp2483
g69
I5
ssg70
g2477
sg63
(lp2484
g2026
asbasbasbag56
(g72
g58
NtRp2485
(dp2486
g61
(dp2487
sg70
g66
sg63
(lp2488
g56
(g77
g58
NtRp2489
(dp2490
g61
(dp2491
g81
g82
ssg70
g2485
sg63
(lp2492
S'is_restful'
p2493
asbag56
(g77
g58
NtRp2494
(dp2495
g61
(dp2496
g88
g89
ssg70
g2485
sg63
(lp2497
S':'
asbag56
(g77
g58
NtRp2498
(dp2499
g61
(dp2500
sg70
g2485
sg63
(lp2501
g56
(g57
g58
NtRp2502
(dp2503
g61
(dp2504
g69
I5
ssg70
g2498
sg63
(lp2505
g99
asbasbasbag56
(g72
g58
NtRp2506
(dp2507
g61
(dp2508
sg70
g66
sg63
(lp2509
g56
(g77
g58
NtRp2510
(dp2511
g61
(dp2512
g81
g82
ssg70
g2506
sg63
(lp2513
S'now'
p2514
asbag56
(g77
g58
NtRp2515
(dp2516
g61
(dp2517
g88
g89
ssg70
g2506
sg63
(lp2518
S':'
asbag56
(g77
g58
NtRp2519
(dp2520
g61
(dp2521
sg70
g2506
sg63
(lp2522
g56
(g57
g58
NtRp2523
(dp2524
g61
(dp2525
g69
I5
ssg70
g2519
sg63
(lp2526
S'datetime.datetime(2012, 3, 7, 22, 40, 9, 84000)'
p2527
asbasbasbag56
(g72
g58
NtRp2528
(dp2529
g61
(dp2530
sg70
g66
sg63
(lp2531
g56
(g77
g58
NtRp2532
(dp2533
g61
(dp2534
g81
g82
ssg70
g2528
sg63
(lp2535
S'post_vars'
p2536
asbag56
(g77
g58
NtRp2537
(dp2538
g61
(dp2539
g88
g89
ssg70
g2528
sg63
(lp2540
S':'
asbag56
(g77
g58
NtRp2541
(dp2542
g61
(dp2543
sg70
g2528
sg63
(lp2544
g56
(g57
g58
NtRp2545
(dp2546
g61
(dp2547
g69
I5
ssg70
g2541
sg63
(lp2548
g56
(g65
g58
NtRp2549
(dp2550
g61
(dp2551
g69
I4
ssg70
Nsg63
(lp2552
sbasbasbasbag56
(g72
g58
NtRp2553
(dp2554
g61
(dp2555
sg70
g66
sg63
(lp2556
g56
(g77
g58
NtRp2557
(dp2558
g61
(dp2559
g81
g82
ssg70
g2553
sg63
(lp2560
S'url'
p2561
asbag56
(g77
g58
NtRp2562
(dp2563
g61
(dp2564
g88
g89
ssg70
g2553
sg63
(lp2565
S':'
asbag56
(g77
g58
NtRp2566
(dp2567
g61
(dp2568
sg70
g2553
sg63
(lp2569
g56
(g57
g58
NtRp2570
(dp2571
g61
(dp2572
g69
I5
ssg70
g2566
sg63
(lp2573
S'/examples/transform/index'
p2574
asbasbasbag56
(g72
g58
NtRp2575
(dp2576
g61
(dp2577
sg70
g66
sg63
(lp2578
g56
(g77
g58
NtRp2579
(dp2580
g61
(dp2581
g81
g82
ssg70
g2575
sg63
(lp2582
S'utcnow'
p2583
asbag56
(g77
g58
NtRp2584
(dp2585
g61
(dp2586
g88
g89
ssg70
g2575
sg63
(lp2587
S':'
asbag56
(g77
g58
NtRp2588
(dp2589
g61
(dp2590
sg70
g2575
sg63
(lp2591
g56
(g57
g58
NtRp2592
(dp2593
g61
(dp2594
g69
I5
ssg70
g2588
sg63
(lp2595
S'datetime.datetime(2012, 3, 7, 14, 40, 9, 84000)'
p2596
asbasbasbag56
(g72
g58
NtRp2597
(dp2598
g61
(dp2599
sg70
g66
sg63
(lp2600
g56
(g77
g58
NtRp2601
(dp2602
g61
(dp2603
g81
g82
ssg70
g2597
sg63
(lp2604
S'uuid'
p2605
asbag56
(g77
g58
NtRp2606
(dp2607
g61
(dp2608
g88
g89
ssg70
g2597
sg63
(lp2609
S':'
asbag56
(g77
g58
NtRp2610
(dp2611
g61
(dp2612
sg70
g2597
sg63
(lp2613
g56
(g57
g58
NtRp2614
(dp2615
g61
(dp2616
g69
I5
ssg70
g2610
sg63
(lp2617
S'examples/127.0.0.1.2012-03-07.22-40-09.8e86c96d-893a-4450-b187-a78164b211f1'
p2618
asbasbasbag56
(g72
g58
NtRp2619
(dp2620
g61
(dp2621
sg70
g66
sg63
(lp2622
g56
(g77
g58
NtRp2623
(dp2624
g61
(dp2625
g81
g82
ssg70
g2619
sg63
(lp2626
S'vars'
p2627
asbag56
(g77
g58
NtRp2628
(dp2629
g61
(dp2630
g88
g89
ssg70
g2619
sg63
(lp2631
S':'
asbag56
(g77
g58
NtRp2632
(dp2633
g61
(dp2634
sg70
g2619
sg63
(lp2635
g56
(g57
g58
NtRp2636
(dp2637
g61
(dp2638
g69
I5
ssg70
g2632
sg63
(lp2639
g56
(g65
g58
NtRp2640
(dp2641
g61
(dp2642
g69
I4
ssg70
Nsg63
(lp2643
sbasbasbasbag56
(g72
g58
NtRp2644
(dp2645
g61
(dp2646
sg70
g66
sg63
(lp2647
g56
(g77
g58
NtRp2648
(dp2649
g61
(dp2650
g81
g82
ssg70
g2644
sg63
(lp2651
S'wsgi'
p2652
asbag56
(g77
g58
NtRp2653
(dp2654
g61
(dp2655
g88
g89
ssg70
g2644
sg63
(lp2656
S':'
asbag56
(g77
g58
NtRp2657
(dp2658
g61
(dp2659
sg70
g2644
sg63
(lp2660
g56
(g57
g58
NtRp2661
(dp2662
g61
(dp2663
g69
I5
ssg70
g2657
sg63
(lp2664
g56
(g65
g58
NtRp2665
(dp2666
g61
(dp2667
g69
I4
ssg70
Nsg63
(lp2668
g56
(g72
g58
NtRp2669
(dp2670
g61
(dp2671
sg70
g2665
sg63
(lp2672
g56
(g77
g58
NtRp2673
(dp2674
g61
(dp2675
g81
g82
ssg70
g2669
sg63
(lp2676
S'environ'
p2677
asbag56
(g77
g58
NtRp2678
(dp2679
g61
(dp2680
g88
g89
ssg70
g2669
sg63
(lp2681
S':'
asbag56
(g77
g58
NtRp2682
(dp2683
g61
(dp2684
sg70
g2669
sg63
(lp2685
g56
(g57
g58
NtRp2686
(dp2687
g61
(dp2688
g69
I4
ssg70
g2682
sg63
(lp2689
g56
(g65
g58
NtRp2690
(dp2691
g61
(dp2692
g69
I3
ssg70
Nsg63
(lp2693
g56
(g72
g58
NtRp2694
(dp2695
g61
(dp2696
sg70
g2690
sg63
(lp2697
g56
(g77
g58
NtRp2698
(dp2699
g61
(dp2700
g81
g82
ssg70
g2694
sg63
(lp2701
S'COMSPEC'
p2702
asbag56
(g77
g58
NtRp2703
(dp2704
g61
(dp2705
g88
g89
ssg70
g2694
sg63
(lp2706
S':'
asbag56
(g77
g58
NtRp2707
(dp2708
g61
(dp2709
sg70
g2694
sg63
(lp2710
g56
(g57
g58
NtRp2711
(dp2712
g61
(dp2713
g69
I3
ssg70
g2707
sg63
(lp2714
g890
asbasbasbag56
(g72
g58
NtRp2715
(dp2716
g61
(dp2717
sg70
g2690
sg63
(lp2718
g56
(g77
g58
NtRp2719
(dp2720
g61
(dp2721
g81
g82
ssg70
g2715
sg63
(lp2722
S'DOCUMENT_ROOT'
p2723
asbag56
(g77
g58
NtRp2724
(dp2725
g61
(dp2726
g88
g89
ssg70
g2715
sg63
(lp2727
S':'
asbag56
(g77
g58
NtRp2728
(dp2729
g61
(dp2730
sg70
g2715
sg63
(lp2731
g56
(g57
g58
NtRp2732
(dp2733
g61
(dp2734
g69
I3
ssg70
g2728
sg63
(lp2735
g955
asbasbasbag56
(g72
g58
NtRp2736
(dp2737
g61
(dp2738
sg70
g2690
sg63
(lp2739
g56
(g77
g58
NtRp2740
(dp2741
g61
(dp2742
g81
g82
ssg70
g2736
sg63
(lp2743
S'GATEWAY_INTERFACE'
p2744
asbag56
(g77
g58
NtRp2745
(dp2746
g61
(dp2747
g88
g89
ssg70
g2736
sg63
(lp2748
S':'
asbag56
(g77
g58
NtRp2749
(dp2750
g61
(dp2751
sg70
g2736
sg63
(lp2752
g56
(g57
g58
NtRp2753
(dp2754
g61
(dp2755
g69
I3
ssg70
g2749
sg63
(lp2756
g977
asbasbasbag56
(g72
g58
NtRp2757
(dp2758
g61
(dp2759
sg70
g2690
sg63
(lp2760
g56
(g77
g58
NtRp2761
(dp2762
g61
(dp2763
g81
g82
ssg70
g2757
sg63
(lp2764
S'HTTP_ACCEPT'
p2765
asbag56
(g77
g58
NtRp2766
(dp2767
g61
(dp2768
g88
g89
ssg70
g2757
sg63
(lp2769
S':'
asbag56
(g77
g58
NtRp2770
(dp2771
g61
(dp2772
sg70
g2757
sg63
(lp2773
g56
(g57
g58
NtRp2774
(dp2775
g61
(dp2776
g69
I3
ssg70
g2770
sg63
(lp2777
g1020
asbasbasbag56
(g72
g58
NtRp2778
(dp2779
g61
(dp2780
sg70
g2690
sg63
(lp2781
g56
(g77
g58
NtRp2782
(dp2783
g61
(dp2784
g81
g82
ssg70
g2778
sg63
(lp2785
S'HTTP_ACCEPT_CHARSET'
p2786
asbag56
(g77
g58
NtRp2787
(dp2788
g61
(dp2789
g88
g89
ssg70
g2778
sg63
(lp2790
S':'
asbag56
(g77
g58
NtRp2791
(dp2792
g61
(dp2793
sg70
g2778
sg63
(lp2794
g56
(g57
g58
NtRp2795
(dp2796
g61
(dp2797
g69
I3
ssg70
g2791
sg63
(lp2798
g1042
asbasbasbag56
(g72
g58
NtRp2799
(dp2800
g61
(dp2801
sg70
g2690
sg63
(lp2802
g56
(g77
g58
NtRp2803
(dp2804
g61
(dp2805
g81
g82
ssg70
g2799
sg63
(lp2806
S'HTTP_ACCEPT_ENCODING'
p2807
asbag56
(g77
g58
NtRp2808
(dp2809
g61
(dp2810
g88
g89
ssg70
g2799
sg63
(lp2811
S':'
asbag56
(g77
g58
NtRp2812
(dp2813
g61
(dp2814
sg70
g2799
sg63
(lp2815
g56
(g57
g58
NtRp2816
(dp2817
g61
(dp2818
g69
I3
ssg70
g2812
sg63
(lp2819
g1064
asbasbasbag56
(g72
g58
NtRp2820
(dp2821
g61
(dp2822
sg70
g2690
sg63
(lp2823
g56
(g77
g58
NtRp2824
(dp2825
g61
(dp2826
g81
g82
ssg70
g2820
sg63
(lp2827
S'HTTP_ACCEPT_LANGUAGE'
p2828
asbag56
(g77
g58
NtRp2829
(dp2830
g61
(dp2831
g88
g89
ssg70
g2820
sg63
(lp2832
S':'
asbag56
(g77
g58
NtRp2833
(dp2834
g61
(dp2835
sg70
g2820
sg63
(lp2836
g56
(g57
g58
NtRp2837
(dp2838
g61
(dp2839
g69
I3
ssg70
g2833
sg63
(lp2840
g1086
asbasbasbag56
(g72
g58
NtRp2841
(dp2842
g61
(dp2843
sg70
g2690
sg63
(lp2844
g56
(g77
g58
NtRp2845
(dp2846
g61
(dp2847
g81
g82
ssg70
g2841
sg63
(lp2848
S'HTTP_CONNECTION'
p2849
asbag56
(g77
g58
NtRp2850
(dp2851
g61
(dp2852
g88
g89
ssg70
g2841
sg63
(lp2853
S':'
asbag56
(g77
g58
NtRp2854
(dp2855
g61
(dp2856
sg70
g2841
sg63
(lp2857
g56
(g57
g58
NtRp2858
(dp2859
g61
(dp2860
g69
I3
ssg70
g2854
sg63
(lp2861
g1108
asbasbasbag56
(g72
g58
NtRp2862
(dp2863
g61
(dp2864
sg70
g2690
sg63
(lp2865
g56
(g77
g58
NtRp2866
(dp2867
g61
(dp2868
g81
g82
ssg70
g2862
sg63
(lp2869
S'HTTP_COOKIE'
p2870
asbag56
(g77
g58
NtRp2871
(dp2872
g61
(dp2873
g88
g89
ssg70
g2862
sg63
(lp2874
S':'
asbag56
(g77
g58
NtRp2875
(dp2876
g61
(dp2877
sg70
g2862
sg63
(lp2878
g56
(g57
g58
NtRp2879
(dp2880
g61
(dp2881
g69
I3
ssg70
g2875
sg63
(lp2882
g1130
asbasbasbag56
(g72
g58
NtRp2883
(dp2884
g61
(dp2885
sg70
g2690
sg63
(lp2886
g56
(g77
g58
NtRp2887
(dp2888
g61
(dp2889
g81
g82
ssg70
g2883
sg63
(lp2890
S'HTTP_HOST'
p2891
asbag56
(g77
g58
NtRp2892
(dp2893
g61
(dp2894
g88
g89
ssg70
g2883
sg63
(lp2895
S':'
asbag56
(g77
g58
NtRp2896
(dp2897
g61
(dp2898
sg70
g2883
sg63
(lp2899
g56
(g57
g58
NtRp2900
(dp2901
g61
(dp2902
g69
I3
ssg70
g2896
sg63
(lp2903
g1152
asbasbasbag56
(g72
g58
NtRp2904
(dp2905
g61
(dp2906
sg70
g2690
sg63
(lp2907
g56
(g77
g58
NtRp2908
(dp2909
g61
(dp2910
g81
g82
ssg70
g2904
sg63
(lp2911
S'HTTP_USER_AGENT'
p2912
asbag56
(g77
g58
NtRp2913
(dp2914
g61
(dp2915
g88
g89
ssg70
g2904
sg63
(lp2916
S':'
asbag56
(g77
g58
NtRp2917
(dp2918
g61
(dp2919
sg70
g2904
sg63
(lp2920
g56
(g57
g58
NtRp2921
(dp2922
g61
(dp2923
g69
I3
ssg70
g2917
sg63
(lp2924
g1174
asbasbasbag56
(g72
g58
NtRp2925
(dp2926
g61
(dp2927
sg70
g2690
sg63
(lp2928
g56
(g77
g58
NtRp2929
(dp2930
g61
(dp2931
g81
g82
ssg70
g2925
sg63
(lp2932
S'PATHEXT'
p2933
asbag56
(g77
g58
NtRp2934
(dp2935
g61
(dp2936
g88
g89
ssg70
g2925
sg63
(lp2937
S':'
asbag56
(g77
g58
NtRp2938
(dp2939
g61
(dp2940
sg70
g2925
sg63
(lp2941
g56
(g57
g58
NtRp2942
(dp2943
g61
(dp2944
g69
I3
ssg70
g2938
sg63
(lp2945
g1460
asbasbasbag56
(g72
g58
NtRp2946
(dp2947
g61
(dp2948
sg70
g2690
sg63
(lp2949
g56
(g77
g58
NtRp2950
(dp2951
g61
(dp2952
g81
g82
ssg70
g2946
sg63
(lp2953
S'PATH_INFO'
p2954
asbag56
(g77
g58
NtRp2955
(dp2956
g61
(dp2957
g88
g89
ssg70
g2946
sg63
(lp2958
S':'
asbag56
(g77
g58
NtRp2959
(dp2960
g61
(dp2961
sg70
g2946
sg63
(lp2962
g56
(g57
g58
NtRp2963
(dp2964
g61
(dp2965
g69
I3
ssg70
g2959
sg63
(lp2966
g1416
asbasbasbag56
(g72
g58
NtRp2967
(dp2968
g61
(dp2969
sg70
g2690
sg63
(lp2970
g56
(g77
g58
NtRp2971
(dp2972
g61
(dp2973
g81
g82
ssg70
g2967
sg63
(lp2974
S'PATH_TRANSLATED'
p2975
asbag56
(g77
g58
NtRp2976
(dp2977
g61
(dp2978
g88
g89
ssg70
g2967
sg63
(lp2979
S':'
asbag56
(g77
g58
NtRp2980
(dp2981
g61
(dp2982
sg70
g2967
sg63
(lp2983
g56
(g57
g58
NtRp2984
(dp2985
g61
(dp2986
g69
I3
ssg70
g2980
sg63
(lp2987
g1438
asbasbasbag56
(g72
g58
NtRp2988
(dp2989
g61
(dp2990
sg70
g2690
sg63
(lp2991
g56
(g77
g58
NtRp2992
(dp2993
g61
(dp2994
g81
g82
ssg70
g2988
sg63
(lp2995
S'QUERY_STRING'
p2996
asbag56
(g77
g58
NtRp2997
(dp2998
g61
(dp2999
g88
g89
ssg70
g2988
sg63
(lp3000
S':'
asbag56
(g77
g58
NtRp3001
(dp3002
g61
(dp3003
sg70
g2988
sg63
(lp3004
g56
(g57
g58
NtRp3005
(dp3006
g61
(dp3007
g69
I3
ssg70
g3001
sg63
(lp3008
S''
asbasbasbag56
(g72
g58
NtRp3009
(dp3010
g61
(dp3011
sg70
g2690
sg63
(lp3012
g56
(g77
g58
NtRp3013
(dp3014
g61
(dp3015
g81
g82
ssg70
g3009
sg63
(lp3016
S'REMOTE_ADDR'
p3017
asbag56
(g77
g58
NtRp3018
(dp3019
g61
(dp3020
g88
g89
ssg70
g3009
sg63
(lp3021
S':'
asbag56
(g77
g58
NtRp3022
(dp3023
g61
(dp3024
sg70
g3009
sg63
(lp3025
g56
(g57
g58
NtRp3026
(dp3027
g61
(dp3028
g69
I3
ssg70
g3022
sg63
(lp3029
g189
asbasbasbag56
(g72
g58
NtRp3030
(dp3031
g61
(dp3032
sg70
g2690
sg63
(lp3033
g56
(g77
g58
NtRp3034
(dp3035
g61
(dp3036
g81
g82
ssg70
g3030
sg63
(lp3037
S'REMOTE_PORT'
p3038
asbag56
(g77
g58
NtRp3039
(dp3040
g61
(dp3041
g88
g89
ssg70
g3030
sg63
(lp3042
S':'
asbag56
(g77
g58
NtRp3043
(dp3044
g61
(dp3045
sg70
g3030
sg63
(lp3046
g56
(g57
g58
NtRp3047
(dp3048
g61
(dp3049
g69
I3
ssg70
g3043
sg63
(lp3050
g1524
asbasbasbag56
(g72
g58
NtRp3051
(dp3052
g61
(dp3053
sg70
g2690
sg63
(lp3054
g56
(g77
g58
NtRp3055
(dp3056
g61
(dp3057
g81
g82
ssg70
g3051
sg63
(lp3058
S'REQUEST_METHOD'
p3059
asbag56
(g77
g58
NtRp3060
(dp3061
g61
(dp3062
g88
g89
ssg70
g3051
sg63
(lp3063
S':'
asbag56
(g77
g58
NtRp3064
(dp3065
g61
(dp3066
sg70
g3051
sg63
(lp3067
g56
(g57
g58
NtRp3068
(dp3069
g61
(dp3070
g69
I3
ssg70
g3064
sg63
(lp3071
g1546
asbasbasbag56
(g72
g58
NtRp3072
(dp3073
g61
(dp3074
sg70
g2690
sg63
(lp3075
g56
(g77
g58
NtRp3076
(dp3077
g61
(dp3078
g81
g82
ssg70
g3072
sg63
(lp3079
S'REQUEST_URI'
p3080
asbag56
(g77
g58
NtRp3081
(dp3082
g61
(dp3083
g88
g89
ssg70
g3072
sg63
(lp3084
S':'
asbag56
(g77
g58
NtRp3085
(dp3086
g61
(dp3087
sg70
g3072
sg63
(lp3088
g56
(g57
g58
NtRp3089
(dp3090
g61
(dp3091
g69
I3
ssg70
g3085
sg63
(lp3092
g1568
asbasbasbag56
(g72
g58
NtRp3093
(dp3094
g61
(dp3095
sg70
g2690
sg63
(lp3096
g56
(g77
g58
NtRp3097
(dp3098
g61
(dp3099
g81
g82
ssg70
g3093
sg63
(lp3100
S'SCRIPT_FILENAME'
p3101
asbag56
(g77
g58
NtRp3102
(dp3103
g61
(dp3104
g88
g89
ssg70
g3093
sg63
(lp3105
S':'
asbag56
(g77
g58
NtRp3106
(dp3107
g61
(dp3108
sg70
g3093
sg63
(lp3109
g56
(g57
g58
NtRp3110
(dp3111
g61
(dp3112
g69
I3
ssg70
g3106
sg63
(lp3113
g1590
asbasbasbag56
(g72
g58
NtRp3114
(dp3115
g61
(dp3116
sg70
g2690
sg63
(lp3117
g56
(g77
g58
NtRp3118
(dp3119
g61
(dp3120
g81
g82
ssg70
g3114
sg63
(lp3121
S'SCRIPT_NAME'
p3122
asbag56
(g77
g58
NtRp3123
(dp3124
g61
(dp3125
g88
g89
ssg70
g3114
sg63
(lp3126
S':'
asbag56
(g77
g58
NtRp3127
(dp3128
g61
(dp3129
sg70
g3114
sg63
(lp3130
g56
(g57
g58
NtRp3131
(dp3132
g61
(dp3133
g69
I3
ssg70
g3127
sg63
(lp3134
S''
asbasbasbag56
(g72
g58
NtRp3135
(dp3136
g61
(dp3137
sg70
g2690
sg63
(lp3138
g56
(g77
g58
NtRp3139
(dp3140
g61
(dp3141
g81
g82
ssg70
g3135
sg63
(lp3142
S'SERVER_ADDR'
p3143
asbag56
(g77
g58
NtRp3144
(dp3145
g61
(dp3146
g88
g89
ssg70
g3135
sg63
(lp3147
S':'
asbag56
(g77
g58
NtRp3148
(dp3149
g61
(dp3150
sg70
g3135
sg63
(lp3151
g56
(g57
g58
NtRp3152
(dp3153
g61
(dp3154
g69
I3
ssg70
g3148
sg63
(lp3155
g1633
asbasbasbag56
(g72
g58
NtRp3156
(dp3157
g61
(dp3158
sg70
g2690
sg63
(lp3159
g56
(g77
g58
NtRp3160
(dp3161
g61
(dp3162
g81
g82
ssg70
g3156
sg63
(lp3163
S'SERVER_ADMIN'
p3164
asbag56
(g77
g58
NtRp3165
(dp3166
g61
(dp3167
g88
g89
ssg70
g3156
sg63
(lp3168
S':'
asbag56
(g77
g58
NtRp3169
(dp3170
g61
(dp3171
sg70
g3156
sg63
(lp3172
g56
(g57
g58
NtRp3173
(dp3174
g61
(dp3175
g69
I3
ssg70
g3169
sg63
(lp3176
g1655
asbasbasbag56
(g72
g58
NtRp3177
(dp3178
g61
(dp3179
sg70
g2690
sg63
(lp3180
g56
(g77
g58
NtRp3181
(dp3182
g61
(dp3183
g81
g82
ssg70
g3177
sg63
(lp3184
S'SERVER_NAME'
p3185
asbag56
(g77
g58
NtRp3186
(dp3187
g61
(dp3188
g88
g89
ssg70
g3177
sg63
(lp3189
S':'
asbag56
(g77
g58
NtRp3190
(dp3191
g61
(dp3192
sg70
g3177
sg63
(lp3193
g56
(g57
g58
NtRp3194
(dp3195
g61
(dp3196
g69
I3
ssg70
g3190
sg63
(lp3197
g1677
asbasbasbag56
(g72
g58
NtRp3198
(dp3199
g61
(dp3200
sg70
g2690
sg63
(lp3201
g56
(g77
g58
NtRp3202
(dp3203
g61
(dp3204
g81
g82
ssg70
g3198
sg63
(lp3205
S'SERVER_PORT'
p3206
asbag56
(g77
g58
NtRp3207
(dp3208
g61
(dp3209
g88
g89
ssg70
g3198
sg63
(lp3210
S':'
asbag56
(g77
g58
NtRp3211
(dp3212
g61
(dp3213
sg70
g3198
sg63
(lp3214
g56
(g57
g58
NtRp3215
(dp3216
g61
(dp3217
g69
I3
ssg70
g3211
sg63
(lp3218
g1699
asbasbasbag56
(g72
g58
NtRp3219
(dp3220
g61
(dp3221
sg70
g2690
sg63
(lp3222
g56
(g77
g58
NtRp3223
(dp3224
g61
(dp3225
g81
g82
ssg70
g3219
sg63
(lp3226
S'SERVER_PROTOCOL'
p3227
asbag56
(g77
g58
NtRp3228
(dp3229
g61
(dp3230
g88
g89
ssg70
g3219
sg63
(lp3231
S':'
asbag56
(g77
g58
NtRp3232
(dp3233
g61
(dp3234
sg70
g3219
sg63
(lp3235
g56
(g57
g58
NtRp3236
(dp3237
g61
(dp3238
g69
I3
ssg70
g3232
sg63
(lp3239
g1721
asbasbasbag56
(g72
g58
NtRp3240
(dp3241
g61
(dp3242
sg70
g2690
sg63
(lp3243
g56
(g77
g58
NtRp3244
(dp3245
g61
(dp3246
g81
g82
ssg70
g3240
sg63
(lp3247
S'SERVER_SIGNATURE'
p3248
asbag56
(g77
g58
NtRp3249
(dp3250
g61
(dp3251
g88
g89
ssg70
g3240
sg63
(lp3252
S':'
asbag56
(g77
g58
NtRp3253
(dp3254
g61
(dp3255
sg70
g3240
sg63
(lp3256
g56
(g57
g58
NtRp3257
(dp3258
g61
(dp3259
g69
I3
ssg70
g3253
sg63
(lp3260
S''
asbasbasbag56
(g72
g58
NtRp3261
(dp3262
g61
(dp3263
sg70
g2690
sg63
(lp3264
g56
(g77
g58
NtRp3265
(dp3266
g61
(dp3267
g81
g82
ssg70
g3261
sg63
(lp3268
S'SERVER_SOFTWARE'
p3269
asbag56
(g77
g58
NtRp3270
(dp3271
g61
(dp3272
g88
g89
ssg70
g3261
sg63
(lp3273
S':'
asbag56
(g77
g58
NtRp3274
(dp3275
g61
(dp3276
sg70
g3261
sg63
(lp3277
g56
(g57
g58
NtRp3278
(dp3279
g61
(dp3280
g69
I3
ssg70
g3274
sg63
(lp3281
g1764
asbasbasbag56
(g72
g58
NtRp3282
(dp3283
g61
(dp3284
sg70
g2690
sg63
(lp3285
g56
(g77
g58
NtRp3286
(dp3287
g61
(dp3288
g81
g82
ssg70
g3282
sg63
(lp3289
S'SystemRoot'
p3290
asbag56
(g77
g58
NtRp3291
(dp3292
g61
(dp3293
g88
g89
ssg70
g3282
sg63
(lp3294
S':'
asbag56
(g77
g58
NtRp3295
(dp3296
g61
(dp3297
sg70
g3282
sg63
(lp3298
g56
(g57
g58
NtRp3299
(dp3300
g61
(dp3301
g69
I3
ssg70
g3295
sg63
(lp3302
g1786
asbasbasbag56
(g72
g58
NtRp3303
(dp3304
g61
(dp3305
sg70
g2690
sg63
(lp3306
g56
(g77
g58
NtRp3307
(dp3308
g61
(dp3309
g81
g82
ssg70
g3303
sg63
(lp3310
S'WINDIR'
p3311
asbag56
(g77
g58
NtRp3312
(dp3313
g61
(dp3314
g88
g89
ssg70
g3303
sg63
(lp3315
S':'
asbag56
(g77
g58
NtRp3316
(dp3317
g61
(dp3318
sg70
g3303
sg63
(lp3319
g56
(g57
g58
NtRp3320
(dp3321
g61
(dp3322
g69
I3
ssg70
g3316
sg63
(lp3323
g1917
asbasbasbag56
(g72
g58
NtRp3324
(dp3325
g61
(dp3326
sg70
g2690
sg63
(lp3327
g56
(g77
g58
NtRp3328
(dp3329
g61
(dp3330
g81
g82
ssg70
g3324
sg63
(lp3331
S'mod_wsgi.application_group'
p3332
asbag56
(g77
g58
NtRp3333
(dp3334
g61
(dp3335
g88
g89
ssg70
g3324
sg63
(lp3336
S':'
asbag56
(g77
g58
NtRp3337
(dp3338
g61
(dp3339
sg70
g3324
sg63
(lp3340
g56
(g57
g58
NtRp3341
(dp3342
g61
(dp3343
g69
I3
ssg70
g3337
sg63
(lp3344
g1217
asbasbasbag56
(g72
g58
NtRp3345
(dp3346
g61
(dp3347
sg70
g2690
sg63
(lp3348
g56
(g77
g58
NtRp3349
(dp3350
g61
(dp3351
g81
g82
ssg70
g3345
sg63
(lp3352
S'mod_wsgi.callable_object'
p3353
asbag56
(g77
g58
NtRp3354
(dp3355
g61
(dp3356
g88
g89
ssg70
g3345
sg63
(lp3357
S':'
asbag56
(g77
g58
NtRp3358
(dp3359
g61
(dp3360
sg70
g3345
sg63
(lp3361
g56
(g57
g58
NtRp3362
(dp3363
g61
(dp3364
g69
I3
ssg70
g3358
sg63
(lp3365
g1239
asbasbasbag56
(g72
g58
NtRp3366
(dp3367
g61
(dp3368
sg70
g2690
sg63
(lp3369
g56
(g77
g58
NtRp3370
(dp3371
g61
(dp3372
g81
g82
ssg70
g3366
sg63
(lp3373
S'mod_wsgi.handler_script'
p3374
asbag56
(g77
g58
NtRp3375
(dp3376
g61
(dp3377
g88
g89
ssg70
g3366
sg63
(lp3378
S':'
asbag56
(g77
g58
NtRp3379
(dp3380
g61
(dp3381
sg70
g3366
sg63
(lp3382
g56
(g57
g58
NtRp3383
(dp3384
g61
(dp3385
g69
I3
ssg70
g3379
sg63
(lp3386
S''
asbasbasbag56
(g72
g58
NtRp3387
(dp3388
g61
(dp3389
sg70
g2690
sg63
(lp3390
g56
(g77
g58
NtRp3391
(dp3392
g61
(dp3393
g81
g82
ssg70
g3387
sg63
(lp3394
S'mod_wsgi.input_chunked'
p3395
asbag56
(g77
g58
NtRp3396
(dp3397
g61
(dp3398
g88
g89
ssg70
g3387
sg63
(lp3399
S':'
asbag56
(g77
g58
NtRp3400
(dp3401
g61
(dp3402
sg70
g3387
sg63
(lp3403
g56
(g57
g58
NtRp3404
(dp3405
g61
(dp3406
g69
I3
ssg70
g3400
sg63
(lp3407
S'0'
asbasbasbag56
(g72
g58
NtRp3408
(dp3409
g61
(dp3410
sg70
g2690
sg63
(lp3411
g56
(g77
g58
NtRp3412
(dp3413
g61
(dp3414
g81
g82
ssg70
g3408
sg63
(lp3415
S'mod_wsgi.process_group'
p3416
asbag56
(g77
g58
NtRp3417
(dp3418
g61
(dp3419
g88
g89
ssg70
g3408
sg63
(lp3420
S':'
asbag56
(g77
g58
NtRp3421
(dp3422
g61
(dp3423
sg70
g3408
sg63
(lp3424
g56
(g57
g58
NtRp3425
(dp3426
g61
(dp3427
g69
I3
ssg70
g3421
sg63
(lp3428
S''
asbasbasbag56
(g72
g58
NtRp3429
(dp3430
g61
(dp3431
sg70
g2690
sg63
(lp3432
g56
(g77
g58
NtRp3433
(dp3434
g61
(dp3435
g81
g82
ssg70
g3429
sg63
(lp3436
S'mod_wsgi.request_handler'
p3437
asbag56
(g77
g58
NtRp3438
(dp3439
g61
(dp3440
g88
g89
ssg70
g3429
sg63
(lp3441
S':'
asbag56
(g77
g58
NtRp3442
(dp3443
g61
(dp3444
sg70
g3429
sg63
(lp3445
g56
(g57
g58
NtRp3446
(dp3447
g61
(dp3448
g69
I3
ssg70
g3442
sg63
(lp3449
g1324
asbasbasbag56
(g72
g58
NtRp3450
(dp3451
g61
(dp3452
sg70
g2690
sg63
(lp3453
g56
(g77
g58
NtRp3454
(dp3455
g61
(dp3456
g81
g82
ssg70
g3450
sg63
(lp3457
S'mod_wsgi.script_reloading'
p3458
asbag56
(g77
g58
NtRp3459
(dp3460
g61
(dp3461
g88
g89
ssg70
g3450
sg63
(lp3462
S':'
asbag56
(g77
g58
NtRp3463
(dp3464
g61
(dp3465
sg70
g3450
sg63
(lp3466
g56
(g57
g58
NtRp3467
(dp3468
g61
(dp3469
g69
I3
ssg70
g3463
sg63
(lp3470
S'1'
asbasbasbag56
(g72
g58
NtRp3471
(dp3472
g61
(dp3473
sg70
g2690
sg63
(lp3474
g56
(g77
g58
NtRp3475
(dp3476
g61
(dp3477
g81
g82
ssg70
g3471
sg63
(lp3478
S'mod_wsgi.version'
p3479
asbag56
(g77
g58
NtRp3480
(dp3481
g61
(dp3482
g88
g89
ssg70
g3471
sg63
(lp3483
S':'
asbag56
(g77
g58
NtRp3484
(dp3485
g61
(dp3486
sg70
g3471
sg63
(lp3487
g56
(g57
g58
NtRp3488
(dp3489
g61
(dp3490
g69
I3
ssg70
g3484
sg63
(lp3491
g56
(g65
g58
NtRp3492
(dp3493
g61
(dp3494
g69
I2
ssg70
Nsg63
(lp3495
g56
(g72
g58
NtRp3496
(dp3497
g61
(dp3498
sg70
g3492
sg63
(lp3499
g56
(g77
g58
NtRp3500
(dp3501
g61
(dp3502
sg70
g3496
sg63
(lp3503
g56
(g57
g58
NtRp3504
(dp3505
g61
(dp3506
g69
I2
ssg70
g3500
sg63
(lp3507
S'3'
asbasbasbag56
(g72
g58
NtRp3508
(dp3509
g61
(dp3510
sg70
g3492
sg63
(lp3511
g56
(g77
g58
NtRp3512
(dp3513
g61
(dp3514
sg70
g3508
sg63
(lp3515
g56
(g57
g58
NtRp3516
(dp3517
g61
(dp3518
g69
I2
ssg70
g3512
sg63
(lp3519
S'3'
asbasbasbasbasbasbasbag56
(g72
g58
NtRp3520
(dp3521
g61
(dp3522
sg70
g2690
sg63
(lp3523
g56
(g77
g58
NtRp3524
(dp3525
g61
(dp3526
g81
g82
ssg70
g3520
sg63
(lp3527
S'wsgi.errors'
p3528
asbag56
(g77
g58
NtRp3529
(dp3530
g61
(dp3531
g88
g89
ssg70
g3520
sg63
(lp3532
S':'
asbag56
(g77
g58
NtRp3533
(dp3534
g61
(dp3535
sg70
g3520
sg63
(lp3536
g56
(g57
g58
NtRp3537
(dp3538
g61
(dp3539
g69
I3
ssg70
g3533
sg63
(lp3540
S'<mod_wsgi.Log object at 0x03C3BD90>'
p3541
asbasbasbag56
(g72
g58
NtRp3542
(dp3543
g61
(dp3544
sg70
g2690
sg63
(lp3545
g56
(g77
g58
NtRp3546
(dp3547
g61
(dp3548
g81
g82
ssg70
g3542
sg63
(lp3549
S'wsgi.file_wrapper'
p3550
asbag56
(g77
g58
NtRp3551
(dp3552
g61
(dp3553
g88
g89
ssg70
g3542
sg63
(lp3554
S':'
asbag56
(g77
g58
NtRp3555
(dp3556
g61
(dp3557
sg70
g3542
sg63
(lp3558
g56
(g57
g58
NtRp3559
(dp3560
g61
(dp3561
g69
I3
ssg70
g3555
sg63
(lp3562
S'<built-in method file_wrapper of mod_wsgi.Adapter object at 0x040299F8>'
p3563
asbasbasbag56
(g72
g58
NtRp3564
(dp3565
g61
(dp3566
sg70
g2690
sg63
(lp3567
g56
(g77
g58
NtRp3568
(dp3569
g61
(dp3570
g81
g82
ssg70
g3564
sg63
(lp3571
S'wsgi.input'
p3572
asbag56
(g77
g58
NtRp3573
(dp3574
g61
(dp3575
g88
g89
ssg70
g3564
sg63
(lp3576
S':'
asbag56
(g77
g58
NtRp3577
(dp3578
g61
(dp3579
sg70
g3564
sg63
(lp3580
g56
(g57
g58
NtRp3581
(dp3582
g61
(dp3583
g69
I3
ssg70
g3577
sg63
(lp3584
S'<cStringIO.StringO object at 0x03F65AE0>'
p3585
asbasbasbag56
(g72
g58
NtRp3586
(dp3587
g61
(dp3588
sg70
g2690
sg63
(lp3589
g56
(g77
g58
NtRp3590
(dp3591
g61
(dp3592
g81
g82
ssg70
g3586
sg63
(lp3593
S'wsgi.multiprocess'
p3594
asbag56
(g77
g58
NtRp3595
(dp3596
g61
(dp3597
g88
g89
ssg70
g3586
sg63
(lp3598
S':'
asbag56
(g77
g58
NtRp3599
(dp3600
g61
(dp3601
sg70
g3586
sg63
(lp3602
g56
(g57
g58
NtRp3603
(dp3604
g61
(dp3605
g69
I3
ssg70
g3599
sg63
(lp3606
g99
asbasbasbag56
(g72
g58
NtRp3607
(dp3608
g61
(dp3609
sg70
g2690
sg63
(lp3610
g56
(g77
g58
NtRp3611
(dp3612
g61
(dp3613
g81
g82
ssg70
g3607
sg63
(lp3614
S'wsgi.multithread'
p3615
asbag56
(g77
g58
NtRp3616
(dp3617
g61
(dp3618
g88
g89
ssg70
g3607
sg63
(lp3619
S':'
asbag56
(g77
g58
NtRp3620
(dp3621
g61
(dp3622
sg70
g3607
sg63
(lp3623
g56
(g57
g58
NtRp3624
(dp3625
g61
(dp3626
g69
I3
ssg70
g3620
sg63
(lp3627
g2026
asbasbasbag56
(g72
g58
NtRp3628
(dp3629
g61
(dp3630
sg70
g2690
sg63
(lp3631
g56
(g77
g58
NtRp3632
(dp3633
g61
(dp3634
g81
g82
ssg70
g3628
sg63
(lp3635
S'wsgi.run_once'
p3636
asbag56
(g77
g58
NtRp3637
(dp3638
g61
(dp3639
g88
g89
ssg70
g3628
sg63
(lp3640
S':'
asbag56
(g77
g58
NtRp3641
(dp3642
g61
(dp3643
sg70
g3628
sg63
(lp3644
g56
(g57
g58
NtRp3645
(dp3646
g61
(dp3647
g69
I3
ssg70
g3641
sg63
(lp3648
g99
asbasbasbag56
(g72
g58
NtRp3649
(dp3650
g61
(dp3651
sg70
g2690
sg63
(lp3652
g56
(g77
g58
NtRp3653
(dp3654
g61
(dp3655
g81
g82
ssg70
g3649
sg63
(lp3656
S'wsgi.url_scheme'
p3657
asbag56
(g77
g58
NtRp3658
(dp3659
g61
(dp3660
g88
g89
ssg70
g3649
sg63
(lp3661
S':'
asbag56
(g77
g58
NtRp3662
(dp3663
g61
(dp3664
sg70
g3649
sg63
(lp3665
g56
(g57
g58
NtRp3666
(dp3667
g61
(dp3668
g69
I3
ssg70
g3662
sg63
(lp3669
g2069
asbasbasbag56
(g72
g58
NtRp3670
(dp3671
g61
(dp3672
sg70
g2690
sg63
(lp3673
g56
(g77
g58
NtRp3674
(dp3675
g61
(dp3676
g81
g82
ssg70
g3670
sg63
(lp3677
S'wsgi.version'
p3678
asbag56
(g77
g58
NtRp3679
(dp3680
g61
(dp3681
g88
g89
ssg70
g3670
sg63
(lp3682
S':'
asbag56
(g77
g58
NtRp3683
(dp3684
g61
(dp3685
sg70
g3670
sg63
(lp3686
g56
(g57
g58
NtRp3687
(dp3688
g61
(dp3689
g69
I3
ssg70
g3683
sg63
(lp3690
S'1'
asbasbasbasbasbasbasbasbasbasbasbasbasbsS'frames'
p3691
(lp3692
(dp3693
S'file'
p3694
S'D:\\Workbench\\private\\web2py_src\\gluon\\restricted.py'
p3695
sS'dump'
p3696
(dp3697
S'environment'
p3698
S"{'A': <class 'gluon.html.A'>, 'B': <class 'gluon.html.B'>, 'BEAUTIFY': <class 'gluon.html.BEAUTIFY'>, 'BODY': <class 'gluon.html.BODY'>, 'BR': <class 'gluon.html.BR'>, 'BUTTON': <class 'gluon.html.BUTTON'>, 'CAT': <class 'gluon.html.CAT'>, 'CENTER': <class 'gluon.html.CENTER'>, 'CLEANUP': <class 'gluon.validators.CLEANUP'>, 'CODE': <class 'gluon.html.CODE'>, ...}"
p3699
sS'ccode'
p3700
S'<code object <module> at 04039B18, file "D:\\Work...ons\\examples\\views\\transform/index.html", line 1>'
p3701
ssS'lnum'
p3702
I194
sS'lines'
p3703
(dp3704
I192
S'        else:'
p3705
sI193
S'            ccode = compile2(code,layer)'
p3706
sI194
S'        exec ccode in environment'
p3707
sI195
S'    except HTTP:'
p3708
sI196
S'        raise'
p3709
sI197
S'    except Exception, error:'
p3710
sI198
S'        # XXX Show exception in Wing IDE if running in debugger'
p3711
sI189
S'    try:'
p3712
sI190
S'        if type(code) == types.CodeType:'
p3713
sI191
S'            ccode = code'
p3714
ssS'call'
p3715
S'(code=\'response.write(\\\'<!DOCTYPE html PUBLIC "-//W3C//D...iv>    \\\\n  </body>\\\\n</html>\\\\n  \\\\n\\\', escape=False)\', environment={\'A\': <class \'gluon.html.A\'>, \'B\': <class \'gluon.html.B\'>, \'BEAUTIFY\': <class \'gluon.html.BEAUTIFY\'>, \'BODY\': <class \'gluon.html.BODY\'>, \'BR\': <class \'gluon.html.BR\'>, \'BUTTON\': <class \'gluon.html.BUTTON\'>, \'CAT\': <class \'gluon.html.CAT\'>, \'CENTER\': <class \'gluon.html.CENTER\'>, \'CLEANUP\': <class \'gluon.validators.CLEANUP\'>, \'CODE\': <class \'gluon.html.CODE\'>, ...}, layer=r\'D:\\Workbench\\private\\web2py_src\\applications\\examples\\views\\transform/index.html\')'
p3716
sS'func'
p3717
S'restricted'
p3718
sa(dp3719
g3694
S'D:\\Workbench\\private\\web2py_src\\applications\\examples\\views\\transform\\index.html'
p3720
sg3696
(dp3721
sg3702
I81
sg3703
(dp3722
I72
S"response.write(T('Support'))"
p3723
sI73
S'response.write(\'</em></a> \\n            <a href="\', escape=False)'
p3724
sI74
S"response.write(URL('default','documentation'))"
p3725
sI75
S'response.write(\'"\\n\\t       class="documentation"><em style="display:none;">\', escape=False)'
p3726
sI76
S"response.write(T('Documentation'))"
p3727
sI77
S'response.write(\'</em></a> \\n\\t  </div>\\n\\t</div>\\n      </div>\\n      \\n      <!-- MAIN CONTENT -->\\n      <div class="content">\\t  \\n\\t\\n\\t\', escape=False)'
p3728
sI78
S"response.write('\\n<h1>BEAUTIFY</h1>\\n', escape=False)"
p3729
sI79
S"response.write(FORM(INPUT(_type='submit'),INPUT(_type='file'), _action='', _method='post'))"
p3730
sI80
S"response.write('\\n<h2>Message is</h2>\\n', escape=False)"
p3731
sI81
S'response.write(message)'
p3732
sI82
S"response.write('\\n\\t\\n\\t', escape=False)"
p3733
sI83
S'response.write(\'\\n\\t<div class="contentright">   \\n          <div class="boxBtDownload">\\n\\t    <a href="\', escape=False)'
p3734
sI84
S"response.write(URL('default','download'))"
p3735
sI85
S'response.write(\'"  class="btDownload btDownloadPosicao1">\\n\\t      <div class="boxBtDownloadICO"></div>\\n      \\t      <span id="textBtDownload1">\\n\\t\\t  \', escape=False)'
p3736
sI86
S"response.write(T('Download'))"
p3737
sI87
S'response.write(\'    \\n\\t      </span>\\n\\t      <span id="textBtDownload2">\\n\\t\\t\', escape=False)'
p3738
sI88
S"response.write(T('Latest Stable '))"
p3739
sI89
S'response.write("Version %s.%s.%s " % request.env.web2py_version[:3] + request.env.web2py_version[4])'
p3740
sI90
S'response.write(\'\\n\\t      </span>\\n\\t    </a>\\n\\t  </div>     \\n\\t  \\n          <!-- div class="boxSearch1">\\n\\t       <div class="boxSearch2"></div>\\n          </div ****uncomment to show search input***-->\\n\\t  \\n          <div onclick="window.open(\\\'http://www.web2py.com/book\\\')" class="boxInfoBanner" style="margin-top:35px;"></div> \\n          \\n          <div class="leftlink leftlinkIcoA" style="margin-top:35px;">\\n            <a href="\', escape=False)'
p3741
sI91
S"response.write(URL('default','usergroups'))"
p3742
ssg3715
S'()'
p3743
sg3717
S'<module>'
p3744
sasS'pyver'
p3745
S'Python 2.7.2: C:\\Program Files\\Apache Software Foundation\\Apache2.2\\bin\\httpd.exe'
p3746
sS'session'
p3747
g56
(g57
g58
NtRp3748
(dp3749
g61
(dp3750
sg63
(lp3751
g56
(g65
g58
NtRp3752
(dp3753
g61
(dp3754
g69
I5
ssg70
Nsg63
(lp3755
sbasbsS'etype'
p3756
S"<type 'exceptions.NameError'>"
p3757
sS'date'
p3758
S'Wed Mar 07 22:40:09 2012'
p3759
sS'response'
p3760
g56
(g57
g58
NtRp3761
(dp3762
g61
(dp3763
sg63
(lp3764
g56
(g65
g58
NtRp3765
(dp3766
g61
(dp3767
g69
I5
ssg70
Nsg63
(lp3768
g56
(g72
g58
NtRp3769
(dp3770
g61
(dp3771
sg70
g3765
sg63
(lp3772
g56
(g77
g58
NtRp3773
(dp3774
g61
(dp3775
g81
g82
ssg70
g3769
sg63
(lp3776
g154
asbag56
(g77
g58
NtRp3777
(dp3778
g61
(dp3779
g88
g89
ssg70
g3769
sg63
(lp3780
S':'
asbag56
(g77
g58
NtRp3781
(dp3782
g61
(dp3783
sg70
g3769
sg63
(lp3784
g56
(g57
g58
NtRp3785
(dp3786
g61
(dp3787
g69
I5
ssg70
g3781
sg63
(lp3788
S'<cStringIO.StringO object at 0x040303C0>'
p3789
asbasbasbag56
(g72
g58
NtRp3790
(dp3791
g61
(dp3792
sg70
g3765
sg63
(lp3793
g56
(g77
g58
NtRp3794
(dp3795
g61
(dp3796
g81
g82
ssg70
g3790
sg63
(lp3797
g220
asbag56
(g77
g58
NtRp3798
(dp3799
g61
(dp3800
g88
g89
ssg70
g3790
sg63
(lp3801
S':'
asbag56
(g77
g58
NtRp3802
(dp3803
g61
(dp3804
sg70
g3790
sg63
(lp3805
g56
(g57
g58
NtRp3806
(dp3807
g61
(dp3808
g69
I5
ssg70
g3802
sg63
(lp3809
g56
(g65
g58
NtRp3810
(dp3811
g61
(dp3812
g69
I4
ssg70
Nsg63
(lp3813
g56
(g72
g58
NtRp3814
(dp3815
g61
(dp3816
sg70
g3810
sg63
(lp3817
g56
(g77
g58
NtRp3818
(dp3819
g61
(dp3820
g81
g82
ssg70
g3814
sg63
(lp3821
S'session_id_examples'
p3822
asbag56
(g77
g58
NtRp3823
(dp3824
g61
(dp3825
g88
g89
ssg70
g3814
sg63
(lp3826
S':'
asbag56
(g77
g58
NtRp3827
(dp3828
g61
(dp3829
sg70
g3814
sg63
(lp3830
g56
(g57
g58
NtRp3831
(dp3832
g61
(dp3833
g69
I4
ssg70
g3827
sg63
(lp3834
g56
(g65
g58
NtRp3835
(dp3836
g61
(dp3837
g69
I3
ssg70
Nsg63
(lp3838
g56
(g72
g58
NtRp3839
(dp3840
g61
(dp3841
sg70
g3835
sg63
(lp3842
g56
(g77
g58
NtRp3843
(dp3844
g61
(dp3845
g81
g82
ssg70
g3839
sg63
(lp3846
g270
asbag56
(g77
g58
NtRp3847
(dp3848
g61
(dp3849
g88
g89
ssg70
g3839
sg63
(lp3850
S':'
asbag56
(g77
g58
NtRp3851
(dp3852
g61
(dp3853
sg70
g3839
sg63
(lp3854
g56
(g57
g58
NtRp3855
(dp3856
g61
(dp3857
g69
I3
ssg70
g3851
sg63
(lp3858
S''
asbasbasbag56
(g72
g58
NtRp3859
(dp3860
g61
(dp3861
sg70
g3835
sg63
(lp3862
g56
(g77
g58
NtRp3863
(dp3864
g61
(dp3865
g81
g82
ssg70
g3859
sg63
(lp3866
g291
asbag56
(g77
g58
NtRp3867
(dp3868
g61
(dp3869
g88
g89
ssg70
g3859
sg63
(lp3870
S':'
asbag56
(g77
g58
NtRp3871
(dp3872
g61
(dp3873
sg70
g3859
sg63
(lp3874
g56
(g57
g58
NtRp3875
(dp3876
g61
(dp3877
g69
I3
ssg70
g3871
sg63
(lp3878
S''
asbasbasbag56
(g72
g58
NtRp3879
(dp3880
g61
(dp3881
sg70
g3835
sg63
(lp3882
g56
(g77
g58
NtRp3883
(dp3884
g61
(dp3885
g81
g82
ssg70
g3879
sg63
(lp3886
g312
asbag56
(g77
g58
NtRp3887
(dp3888
g61
(dp3889
g88
g89
ssg70
g3879
sg63
(lp3890
S':'
asbag56
(g77
g58
NtRp3891
(dp3892
g61
(dp3893
sg70
g3879
sg63
(lp3894
g56
(g57
g58
NtRp3895
(dp3896
g61
(dp3897
g69
I3
ssg70
g3891
sg63
(lp3898
S''
asbasbasbag56
(g72
g58
NtRp3899
(dp3900
g61
(dp3901
sg70
g3835
sg63
(lp3902
g56
(g77
g58
NtRp3903
(dp3904
g61
(dp3905
g81
g82
ssg70
g3899
sg63
(lp3906
g333
asbag56
(g77
g58
NtRp3907
(dp3908
g61
(dp3909
g88
g89
ssg70
g3899
sg63
(lp3910
S':'
asbag56
(g77
g58
NtRp3911
(dp3912
g61
(dp3913
sg70
g3899
sg63
(lp3914
g56
(g57
g58
NtRp3915
(dp3916
g61
(dp3917
g69
I3
ssg70
g3911
sg63
(lp3918
S''
asbasbasbag56
(g72
g58
NtRp3919
(dp3920
g61
(dp3921
sg70
g3835
sg63
(lp3922
g56
(g77
g58
NtRp3923
(dp3924
g61
(dp3925
g81
g82
ssg70
g3919
sg63
(lp3926
g354
asbag56
(g77
g58
NtRp3927
(dp3928
g61
(dp3929
g88
g89
ssg70
g3919
sg63
(lp3930
S':'
asbag56
(g77
g58
NtRp3931
(dp3932
g61
(dp3933
sg70
g3919
sg63
(lp3934
g56
(g57
g58
NtRp3935
(dp3936
g61
(dp3937
g69
I3
ssg70
g3931
sg63
(lp3938
S''
asbasbasbag56
(g72
g58
NtRp3939
(dp3940
g61
(dp3941
sg70
g3835
sg63
(lp3942
g56
(g77
g58
NtRp3943
(dp3944
g61
(dp3945
g81
g82
ssg70
g3939
sg63
(lp3946
g375
asbag56
(g77
g58
NtRp3947
(dp3948
g61
(dp3949
g88
g89
ssg70
g3939
sg63
(lp3950
S':'
asbag56
(g77
g58
NtRp3951
(dp3952
g61
(dp3953
sg70
g3939
sg63
(lp3954
g56
(g57
g58
NtRp3955
(dp3956
g61
(dp3957
g69
I3
ssg70
g3951
sg63
(lp3958
S'/'
asbasbasbag56
(g72
g58
NtRp3959
(dp3960
g61
(dp3961
sg70
g3835
sg63
(lp3962
g56
(g77
g58
NtRp3963
(dp3964
g61
(dp3965
g81
g82
ssg70
g3959
sg63
(lp3966
g396
asbag56
(g77
g58
NtRp3967
(dp3968
g61
(dp3969
g88
g89
ssg70
g3959
sg63
(lp3970
S':'
asbag56
(g77
g58
NtRp3971
(dp3972
g61
(dp3973
sg70
g3959
sg63
(lp3974
g56
(g57
g58
NtRp3975
(dp3976
g61
(dp3977
g69
I3
ssg70
g3971
sg63
(lp3978
S''
asbasbasbag56
(g72
g58
NtRp3979
(dp3980
g61
(dp3981
sg70
g3835
sg63
(lp3982
g56
(g77
g58
NtRp3983
(dp3984
g61
(dp3985
g81
g82
ssg70
g3979
sg63
(lp3986
g417
asbag56
(g77
g58
NtRp3987
(dp3988
g61
(dp3989
g88
g89
ssg70
g3979
sg63
(lp3990
S':'
asbag56
(g77
g58
NtRp3991
(dp3992
g61
(dp3993
sg70
g3979
sg63
(lp3994
g56
(g57
g58
NtRp3995
(dp3996
g61
(dp3997
g69
I3
ssg70
g3991
sg63
(lp3998
S''
asbasbasbasbasbasbasbasbasbasbasbag56
(g72
g58
NtRp3999
(dp4000
g61
(dp4001
sg70
g3765
sg63
(lp4002
g56
(g77
g58
NtRp4003
(dp4004
g61
(dp4005
g81
g82
ssg70
g3999
sg63
(lp4006
S'files'
p4007
asbag56
(g77
g58
NtRp4008
(dp4009
g61
(dp4010
g88
g89
ssg70
g3999
sg63
(lp4011
S':'
asbag56
(g77
g58
NtRp4012
(dp4013
g61
(dp4014
sg70
g3999
sg63
(lp4015
g56
(g57
g58
NtRp4016
(dp4017
g61
(dp4018
g69
I5
ssg70
g4012
sg63
(lp4019
g56
(g65
g58
NtRp4020
(dp4021
g61
(dp4022
g69
I4
ssg70
Nsg63
(lp4023
g56
(g72
g58
NtRp4024
(dp4025
g61
(dp4026
sg70
g4020
sg63
(lp4027
g56
(g77
g58
NtRp4028
(dp4029
g61
(dp4030
sg70
g4024
sg63
(lp4031
g56
(g57
g58
NtRp4032
(dp4033
g61
(dp4034
g69
I4
ssg70
g4028
sg63
(lp4035
S'/examples/static/js/jquery.js'
p4036
asbasbasbag56
(g72
g58
NtRp4037
(dp4038
g61
(dp4039
sg70
g4020
sg63
(lp4040
g56
(g77
g58
NtRp4041
(dp4042
g61
(dp4043
sg70
g4037
sg63
(lp4044
g56
(g57
g58
NtRp4045
(dp4046
g61
(dp4047
g69
I4
ssg70
g4041
sg63
(lp4048
S'/examples/static/css/calendar.css'
p4049
asbasbasbag56
(g72
g58
NtRp4050
(dp4051
g61
(dp4052
sg70
g4020
sg63
(lp4053
g56
(g77
g58
NtRp4054
(dp4055
g61
(dp4056
sg70
g4050
sg63
(lp4057
g56
(g57
g58
NtRp4058
(dp4059
g61
(dp4060
g69
I4
ssg70
g4054
sg63
(lp4061
S'/examples/static/js/calendar.js'
p4062
asbasbasbag56
(g72
g58
NtRp4063
(dp4064
g61
(dp4065
sg70
g4020
sg63
(lp4066
g56
(g77
g58
NtRp4067
(dp4068
g61
(dp4069
sg70
g4063
sg63
(lp4070
g56
(g57
g58
NtRp4071
(dp4072
g61
(dp4073
g69
I4
ssg70
g4067
sg63
(lp4074
S'/examples/static/css/menu.css'
p4075
asbasbasbag56
(g72
g58
NtRp4076
(dp4077
g61
(dp4078
sg70
g4020
sg63
(lp4079
g56
(g77
g58
NtRp4080
(dp4081
g61
(dp4082
sg70
g4076
sg63
(lp4083
g56
(g57
g58
NtRp4084
(dp4085
g61
(dp4086
g69
I4
ssg70
g4080
sg63
(lp4087
S'/examples/static/css/home.css'
p4088
asbasbasbasbasbasbasbag56
(g72
g58
NtRp4089
(dp4090
g61
(dp4091
sg70
g3765
sg63
(lp4092
g56
(g77
g58
NtRp4093
(dp4094
g61
(dp4095
g81
g82
ssg70
g4089
sg63
(lp4096
S'flash'
p4097
asbag56
(g77
g58
NtRp4098
(dp4099
g61
(dp4100
g88
g89
ssg70
g4089
sg63
(lp4101
S':'
asbag56
(g77
g58
NtRp4102
(dp4103
g61
(dp4104
sg70
g4089
sg63
(lp4105
g56
(g57
g58
NtRp4106
(dp4107
g61
(dp4108
g69
I5
ssg70
g4102
sg63
(lp4109
S''
asbasbasbag56
(g72
g58
NtRp4110
(dp4111
g61
(dp4112
sg70
g3765
sg63
(lp4113
g56
(g77
g58
NtRp4114
(dp4115
g61
(dp4116
g81
g82
ssg70
g4110
sg63
(lp4117
S'generic_patterns'
p4118
asbag56
(g77
g58
NtRp4119
(dp4120
g61
(dp4121
g88
g89
ssg70
g4110
sg63
(lp4122
S':'
asbag56
(g77
g58
NtRp4123
(dp4124
g61
(dp4125
sg70
g4110
sg63
(lp4126
g56
(g57
g58
NtRp4127
(dp4128
g61
(dp4129
g69
I5
ssg70
g4123
sg63
(lp4130
g56
(g65
g58
NtRp4131
(dp4132
g61
(dp4133
g69
I4
ssg70
Nsg63
(lp4134
sbasbasbasbag56
(g72
g58
NtRp4135
(dp4136
g61
(dp4137
sg70
g3765
sg63
(lp4138
g56
(g77
g58
NtRp4139
(dp4140
g61
(dp4141
g81
g82
ssg70
g4135
sg63
(lp4142
S'headers'
p4143
asbag56
(g77
g58
NtRp4144
(dp4145
g61
(dp4146
g88
g89
ssg70
g4135
sg63
(lp4147
S':'
asbag56
(g77
g58
NtRp4148
(dp4149
g61
(dp4150
sg70
g4135
sg63
(lp4151
g56
(g57
g58
NtRp4152
(dp4153
g61
(dp4154
g69
I5
ssg70
g4148
sg63
(lp4155
g56
(g65
g58
NtRp4156
(dp4157
g61
(dp4158
g69
I4
ssg70
Nsg63
(lp4159
g56
(g72
g58
NtRp4160
(dp4161
g61
(dp4162
sg70
g4156
sg63
(lp4163
g56
(g77
g58
NtRp4164
(dp4165
g61
(dp4166
g81
g82
ssg70
g4160
sg63
(lp4167
S'Cache-Control'
p4168
asbag56
(g77
g58
NtRp4169
(dp4170
g61
(dp4171
g88
g89
ssg70
g4160
sg63
(lp4172
S':'
asbag56
(g77
g58
NtRp4173
(dp4174
g61
(dp4175
sg70
g4160
sg63
(lp4176
g56
(g57
g58
NtRp4177
(dp4178
g61
(dp4179
g69
I4
ssg70
g4173
sg63
(lp4180
S'no-store, no-cache, must-revalidate, post-check=0, pre-check=0'
p4181
asbasbasbag56
(g72
g58
NtRp4182
(dp4183
g61
(dp4184
sg70
g4156
sg63
(lp4185
g56
(g77
g58
NtRp4186
(dp4187
g61
(dp4188
g81
g82
ssg70
g4182
sg63
(lp4189
S'Content-Type'
p4190
asbag56
(g77
g58
NtRp4191
(dp4192
g61
(dp4193
g88
g89
ssg70
g4182
sg63
(lp4194
S':'
asbag56
(g77
g58
NtRp4195
(dp4196
g61
(dp4197
sg70
g4182
sg63
(lp4198
g56
(g57
g58
NtRp4199
(dp4200
g61
(dp4201
g69
I4
ssg70
g4195
sg63
(lp4202
S'text/html; charset=utf-8'
p4203
asbasbasbag56
(g72
g58
NtRp4204
(dp4205
g61
(dp4206
sg70
g4156
sg63
(lp4207
g56
(g77
g58
NtRp4208
(dp4209
g61
(dp4210
g81
g82
ssg70
g4204
sg63
(lp4211
S'Expires'
p4212
asbag56
(g77
g58
NtRp4213
(dp4214
g61
(dp4215
g88
g89
ssg70
g4204
sg63
(lp4216
S':'
asbag56
(g77
g58
NtRp4217
(dp4218
g61
(dp4219
sg70
g4204
sg63
(lp4220
g56
(g57
g58
NtRp4221
(dp4222
g61
(dp4223
g69
I4
ssg70
g4217
sg63
(lp4224
S'Wed, 07 Mar 2012 14:40:09 GMT'
p4225
asbasbasbag56
(g72
g58
NtRp4226
(dp4227
g61
(dp4228
sg70
g4156
sg63
(lp4229
g56
(g77
g58
NtRp4230
(dp4231
g61
(dp4232
g81
g82
ssg70
g4226
sg63
(lp4233
S'Pragma'
p4234
asbag56
(g77
g58
NtRp4235
(dp4236
g61
(dp4237
g88
g89
ssg70
g4226
sg63
(lp4238
S':'
asbag56
(g77
g58
NtRp4239
(dp4240
g61
(dp4241
sg70
g4226
sg63
(lp4242
g56
(g57
g58
NtRp4243
(dp4244
g61
(dp4245
g69
I4
ssg70
g4239
sg63
(lp4246
S'no-cache'
p4247
asbasbasbag56
(g72
g58
NtRp4248
(dp4249
g61
(dp4250
sg70
g4156
sg63
(lp4251
g56
(g77
g58
NtRp4252
(dp4253
g61
(dp4254
g81
g82
ssg70
g4248
sg63
(lp4255
S'X-Powered-By'
p4256
asbag56
(g77
g58
NtRp4257
(dp4258
g61
(dp4259
g88
g89
ssg70
g4248
sg63
(lp4260
S':'
asbag56
(g77
g58
NtRp4261
(dp4262
g61
(dp4263
sg70
g4248
sg63
(lp4264
g56
(g57
g58
NtRp4265
(dp4266
g61
(dp4267
g69
I4
ssg70
g4261
sg63
(lp4268
S'web2py'
p4269
asbasbasbasbasbasbasbag56
(g72
g58
NtRp4270
(dp4271
g61
(dp4272
sg70
g3765
sg63
(lp4273
g56
(g77
g58
NtRp4274
(dp4275
g61
(dp4276
g81
g82
ssg70
g4270
sg63
(lp4277
S'menu'
p4278
asbag56
(g77
g58
NtRp4279
(dp4280
g61
(dp4281
g88
g89
ssg70
g4270
sg63
(lp4282
S':'
asbag56
(g77
g58
NtRp4283
(dp4284
g61
(dp4285
sg70
g4270
sg63
(lp4286
g56
(g57
g58
NtRp4287
(dp4288
g61
(dp4289
g69
I5
ssg70
g4283
sg63
(lp4290
g56
(g65
g58
NtRp4291
(dp4292
g61
(dp4293
g69
I4
ssg70
Nsg63
(lp4294
sbasbasbasbag56
(g72
g58
NtRp4295
(dp4296
g61
(dp4297
sg70
g3765
sg63
(lp4298
g56
(g77
g58
NtRp4299
(dp4300
g61
(dp4301
g81
g82
ssg70
g4295
sg63
(lp4302
S'meta'
p4303
asbag56
(g77
g58
NtRp4304
(dp4305
g61
(dp4306
g88
g89
ssg70
g4295
sg63
(lp4307
S':'
asbag56
(g77
g58
NtRp4308
(dp4309
g61
(dp4310
sg70
g4295
sg63
(lp4311
g56
(g57
g58
NtRp4312
(dp4313
g61
(dp4314
g69
I5
ssg70
g4308
sg63
(lp4315
g56
(g65
g58
NtRp4316
(dp4317
g61
(dp4318
g69
I4
ssg70
Nsg63
(lp4319
sbasbasbasbag56
(g72
g58
NtRp4320
(dp4321
g61
(dp4322
sg70
g3765
sg63
(lp4323
g56
(g77
g58
NtRp4324
(dp4325
g61
(dp4326
g81
g82
ssg70
g4320
sg63
(lp4327
S'postprocessing'
p4328
asbag56
(g77
g58
NtRp4329
(dp4330
g61
(dp4331
g88
g89
ssg70
g4320
sg63
(lp4332
S':'
asbag56
(g77
g58
NtRp4333
(dp4334
g61
(dp4335
sg70
g4320
sg63
(lp4336
g56
(g57
g58
NtRp4337
(dp4338
g61
(dp4339
g69
I5
ssg70
g4333
sg63
(lp4340
g56
(g65
g58
NtRp4341
(dp4342
g61
(dp4343
g69
I4
ssg70
Nsg63
(lp4344
sbasbasbasbag56
(g72
g58
NtRp4345
(dp4346
g61
(dp4347
sg70
g3765
sg63
(lp4348
g56
(g77
g58
NtRp4349
(dp4350
g61
(dp4351
g81
g82
ssg70
g4345
sg63
(lp4352
S'session_file'
p4353
asbag56
(g77
g58
NtRp4354
(dp4355
g61
(dp4356
g88
g89
ssg70
g4345
sg63
(lp4357
S':'
asbag56
(g77
g58
NtRp4358
(dp4359
g61
(dp4360
sg70
g4345
sg63
(lp4361
g56
(g57
g58
NtRp4362
(dp4363
g61
(dp4364
g69
I5
ssg70
g4358
sg63
(lp4365
S"<open file 'D:\\Workbench\\private\\web2py_src\\applications\\examples\\sessions\\127.0.0.1-74cdd304-417e-44a7-ae7c-4c8c3c432899', mode 'rb+' at 0x03E08DE0>"
p4366
asbasbasbag56
(g72
g58
NtRp4367
(dp4368
g61
(dp4369
sg70
g3765
sg63
(lp4370
g56
(g77
g58
NtRp4371
(dp4372
g61
(dp4373
g81
g82
ssg70
g4367
sg63
(lp4374
S'session_filename'
p4375
asbag56
(g77
g58
NtRp4376
(dp4377
g61
(dp4378
g88
g89
ssg70
g4367
sg63
(lp4379
S':'
asbag56
(g77
g58
NtRp4380
(dp4381
g61
(dp4382
sg70
g4367
sg63
(lp4383
g56
(g57
g58
NtRp4384
(dp4385
g61
(dp4386
g69
I5
ssg70
g4380
sg63
(lp4387
S'D:\\Workbench\\private\\web2py_src\\applications\\examples\\sessions\\127.0.0.1-74cdd304-417e-44a7-ae7c-4c8c3c432899'
p4388
asbasbasbag56
(g72
g58
NtRp4389
(dp4390
g61
(dp4391
sg70
g3765
sg63
(lp4392
g56
(g77
g58
NtRp4393
(dp4394
g61
(dp4395
g81
g82
ssg70
g4389
sg63
(lp4396
S'session_id'
p4397
asbag56
(g77
g58
NtRp4398
(dp4399
g61
(dp4400
g88
g89
ssg70
g4389
sg63
(lp4401
S':'
asbag56
(g77
g58
NtRp4402
(dp4403
g61
(dp4404
sg70
g4389
sg63
(lp4405
g56
(g57
g58
NtRp4406
(dp4407
g61
(dp4408
g69
I5
ssg70
g4402
sg63
(lp4409
S'127.0.0.1-74cdd304-417e-44a7-ae7c-4c8c3c432899'
p4410
asbasbasbag56
(g72
g58
NtRp4411
(dp4412
g61
(dp4413
sg70
g3765
sg63
(lp4414
g56
(g77
g58
NtRp4415
(dp4416
g61
(dp4417
g81
g82
ssg70
g4411
sg63
(lp4418
S'session_id_name'
p4419
asbag56
(g77
g58
NtRp4420
(dp4421
g61
(dp4422
g88
g89
ssg70
g4411
sg63
(lp4423
S':'
asbag56
(g77
g58
NtRp4424
(dp4425
g61
(dp4426
sg70
g4411
sg63
(lp4427
g56
(g57
g58
NtRp4428
(dp4429
g61
(dp4430
g69
I5
ssg70
g4424
sg63
(lp4431
g3822
asbasbasbag56
(g72
g58
NtRp4432
(dp4433
g61
(dp4434
sg70
g3765
sg63
(lp4435
g56
(g77
g58
NtRp4436
(dp4437
g61
(dp4438
g81
g82
ssg70
g4432
sg63
(lp4439
S'session_locked'
p4440
asbag56
(g77
g58
NtRp4441
(dp4442
g61
(dp4443
g88
g89
ssg70
g4432
sg63
(lp4444
S':'
asbag56
(g77
g58
NtRp4445
(dp4446
g61
(dp4447
sg70
g4432
sg63
(lp4448
g56
(g57
g58
NtRp4449
(dp4450
g61
(dp4451
g69
I5
ssg70
g4445
sg63
(lp4452
g2026
asbasbasbag56
(g72
g58
NtRp4453
(dp4454
g61
(dp4455
sg70
g3765
sg63
(lp4456
g56
(g77
g58
NtRp4457
(dp4458
g61
(dp4459
g81
g82
ssg70
g4453
sg63
(lp4460
S'session_new'
p4461
asbag56
(g77
g58
NtRp4462
(dp4463
g61
(dp4464
g88
g89
ssg70
g4453
sg63
(lp4465
S':'
asbag56
(g77
g58
NtRp4466
(dp4467
g61
(dp4468
sg70
g4453
sg63
(lp4469
g56
(g57
g58
NtRp4470
(dp4471
g61
(dp4472
g69
I5
ssg70
g4466
sg63
(lp4473
g99
asbasbasbag56
(g72
g58
NtRp4474
(dp4475
g61
(dp4476
sg70
g3765
sg63
(lp4477
g56
(g77
g58
NtRp4478
(dp4479
g61
(dp4480
g81
g82
ssg70
g4474
sg63
(lp4481
S'status'
p4482
asbag56
(g77
g58
NtRp4483
(dp4484
g61
(dp4485
g88
g89
ssg70
g4474
sg63
(lp4486
S':'
asbag56
(g77
g58
NtRp4487
(dp4488
g61
(dp4489
sg70
g4474
sg63
(lp4490
g56
(g57
g58
NtRp4491
(dp4492
g61
(dp4493
g69
I5
ssg70
g4487
sg63
(lp4494
S'200'
p4495
asbasbasbag56
(g72
g58
NtRp4496
(dp4497
g61
(dp4498
sg70
g3765
sg63
(lp4499
g56
(g77
g58
NtRp4500
(dp4501
g61
(dp4502
g81
g82
ssg70
g4496
sg63
(lp4503
g2605
asbag56
(g77
g58
NtRp4504
(dp4505
g61
(dp4506
g88
g89
ssg70
g4496
sg63
(lp4507
S':'
asbag56
(g77
g58
NtRp4508
(dp4509
g61
(dp4510
sg70
g4496
sg63
(lp4511
g56
(g57
g58
NtRp4512
(dp4513
g61
(dp4514
g69
I5
ssg70
g4508
sg63
(lp4515
g2618
asbasbasbag56
(g72
g58
NtRp4516
(dp4517
g61
(dp4518
sg70
g3765
sg63
(lp4519
g56
(g77
g58
NtRp4520
(dp4521
g61
(dp4522
g81
g82
ssg70
g4516
sg63
(lp4523
S'view'
p4524
asbag56
(g77
g58
NtRp4525
(dp4526
g61
(dp4527
g88
g89
ssg70
g4516
sg63
(lp4528
S':'
asbag56
(g77
g58
NtRp4529
(dp4530
g61
(dp4531
sg70
g4516
sg63
(lp4532
g56
(g57
g58
NtRp4533
(dp4534
g61
(dp4535
g69
I5
ssg70
g4529
sg63
(lp4536
S'transform/index.html'
p4537
asbasbasbasbasbsS'locals'
p4538
(dp4539
S'toggle_menuclass'
p4540
S'<function toggle_menuclass>'
p4541
sS'OBJECT'
p4542
S"<class 'gluon.html.OBJECT'>"
p4543
sS'_file'
p4544
S"'/examples/static/css/home.css'"
p4545
sS'SQLDB'
p4546
S"<class 'gluon.dal.DAL'>"
p4547
sS'get_content'
p4548
S'<function get_content>'
p4549
sg3747
S"<Storage {'_formkey[default]': 'f8053265-b25a-41...\\xf3\\xe9C\\x0f\\xaf\\x1a\\xbf\\x1e\\xcb\\x1d\\x85\\x8eU'}>"
p4550
sS'LINK'
p4551
S"<class 'gluon.html.LINK'>"
p4552
sS'BR'
p4553
S"<class 'gluon.html.BR'>"
p4554
sS'local_import'
p4555
S'<function <lambda>>'
p4556
sS'OPTGROUP'
p4557
S"<class 'gluon.html.OPTGROUP'>"
p4558
sS'PRE'
p4559
S"<class 'gluon.html.PRE'>"
p4560
sS'IS_INT_IN_RANGE'
p4561
S"<class 'gluon.validators.IS_INT_IN_RANGE'>"
p4562
sS'IS_LOWER'
p4563
S"<class 'gluon.validators.IS_LOWER'>"
p4564
sS'IS_STRONG'
p4565
S"<class 'gluon.validators.IS_STRONG'>"
p4566
sS'cache'
p4567
S'<gluon.cache.Cache object>'
p4568
sS'IS_IN_DB'
p4569
S"<class 'gluon.validators.IS_IN_DB'>"
p4570
sS'TAG'
p4571
S'<gluon.html.__TAG__ object>'
p4572
sS'_k'
p4573
S'4'
sS'SQLField'
p4574
S"<class 'gluon.dal.Field'>"
p4575
sS'BODY'
p4576
S"<class 'gluon.html.BODY'>"
p4577
sS'IS_DATE_IN_RANGE'
p4578
S"<class 'gluon.validators.IS_DATE_IN_RANGE'>"
p4579
sS'random'
p4580
S"<module 'random' from 'C:\\Python27\\Lib\\random.pyc'>"
p4581
sS'TH'
p4582
S"<class 'gluon.html.TH'>"
p4583
sS'URL'
p4584
S'<function URL>'
p4585
sS'__file__'
p4586
S"r'D:\\Workbench\\private\\web2py_src\\applications\\examples\\views\\transform/index.html'"
p4587
sS'db'
p4588
S"<DAL {'purchases': <Table {'ALL': <gluon.dal.SQL...tion': <gluon.dal.Field object at 0x040CA2F0>}>}>"
p4589
sS'P'
S"<class 'gluon.html.P'>"
p4590
sS'TFOOT'
p4591
S"<class 'gluon.html.TFOOT'>"
p4592
sS'XHTML'
p4593
S"<class 'gluon.html.XHTML'>"
p4594
sS'ON'
p4595
g2026
sS'OL'
p4596
S"<class 'gluon.html.OL'>"
p4597
sS'TEXTAREA'
p4598
S"<class 'gluon.html.TEXTAREA'>"
p4599
sS'settings'
p4600
S"<Storage {'debugging': False, 'gluon_parent': 'D...ime.datetime(2011, 9, 26, 6, 55, 33), 'stable')}>"
p4601
sS'MENU'
p4602
S"<class 'gluon.html.MENU'>"
p4603
sS'_file0'
p4604
S"'/examples/static/css/home.css'"
p4605
sS'code_feed_reader'
p4606
S'<function code_feed_reader>'
p4607
sS'LOAD'
p4608
S'<gluon.compileapp.LoadFactory object>'
p4609
sS'CODE'
p4610
S"<class 'gluon.html.CODE'>"
p4611
sS'HTTP'
p4612
S"<class 'gluon.http.HTTP'>"
p4613
sS'HR'
p4614
S"<class 'gluon.html.HR'>"
p4615
sS'IS_DATETIME'
p4616
S"<class 'gluon.validators.IS_DATETIME'>"
p4617
sS'HEAD'
p4618
S"<class 'gluon.html.HEAD'>"
p4619
sS'LABEL'
p4620
S"<class 'gluon.html.LABEL'>"
p4621
sS'CLEANUP'
p4622
S"<class 'gluon.validators.CLEANUP'>"
p4623
sS'SELECT'
p4624
S"<class 'gluon.html.SELECT'>"
p4625
sS'CENTER'
p4626
S"<class 'gluon.html.CENTER'>"
p4627
sS'markmin_dict'
p4628
S"{'br': <function <lambda>>, 'groupdates': <function <lambda>>, 'sup': <function <lambda>>, 'template': <function <lambda>>}"
p4629
sS'__builtins__'
p4630
S"{'ArithmeticError': <type 'exceptions.ArithmeticError'>, 'AssertionError': <type 'exceptions.AssertionError'>, 'AttributeError': <type 'exceptions.AttributeError'>, 'BaseException': <type 'exceptions.BaseException'>, 'BufferError': <type 'exceptions.BufferError'>, 'BytesWarning': <type 'exceptions.BytesWarning'>, 'DeprecationWarning': <type 'exceptions.DeprecationWarning'>, 'EOFError': <type 'exceptions.EOFError'>, 'Ellipsis': Ellipsis, 'EnvironmentError': <type 'exceptions.EnvironmentError'>, ...}"
p4631
sS'HTML'
p4632
S"<class 'gluon.html.HTML'>"
p4633
sS'SQLFORM'
p4634
S"<class 'gluon.sqlhtml.SQLFORM'>"
p4635
sS'EM'
p4636
S"<class 'gluon.html.EM'>"
p4637
sS'redirect'
p4638
S'<function redirect>'
p4639
sS'FIELDSET'
p4640
S"<class 'gluon.html.FIELDSET'>"
p4641
sS'IS_EQUAL_TO'
p4642
S"<class 'gluon.validators.IS_EQUAL_TO'>"
p4643
sS'embed64'
p4644
S'<function embed64>'
p4645
sS'IS_LIST_OF'
p4646
S"<class 'gluon.validators.IS_LIST_OF'>"
p4647
sS'INPUT'
p4648
S"<class 'gluon.html.INPUT'>"
p4649
sS'EMBED'
p4650
S"<class 'gluon.html.EMBED'>"
p4651
sS'FORM'
p4652
S"<class 'gluon.html.FORM'>"
p4653
sS'H2'
p4654
S"<class 'gluon.html.H2'>"
p4655
sS'H3'
p4656
S"<class 'gluon.html.H3'>"
p4657
sS'BUTTON'
p4658
S"<class 'gluon.html.BUTTON'>"
p4659
sS'H1'
p4660
S"<class 'gluon.html.H1'>"
p4661
sS'H6'
p4662
S"<class 'gluon.html.H6'>"
p4663
sS'H4'
p4664
S"<class 'gluon.html.H4'>"
p4665
sS'H5'
p4666
S"<class 'gluon.html.H5'>"
p4667
sS'UL'
p4668
S"<class 'gluon.html.UL'>"
p4669
sS'IS_UPPER'
p4670
S"<class 'gluon.validators.IS_UPPER'>"
p4671
sS'xmlescape'
p4672
S'<function xmlescape>'
p4673
sS'IS_TIME'
p4674
S"<class 'gluon.validators.IS_TIME'>"
p4675
sS'OPTION'
p4676
S"<class 'gluon.html.OPTION'>"
p4677
sS'TITLE'
p4678
S"<class 'gluon.html.TITLE'>"
p4679
sS'CRYPT'
p4680
S"<class 'gluon.validators.CRYPT'>"
p4681
sS'IS_EMPTY_OR'
p4682
S"<class 'gluon.validators.IS_EMPTY_OR'>"
p4683
sS'MARKMIN'
p4684
S"<class 'gluon.html.MARKMIN'>"
p4685
sS'gluon'
p4686
S"<module 'gluon' from 'D:\\Workbench\\private\\web2py_src\\gluon\\__init__.pyc'>"
p4687
sS'COL'
p4688
S"<class 'gluon.html.COL'>"
p4689
sS'SCRIPT'
p4690
S"<class 'gluon.html.SCRIPT'>"
p4691
sS'group_feed_reader'
p4692
S'<function group_feed_reader>'
p4693
sS'TABLE'
p4694
S"<class 'gluon.html.TABLE'>"
p4695
sS'IS_IPV4'
p4696
S"<class 'gluon.validators.IS_IPV4'>"
p4697
sS'IS_LENGTH'
p4698
S"<class 'gluon.validators.IS_LENGTH'>"
p4699
sS'XML'
p4700
S"<class 'gluon.html.XML'>"
p4701
sS'B'
S"<class 'gluon.html.B'>"
p4702
sS'IMG'
p4703
S"<class 'gluon.html.IMG'>"
p4704
sS'SQLTABLE'
p4705
S"<class 'gluon.sqlhtml.SQLTABLE'>"
p4706
sS'IS_MATCH'
p4707
S"<class 'gluon.validators.IS_MATCH'>"
p4708
sS'IS_ALPHANUMERIC'
p4709
S"<class 'gluon.validators.IS_ALPHANUMERIC'>"
p4710
sS'SPAN'
p4711
S"<class 'gluon.html.SPAN'>"
p4712
sS'IS_SLUG'
p4713
S"<class 'gluon.validators.IS_SLUG'>"
p4714
sS'BEAUTIFY'
p4715
S"<class 'gluon.html.BEAUTIFY'>"
p4716
sS'META'
p4717
S"<class 'gluon.html.META'>"
p4718
sS'IS_DATE'
p4719
S"<class 'gluon.validators.IS_DATE'>"
p4720
sS'IS_EMAIL'
p4721
S"<class 'gluon.validators.IS_EMAIL'>"
p4722
sS'IS_NOT_EMPTY'
p4723
S"<class 'gluon.validators.IS_NOT_EMPTY'>"
p4724
sg55
S"<Storage {'body': <cStringIO.StringO object at 0..._vars': <Storage {}>, 'post_vars': <Storage {}>}>"
p4725
sS'TBODY'
p4726
S"<class 'gluon.html.TBODY'>"
p4727
sS'CAT'
p4728
S"<class 'gluon.html.CAT'>"
p4729
sS'Field'
p4730
S"<class 'gluon.dal.Field'>"
p4731
sS'purchased'
p4732
S'<gluon.dal.Query object>'
p4733
sS'DIV'
p4734
S"<class 'gluon.html.DIV'>"
p4735
sS'LEGEND'
p4736
S"<class 'gluon.html.LEGEND'>"
p4737
sS'COLGROUP'
p4738
S"<class 'gluon.html.COLGROUP'>"
p4739
sS'DAL'
p4740
S"<class 'gluon.dal.DAL'>"
p4741
sS'TT'
p4742
S"<class 'gluon.html.TT'>"
p4743
sS'TR'
p4744
S"<class 'gluon.html.TR'>"
p4745
sS'LI'
p4746
S"<class 'gluon.html.LI'>"
p4747
sS'IFRAME'
p4748
S"<class 'gluon.html.IFRAME'>"
p4749
sS'TD'
p4750
S"<class 'gluon.html.TD'>"
p4751
sS'IS_URL'
p4752
S"<class 'gluon.validators.IS_URL'>"
p4753
sS'A'
S"<class 'gluon.html.A'>"
p4754
sS'STYLE'
p4755
S"<class 'gluon.html.STYLE'>"
p4756
sS'IS_DATETIME_IN_RANGE'
p4757
S"<class 'gluon.validators.IS_DATETIME_IN_RANGE'>"
p4758
sS'IS_IMAGE'
p4759
S"<class 'gluon.validators.IS_IMAGE'>"
p4760
sS'I'
S"<class 'gluon.html.I'>"
p4761
sS'IS_NOT_IN_DB'
p4762
S"<class 'gluon.validators.IS_NOT_IN_DB'>"
p4763
sg3760
S"<Storage {'status': 200, 'body': <cStringIO.Stri.../css/home.css'], 'view': 'transform/index.html'}>"
p4764
sS'THEAD'
p4765
S"<class 'gluon.html.THEAD'>"
p4766
sS'IS_NULL_OR'
p4767
S"<class 'gluon.validators.IS_EMPTY_OR'>"
p4768
sS'IS_FLOAT_IN_RANGE'
p4769
S"<class 'gluon.validators.IS_FLOAT_IN_RANGE'>"
p4770
sS'IS_EXPR'
p4771
S"<class 'gluon.validators.IS_EXPR'>"
p4772
sS'T'
S'<gluon.languages.translator object>'
p4773
sS'IS_IN_SET'
p4774
S"<class 'gluon.validators.IS_IN_SET'>"
p4775
sS'IS_UPLOAD_FILENAME'
p4776
S"<class 'gluon.validators.IS_UPLOAD_FILENAME'>"
p4777
sS'IS_DECIMAL_IN_RANGE'
p4778
S"<class 'gluon.validators.IS_DECIMAL_IN_RANGE'>"
p4779
sssS'traceback'
p4780
S'Traceback (most recent call last):\n  File "D:\\Workbench\\private\\web2py_src\\gluon\\restricted.py", line 194, in restricted\n    exec ccode in environment\n  File "D:\\Workbench\\private\\web2py_src\\applications\\examples\\views\\transform/index.html", line 81, in <module>\nNameError: name \'message\' is not defined\n'
p4781
s.