(dp1
S'output'
p2
S''
sS'layer'
p3
S'Framework'
p4
sS'code'
p5
S''
sS'snapshot'
p6
(dp7
S'exception'
p8
(dp9
S'__hash__'
p10
S"<method-wrapper '__hash__' of exceptions.TypeError object>"
p11
sS'__setattr__'
p12
S"<method-wrapper '__setattr__' of exceptions.TypeError object>"
p13
sS'__reduce_ex__'
p14
S'<built-in method __reduce_ex__ of exceptions.TypeError object>'
p15
sS'__getslice__'
p16
S"<method-wrapper '__getslice__' of exceptions.TypeError object>"
p17
sS'__getitem__'
p18
S"<method-wrapper '__getitem__' of exceptions.TypeError object>"
p19
sS'__setstate__'
p20
S'<built-in method __setstate__ of exceptions.TypeError object>'
p21
sS'__reduce__'
p22
S'<built-in method __reduce__ of exceptions.TypeError object>'
p23
sS'__str__'
p24
S"<method-wrapper '__str__' of exceptions.TypeError object>"
p25
sS'__format__'
p26
S'<built-in method __format__ of exceptions.TypeError object>'
p27
sS'__getattribute__'
p28
S"<method-wrapper '__getattribute__' of exceptions.TypeError object>"
p29
sS'__class__'
p30
S"<type 'exceptions.TypeError'>"
p31
sS'__unicode__'
p32
S'<built-in method __unicode__ of exceptions.TypeError object>'
p33
sS'__delattr__'
p34
S"<method-wrapper '__delattr__' of exceptions.TypeError object>"
p35
sS'__subclasshook__'
p36
S'<built-in method __subclasshook__ of type object>'
p37
sS'__repr__'
p38
S"<method-wrapper '__repr__' of exceptions.TypeError object>"
p39
sS'args'
p40
S'("\'NoneType\' object is not callable",)'
p41
sS'__dict__'
p42
S'{}'
p43
sS'__sizeof__'
p44
S'<built-in method __sizeof__ of exceptions.TypeError object>'
p45
sS'__doc__'
p46
S"'Inappropriate argument type.'"
p47
sS'__init__'
p48
S"<method-wrapper '__init__' of exceptions.TypeError object>"
p49
sS'__new__'
p50
S'<built-in method __new__ of type object>'
p51
ssS'evalue'
p52
S"'NoneType' object is not callable"
p53
sS'request'
p54
ccopy_reg
_reconstructor
p55
(cgluon.html
BEAUTIFY
p56
c__builtin__
object
p57
NtRp58
(dp59
S'attributes'
p60
(dp61
sS'components'
p62
(lp63
g55
(cgluon.html
TABLE
p64
g57
NtRp65
(dp66
g60
(dp67
S'level'
p68
I5
ssS'parent'
p69
Nsg62
(lp70
g55
(cgluon.html
TR
p71
g57
NtRp72
(dp73
g60
(dp74
sg69
g65
sg62
(lp75
g55
(cgluon.html
TD
p76
g57
NtRp77
(dp78
g60
(dp79
S'_style'
p80
S'font-weight:bold;'
p81
ssg69
g72
sg62
(lp82
S'ajax'
p83
asbag55
(g76
g57
NtRp84
(dp85
g60
(dp86
S'_valign'
p87
S'top'
p88
ssg69
g72
sg62
(lp89
S':'
asbag55
(g76
g57
NtRp90
(dp91
g60
(dp92
sg69
g72
sg62
(lp93
g55
(g56
g57
NtRp94
(dp95
g60
(dp96
g68
I5
ssg69
g90
sg62
(lp97
S'False'
p98
asbasbasbag55
(g71
g57
NtRp99
(dp100
g60
(dp101
sg69
g65
sg62
(lp102
g55
(g76
g57
NtRp103
(dp104
g60
(dp105
g80
g81
ssg69
g99
sg62
(lp106
S'application'
p107
asbag55
(g76
g57
NtRp108
(dp109
g60
(dp110
g87
g88
ssg69
g99
sg62
(lp111
S':'
asbag55
(g76
g57
NtRp112
(dp113
g60
(dp114
sg69
g99
sg62
(lp115
g55
(g56
g57
NtRp116
(dp117
g60
(dp118
g68
I5
ssg69
g112
sg62
(lp119
S'examples'
p120
asbasbasbag55
(g71
g57
NtRp121
(dp122
g60
(dp123
sg69
g65
sg62
(lp124
g55
(g76
g57
NtRp125
(dp126
g60
(dp127
g80
g81
ssg69
g121
sg62
(lp128
g40
asbag55
(g76
g57
NtRp129
(dp130
g60
(dp131
g87
g88
ssg69
g121
sg62
(lp132
S':'
asbag55
(g76
g57
NtRp133
(dp134
g60
(dp135
sg69
g121
sg62
(lp136
g55
(g56
g57
NtRp137
(dp138
g60
(dp139
g68
I5
ssg69
g133
sg62
(lp140
g55
(g64
g57
NtRp141
(dp142
g60
(dp143
g68
I4
ssg69
Nsg62
(lp144
sbasbasbasbag55
(g71
g57
NtRp145
(dp146
g60
(dp147
sg69
g65
sg62
(lp148
g55
(g76
g57
NtRp149
(dp150
g60
(dp151
g80
g81
ssg69
g145
sg62
(lp152
S'body'
p153
asbag55
(g76
g57
NtRp154
(dp155
g60
(dp156
g87
g88
ssg69
g145
sg62
(lp157
S':'
asbag55
(g76
g57
NtRp158
(dp159
g60
(dp160
sg69
g145
sg62
(lp161
g55
(g56
g57
NtRp162
(dp163
g60
(dp164
g68
I5
ssg69
g158
sg62
(lp165
S"<closed file '<fdopen>', mode 'w+b' at 0x0579E0D0>"
p166
asbasbasbag55
(g71
g57
NtRp167
(dp168
g60
(dp169
sg69
g65
sg62
(lp170
g55
(g76
g57
NtRp171
(dp172
g60
(dp173
g80
g81
ssg69
g167
sg62
(lp174
S'client'
p175
asbag55
(g76
g57
NtRp176
(dp177
g60
(dp178
g87
g88
ssg69
g167
sg62
(lp179
S':'
asbag55
(g76
g57
NtRp180
(dp181
g60
(dp182
sg69
g167
sg62
(lp183
g55
(g56
g57
NtRp184
(dp185
g60
(dp186
g68
I5
ssg69
g180
sg62
(lp187
S'127.0.0.1'
p188
asbasbasbag55
(g71
g57
NtRp189
(dp190
g60
(dp191
sg69
g65
sg62
(lp192
g55
(g76
g57
NtRp193
(dp194
g60
(dp195
g80
g81
ssg69
g189
sg62
(lp196
S'controller'
p197
asbag55
(g76
g57
NtRp198
(dp199
g60
(dp200
g87
g88
ssg69
g189
sg62
(lp201
S':'
asbag55
(g76
g57
NtRp202
(dp203
g60
(dp204
sg69
g189
sg62
(lp205
g55
(g56
g57
NtRp206
(dp207
g60
(dp208
g68
I5
ssg69
g202
sg62
(lp209
S'transform'
p210
asbasbasbag55
(g71
g57
NtRp211
(dp212
g60
(dp213
sg69
g65
sg62
(lp214
g55
(g76
g57
NtRp215
(dp216
g60
(dp217
g80
g81
ssg69
g211
sg62
(lp218
S'cookies'
p219
asbag55
(g76
g57
NtRp220
(dp221
g60
(dp222
g87
g88
ssg69
g211
sg62
(lp223
S':'
asbag55
(g76
g57
NtRp224
(dp225
g60
(dp226
sg69
g211
sg62
(lp227
g55
(g56
g57
NtRp228
(dp229
g60
(dp230
g68
I5
ssg69
g224
sg62
(lp231
g55
(g64
g57
NtRp232
(dp233
g60
(dp234
g68
I4
ssg69
Nsg62
(lp235
g55
(g71
g57
NtRp236
(dp237
g60
(dp238
sg69
g232
sg62
(lp239
g55
(g76
g57
NtRp240
(dp241
g60
(dp242
g80
g81
ssg69
g236
sg62
(lp243
S'ac'
p244
asbag55
(g76
g57
NtRp245
(dp246
g60
(dp247
g87
g88
ssg69
g236
sg62
(lp248
S':'
asbag55
(g76
g57
NtRp249
(dp250
g60
(dp251
sg69
g236
sg62
(lp252
g55
(g56
g57
NtRp253
(dp254
g60
(dp255
g68
I4
ssg69
g249
sg62
(lp256
g55
(g64
g57
NtRp257
(dp258
g60
(dp259
g68
I3
ssg69
Nsg62
(lp260
g55
(g71
g57
NtRp261
(dp262
g60
(dp263
sg69
g257
sg62
(lp264
g55
(g76
g57
NtRp265
(dp266
g60
(dp267
g80
g81
ssg69
g261
sg62
(lp268
S'comment'
p269
asbag55
(g76
g57
NtRp270
(dp271
g60
(dp272
g87
g88
ssg69
g261
sg62
(lp273
S':'
asbag55
(g76
g57
NtRp274
(dp275
g60
(dp276
sg69
g261
sg62
(lp277
g55
(g56
g57
NtRp278
(dp279
g60
(dp280
g68
I3
ssg69
g274
sg62
(lp281
S''
asbasbasbag55
(g71
g57
NtRp282
(dp283
g60
(dp284
sg69
g257
sg62
(lp285
g55
(g76
g57
NtRp286
(dp287
g60
(dp288
g80
g81
ssg69
g282
sg62
(lp289
S'domain'
p290
asbag55
(g76
g57
NtRp291
(dp292
g60
(dp293
g87
g88
ssg69
g282
sg62
(lp294
S':'
asbag55
(g76
g57
NtRp295
(dp296
g60
(dp297
sg69
g282
sg62
(lp298
g55
(g56
g57
NtRp299
(dp300
g60
(dp301
g68
I3
ssg69
g295
sg62
(lp302
S''
asbasbasbag55
(g71
g57
NtRp303
(dp304
g60
(dp305
sg69
g257
sg62
(lp306
g55
(g76
g57
NtRp307
(dp308
g60
(dp309
g80
g81
ssg69
g303
sg62
(lp310
S'expires'
p311
asbag55
(g76
g57
NtRp312
(dp313
g60
(dp314
g87
g88
ssg69
g303
sg62
(lp315
S':'
asbag55
(g76
g57
NtRp316
(dp317
g60
(dp318
sg69
g303
sg62
(lp319
g55
(g56
g57
NtRp320
(dp321
g60
(dp322
g68
I3
ssg69
g316
sg62
(lp323
S''
asbasbasbag55
(g71
g57
NtRp324
(dp325
g60
(dp326
sg69
g257
sg62
(lp327
g55
(g76
g57
NtRp328
(dp329
g60
(dp330
g80
g81
ssg69
g324
sg62
(lp331
S'httponly'
p332
asbag55
(g76
g57
NtRp333
(dp334
g60
(dp335
g87
g88
ssg69
g324
sg62
(lp336
S':'
asbag55
(g76
g57
NtRp337
(dp338
g60
(dp339
sg69
g324
sg62
(lp340
g55
(g56
g57
NtRp341
(dp342
g60
(dp343
g68
I3
ssg69
g337
sg62
(lp344
S''
asbasbasbag55
(g71
g57
NtRp345
(dp346
g60
(dp347
sg69
g257
sg62
(lp348
g55
(g76
g57
NtRp349
(dp350
g60
(dp351
g80
g81
ssg69
g345
sg62
(lp352
S'max-age'
p353
asbag55
(g76
g57
NtRp354
(dp355
g60
(dp356
g87
g88
ssg69
g345
sg62
(lp357
S':'
asbag55
(g76
g57
NtRp358
(dp359
g60
(dp360
sg69
g345
sg62
(lp361
g55
(g56
g57
NtRp362
(dp363
g60
(dp364
g68
I3
ssg69
g358
sg62
(lp365
S''
asbasbasbag55
(g71
g57
NtRp366
(dp367
g60
(dp368
sg69
g257
sg62
(lp369
g55
(g76
g57
NtRp370
(dp371
g60
(dp372
g80
g81
ssg69
g366
sg62
(lp373
S'path'
p374
asbag55
(g76
g57
NtRp375
(dp376
g60
(dp377
g87
g88
ssg69
g366
sg62
(lp378
S':'
asbag55
(g76
g57
NtRp379
(dp380
g60
(dp381
sg69
g366
sg62
(lp382
g55
(g56
g57
NtRp383
(dp384
g60
(dp385
g68
I3
ssg69
g379
sg62
(lp386
S''
asbasbasbag55
(g71
g57
NtRp387
(dp388
g60
(dp389
sg69
g257
sg62
(lp390
g55
(g76
g57
NtRp391
(dp392
g60
(dp393
g80
g81
ssg69
g387
sg62
(lp394
S'secure'
p395
asbag55
(g76
g57
NtRp396
(dp397
g60
(dp398
g87
g88
ssg69
g387
sg62
(lp399
S':'
asbag55
(g76
g57
NtRp400
(dp401
g60
(dp402
sg69
g387
sg62
(lp403
g55
(g56
g57
NtRp404
(dp405
g60
(dp406
g68
I3
ssg69
g400
sg62
(lp407
S''
asbasbasbag55
(g71
g57
NtRp408
(dp409
g60
(dp410
sg69
g257
sg62
(lp411
g55
(g76
g57
NtRp412
(dp413
g60
(dp414
g80
g81
ssg69
g408
sg62
(lp415
S'version'
p416
asbag55
(g76
g57
NtRp417
(dp418
g60
(dp419
g87
g88
ssg69
g408
sg62
(lp420
S':'
asbag55
(g76
g57
NtRp421
(dp422
g60
(dp423
sg69
g408
sg62
(lp424
g55
(g56
g57
NtRp425
(dp426
g60
(dp427
g68
I3
ssg69
g421
sg62
(lp428
S''
asbasbasbasbasbasbasbag55
(g71
g57
NtRp429
(dp430
g60
(dp431
sg69
g232
sg62
(lp432
g55
(g76
g57
NtRp433
(dp434
g60
(dp435
g80
g81
ssg69
g429
sg62
(lp436
S'euin_cookie'
p437
asbag55
(g76
g57
NtRp438
(dp439
g60
(dp440
g87
g88
ssg69
g429
sg62
(lp441
S':'
asbag55
(g76
g57
NtRp442
(dp443
g60
(dp444
sg69
g429
sg62
(lp445
g55
(g56
g57
NtRp446
(dp447
g60
(dp448
g68
I4
ssg69
g442
sg62
(lp449
g55
(g64
g57
NtRp450
(dp451
g60
(dp452
g68
I3
ssg69
Nsg62
(lp453
g55
(g71
g57
NtRp454
(dp455
g60
(dp456
sg69
g450
sg62
(lp457
g55
(g76
g57
NtRp458
(dp459
g60
(dp460
g80
g81
ssg69
g454
sg62
(lp461
g269
asbag55
(g76
g57
NtRp462
(dp463
g60
(dp464
g87
g88
ssg69
g454
sg62
(lp465
S':'
asbag55
(g76
g57
NtRp466
(dp467
g60
(dp468
sg69
g454
sg62
(lp469
g55
(g56
g57
NtRp470
(dp471
g60
(dp472
g68
I3
ssg69
g466
sg62
(lp473
S''
asbasbasbag55
(g71
g57
NtRp474
(dp475
g60
(dp476
sg69
g450
sg62
(lp477
g55
(g76
g57
NtRp478
(dp479
g60
(dp480
g80
g81
ssg69
g474
sg62
(lp481
g290
asbag55
(g76
g57
NtRp482
(dp483
g60
(dp484
g87
g88
ssg69
g474
sg62
(lp485
S':'
asbag55
(g76
g57
NtRp486
(dp487
g60
(dp488
sg69
g474
sg62
(lp489
g55
(g56
g57
NtRp490
(dp491
g60
(dp492
g68
I3
ssg69
g486
sg62
(lp493
S''
asbasbasbag55
(g71
g57
NtRp494
(dp495
g60
(dp496
sg69
g450
sg62
(lp497
g55
(g76
g57
NtRp498
(dp499
g60
(dp500
g80
g81
ssg69
g494
sg62
(lp501
g311
asbag55
(g76
g57
NtRp502
(dp503
g60
(dp504
g87
g88
ssg69
g494
sg62
(lp505
S':'
asbag55
(g76
g57
NtRp506
(dp507
g60
(dp508
sg69
g494
sg62
(lp509
g55
(g56
g57
NtRp510
(dp511
g60
(dp512
g68
I3
ssg69
g506
sg62
(lp513
S''
asbasbasbag55
(g71
g57
NtRp514
(dp515
g60
(dp516
sg69
g450
sg62
(lp517
g55
(g76
g57
NtRp518
(dp519
g60
(dp520
g80
g81
ssg69
g514
sg62
(lp521
g332
asbag55
(g76
g57
NtRp522
(dp523
g60
(dp524
g87
g88
ssg69
g514
sg62
(lp525
S':'
asbag55
(g76
g57
NtRp526
(dp527
g60
(dp528
sg69
g514
sg62
(lp529
g55
(g56
g57
NtRp530
(dp531
g60
(dp532
g68
I3
ssg69
g526
sg62
(lp533
S''
asbasbasbag55
(g71
g57
NtRp534
(dp535
g60
(dp536
sg69
g450
sg62
(lp537
g55
(g76
g57
NtRp538
(dp539
g60
(dp540
g80
g81
ssg69
g534
sg62
(lp541
g353
asbag55
(g76
g57
NtRp542
(dp543
g60
(dp544
g87
g88
ssg69
g534
sg62
(lp545
S':'
asbag55
(g76
g57
NtRp546
(dp547
g60
(dp548
sg69
g534
sg62
(lp549
g55
(g56
g57
NtRp550
(dp551
g60
(dp552
g68
I3
ssg69
g546
sg62
(lp553
S''
asbasbasbag55
(g71
g57
NtRp554
(dp555
g60
(dp556
sg69
g450
sg62
(lp557
g55
(g76
g57
NtRp558
(dp559
g60
(dp560
g80
g81
ssg69
g554
sg62
(lp561
g374
asbag55
(g76
g57
NtRp562
(dp563
g60
(dp564
g87
g88
ssg69
g554
sg62
(lp565
S':'
asbag55
(g76
g57
NtRp566
(dp567
g60
(dp568
sg69
g554
sg62
(lp569
g55
(g56
g57
NtRp570
(dp571
g60
(dp572
g68
I3
ssg69
g566
sg62
(lp573
S''
asbasbasbag55
(g71
g57
NtRp574
(dp575
g60
(dp576
sg69
g450
sg62
(lp577
g55
(g76
g57
NtRp578
(dp579
g60
(dp580
g80
g81
ssg69
g574
sg62
(lp581
g395
asbag55
(g76
g57
NtRp582
(dp583
g60
(dp584
g87
g88
ssg69
g574
sg62
(lp585
S':'
asbag55
(g76
g57
NtRp586
(dp587
g60
(dp588
sg69
g574
sg62
(lp589
g55
(g56
g57
NtRp590
(dp591
g60
(dp592
g68
I3
ssg69
g586
sg62
(lp593
S''
asbasbasbag55
(g71
g57
NtRp594
(dp595
g60
(dp596
sg69
g450
sg62
(lp597
g55
(g76
g57
NtRp598
(dp599
g60
(dp600
g80
g81
ssg69
g594
sg62
(lp601
g416
asbag55
(g76
g57
NtRp602
(dp603
g60
(dp604
g87
g88
ssg69
g594
sg62
(lp605
S':'
asbag55
(g76
g57
NtRp606
(dp607
g60
(dp608
sg69
g594
sg62
(lp609
g55
(g56
g57
NtRp610
(dp611
g60
(dp612
g68
I3
ssg69
g606
sg62
(lp613
S''
asbasbasbasbasbasbasbag55
(g71
g57
NtRp614
(dp615
g60
(dp616
sg69
g232
sg62
(lp617
g55
(g76
g57
NtRp618
(dp619
g60
(dp620
g80
g81
ssg69
g614
sg62
(lp621
S'o_cookie'
p622
asbag55
(g76
g57
NtRp623
(dp624
g60
(dp625
g87
g88
ssg69
g614
sg62
(lp626
S':'
asbag55
(g76
g57
NtRp627
(dp628
g60
(dp629
sg69
g614
sg62
(lp630
g55
(g56
g57
NtRp631
(dp632
g60
(dp633
g68
I4
ssg69
g627
sg62
(lp634
g55
(g64
g57
NtRp635
(dp636
g60
(dp637
g68
I3
ssg69
Nsg62
(lp638
g55
(g71
g57
NtRp639
(dp640
g60
(dp641
sg69
g635
sg62
(lp642
g55
(g76
g57
NtRp643
(dp644
g60
(dp645
g80
g81
ssg69
g639
sg62
(lp646
g269
asbag55
(g76
g57
NtRp647
(dp648
g60
(dp649
g87
g88
ssg69
g639
sg62
(lp650
S':'
asbag55
(g76
g57
NtRp651
(dp652
g60
(dp653
sg69
g639
sg62
(lp654
g55
(g56
g57
NtRp655
(dp656
g60
(dp657
g68
I3
ssg69
g651
sg62
(lp658
S''
asbasbasbag55
(g71
g57
NtRp659
(dp660
g60
(dp661
sg69
g635
sg62
(lp662
g55
(g76
g57
NtRp663
(dp664
g60
(dp665
g80
g81
ssg69
g659
sg62
(lp666
g290
asbag55
(g76
g57
NtRp667
(dp668
g60
(dp669
g87
g88
ssg69
g659
sg62
(lp670
S':'
asbag55
(g76
g57
NtRp671
(dp672
g60
(dp673
sg69
g659
sg62
(lp674
g55
(g56
g57
NtRp675
(dp676
g60
(dp677
g68
I3
ssg69
g671
sg62
(lp678
S''
asbasbasbag55
(g71
g57
NtRp679
(dp680
g60
(dp681
sg69
g635
sg62
(lp682
g55
(g76
g57
NtRp683
(dp684
g60
(dp685
g80
g81
ssg69
g679
sg62
(lp686
g311
asbag55
(g76
g57
NtRp687
(dp688
g60
(dp689
g87
g88
ssg69
g679
sg62
(lp690
S':'
asbag55
(g76
g57
NtRp691
(dp692
g60
(dp693
sg69
g679
sg62
(lp694
g55
(g56
g57
NtRp695
(dp696
g60
(dp697
g68
I3
ssg69
g691
sg62
(lp698
S''
asbasbasbag55
(g71
g57
NtRp699
(dp700
g60
(dp701
sg69
g635
sg62
(lp702
g55
(g76
g57
NtRp703
(dp704
g60
(dp705
g80
g81
ssg69
g699
sg62
(lp706
g332
asbag55
(g76
g57
NtRp707
(dp708
g60
(dp709
g87
g88
ssg69
g699
sg62
(lp710
S':'
asbag55
(g76
g57
NtRp711
(dp712
g60
(dp713
sg69
g699
sg62
(lp714
g55
(g56
g57
NtRp715
(dp716
g60
(dp717
g68
I3
ssg69
g711
sg62
(lp718
S''
asbasbasbag55
(g71
g57
NtRp719
(dp720
g60
(dp721
sg69
g635
sg62
(lp722
g55
(g76
g57
NtRp723
(dp724
g60
(dp725
g80
g81
ssg69
g719
sg62
(lp726
g353
asbag55
(g76
g57
NtRp727
(dp728
g60
(dp729
g87
g88
ssg69
g719
sg62
(lp730
S':'
asbag55
(g76
g57
NtRp731
(dp732
g60
(dp733
sg69
g719
sg62
(lp734
g55
(g56
g57
NtRp735
(dp736
g60
(dp737
g68
I3
ssg69
g731
sg62
(lp738
S''
asbasbasbag55
(g71
g57
NtRp739
(dp740
g60
(dp741
sg69
g635
sg62
(lp742
g55
(g76
g57
NtRp743
(dp744
g60
(dp745
g80
g81
ssg69
g739
sg62
(lp746
g374
asbag55
(g76
g57
NtRp747
(dp748
g60
(dp749
g87
g88
ssg69
g739
sg62
(lp750
S':'
asbag55
(g76
g57
NtRp751
(dp752
g60
(dp753
sg69
g739
sg62
(lp754
g55
(g56
g57
NtRp755
(dp756
g60
(dp757
g68
I3
ssg69
g751
sg62
(lp758
S''
asbasbasbag55
(g71
g57
NtRp759
(dp760
g60
(dp761
sg69
g635
sg62
(lp762
g55
(g76
g57
NtRp763
(dp764
g60
(dp765
g80
g81
ssg69
g759
sg62
(lp766
g395
asbag55
(g76
g57
NtRp767
(dp768
g60
(dp769
g87
g88
ssg69
g759
sg62
(lp770
S':'
asbag55
(g76
g57
NtRp771
(dp772
g60
(dp773
sg69
g759
sg62
(lp774
g55
(g56
g57
NtRp775
(dp776
g60
(dp777
g68
I3
ssg69
g771
sg62
(lp778
S''
asbasbasbag55
(g71
g57
NtRp779
(dp780
g60
(dp781
sg69
g635
sg62
(lp782
g55
(g76
g57
NtRp783
(dp784
g60
(dp785
g80
g81
ssg69
g779
sg62
(lp786
g416
asbag55
(g76
g57
NtRp787
(dp788
g60
(dp789
g87
g88
ssg69
g779
sg62
(lp790
S':'
asbag55
(g76
g57
NtRp791
(dp792
g60
(dp793
sg69
g779
sg62
(lp794
g55
(g56
g57
NtRp795
(dp796
g60
(dp797
g68
I3
ssg69
g791
sg62
(lp798
S''
asbasbasbasbasbasbasbag55
(g71
g57
NtRp799
(dp800
g60
(dp801
sg69
g232
sg62
(lp802
g55
(g76
g57
NtRp803
(dp804
g60
(dp805
g80
g81
ssg69
g799
sg62
(lp806
S'pgv_flv'
p807
asbag55
(g76
g57
NtRp808
(dp809
g60
(dp810
g87
g88
ssg69
g799
sg62
(lp811
S':'
asbag55
(g76
g57
NtRp812
(dp813
g60
(dp814
sg69
g799
sg62
(lp815
g55
(g56
g57
NtRp816
(dp817
g60
(dp818
g68
I4
ssg69
g812
sg62
(lp819
g55
(g64
g57
NtRp820
(dp821
g60
(dp822
g68
I3
ssg69
Nsg62
(lp823
g55
(g71
g57
NtRp824
(dp825
g60
(dp826
sg69
g820
sg62
(lp827
g55
(g76
g57
NtRp828
(dp829
g60
(dp830
g80
g81
ssg69
g824
sg62
(lp831
g269
asbag55
(g76
g57
NtRp832
(dp833
g60
(dp834
g87
g88
ssg69
g824
sg62
(lp835
S':'
asbag55
(g76
g57
NtRp836
(dp837
g60
(dp838
sg69
g824
sg62
(lp839
g55
(g56
g57
NtRp840
(dp841
g60
(dp842
g68
I3
ssg69
g836
sg62
(lp843
S''
asbasbasbag55
(g71
g57
NtRp844
(dp845
g60
(dp846
sg69
g820
sg62
(lp847
g55
(g76
g57
NtRp848
(dp849
g60
(dp850
g80
g81
ssg69
g844
sg62
(lp851
g290
asbag55
(g76
g57
NtRp852
(dp853
g60
(dp854
g87
g88
ssg69
g844
sg62
(lp855
S':'
asbag55
(g76
g57
NtRp856
(dp857
g60
(dp858
sg69
g844
sg62
(lp859
g55
(g56
g57
NtRp860
(dp861
g60
(dp862
g68
I3
ssg69
g856
sg62
(lp863
S''
asbasbasbag55
(g71
g57
NtRp864
(dp865
g60
(dp866
sg69
g820
sg62
(lp867
g55
(g76
g57
NtRp868
(dp869
g60
(dp870
g80
g81
ssg69
g864
sg62
(lp871
g311
asbag55
(g76
g57
NtRp872
(dp873
g60
(dp874
g87
g88
ssg69
g864
sg62
(lp875
S':'
asbag55
(g76
g57
NtRp876
(dp877
g60
(dp878
sg69
g864
sg62
(lp879
g55
(g56
g57
NtRp880
(dp881
g60
(dp882
g68
I3
ssg69
g876
sg62
(lp883
S''
asbasbasbag55
(g71
g57
NtRp884
(dp885
g60
(dp886
sg69
g820
sg62
(lp887
g55
(g76
g57
NtRp888
(dp889
g60
(dp890
g80
g81
ssg69
g884
sg62
(lp891
g332
asbag55
(g76
g57
NtRp892
(dp893
g60
(dp894
g87
g88
ssg69
g884
sg62
(lp895
S':'
asbag55
(g76
g57
NtRp896
(dp897
g60
(dp898
sg69
g884
sg62
(lp899
g55
(g56
g57
NtRp900
(dp901
g60
(dp902
g68
I3
ssg69
g896
sg62
(lp903
S''
asbasbasbag55
(g71
g57
NtRp904
(dp905
g60
(dp906
sg69
g820
sg62
(lp907
g55
(g76
g57
NtRp908
(dp909
g60
(dp910
g80
g81
ssg69
g904
sg62
(lp911
g353
asbag55
(g76
g57
NtRp912
(dp913
g60
(dp914
g87
g88
ssg69
g904
sg62
(lp915
S':'
asbag55
(g76
g57
NtRp916
(dp917
g60
(dp918
sg69
g904
sg62
(lp919
g55
(g56
g57
NtRp920
(dp921
g60
(dp922
g68
I3
ssg69
g916
sg62
(lp923
S''
asbasbasbag55
(g71
g57
NtRp924
(dp925
g60
(dp926
sg69
g820
sg62
(lp927
g55
(g76
g57
NtRp928
(dp929
g60
(dp930
g80
g81
ssg69
g924
sg62
(lp931
g374
asbag55
(g76
g57
NtRp932
(dp933
g60
(dp934
g87
g88
ssg69
g924
sg62
(lp935
S':'
asbag55
(g76
g57
NtRp936
(dp937
g60
(dp938
sg69
g924
sg62
(lp939
g55
(g56
g57
NtRp940
(dp941
g60
(dp942
g68
I3
ssg69
g936
sg62
(lp943
S''
asbasbasbag55
(g71
g57
NtRp944
(dp945
g60
(dp946
sg69
g820
sg62
(lp947
g55
(g76
g57
NtRp948
(dp949
g60
(dp950
g80
g81
ssg69
g944
sg62
(lp951
g395
asbag55
(g76
g57
NtRp952
(dp953
g60
(dp954
g87
g88
ssg69
g944
sg62
(lp955
S':'
asbag55
(g76
g57
NtRp956
(dp957
g60
(dp958
sg69
g944
sg62
(lp959
g55
(g56
g57
NtRp960
(dp961
g60
(dp962
g68
I3
ssg69
g956
sg62
(lp963
S''
asbasbasbag55
(g71
g57
NtRp964
(dp965
g60
(dp966
sg69
g820
sg62
(lp967
g55
(g76
g57
NtRp968
(dp969
g60
(dp970
g80
g81
ssg69
g964
sg62
(lp971
g416
asbag55
(g76
g57
NtRp972
(dp973
g60
(dp974
g87
g88
ssg69
g964
sg62
(lp975
S':'
asbag55
(g76
g57
NtRp976
(dp977
g60
(dp978
sg69
g964
sg62
(lp979
g55
(g56
g57
NtRp980
(dp981
g60
(dp982
g68
I3
ssg69
g976
sg62
(lp983
S''
asbasbasbasbasbasbasbag55
(g71
g57
NtRp984
(dp985
g60
(dp986
sg69
g232
sg62
(lp987
g55
(g76
g57
NtRp988
(dp989
g60
(dp990
g80
g81
ssg69
g984
sg62
(lp991
S'pgv_pvid'
p992
asbag55
(g76
g57
NtRp993
(dp994
g60
(dp995
g87
g88
ssg69
g984
sg62
(lp996
S':'
asbag55
(g76
g57
NtRp997
(dp998
g60
(dp999
sg69
g984
sg62
(lp1000
g55
(g56
g57
NtRp1001
(dp1002
g60
(dp1003
g68
I4
ssg69
g997
sg62
(lp1004
g55
(g64
g57
NtRp1005
(dp1006
g60
(dp1007
g68
I3
ssg69
Nsg62
(lp1008
g55
(g71
g57
NtRp1009
(dp1010
g60
(dp1011
sg69
g1005
sg62
(lp1012
g55
(g76
g57
NtRp1013
(dp1014
g60
(dp1015
g80
g81
ssg69
g1009
sg62
(lp1016
g269
asbag55
(g76
g57
NtRp1017
(dp1018
g60
(dp1019
g87
g88
ssg69
g1009
sg62
(lp1020
S':'
asbag55
(g76
g57
NtRp1021
(dp1022
g60
(dp1023
sg69
g1009
sg62
(lp1024
g55
(g56
g57
NtRp1025
(dp1026
g60
(dp1027
g68
I3
ssg69
g1021
sg62
(lp1028
S''
asbasbasbag55
(g71
g57
NtRp1029
(dp1030
g60
(dp1031
sg69
g1005
sg62
(lp1032
g55
(g76
g57
NtRp1033
(dp1034
g60
(dp1035
g80
g81
ssg69
g1029
sg62
(lp1036
g290
asbag55
(g76
g57
NtRp1037
(dp1038
g60
(dp1039
g87
g88
ssg69
g1029
sg62
(lp1040
S':'
asbag55
(g76
g57
NtRp1041
(dp1042
g60
(dp1043
sg69
g1029
sg62
(lp1044
g55
(g56
g57
NtRp1045
(dp1046
g60
(dp1047
g68
I3
ssg69
g1041
sg62
(lp1048
S''
asbasbasbag55
(g71
g57
NtRp1049
(dp1050
g60
(dp1051
sg69
g1005
sg62
(lp1052
g55
(g76
g57
NtRp1053
(dp1054
g60
(dp1055
g80
g81
ssg69
g1049
sg62
(lp1056
g311
asbag55
(g76
g57
NtRp1057
(dp1058
g60
(dp1059
g87
g88
ssg69
g1049
sg62
(lp1060
S':'
asbag55
(g76
g57
NtRp1061
(dp1062
g60
(dp1063
sg69
g1049
sg62
(lp1064
g55
(g56
g57
NtRp1065
(dp1066
g60
(dp1067
g68
I3
ssg69
g1061
sg62
(lp1068
S''
asbasbasbag55
(g71
g57
NtRp1069
(dp1070
g60
(dp1071
sg69
g1005
sg62
(lp1072
g55
(g76
g57
NtRp1073
(dp1074
g60
(dp1075
g80
g81
ssg69
g1069
sg62
(lp1076
g332
asbag55
(g76
g57
NtRp1077
(dp1078
g60
(dp1079
g87
g88
ssg69
g1069
sg62
(lp1080
S':'
asbag55
(g76
g57
NtRp1081
(dp1082
g60
(dp1083
sg69
g1069
sg62
(lp1084
g55
(g56
g57
NtRp1085
(dp1086
g60
(dp1087
g68
I3
ssg69
g1081
sg62
(lp1088
S''
asbasbasbag55
(g71
g57
NtRp1089
(dp1090
g60
(dp1091
sg69
g1005
sg62
(lp1092
g55
(g76
g57
NtRp1093
(dp1094
g60
(dp1095
g80
g81
ssg69
g1089
sg62
(lp1096
g353
asbag55
(g76
g57
NtRp1097
(dp1098
g60
(dp1099
g87
g88
ssg69
g1089
sg62
(lp1100
S':'
asbag55
(g76
g57
NtRp1101
(dp1102
g60
(dp1103
sg69
g1089
sg62
(lp1104
g55
(g56
g57
NtRp1105
(dp1106
g60
(dp1107
g68
I3
ssg69
g1101
sg62
(lp1108
S''
asbasbasbag55
(g71
g57
NtRp1109
(dp1110
g60
(dp1111
sg69
g1005
sg62
(lp1112
g55
(g76
g57
NtRp1113
(dp1114
g60
(dp1115
g80
g81
ssg69
g1109
sg62
(lp1116
g374
asbag55
(g76
g57
NtRp1117
(dp1118
g60
(dp1119
g87
g88
ssg69
g1109
sg62
(lp1120
S':'
asbag55
(g76
g57
NtRp1121
(dp1122
g60
(dp1123
sg69
g1109
sg62
(lp1124
g55
(g56
g57
NtRp1125
(dp1126
g60
(dp1127
g68
I3
ssg69
g1121
sg62
(lp1128
S''
asbasbasbag55
(g71
g57
NtRp1129
(dp1130
g60
(dp1131
sg69
g1005
sg62
(lp1132
g55
(g76
g57
NtRp1133
(dp1134
g60
(dp1135
g80
g81
ssg69
g1129
sg62
(lp1136
g395
asbag55
(g76
g57
NtRp1137
(dp1138
g60
(dp1139
g87
g88
ssg69
g1129
sg62
(lp1140
S':'
asbag55
(g76
g57
NtRp1141
(dp1142
g60
(dp1143
sg69
g1129
sg62
(lp1144
g55
(g56
g57
NtRp1145
(dp1146
g60
(dp1147
g68
I3
ssg69
g1141
sg62
(lp1148
S''
asbasbasbag55
(g71
g57
NtRp1149
(dp1150
g60
(dp1151
sg69
g1005
sg62
(lp1152
g55
(g76
g57
NtRp1153
(dp1154
g60
(dp1155
g80
g81
ssg69
g1149
sg62
(lp1156
g416
asbag55
(g76
g57
NtRp1157
(dp1158
g60
(dp1159
g87
g88
ssg69
g1149
sg62
(lp1160
S':'
asbag55
(g76
g57
NtRp1161
(dp1162
g60
(dp1163
sg69
g1149
sg62
(lp1164
g55
(g56
g57
NtRp1165
(dp1166
g60
(dp1167
g68
I3
ssg69
g1161
sg62
(lp1168
S''
asbasbasbasbasbasbasbag55
(g71
g57
NtRp1169
(dp1170
g60
(dp1171
sg69
g232
sg62
(lp1172
g55
(g76
g57
NtRp1173
(dp1174
g60
(dp1175
g80
g81
ssg69
g1169
sg62
(lp1176
S'pgv_r_cookie'
p1177
asbag55
(g76
g57
NtRp1178
(dp1179
g60
(dp1180
g87
g88
ssg69
g1169
sg62
(lp1181
S':'
asbag55
(g76
g57
NtRp1182
(dp1183
g60
(dp1184
sg69
g1169
sg62
(lp1185
g55
(g56
g57
NtRp1186
(dp1187
g60
(dp1188
g68
I4
ssg69
g1182
sg62
(lp1189
g55
(g64
g57
NtRp1190
(dp1191
g60
(dp1192
g68
I3
ssg69
Nsg62
(lp1193
g55
(g71
g57
NtRp1194
(dp1195
g60
(dp1196
sg69
g1190
sg62
(lp1197
g55
(g76
g57
NtRp1198
(dp1199
g60
(dp1200
g80
g81
ssg69
g1194
sg62
(lp1201
g269
asbag55
(g76
g57
NtRp1202
(dp1203
g60
(dp1204
g87
g88
ssg69
g1194
sg62
(lp1205
S':'
asbag55
(g76
g57
NtRp1206
(dp1207
g60
(dp1208
sg69
g1194
sg62
(lp1209
g55
(g56
g57
NtRp1210
(dp1211
g60
(dp1212
g68
I3
ssg69
g1206
sg62
(lp1213
S''
asbasbasbag55
(g71
g57
NtRp1214
(dp1215
g60
(dp1216
sg69
g1190
sg62
(lp1217
g55
(g76
g57
NtRp1218
(dp1219
g60
(dp1220
g80
g81
ssg69
g1214
sg62
(lp1221
g290
asbag55
(g76
g57
NtRp1222
(dp1223
g60
(dp1224
g87
g88
ssg69
g1214
sg62
(lp1225
S':'
asbag55
(g76
g57
NtRp1226
(dp1227
g60
(dp1228
sg69
g1214
sg62
(lp1229
g55
(g56
g57
NtRp1230
(dp1231
g60
(dp1232
g68
I3
ssg69
g1226
sg62
(lp1233
S''
asbasbasbag55
(g71
g57
NtRp1234
(dp1235
g60
(dp1236
sg69
g1190
sg62
(lp1237
g55
(g76
g57
NtRp1238
(dp1239
g60
(dp1240
g80
g81
ssg69
g1234
sg62
(lp1241
g311
asbag55
(g76
g57
NtRp1242
(dp1243
g60
(dp1244
g87
g88
ssg69
g1234
sg62
(lp1245
S':'
asbag55
(g76
g57
NtRp1246
(dp1247
g60
(dp1248
sg69
g1234
sg62
(lp1249
g55
(g56
g57
NtRp1250
(dp1251
g60
(dp1252
g68
I3
ssg69
g1246
sg62
(lp1253
S''
asbasbasbag55
(g71
g57
NtRp1254
(dp1255
g60
(dp1256
sg69
g1190
sg62
(lp1257
g55
(g76
g57
NtRp1258
(dp1259
g60
(dp1260
g80
g81
ssg69
g1254
sg62
(lp1261
g332
asbag55
(g76
g57
NtRp1262
(dp1263
g60
(dp1264
g87
g88
ssg69
g1254
sg62
(lp1265
S':'
asbag55
(g76
g57
NtRp1266
(dp1267
g60
(dp1268
sg69
g1254
sg62
(lp1269
g55
(g56
g57
NtRp1270
(dp1271
g60
(dp1272
g68
I3
ssg69
g1266
sg62
(lp1273
S''
asbasbasbag55
(g71
g57
NtRp1274
(dp1275
g60
(dp1276
sg69
g1190
sg62
(lp1277
g55
(g76
g57
NtRp1278
(dp1279
g60
(dp1280
g80
g81
ssg69
g1274
sg62
(lp1281
g353
asbag55
(g76
g57
NtRp1282
(dp1283
g60
(dp1284
g87
g88
ssg69
g1274
sg62
(lp1285
S':'
asbag55
(g76
g57
NtRp1286
(dp1287
g60
(dp1288
sg69
g1274
sg62
(lp1289
g55
(g56
g57
NtRp1290
(dp1291
g60
(dp1292
g68
I3
ssg69
g1286
sg62
(lp1293
S''
asbasbasbag55
(g71
g57
NtRp1294
(dp1295
g60
(dp1296
sg69
g1190
sg62
(lp1297
g55
(g76
g57
NtRp1298
(dp1299
g60
(dp1300
g80
g81
ssg69
g1294
sg62
(lp1301
g374
asbag55
(g76
g57
NtRp1302
(dp1303
g60
(dp1304
g87
g88
ssg69
g1294
sg62
(lp1305
S':'
asbag55
(g76
g57
NtRp1306
(dp1307
g60
(dp1308
sg69
g1294
sg62
(lp1309
g55
(g56
g57
NtRp1310
(dp1311
g60
(dp1312
g68
I3
ssg69
g1306
sg62
(lp1313
S''
asbasbasbag55
(g71
g57
NtRp1314
(dp1315
g60
(dp1316
sg69
g1190
sg62
(lp1317
g55
(g76
g57
NtRp1318
(dp1319
g60
(dp1320
g80
g81
ssg69
g1314
sg62
(lp1321
g395
asbag55
(g76
g57
NtRp1322
(dp1323
g60
(dp1324
g87
g88
ssg69
g1314
sg62
(lp1325
S':'
asbag55
(g76
g57
NtRp1326
(dp1327
g60
(dp1328
sg69
g1314
sg62
(lp1329
g55
(g56
g57
NtRp1330
(dp1331
g60
(dp1332
g68
I3
ssg69
g1326
sg62
(lp1333
S''
asbasbasbag55
(g71
g57
NtRp1334
(dp1335
g60
(dp1336
sg69
g1190
sg62
(lp1337
g55
(g76
g57
NtRp1338
(dp1339
g60
(dp1340
g80
g81
ssg69
g1334
sg62
(lp1341
g416
asbag55
(g76
g57
NtRp1342
(dp1343
g60
(dp1344
g87
g88
ssg69
g1334
sg62
(lp1345
S':'
asbag55
(g76
g57
NtRp1346
(dp1347
g60
(dp1348
sg69
g1334
sg62
(lp1349
g55
(g56
g57
NtRp1350
(dp1351
g60
(dp1352
g68
I3
ssg69
g1346
sg62
(lp1353
S''
asbasbasbasbasbasbasbag55
(g71
g57
NtRp1354
(dp1355
g60
(dp1356
sg69
g232
sg62
(lp1357
g55
(g76
g57
NtRp1358
(dp1359
g60
(dp1360
g80
g81
ssg69
g1354
sg62
(lp1361
S'pt2gguin'
p1362
asbag55
(g76
g57
NtRp1363
(dp1364
g60
(dp1365
g87
g88
ssg69
g1354
sg62
(lp1366
S':'
asbag55
(g76
g57
NtRp1367
(dp1368
g60
(dp1369
sg69
g1354
sg62
(lp1370
g55
(g56
g57
NtRp1371
(dp1372
g60
(dp1373
g68
I4
ssg69
g1367
sg62
(lp1374
g55
(g64
g57
NtRp1375
(dp1376
g60
(dp1377
g68
I3
ssg69
Nsg62
(lp1378
g55
(g71
g57
NtRp1379
(dp1380
g60
(dp1381
sg69
g1375
sg62
(lp1382
g55
(g76
g57
NtRp1383
(dp1384
g60
(dp1385
g80
g81
ssg69
g1379
sg62
(lp1386
g269
asbag55
(g76
g57
NtRp1387
(dp1388
g60
(dp1389
g87
g88
ssg69
g1379
sg62
(lp1390
S':'
asbag55
(g76
g57
NtRp1391
(dp1392
g60
(dp1393
sg69
g1379
sg62
(lp1394
g55
(g56
g57
NtRp1395
(dp1396
g60
(dp1397
g68
I3
ssg69
g1391
sg62
(lp1398
S''
asbasbasbag55
(g71
g57
NtRp1399
(dp1400
g60
(dp1401
sg69
g1375
sg62
(lp1402
g55
(g76
g57
NtRp1403
(dp1404
g60
(dp1405
g80
g81
ssg69
g1399
sg62
(lp1406
g290
asbag55
(g76
g57
NtRp1407
(dp1408
g60
(dp1409
g87
g88
ssg69
g1399
sg62
(lp1410
S':'
asbag55
(g76
g57
NtRp1411
(dp1412
g60
(dp1413
sg69
g1399
sg62
(lp1414
g55
(g56
g57
NtRp1415
(dp1416
g60
(dp1417
g68
I3
ssg69
g1411
sg62
(lp1418
S''
asbasbasbag55
(g71
g57
NtRp1419
(dp1420
g60
(dp1421
sg69
g1375
sg62
(lp1422
g55
(g76
g57
NtRp1423
(dp1424
g60
(dp1425
g80
g81
ssg69
g1419
sg62
(lp1426
g311
asbag55
(g76
g57
NtRp1427
(dp1428
g60
(dp1429
g87
g88
ssg69
g1419
sg62
(lp1430
S':'
asbag55
(g76
g57
NtRp1431
(dp1432
g60
(dp1433
sg69
g1419
sg62
(lp1434
g55
(g56
g57
NtRp1435
(dp1436
g60
(dp1437
g68
I3
ssg69
g1431
sg62
(lp1438
S''
asbasbasbag55
(g71
g57
NtRp1439
(dp1440
g60
(dp1441
sg69
g1375
sg62
(lp1442
g55
(g76
g57
NtRp1443
(dp1444
g60
(dp1445
g80
g81
ssg69
g1439
sg62
(lp1446
g332
asbag55
(g76
g57
NtRp1447
(dp1448
g60
(dp1449
g87
g88
ssg69
g1439
sg62
(lp1450
S':'
asbag55
(g76
g57
NtRp1451
(dp1452
g60
(dp1453
sg69
g1439
sg62
(lp1454
g55
(g56
g57
NtRp1455
(dp1456
g60
(dp1457
g68
I3
ssg69
g1451
sg62
(lp1458
S''
asbasbasbag55
(g71
g57
NtRp1459
(dp1460
g60
(dp1461
sg69
g1375
sg62
(lp1462
g55
(g76
g57
NtRp1463
(dp1464
g60
(dp1465
g80
g81
ssg69
g1459
sg62
(lp1466
g353
asbag55
(g76
g57
NtRp1467
(dp1468
g60
(dp1469
g87
g88
ssg69
g1459
sg62
(lp1470
S':'
asbag55
(g76
g57
NtRp1471
(dp1472
g60
(dp1473
sg69
g1459
sg62
(lp1474
g55
(g56
g57
NtRp1475
(dp1476
g60
(dp1477
g68
I3
ssg69
g1471
sg62
(lp1478
S''
asbasbasbag55
(g71
g57
NtRp1479
(dp1480
g60
(dp1481
sg69
g1375
sg62
(lp1482
g55
(g76
g57
NtRp1483
(dp1484
g60
(dp1485
g80
g81
ssg69
g1479
sg62
(lp1486
g374
asbag55
(g76
g57
NtRp1487
(dp1488
g60
(dp1489
g87
g88
ssg69
g1479
sg62
(lp1490
S':'
asbag55
(g76
g57
NtRp1491
(dp1492
g60
(dp1493
sg69
g1479
sg62
(lp1494
g55
(g56
g57
NtRp1495
(dp1496
g60
(dp1497
g68
I3
ssg69
g1491
sg62
(lp1498
S''
asbasbasbag55
(g71
g57
NtRp1499
(dp1500
g60
(dp1501
sg69
g1375
sg62
(lp1502
g55
(g76
g57
NtRp1503
(dp1504
g60
(dp1505
g80
g81
ssg69
g1499
sg62
(lp1506
g395
asbag55
(g76
g57
NtRp1507
(dp1508
g60
(dp1509
g87
g88
ssg69
g1499
sg62
(lp1510
S':'
asbag55
(g76
g57
NtRp1511
(dp1512
g60
(dp1513
sg69
g1499
sg62
(lp1514
g55
(g56
g57
NtRp1515
(dp1516
g60
(dp1517
g68
I3
ssg69
g1511
sg62
(lp1518
S''
asbasbasbag55
(g71
g57
NtRp1519
(dp1520
g60
(dp1521
sg69
g1375
sg62
(lp1522
g55
(g76
g57
NtRp1523
(dp1524
g60
(dp1525
g80
g81
ssg69
g1519
sg62
(lp1526
g416
asbag55
(g76
g57
NtRp1527
(dp1528
g60
(dp1529
g87
g88
ssg69
g1519
sg62
(lp1530
S':'
asbag55
(g76
g57
NtRp1531
(dp1532
g60
(dp1533
sg69
g1519
sg62
(lp1534
g55
(g56
g57
NtRp1535
(dp1536
g60
(dp1537
g68
I3
ssg69
g1531
sg62
(lp1538
S''
asbasbasbasbasbasbasbag55
(g71
g57
NtRp1539
(dp1540
g60
(dp1541
sg69
g232
sg62
(lp1542
g55
(g76
g57
NtRp1543
(dp1544
g60
(dp1545
g80
g81
ssg69
g1539
sg62
(lp1546
S'session_id_examples'
p1547
asbag55
(g76
g57
NtRp1548
(dp1549
g60
(dp1550
g87
g88
ssg69
g1539
sg62
(lp1551
S':'
asbag55
(g76
g57
NtRp1552
(dp1553
g60
(dp1554
sg69
g1539
sg62
(lp1555
g55
(g56
g57
NtRp1556
(dp1557
g60
(dp1558
g68
I4
ssg69
g1552
sg62
(lp1559
g55
(g64
g57
NtRp1560
(dp1561
g60
(dp1562
g68
I3
ssg69
Nsg62
(lp1563
g55
(g71
g57
NtRp1564
(dp1565
g60
(dp1566
sg69
g1560
sg62
(lp1567
g55
(g76
g57
NtRp1568
(dp1569
g60
(dp1570
g80
g81
ssg69
g1564
sg62
(lp1571
g269
asbag55
(g76
g57
NtRp1572
(dp1573
g60
(dp1574
g87
g88
ssg69
g1564
sg62
(lp1575
S':'
asbag55
(g76
g57
NtRp1576
(dp1577
g60
(dp1578
sg69
g1564
sg62
(lp1579
g55
(g56
g57
NtRp1580
(dp1581
g60
(dp1582
g68
I3
ssg69
g1576
sg62
(lp1583
S''
asbasbasbag55
(g71
g57
NtRp1584
(dp1585
g60
(dp1586
sg69
g1560
sg62
(lp1587
g55
(g76
g57
NtRp1588
(dp1589
g60
(dp1590
g80
g81
ssg69
g1584
sg62
(lp1591
g290
asbag55
(g76
g57
NtRp1592
(dp1593
g60
(dp1594
g87
g88
ssg69
g1584
sg62
(lp1595
S':'
asbag55
(g76
g57
NtRp1596
(dp1597
g60
(dp1598
sg69
g1584
sg62
(lp1599
g55
(g56
g57
NtRp1600
(dp1601
g60
(dp1602
g68
I3
ssg69
g1596
sg62
(lp1603
S''
asbasbasbag55
(g71
g57
NtRp1604
(dp1605
g60
(dp1606
sg69
g1560
sg62
(lp1607
g55
(g76
g57
NtRp1608
(dp1609
g60
(dp1610
g80
g81
ssg69
g1604
sg62
(lp1611
g311
asbag55
(g76
g57
NtRp1612
(dp1613
g60
(dp1614
g87
g88
ssg69
g1604
sg62
(lp1615
S':'
asbag55
(g76
g57
NtRp1616
(dp1617
g60
(dp1618
sg69
g1604
sg62
(lp1619
g55
(g56
g57
NtRp1620
(dp1621
g60
(dp1622
g68
I3
ssg69
g1616
sg62
(lp1623
S''
asbasbasbag55
(g71
g57
NtRp1624
(dp1625
g60
(dp1626
sg69
g1560
sg62
(lp1627
g55
(g76
g57
NtRp1628
(dp1629
g60
(dp1630
g80
g81
ssg69
g1624
sg62
(lp1631
g332
asbag55
(g76
g57
NtRp1632
(dp1633
g60
(dp1634
g87
g88
ssg69
g1624
sg62
(lp1635
S':'
asbag55
(g76
g57
NtRp1636
(dp1637
g60
(dp1638
sg69
g1624
sg62
(lp1639
g55
(g56
g57
NtRp1640
(dp1641
g60
(dp1642
g68
I3
ssg69
g1636
sg62
(lp1643
S''
asbasbasbag55
(g71
g57
NtRp1644
(dp1645
g60
(dp1646
sg69
g1560
sg62
(lp1647
g55
(g76
g57
NtRp1648
(dp1649
g60
(dp1650
g80
g81
ssg69
g1644
sg62
(lp1651
g353
asbag55
(g76
g57
NtRp1652
(dp1653
g60
(dp1654
g87
g88
ssg69
g1644
sg62
(lp1655
S':'
asbag55
(g76
g57
NtRp1656
(dp1657
g60
(dp1658
sg69
g1644
sg62
(lp1659
g55
(g56
g57
NtRp1660
(dp1661
g60
(dp1662
g68
I3
ssg69
g1656
sg62
(lp1663
S''
asbasbasbag55
(g71
g57
NtRp1664
(dp1665
g60
(dp1666
sg69
g1560
sg62
(lp1667
g55
(g76
g57
NtRp1668
(dp1669
g60
(dp1670
g80
g81
ssg69
g1664
sg62
(lp1671
g374
asbag55
(g76
g57
NtRp1672
(dp1673
g60
(dp1674
g87
g88
ssg69
g1664
sg62
(lp1675
S':'
asbag55
(g76
g57
NtRp1676
(dp1677
g60
(dp1678
sg69
g1664
sg62
(lp1679
g55
(g56
g57
NtRp1680
(dp1681
g60
(dp1682
g68
I3
ssg69
g1676
sg62
(lp1683
S''
asbasbasbag55
(g71
g57
NtRp1684
(dp1685
g60
(dp1686
sg69
g1560
sg62
(lp1687
g55
(g76
g57
NtRp1688
(dp1689
g60
(dp1690
g80
g81
ssg69
g1684
sg62
(lp1691
g395
asbag55
(g76
g57
NtRp1692
(dp1693
g60
(dp1694
g87
g88
ssg69
g1684
sg62
(lp1695
S':'
asbag55
(g76
g57
NtRp1696
(dp1697
g60
(dp1698
sg69
g1684
sg62
(lp1699
g55
(g56
g57
NtRp1700
(dp1701
g60
(dp1702
g68
I3
ssg69
g1696
sg62
(lp1703
S''
asbasbasbag55
(g71
g57
NtRp1704
(dp1705
g60
(dp1706
sg69
g1560
sg62
(lp1707
g55
(g76
g57
NtRp1708
(dp1709
g60
(dp1710
g80
g81
ssg69
g1704
sg62
(lp1711
g416
asbag55
(g76
g57
NtRp1712
(dp1713
g60
(dp1714
g87
g88
ssg69
g1704
sg62
(lp1715
S':'
asbag55
(g76
g57
NtRp1716
(dp1717
g60
(dp1718
sg69
g1704
sg62
(lp1719
g55
(g56
g57
NtRp1720
(dp1721
g60
(dp1722
g68
I3
ssg69
g1716
sg62
(lp1723
S''
asbasbasbasbasbasbasbag55
(g71
g57
NtRp1724
(dp1725
g60
(dp1726
sg69
g232
sg62
(lp1727
g55
(g76
g57
NtRp1728
(dp1729
g60
(dp1730
g80
g81
ssg69
g1724
sg62
(lp1731
S'uin_cookie'
p1732
asbag55
(g76
g57
NtRp1733
(dp1734
g60
(dp1735
g87
g88
ssg69
g1724
sg62
(lp1736
S':'
asbag55
(g76
g57
NtRp1737
(dp1738
g60
(dp1739
sg69
g1724
sg62
(lp1740
g55
(g56
g57
NtRp1741
(dp1742
g60
(dp1743
g68
I4
ssg69
g1737
sg62
(lp1744
g55
(g64
g57
NtRp1745
(dp1746
g60
(dp1747
g68
I3
ssg69
Nsg62
(lp1748
g55
(g71
g57
NtRp1749
(dp1750
g60
(dp1751
sg69
g1745
sg62
(lp1752
g55
(g76
g57
NtRp1753
(dp1754
g60
(dp1755
g80
g81
ssg69
g1749
sg62
(lp1756
g269
asbag55
(g76
g57
NtRp1757
(dp1758
g60
(dp1759
g87
g88
ssg69
g1749
sg62
(lp1760
S':'
asbag55
(g76
g57
NtRp1761
(dp1762
g60
(dp1763
sg69
g1749
sg62
(lp1764
g55
(g56
g57
NtRp1765
(dp1766
g60
(dp1767
g68
I3
ssg69
g1761
sg62
(lp1768
S''
asbasbasbag55
(g71
g57
NtRp1769
(dp1770
g60
(dp1771
sg69
g1745
sg62
(lp1772
g55
(g76
g57
NtRp1773
(dp1774
g60
(dp1775
g80
g81
ssg69
g1769
sg62
(lp1776
g290
asbag55
(g76
g57
NtRp1777
(dp1778
g60
(dp1779
g87
g88
ssg69
g1769
sg62
(lp1780
S':'
asbag55
(g76
g57
NtRp1781
(dp1782
g60
(dp1783
sg69
g1769
sg62
(lp1784
g55
(g56
g57
NtRp1785
(dp1786
g60
(dp1787
g68
I3
ssg69
g1781
sg62
(lp1788
S''
asbasbasbag55
(g71
g57
NtRp1789
(dp1790
g60
(dp1791
sg69
g1745
sg62
(lp1792
g55
(g76
g57
NtRp1793
(dp1794
g60
(dp1795
g80
g81
ssg69
g1789
sg62
(lp1796
g311
asbag55
(g76
g57
NtRp1797
(dp1798
g60
(dp1799
g87
g88
ssg69
g1789
sg62
(lp1800
S':'
asbag55
(g76
g57
NtRp1801
(dp1802
g60
(dp1803
sg69
g1789
sg62
(lp1804
g55
(g56
g57
NtRp1805
(dp1806
g60
(dp1807
g68
I3
ssg69
g1801
sg62
(lp1808
S''
asbasbasbag55
(g71
g57
NtRp1809
(dp1810
g60
(dp1811
sg69
g1745
sg62
(lp1812
g55
(g76
g57
NtRp1813
(dp1814
g60
(dp1815
g80
g81
ssg69
g1809
sg62
(lp1816
g332
asbag55
(g76
g57
NtRp1817
(dp1818
g60
(dp1819
g87
g88
ssg69
g1809
sg62
(lp1820
S':'
asbag55
(g76
g57
NtRp1821
(dp1822
g60
(dp1823
sg69
g1809
sg62
(lp1824
g55
(g56
g57
NtRp1825
(dp1826
g60
(dp1827
g68
I3
ssg69
g1821
sg62
(lp1828
S''
asbasbasbag55
(g71
g57
NtRp1829
(dp1830
g60
(dp1831
sg69
g1745
sg62
(lp1832
g55
(g76
g57
NtRp1833
(dp1834
g60
(dp1835
g80
g81
ssg69
g1829
sg62
(lp1836
g353
asbag55
(g76
g57
NtRp1837
(dp1838
g60
(dp1839
g87
g88
ssg69
g1829
sg62
(lp1840
S':'
asbag55
(g76
g57
NtRp1841
(dp1842
g60
(dp1843
sg69
g1829
sg62
(lp1844
g55
(g56
g57
NtRp1845
(dp1846
g60
(dp1847
g68
I3
ssg69
g1841
sg62
(lp1848
S''
asbasbasbag55
(g71
g57
NtRp1849
(dp1850
g60
(dp1851
sg69
g1745
sg62
(lp1852
g55
(g76
g57
NtRp1853
(dp1854
g60
(dp1855
g80
g81
ssg69
g1849
sg62
(lp1856
g374
asbag55
(g76
g57
NtRp1857
(dp1858
g60
(dp1859
g87
g88
ssg69
g1849
sg62
(lp1860
S':'
asbag55
(g76
g57
NtRp1861
(dp1862
g60
(dp1863
sg69
g1849
sg62
(lp1864
g55
(g56
g57
NtRp1865
(dp1866
g60
(dp1867
g68
I3
ssg69
g1861
sg62
(lp1868
S''
asbasbasbag55
(g71
g57
NtRp1869
(dp1870
g60
(dp1871
sg69
g1745
sg62
(lp1872
g55
(g76
g57
NtRp1873
(dp1874
g60
(dp1875
g80
g81
ssg69
g1869
sg62
(lp1876
g395
asbag55
(g76
g57
NtRp1877
(dp1878
g60
(dp1879
g87
g88
ssg69
g1869
sg62
(lp1880
S':'
asbag55
(g76
g57
NtRp1881
(dp1882
g60
(dp1883
sg69
g1869
sg62
(lp1884
g55
(g56
g57
NtRp1885
(dp1886
g60
(dp1887
g68
I3
ssg69
g1881
sg62
(lp1888
S''
asbasbasbag55
(g71
g57
NtRp1889
(dp1890
g60
(dp1891
sg69
g1745
sg62
(lp1892
g55
(g76
g57
NtRp1893
(dp1894
g60
(dp1895
g80
g81
ssg69
g1889
sg62
(lp1896
g416
asbag55
(g76
g57
NtRp1897
(dp1898
g60
(dp1899
g87
g88
ssg69
g1889
sg62
(lp1900
S':'
asbag55
(g76
g57
NtRp1901
(dp1902
g60
(dp1903
sg69
g1889
sg62
(lp1904
g55
(g56
g57
NtRp1905
(dp1906
g60
(dp1907
g68
I3
ssg69
g1901
sg62
(lp1908
S''
asbasbasbasbasbasbasbasbasbasbasbag55
(g71
g57
NtRp1909
(dp1910
g60
(dp1911
sg69
g65
sg62
(lp1912
g55
(g76
g57
NtRp1913
(dp1914
g60
(dp1915
g80
g81
ssg69
g1909
sg62
(lp1916
S'env'
p1917
asbag55
(g76
g57
NtRp1918
(dp1919
g60
(dp1920
g87
g88
ssg69
g1909
sg62
(lp1921
S':'
asbag55
(g76
g57
NtRp1922
(dp1923
g60
(dp1924
sg69
g1909
sg62
(lp1925
g55
(g56
g57
NtRp1926
(dp1927
g60
(dp1928
g68
I5
ssg69
g1922
sg62
(lp1929
g55
(g64
g57
NtRp1930
(dp1931
g60
(dp1932
g68
I4
ssg69
Nsg62
(lp1933
g55
(g71
g57
NtRp1934
(dp1935
g60
(dp1936
sg69
g1930
sg62
(lp1937
g55
(g76
g57
NtRp1938
(dp1939
g60
(dp1940
g80
g81
ssg69
g1934
sg62
(lp1941
S'app_folders'
p1942
asbag55
(g76
g57
NtRp1943
(dp1944
g60
(dp1945
g87
g88
ssg69
g1934
sg62
(lp1946
S':'
asbag55
(g76
g57
NtRp1947
(dp1948
g60
(dp1949
sg69
g1934
sg62
(lp1950
g55
(g56
g57
NtRp1951
(dp1952
g60
(dp1953
g68
I4
ssg69
g1947
sg62
(lp1954
S"set(['D:\\\\Workbench\\\\private\\\\web2py_src\\\\applications\\\\welcome\\\\', 'D:\\\\Workbench\\\\private\\\\web2py_src\\\\applications\\\\examples\\\\', 'D:\\\\Workbench\\\\private\\\\web2py_src\\\\applications\\\\admin\\\\'])"
p1955
asbasbasbag55
(g71
g57
NtRp1956
(dp1957
g60
(dp1958
sg69
g1930
sg62
(lp1959
g55
(g76
g57
NtRp1960
(dp1961
g60
(dp1962
g80
g81
ssg69
g1956
sg62
(lp1963
S'applications_parent'
p1964
asbag55
(g76
g57
NtRp1965
(dp1966
g60
(dp1967
g87
g88
ssg69
g1956
sg62
(lp1968
S':'
asbag55
(g76
g57
NtRp1969
(dp1970
g60
(dp1971
sg69
g1956
sg62
(lp1972
g55
(g56
g57
NtRp1973
(dp1974
g60
(dp1975
g68
I4
ssg69
g1969
sg62
(lp1976
S'D:\\Workbench\\private\\web2py_src'
p1977
asbasbasbag55
(g71
g57
NtRp1978
(dp1979
g60
(dp1980
sg69
g1930
sg62
(lp1981
g55
(g76
g57
NtRp1982
(dp1983
g60
(dp1984
g80
g81
ssg69
g1978
sg62
(lp1985
S'comspec'
p1986
asbag55
(g76
g57
NtRp1987
(dp1988
g60
(dp1989
g87
g88
ssg69
g1978
sg62
(lp1990
S':'
asbag55
(g76
g57
NtRp1991
(dp1992
g60
(dp1993
sg69
g1978
sg62
(lp1994
g55
(g56
g57
NtRp1995
(dp1996
g60
(dp1997
g68
I4
ssg69
g1991
sg62
(lp1998
S'C:\\Windows\\system32\\cmd.exe'
p1999
asbasbasbag55
(g71
g57
NtRp2000
(dp2001
g60
(dp2002
sg69
g1930
sg62
(lp2003
g55
(g76
g57
NtRp2004
(dp2005
g60
(dp2006
g80
g81
ssg69
g2000
sg62
(lp2007
S'content_length'
p2008
asbag55
(g76
g57
NtRp2009
(dp2010
g60
(dp2011
g87
g88
ssg69
g2000
sg62
(lp2012
S':'
asbag55
(g76
g57
NtRp2013
(dp2014
g60
(dp2015
sg69
g2000
sg62
(lp2016
g55
(g56
g57
NtRp2017
(dp2018
g60
(dp2019
g68
I4
ssg69
g2013
sg62
(lp2020
S'510119'
p2021
asbasbasbag55
(g71
g57
NtRp2022
(dp2023
g60
(dp2024
sg69
g1930
sg62
(lp2025
g55
(g76
g57
NtRp2026
(dp2027
g60
(dp2028
g80
g81
ssg69
g2022
sg62
(lp2029
S'content_type'
p2030
asbag55
(g76
g57
NtRp2031
(dp2032
g60
(dp2033
g87
g88
ssg69
g2022
sg62
(lp2034
S':'
asbag55
(g76
g57
NtRp2035
(dp2036
g60
(dp2037
sg69
g2022
sg62
(lp2038
g55
(g56
g57
NtRp2039
(dp2040
g60
(dp2041
g68
I4
ssg69
g2035
sg62
(lp2042
S'multipart/form-data; boundary=---------------------------7dc26d35160b8a'
p2043
asbasbasbag55
(g71
g57
NtRp2044
(dp2045
g60
(dp2046
sg69
g1930
sg62
(lp2047
g55
(g76
g57
NtRp2048
(dp2049
g60
(dp2050
g80
g81
ssg69
g2044
sg62
(lp2051
S'db_sessions'
p2052
asbag55
(g76
g57
NtRp2053
(dp2054
g60
(dp2055
g87
g88
ssg69
g2044
sg62
(lp2056
S':'
asbag55
(g76
g57
NtRp2057
(dp2058
g60
(dp2059
sg69
g2044
sg62
(lp2060
g55
(g56
g57
NtRp2061
(dp2062
g60
(dp2063
g68
I4
ssg69
g2057
sg62
(lp2064
S'set([])'
p2065
asbasbasbag55
(g71
g57
NtRp2066
(dp2067
g60
(dp2068
sg69
g1930
sg62
(lp2069
g55
(g76
g57
NtRp2070
(dp2071
g60
(dp2072
g80
g81
ssg69
g2066
sg62
(lp2073
S'debugging'
p2074
asbag55
(g76
g57
NtRp2075
(dp2076
g60
(dp2077
g87
g88
ssg69
g2066
sg62
(lp2078
S':'
asbag55
(g76
g57
NtRp2079
(dp2080
g60
(dp2081
sg69
g2066
sg62
(lp2082
g55
(g56
g57
NtRp2083
(dp2084
g60
(dp2085
g68
I4
ssg69
g2079
sg62
(lp2086
g98
asbasbasbag55
(g71
g57
NtRp2087
(dp2088
g60
(dp2089
sg69
g1930
sg62
(lp2090
g55
(g76
g57
NtRp2091
(dp2092
g60
(dp2093
g80
g81
ssg69
g2087
sg62
(lp2094
S'document_root'
p2095
asbag55
(g76
g57
NtRp2096
(dp2097
g60
(dp2098
g87
g88
ssg69
g2087
sg62
(lp2099
S':'
asbag55
(g76
g57
NtRp2100
(dp2101
g60
(dp2102
sg69
g2087
sg62
(lp2103
g55
(g56
g57
NtRp2104
(dp2105
g60
(dp2106
g68
I4
ssg69
g2100
sg62
(lp2107
S'D:/Workbench/documentroot'
p2108
asbasbasbag55
(g71
g57
NtRp2109
(dp2110
g60
(dp2111
sg69
g1930
sg62
(lp2112
g55
(g76
g57
NtRp2113
(dp2114
g60
(dp2115
g80
g81
ssg69
g2109
sg62
(lp2116
S'gateway_interface'
p2117
asbag55
(g76
g57
NtRp2118
(dp2119
g60
(dp2120
g87
g88
ssg69
g2109
sg62
(lp2121
S':'
asbag55
(g76
g57
NtRp2122
(dp2123
g60
(dp2124
sg69
g2109
sg62
(lp2125
g55
(g56
g57
NtRp2126
(dp2127
g60
(dp2128
g68
I4
ssg69
g2122
sg62
(lp2129
S'CGI/1.1'
p2130
asbasbasbag55
(g71
g57
NtRp2131
(dp2132
g60
(dp2133
sg69
g1930
sg62
(lp2134
g55
(g76
g57
NtRp2135
(dp2136
g60
(dp2137
g80
g81
ssg69
g2131
sg62
(lp2138
S'gluon_parent'
p2139
asbag55
(g76
g57
NtRp2140
(dp2141
g60
(dp2142
g87
g88
ssg69
g2131
sg62
(lp2143
S':'
asbag55
(g76
g57
NtRp2144
(dp2145
g60
(dp2146
sg69
g2131
sg62
(lp2147
g55
(g56
g57
NtRp2148
(dp2149
g60
(dp2150
g68
I4
ssg69
g2144
sg62
(lp2151
g1977
asbasbasbag55
(g71
g57
NtRp2152
(dp2153
g60
(dp2154
sg69
g1930
sg62
(lp2155
g55
(g76
g57
NtRp2156
(dp2157
g60
(dp2158
g80
g81
ssg69
g2152
sg62
(lp2159
S'http_accept'
p2160
asbag55
(g76
g57
NtRp2161
(dp2162
g60
(dp2163
g87
g88
ssg69
g2152
sg62
(lp2164
S':'
asbag55
(g76
g57
NtRp2165
(dp2166
g60
(dp2167
sg69
g2152
sg62
(lp2168
g55
(g56
g57
NtRp2169
(dp2170
g60
(dp2171
g68
I4
ssg69
g2165
sg62
(lp2172
S'text/html, application/xhtml+xml, */*'
p2173
asbasbasbag55
(g71
g57
NtRp2174
(dp2175
g60
(dp2176
sg69
g1930
sg62
(lp2177
g55
(g76
g57
NtRp2178
(dp2179
g60
(dp2180
g80
g81
ssg69
g2174
sg62
(lp2181
S'http_accept_encoding'
p2182
asbag55
(g76
g57
NtRp2183
(dp2184
g60
(dp2185
g87
g88
ssg69
g2174
sg62
(lp2186
S':'
asbag55
(g76
g57
NtRp2187
(dp2188
g60
(dp2189
sg69
g2174
sg62
(lp2190
g55
(g56
g57
NtRp2191
(dp2192
g60
(dp2193
g68
I4
ssg69
g2187
sg62
(lp2194
S'gzip, deflate'
p2195
asbasbasbag55
(g71
g57
NtRp2196
(dp2197
g60
(dp2198
sg69
g1930
sg62
(lp2199
g55
(g76
g57
NtRp2200
(dp2201
g60
(dp2202
g80
g81
ssg69
g2196
sg62
(lp2203
S'http_accept_language'
p2204
asbag55
(g76
g57
NtRp2205
(dp2206
g60
(dp2207
g87
g88
ssg69
g2196
sg62
(lp2208
S':'
asbag55
(g76
g57
NtRp2209
(dp2210
g60
(dp2211
sg69
g2196
sg62
(lp2212
g55
(g56
g57
NtRp2213
(dp2214
g60
(dp2215
g68
I4
ssg69
g2209
sg62
(lp2216
S'zh-CN'
p2217
asbasbasbag55
(g71
g57
NtRp2218
(dp2219
g60
(dp2220
sg69
g1930
sg62
(lp2221
g55
(g76
g57
NtRp2222
(dp2223
g60
(dp2224
g80
g81
ssg69
g2218
sg62
(lp2225
S'http_cache_control'
p2226
asbag55
(g76
g57
NtRp2227
(dp2228
g60
(dp2229
g87
g88
ssg69
g2218
sg62
(lp2230
S':'
asbag55
(g76
g57
NtRp2231
(dp2232
g60
(dp2233
sg69
g2218
sg62
(lp2234
g55
(g56
g57
NtRp2235
(dp2236
g60
(dp2237
g68
I4
ssg69
g2231
sg62
(lp2238
S'no-cache'
p2239
asbasbasbag55
(g71
g57
NtRp2240
(dp2241
g60
(dp2242
sg69
g1930
sg62
(lp2243
g55
(g76
g57
NtRp2244
(dp2245
g60
(dp2246
g80
g81
ssg69
g2240
sg62
(lp2247
S'http_connection'
p2248
asbag55
(g76
g57
NtRp2249
(dp2250
g60
(dp2251
g87
g88
ssg69
g2240
sg62
(lp2252
S':'
asbag55
(g76
g57
NtRp2253
(dp2254
g60
(dp2255
sg69
g2240
sg62
(lp2256
g55
(g56
g57
NtRp2257
(dp2258
g60
(dp2259
g68
I4
ssg69
g2253
sg62
(lp2260
S'Keep-Alive'
p2261
asbasbasbag55
(g71
g57
NtRp2262
(dp2263
g60
(dp2264
sg69
g1930
sg62
(lp2265
g55
(g76
g57
NtRp2266
(dp2267
g60
(dp2268
g80
g81
ssg69
g2262
sg62
(lp2269
S'http_cookie'
p2270
asbag55
(g76
g57
NtRp2271
(dp2272
g60
(dp2273
g87
g88
ssg69
g2262
sg62
(lp2274
S':'
asbag55
(g76
g57
NtRp2275
(dp2276
g60
(dp2277
sg69
g2262
sg62
(lp2278
g55
(g56
g57
NtRp2279
(dp2280
g60
(dp2281
g68
I4
ssg69
g2275
sg62
(lp2282
S'pt2gguin=o0395865019; pgv_pvid=8180672002; pgv_flv=10.0; pgv_r_cookie=1231046432770; o_cookie=395865019; ac=1,030,019; uin_cookie=395865019; euin_cookie=CA72489798B2C5EA63153C652867FF8C6D82D4A69E93E29C; session_id_examples=127.0.0.1-369289b3-bf21-4b36-92a7-85f5e5334575'
p2283
asbasbasbag55
(g71
g57
NtRp2284
(dp2285
g60
(dp2286
sg69
g1930
sg62
(lp2287
g55
(g76
g57
NtRp2288
(dp2289
g60
(dp2290
g80
g81
ssg69
g2284
sg62
(lp2291
S'http_host'
p2292
asbag55
(g76
g57
NtRp2293
(dp2294
g60
(dp2295
g87
g88
ssg69
g2284
sg62
(lp2296
S':'
asbag55
(g76
g57
NtRp2297
(dp2298
g60
(dp2299
sg69
g2284
sg62
(lp2300
g55
(g56
g57
NtRp2301
(dp2302
g60
(dp2303
g68
I4
ssg69
g2297
sg62
(lp2304
S'tgtoolbox.qq.com'
p2305
asbasbasbag55
(g71
g57
NtRp2306
(dp2307
g60
(dp2308
sg69
g1930
sg62
(lp2309
g55
(g76
g57
NtRp2310
(dp2311
g60
(dp2312
g80
g81
ssg69
g2306
sg62
(lp2313
S'http_referer'
p2314
asbag55
(g76
g57
NtRp2315
(dp2316
g60
(dp2317
g87
g88
ssg69
g2306
sg62
(lp2318
S':'
asbag55
(g76
g57
NtRp2319
(dp2320
g60
(dp2321
sg69
g2306
sg62
(lp2322
g55
(g56
g57
NtRp2323
(dp2324
g60
(dp2325
g68
I4
ssg69
g2319
sg62
(lp2326
S'http://tgtoolbox.qq.com/examples/transform/'
p2327
asbasbasbag55
(g71
g57
NtRp2328
(dp2329
g60
(dp2330
sg69
g1930
sg62
(lp2331
g55
(g76
g57
NtRp2332
(dp2333
g60
(dp2334
g80
g81
ssg69
g2328
sg62
(lp2335
S'http_user_agent'
p2336
asbag55
(g76
g57
NtRp2337
(dp2338
g60
(dp2339
g87
g88
ssg69
g2328
sg62
(lp2340
S':'
asbag55
(g76
g57
NtRp2341
(dp2342
g60
(dp2343
sg69
g2328
sg62
(lp2344
g55
(g56
g57
NtRp2345
(dp2346
g60
(dp2347
g68
I4
ssg69
g2341
sg62
(lp2348
S'Mozilla/5.0 (compatible; MSIE 9.0; Windows NT 6.1; Trident/5.0)'
p2349
asbasbasbag55
(g71
g57
NtRp2350
(dp2351
g60
(dp2352
sg69
g1930
sg62
(lp2353
g55
(g76
g57
NtRp2354
(dp2355
g60
(dp2356
g80
g81
ssg69
g2350
sg62
(lp2357
S'is_jython'
p2358
asbag55
(g76
g57
NtRp2359
(dp2360
g60
(dp2361
g87
g88
ssg69
g2350
sg62
(lp2362
S':'
asbag55
(g76
g57
NtRp2363
(dp2364
g60
(dp2365
sg69
g2350
sg62
(lp2366
g55
(g56
g57
NtRp2367
(dp2368
g60
(dp2369
g68
I4
ssg69
g2363
sg62
(lp2370
g98
asbasbasbag55
(g71
g57
NtRp2371
(dp2372
g60
(dp2373
sg69
g1930
sg62
(lp2374
g55
(g76
g57
NtRp2375
(dp2376
g60
(dp2377
g80
g81
ssg69
g2371
sg62
(lp2378
S'mod_wsgi_application_group'
p2379
asbag55
(g76
g57
NtRp2380
(dp2381
g60
(dp2382
g87
g88
ssg69
g2371
sg62
(lp2383
S':'
asbag55
(g76
g57
NtRp2384
(dp2385
g60
(dp2386
sg69
g2371
sg62
(lp2387
g55
(g56
g57
NtRp2388
(dp2389
g60
(dp2390
g68
I4
ssg69
g2384
sg62
(lp2391
S'XIAOFTANG-NB.tencent.com|'
p2392
asbasbasbag55
(g71
g57
NtRp2393
(dp2394
g60
(dp2395
sg69
g1930
sg62
(lp2396
g55
(g76
g57
NtRp2397
(dp2398
g60
(dp2399
g80
g81
ssg69
g2393
sg62
(lp2400
S'mod_wsgi_callable_object'
p2401
asbag55
(g76
g57
NtRp2402
(dp2403
g60
(dp2404
g87
g88
ssg69
g2393
sg62
(lp2405
S':'
asbag55
(g76
g57
NtRp2406
(dp2407
g60
(dp2408
sg69
g2393
sg62
(lp2409
g55
(g56
g57
NtRp2410
(dp2411
g60
(dp2412
g68
I4
ssg69
g2406
sg62
(lp2413
S'application'
p2414
asbasbasbag55
(g71
g57
NtRp2415
(dp2416
g60
(dp2417
sg69
g1930
sg62
(lp2418
g55
(g76
g57
NtRp2419
(dp2420
g60
(dp2421
g80
g81
ssg69
g2415
sg62
(lp2422
S'mod_wsgi_handler_script'
p2423
asbag55
(g76
g57
NtRp2424
(dp2425
g60
(dp2426
g87
g88
ssg69
g2415
sg62
(lp2427
S':'
asbag55
(g76
g57
NtRp2428
(dp2429
g60
(dp2430
sg69
g2415
sg62
(lp2431
g55
(g56
g57
NtRp2432
(dp2433
g60
(dp2434
g68
I4
ssg69
g2428
sg62
(lp2435
S''
asbasbasbag55
(g71
g57
NtRp2436
(dp2437
g60
(dp2438
sg69
g1930
sg62
(lp2439
g55
(g76
g57
NtRp2440
(dp2441
g60
(dp2442
g80
g81
ssg69
g2436
sg62
(lp2443
S'mod_wsgi_input_chunked'
p2444
asbag55
(g76
g57
NtRp2445
(dp2446
g60
(dp2447
g87
g88
ssg69
g2436
sg62
(lp2448
S':'
asbag55
(g76
g57
NtRp2449
(dp2450
g60
(dp2451
sg69
g2436
sg62
(lp2452
g55
(g56
g57
NtRp2453
(dp2454
g60
(dp2455
g68
I4
ssg69
g2449
sg62
(lp2456
S'0'
asbasbasbag55
(g71
g57
NtRp2457
(dp2458
g60
(dp2459
sg69
g1930
sg62
(lp2460
g55
(g76
g57
NtRp2461
(dp2462
g60
(dp2463
g80
g81
ssg69
g2457
sg62
(lp2464
S'mod_wsgi_process_group'
p2465
asbag55
(g76
g57
NtRp2466
(dp2467
g60
(dp2468
g87
g88
ssg69
g2457
sg62
(lp2469
S':'
asbag55
(g76
g57
NtRp2470
(dp2471
g60
(dp2472
sg69
g2457
sg62
(lp2473
g55
(g56
g57
NtRp2474
(dp2475
g60
(dp2476
g68
I4
ssg69
g2470
sg62
(lp2477
S''
asbasbasbag55
(g71
g57
NtRp2478
(dp2479
g60
(dp2480
sg69
g1930
sg62
(lp2481
g55
(g76
g57
NtRp2482
(dp2483
g60
(dp2484
g80
g81
ssg69
g2478
sg62
(lp2485
S'mod_wsgi_request_handler'
p2486
asbag55
(g76
g57
NtRp2487
(dp2488
g60
(dp2489
g87
g88
ssg69
g2478
sg62
(lp2490
S':'
asbag55
(g76
g57
NtRp2491
(dp2492
g60
(dp2493
sg69
g2478
sg62
(lp2494
g55
(g56
g57
NtRp2495
(dp2496
g60
(dp2497
g68
I4
ssg69
g2491
sg62
(lp2498
S'wsgi-script'
p2499
asbasbasbag55
(g71
g57
NtRp2500
(dp2501
g60
(dp2502
sg69
g1930
sg62
(lp2503
g55
(g76
g57
NtRp2504
(dp2505
g60
(dp2506
g80
g81
ssg69
g2500
sg62
(lp2507
S'mod_wsgi_script_reloading'
p2508
asbag55
(g76
g57
NtRp2509
(dp2510
g60
(dp2511
g87
g88
ssg69
g2500
sg62
(lp2512
S':'
asbag55
(g76
g57
NtRp2513
(dp2514
g60
(dp2515
sg69
g2500
sg62
(lp2516
g55
(g56
g57
NtRp2517
(dp2518
g60
(dp2519
g68
I4
ssg69
g2513
sg62
(lp2520
S'1'
asbasbasbag55
(g71
g57
NtRp2521
(dp2522
g60
(dp2523
sg69
g1930
sg62
(lp2524
g55
(g76
g57
NtRp2525
(dp2526
g60
(dp2527
g80
g81
ssg69
g2521
sg62
(lp2528
S'mod_wsgi_version'
p2529
asbag55
(g76
g57
NtRp2530
(dp2531
g60
(dp2532
g87
g88
ssg69
g2521
sg62
(lp2533
S':'
asbag55
(g76
g57
NtRp2534
(dp2535
g60
(dp2536
sg69
g2521
sg62
(lp2537
g55
(g56
g57
NtRp2538
(dp2539
g60
(dp2540
g68
I4
ssg69
g2534
sg62
(lp2541
g55
(g64
g57
NtRp2542
(dp2543
g60
(dp2544
g68
I3
ssg69
Nsg62
(lp2545
g55
(g71
g57
NtRp2546
(dp2547
g60
(dp2548
sg69
g2542
sg62
(lp2549
g55
(g76
g57
NtRp2550
(dp2551
g60
(dp2552
sg69
g2546
sg62
(lp2553
g55
(g56
g57
NtRp2554
(dp2555
g60
(dp2556
g68
I3
ssg69
g2550
sg62
(lp2557
S'3'
asbasbasbag55
(g71
g57
NtRp2558
(dp2559
g60
(dp2560
sg69
g2542
sg62
(lp2561
g55
(g76
g57
NtRp2562
(dp2563
g60
(dp2564
sg69
g2558
sg62
(lp2565
g55
(g56
g57
NtRp2566
(dp2567
g60
(dp2568
g68
I3
ssg69
g2562
sg62
(lp2569
S'3'
asbasbasbasbasbasbasbag55
(g71
g57
NtRp2570
(dp2571
g60
(dp2572
sg69
g1930
sg62
(lp2573
g55
(g76
g57
NtRp2574
(dp2575
g60
(dp2576
g80
g81
ssg69
g2570
sg62
(lp2577
S'path_info'
p2578
asbag55
(g76
g57
NtRp2579
(dp2580
g60
(dp2581
g87
g88
ssg69
g2570
sg62
(lp2582
S':'
asbag55
(g76
g57
NtRp2583
(dp2584
g60
(dp2585
sg69
g2570
sg62
(lp2586
g55
(g56
g57
NtRp2587
(dp2588
g60
(dp2589
g68
I4
ssg69
g2583
sg62
(lp2590
S'/examples/transform/upload'
p2591
asbasbasbag55
(g71
g57
NtRp2592
(dp2593
g60
(dp2594
sg69
g1930
sg62
(lp2595
g55
(g76
g57
NtRp2596
(dp2597
g60
(dp2598
g80
g81
ssg69
g2592
sg62
(lp2599
S'path_translated'
p2600
asbag55
(g76
g57
NtRp2601
(dp2602
g60
(dp2603
g87
g88
ssg69
g2592
sg62
(lp2604
S':'
asbag55
(g76
g57
NtRp2605
(dp2606
g60
(dp2607
sg69
g2592
sg62
(lp2608
g55
(g56
g57
NtRp2609
(dp2610
g60
(dp2611
g68
I4
ssg69
g2605
sg62
(lp2612
S'D:\\Workbench\\private\\web2py_src\\wsgihandler.py\\examples\\transform\\upload'
p2613
asbasbasbag55
(g71
g57
NtRp2614
(dp2615
g60
(dp2616
sg69
g1930
sg62
(lp2617
g55
(g76
g57
NtRp2618
(dp2619
g60
(dp2620
g80
g81
ssg69
g2614
sg62
(lp2621
S'pathext'
p2622
asbag55
(g76
g57
NtRp2623
(dp2624
g60
(dp2625
g87
g88
ssg69
g2614
sg62
(lp2626
S':'
asbag55
(g76
g57
NtRp2627
(dp2628
g60
(dp2629
sg69
g2614
sg62
(lp2630
g55
(g56
g57
NtRp2631
(dp2632
g60
(dp2633
g68
I4
ssg69
g2627
sg62
(lp2634
S'.COM;.EXE;.BAT;.CMD;.VBS;.VBE;.JS;.JSE;.WSF;.WSH;.MSC;.py;.pyw'
p2635
asbasbasbag55
(g71
g57
NtRp2636
(dp2637
g60
(dp2638
sg69
g1930
sg62
(lp2639
g55
(g76
g57
NtRp2640
(dp2641
g60
(dp2642
g80
g81
ssg69
g2636
sg62
(lp2643
S'query_string'
p2644
asbag55
(g76
g57
NtRp2645
(dp2646
g60
(dp2647
g87
g88
ssg69
g2636
sg62
(lp2648
S':'
asbag55
(g76
g57
NtRp2649
(dp2650
g60
(dp2651
sg69
g2636
sg62
(lp2652
g55
(g56
g57
NtRp2653
(dp2654
g60
(dp2655
g68
I4
ssg69
g2649
sg62
(lp2656
S''
asbasbasbag55
(g71
g57
NtRp2657
(dp2658
g60
(dp2659
sg69
g1930
sg62
(lp2660
g55
(g76
g57
NtRp2661
(dp2662
g60
(dp2663
g80
g81
ssg69
g2657
sg62
(lp2664
S'remote_addr'
p2665
asbag55
(g76
g57
NtRp2666
(dp2667
g60
(dp2668
g87
g88
ssg69
g2657
sg62
(lp2669
S':'
asbag55
(g76
g57
NtRp2670
(dp2671
g60
(dp2672
sg69
g2657
sg62
(lp2673
g55
(g56
g57
NtRp2674
(dp2675
g60
(dp2676
g68
I4
ssg69
g2670
sg62
(lp2677
g188
asbasbasbag55
(g71
g57
NtRp2678
(dp2679
g60
(dp2680
sg69
g1930
sg62
(lp2681
g55
(g76
g57
NtRp2682
(dp2683
g60
(dp2684
g80
g81
ssg69
g2678
sg62
(lp2685
S'remote_port'
p2686
asbag55
(g76
g57
NtRp2687
(dp2688
g60
(dp2689
g87
g88
ssg69
g2678
sg62
(lp2690
S':'
asbag55
(g76
g57
NtRp2691
(dp2692
g60
(dp2693
sg69
g2678
sg62
(lp2694
g55
(g56
g57
NtRp2695
(dp2696
g60
(dp2697
g68
I4
ssg69
g2691
sg62
(lp2698
S'28314'
p2699
asbasbasbag55
(g71
g57
NtRp2700
(dp2701
g60
(dp2702
sg69
g1930
sg62
(lp2703
g55
(g76
g57
NtRp2704
(dp2705
g60
(dp2706
g80
g81
ssg69
g2700
sg62
(lp2707
S'request_method'
p2708
asbag55
(g76
g57
NtRp2709
(dp2710
g60
(dp2711
g87
g88
ssg69
g2700
sg62
(lp2712
S':'
asbag55
(g76
g57
NtRp2713
(dp2714
g60
(dp2715
sg69
g2700
sg62
(lp2716
g55
(g56
g57
NtRp2717
(dp2718
g60
(dp2719
g68
I4
ssg69
g2713
sg62
(lp2720
S'POST'
p2721
asbasbasbag55
(g71
g57
NtRp2722
(dp2723
g60
(dp2724
sg69
g1930
sg62
(lp2725
g55
(g76
g57
NtRp2726
(dp2727
g60
(dp2728
g80
g81
ssg69
g2722
sg62
(lp2729
S'request_uri'
p2730
asbag55
(g76
g57
NtRp2731
(dp2732
g60
(dp2733
g87
g88
ssg69
g2722
sg62
(lp2734
S':'
asbag55
(g76
g57
NtRp2735
(dp2736
g60
(dp2737
sg69
g2722
sg62
(lp2738
g55
(g56
g57
NtRp2739
(dp2740
g60
(dp2741
g68
I4
ssg69
g2735
sg62
(lp2742
S'/examples/transform/upload'
p2743
asbasbasbag55
(g71
g57
NtRp2744
(dp2745
g60
(dp2746
sg69
g1930
sg62
(lp2747
g55
(g76
g57
NtRp2748
(dp2749
g60
(dp2750
g80
g81
ssg69
g2744
sg62
(lp2751
S'script_filename'
p2752
asbag55
(g76
g57
NtRp2753
(dp2754
g60
(dp2755
g87
g88
ssg69
g2744
sg62
(lp2756
S':'
asbag55
(g76
g57
NtRp2757
(dp2758
g60
(dp2759
sg69
g2744
sg62
(lp2760
g55
(g56
g57
NtRp2761
(dp2762
g60
(dp2763
g68
I4
ssg69
g2757
sg62
(lp2764
S'D:/Workbench/private/web2py_src/wsgihandler.py'
p2765
asbasbasbag55
(g71
g57
NtRp2766
(dp2767
g60
(dp2768
sg69
g1930
sg62
(lp2769
g55
(g76
g57
NtRp2770
(dp2771
g60
(dp2772
g80
g81
ssg69
g2766
sg62
(lp2773
S'script_name'
p2774
asbag55
(g76
g57
NtRp2775
(dp2776
g60
(dp2777
g87
g88
ssg69
g2766
sg62
(lp2778
S':'
asbag55
(g76
g57
NtRp2779
(dp2780
g60
(dp2781
sg69
g2766
sg62
(lp2782
g55
(g56
g57
NtRp2783
(dp2784
g60
(dp2785
g68
I4
ssg69
g2779
sg62
(lp2786
S''
asbasbasbag55
(g71
g57
NtRp2787
(dp2788
g60
(dp2789
sg69
g1930
sg62
(lp2790
g55
(g76
g57
NtRp2791
(dp2792
g60
(dp2793
g80
g81
ssg69
g2787
sg62
(lp2794
S'server_addr'
p2795
asbag55
(g76
g57
NtRp2796
(dp2797
g60
(dp2798
g87
g88
ssg69
g2787
sg62
(lp2799
S':'
asbag55
(g76
g57
NtRp2800
(dp2801
g60
(dp2802
sg69
g2787
sg62
(lp2803
g55
(g56
g57
NtRp2804
(dp2805
g60
(dp2806
g68
I4
ssg69
g2800
sg62
(lp2807
S'127.0.0.1'
p2808
asbasbasbag55
(g71
g57
NtRp2809
(dp2810
g60
(dp2811
sg69
g1930
sg62
(lp2812
g55
(g76
g57
NtRp2813
(dp2814
g60
(dp2815
g80
g81
ssg69
g2809
sg62
(lp2816
S'server_admin'
p2817
asbag55
(g76
g57
NtRp2818
(dp2819
g60
(dp2820
g87
g88
ssg69
g2809
sg62
(lp2821
S':'
asbag55
(g76
g57
NtRp2822
(dp2823
g60
(dp2824
sg69
g2809
sg62
(lp2825
g55
(g56
g57
NtRp2826
(dp2827
g60
(dp2828
g68
I4
ssg69
g2822
sg62
(lp2829
S'admin@tencent.com'
p2830
asbasbasbag55
(g71
g57
NtRp2831
(dp2832
g60
(dp2833
sg69
g1930
sg62
(lp2834
g55
(g76
g57
NtRp2835
(dp2836
g60
(dp2837
g80
g81
ssg69
g2831
sg62
(lp2838
S'server_name'
p2839
asbag55
(g76
g57
NtRp2840
(dp2841
g60
(dp2842
g87
g88
ssg69
g2831
sg62
(lp2843
S':'
asbag55
(g76
g57
NtRp2844
(dp2845
g60
(dp2846
sg69
g2831
sg62
(lp2847
g55
(g56
g57
NtRp2848
(dp2849
g60
(dp2850
g68
I4
ssg69
g2844
sg62
(lp2851
S'tgtoolbox.qq.com'
p2852
asbasbasbag55
(g71
g57
NtRp2853
(dp2854
g60
(dp2855
sg69
g1930
sg62
(lp2856
g55
(g76
g57
NtRp2857
(dp2858
g60
(dp2859
g80
g81
ssg69
g2853
sg62
(lp2860
S'server_port'
p2861
asbag55
(g76
g57
NtRp2862
(dp2863
g60
(dp2864
g87
g88
ssg69
g2853
sg62
(lp2865
S':'
asbag55
(g76
g57
NtRp2866
(dp2867
g60
(dp2868
sg69
g2853
sg62
(lp2869
g55
(g56
g57
NtRp2870
(dp2871
g60
(dp2872
g68
I4
ssg69
g2866
sg62
(lp2873
S'80'
p2874
asbasbasbag55
(g71
g57
NtRp2875
(dp2876
g60
(dp2877
sg69
g1930
sg62
(lp2878
g55
(g76
g57
NtRp2879
(dp2880
g60
(dp2881
g80
g81
ssg69
g2875
sg62
(lp2882
S'server_protocol'
p2883
asbag55
(g76
g57
NtRp2884
(dp2885
g60
(dp2886
g87
g88
ssg69
g2875
sg62
(lp2887
S':'
asbag55
(g76
g57
NtRp2888
(dp2889
g60
(dp2890
sg69
g2875
sg62
(lp2891
g55
(g56
g57
NtRp2892
(dp2893
g60
(dp2894
g68
I4
ssg69
g2888
sg62
(lp2895
S'HTTP/1.1'
p2896
asbasbasbag55
(g71
g57
NtRp2897
(dp2898
g60
(dp2899
sg69
g1930
sg62
(lp2900
g55
(g76
g57
NtRp2901
(dp2902
g60
(dp2903
g80
g81
ssg69
g2897
sg62
(lp2904
S'server_signature'
p2905
asbag55
(g76
g57
NtRp2906
(dp2907
g60
(dp2908
g87
g88
ssg69
g2897
sg62
(lp2909
S':'
asbag55
(g76
g57
NtRp2910
(dp2911
g60
(dp2912
sg69
g2897
sg62
(lp2913
g55
(g56
g57
NtRp2914
(dp2915
g60
(dp2916
g68
I4
ssg69
g2910
sg62
(lp2917
S''
asbasbasbag55
(g71
g57
NtRp2918
(dp2919
g60
(dp2920
sg69
g1930
sg62
(lp2921
g55
(g76
g57
NtRp2922
(dp2923
g60
(dp2924
g80
g81
ssg69
g2918
sg62
(lp2925
S'server_software'
p2926
asbag55
(g76
g57
NtRp2927
(dp2928
g60
(dp2929
g87
g88
ssg69
g2918
sg62
(lp2930
S':'
asbag55
(g76
g57
NtRp2931
(dp2932
g60
(dp2933
sg69
g2918
sg62
(lp2934
g55
(g56
g57
NtRp2935
(dp2936
g60
(dp2937
g68
I4
ssg69
g2931
sg62
(lp2938
S'Apache/2.2.21 (Win32) PHP/5.2.17 mod_wsgi/3.3 Python/2.7.2'
p2939
asbasbasbag55
(g71
g57
NtRp2940
(dp2941
g60
(dp2942
sg69
g1930
sg62
(lp2943
g55
(g76
g57
NtRp2944
(dp2945
g60
(dp2946
g80
g81
ssg69
g2940
sg62
(lp2947
S'systemroot'
p2948
asbag55
(g76
g57
NtRp2949
(dp2950
g60
(dp2951
g87
g88
ssg69
g2940
sg62
(lp2952
S':'
asbag55
(g76
g57
NtRp2953
(dp2954
g60
(dp2955
sg69
g2940
sg62
(lp2956
g55
(g56
g57
NtRp2957
(dp2958
g60
(dp2959
g68
I4
ssg69
g2953
sg62
(lp2960
S'C:\\Windows'
p2961
asbasbasbag55
(g71
g57
NtRp2962
(dp2963
g60
(dp2964
sg69
g1930
sg62
(lp2965
g55
(g76
g57
NtRp2966
(dp2967
g60
(dp2968
g80
g81
ssg69
g2962
sg62
(lp2969
S'web2py_path'
p2970
asbag55
(g76
g57
NtRp2971
(dp2972
g60
(dp2973
g87
g88
ssg69
g2962
sg62
(lp2974
S':'
asbag55
(g76
g57
NtRp2975
(dp2976
g60
(dp2977
sg69
g2962
sg62
(lp2978
g55
(g56
g57
NtRp2979
(dp2980
g60
(dp2981
g68
I4
ssg69
g2975
sg62
(lp2982
g1977
asbasbasbag55
(g71
g57
NtRp2983
(dp2984
g60
(dp2985
sg69
g1930
sg62
(lp2986
g55
(g76
g57
NtRp2987
(dp2988
g60
(dp2989
g80
g81
ssg69
g2983
sg62
(lp2990
S'web2py_version'
p2991
asbag55
(g76
g57
NtRp2992
(dp2993
g60
(dp2994
g87
g88
ssg69
g2983
sg62
(lp2995
S':'
asbag55
(g76
g57
NtRp2996
(dp2997
g60
(dp2998
sg69
g2983
sg62
(lp2999
g55
(g56
g57
NtRp3000
(dp3001
g60
(dp3002
g68
I4
ssg69
g2996
sg62
(lp3003
g55
(g64
g57
NtRp3004
(dp3005
g60
(dp3006
g68
I3
ssg69
Nsg62
(lp3007
g55
(g71
g57
NtRp3008
(dp3009
g60
(dp3010
sg69
g3004
sg62
(lp3011
g55
(g76
g57
NtRp3012
(dp3013
g60
(dp3014
sg69
g3008
sg62
(lp3015
g55
(g56
g57
NtRp3016
(dp3017
g60
(dp3018
g68
I3
ssg69
g3012
sg62
(lp3019
S'1'
asbasbasbag55
(g71
g57
NtRp3020
(dp3021
g60
(dp3022
sg69
g3004
sg62
(lp3023
g55
(g76
g57
NtRp3024
(dp3025
g60
(dp3026
sg69
g3020
sg62
(lp3027
g55
(g56
g57
NtRp3028
(dp3029
g60
(dp3030
g68
I3
ssg69
g3024
sg62
(lp3031
S'99'
p3032
asbasbasbag55
(g71
g57
NtRp3033
(dp3034
g60
(dp3035
sg69
g3004
sg62
(lp3036
g55
(g76
g57
NtRp3037
(dp3038
g60
(dp3039
sg69
g3033
sg62
(lp3040
g55
(g56
g57
NtRp3041
(dp3042
g60
(dp3043
g68
I3
ssg69
g3037
sg62
(lp3044
S'2'
asbasbasbag55
(g71
g57
NtRp3045
(dp3046
g60
(dp3047
sg69
g3004
sg62
(lp3048
g55
(g76
g57
NtRp3049
(dp3050
g60
(dp3051
sg69
g3045
sg62
(lp3052
g55
(g56
g57
NtRp3053
(dp3054
g60
(dp3055
g68
I3
ssg69
g3049
sg62
(lp3056
S'datetime.datetime(2011, 9, 26, 6, 55, 33)'
p3057
asbasbasbag55
(g71
g57
NtRp3058
(dp3059
g60
(dp3060
sg69
g3004
sg62
(lp3061
g55
(g76
g57
NtRp3062
(dp3063
g60
(dp3064
sg69
g3058
sg62
(lp3065
g55
(g56
g57
NtRp3066
(dp3067
g60
(dp3068
g68
I3
ssg69
g3062
sg62
(lp3069
S'stable'
p3070
asbasbasbasbasbasbasbag55
(g71
g57
NtRp3071
(dp3072
g60
(dp3073
sg69
g1930
sg62
(lp3074
g55
(g76
g57
NtRp3075
(dp3076
g60
(dp3077
g80
g81
ssg69
g3071
sg62
(lp3078
S'windir'
p3079
asbag55
(g76
g57
NtRp3080
(dp3081
g60
(dp3082
g87
g88
ssg69
g3071
sg62
(lp3083
S':'
asbag55
(g76
g57
NtRp3084
(dp3085
g60
(dp3086
sg69
g3071
sg62
(lp3087
g55
(g56
g57
NtRp3088
(dp3089
g60
(dp3090
g68
I4
ssg69
g3084
sg62
(lp3091
S'C:\\Windows'
p3092
asbasbasbag55
(g71
g57
NtRp3093
(dp3094
g60
(dp3095
sg69
g1930
sg62
(lp3096
g55
(g76
g57
NtRp3097
(dp3098
g60
(dp3099
g80
g81
ssg69
g3093
sg62
(lp3100
S'wsgi_errors'
p3101
asbag55
(g76
g57
NtRp3102
(dp3103
g60
(dp3104
g87
g88
ssg69
g3093
sg62
(lp3105
S':'
asbag55
(g76
g57
NtRp3106
(dp3107
g60
(dp3108
sg69
g3093
sg62
(lp3109
g55
(g56
g57
NtRp3110
(dp3111
g60
(dp3112
g68
I4
ssg69
g3106
sg62
(lp3113
S'<mod_wsgi.Log object at 0x04007138>'
p3114
asbasbasbag55
(g71
g57
NtRp3115
(dp3116
g60
(dp3117
sg69
g1930
sg62
(lp3118
g55
(g76
g57
NtRp3119
(dp3120
g60
(dp3121
g80
g81
ssg69
g3115
sg62
(lp3122
S'wsgi_file_wrapper'
p3123
asbag55
(g76
g57
NtRp3124
(dp3125
g60
(dp3126
g87
g88
ssg69
g3115
sg62
(lp3127
S':'
asbag55
(g76
g57
NtRp3128
(dp3129
g60
(dp3130
sg69
g3115
sg62
(lp3131
g55
(g56
g57
NtRp3132
(dp3133
g60
(dp3134
g68
I4
ssg69
g3128
sg62
(lp3135
S'<built-in method file_wrapper of mod_wsgi.Adapter object at 0x042A3338>'
p3136
asbasbasbag55
(g71
g57
NtRp3137
(dp3138
g60
(dp3139
sg69
g1930
sg62
(lp3140
g55
(g76
g57
NtRp3141
(dp3142
g60
(dp3143
g80
g81
ssg69
g3137
sg62
(lp3144
S'wsgi_input'
p3145
asbag55
(g76
g57
NtRp3146
(dp3147
g60
(dp3148
g87
g88
ssg69
g3137
sg62
(lp3149
S':'
asbag55
(g76
g57
NtRp3150
(dp3151
g60
(dp3152
sg69
g3137
sg62
(lp3153
g55
(g56
g57
NtRp3154
(dp3155
g60
(dp3156
g68
I4
ssg69
g3150
sg62
(lp3157
S'<mod_wsgi.Input object at 0x03DEA4D0>'
p3158
asbasbasbag55
(g71
g57
NtRp3159
(dp3160
g60
(dp3161
sg69
g1930
sg62
(lp3162
g55
(g76
g57
NtRp3163
(dp3164
g60
(dp3165
g80
g81
ssg69
g3159
sg62
(lp3166
S'wsgi_multiprocess'
p3167
asbag55
(g76
g57
NtRp3168
(dp3169
g60
(dp3170
g87
g88
ssg69
g3159
sg62
(lp3171
S':'
asbag55
(g76
g57
NtRp3172
(dp3173
g60
(dp3174
sg69
g3159
sg62
(lp3175
g55
(g56
g57
NtRp3176
(dp3177
g60
(dp3178
g68
I4
ssg69
g3172
sg62
(lp3179
g98
asbasbasbag55
(g71
g57
NtRp3180
(dp3181
g60
(dp3182
sg69
g1930
sg62
(lp3183
g55
(g76
g57
NtRp3184
(dp3185
g60
(dp3186
g80
g81
ssg69
g3180
sg62
(lp3187
S'wsgi_multithread'
p3188
asbag55
(g76
g57
NtRp3189
(dp3190
g60
(dp3191
g87
g88
ssg69
g3180
sg62
(lp3192
S':'
asbag55
(g76
g57
NtRp3193
(dp3194
g60
(dp3195
sg69
g3180
sg62
(lp3196
g55
(g56
g57
NtRp3197
(dp3198
g60
(dp3199
g68
I4
ssg69
g3193
sg62
(lp3200
S'True'
p3201
asbasbasbag55
(g71
g57
NtRp3202
(dp3203
g60
(dp3204
sg69
g1930
sg62
(lp3205
g55
(g76
g57
NtRp3206
(dp3207
g60
(dp3208
g80
g81
ssg69
g3202
sg62
(lp3209
S'wsgi_run_once'
p3210
asbag55
(g76
g57
NtRp3211
(dp3212
g60
(dp3213
g87
g88
ssg69
g3202
sg62
(lp3214
S':'
asbag55
(g76
g57
NtRp3215
(dp3216
g60
(dp3217
sg69
g3202
sg62
(lp3218
g55
(g56
g57
NtRp3219
(dp3220
g60
(dp3221
g68
I4
ssg69
g3215
sg62
(lp3222
g98
asbasbasbag55
(g71
g57
NtRp3223
(dp3224
g60
(dp3225
sg69
g1930
sg62
(lp3226
g55
(g76
g57
NtRp3227
(dp3228
g60
(dp3229
g80
g81
ssg69
g3223
sg62
(lp3230
S'wsgi_url_scheme'
p3231
asbag55
(g76
g57
NtRp3232
(dp3233
g60
(dp3234
g87
g88
ssg69
g3223
sg62
(lp3235
S':'
asbag55
(g76
g57
NtRp3236
(dp3237
g60
(dp3238
sg69
g3223
sg62
(lp3239
g55
(g56
g57
NtRp3240
(dp3241
g60
(dp3242
g68
I4
ssg69
g3236
sg62
(lp3243
S'http'
p3244
asbasbasbag55
(g71
g57
NtRp3245
(dp3246
g60
(dp3247
sg69
g1930
sg62
(lp3248
g55
(g76
g57
NtRp3249
(dp3250
g60
(dp3251
g80
g81
ssg69
g3245
sg62
(lp3252
S'wsgi_version'
p3253
asbag55
(g76
g57
NtRp3254
(dp3255
g60
(dp3256
g87
g88
ssg69
g3245
sg62
(lp3257
S':'
asbag55
(g76
g57
NtRp3258
(dp3259
g60
(dp3260
sg69
g3245
sg62
(lp3261
g55
(g56
g57
NtRp3262
(dp3263
g60
(dp3264
g68
I4
ssg69
g3258
sg62
(lp3265
g55
(g64
g57
NtRp3266
(dp3267
g60
(dp3268
g68
I3
ssg69
Nsg62
(lp3269
g55
(g71
g57
NtRp3270
(dp3271
g60
(dp3272
sg69
g3266
sg62
(lp3273
g55
(g76
g57
NtRp3274
(dp3275
g60
(dp3276
sg69
g3270
sg62
(lp3277
g55
(g56
g57
NtRp3278
(dp3279
g60
(dp3280
g68
I3
ssg69
g3274
sg62
(lp3281
S'1'
asbasbasbag55
(g71
g57
NtRp3282
(dp3283
g60
(dp3284
sg69
g3266
sg62
(lp3285
g55
(g76
g57
NtRp3286
(dp3287
g60
(dp3288
sg69
g3282
sg62
(lp3289
g55
(g56
g57
NtRp3290
(dp3291
g60
(dp3292
g68
I3
ssg69
g3286
sg62
(lp3293
S'1'
asbasbasbasbasbasbasbasbasbasbasbag55
(g71
g57
NtRp3294
(dp3295
g60
(dp3296
sg69
g65
sg62
(lp3297
g55
(g76
g57
NtRp3298
(dp3299
g60
(dp3300
g80
g81
ssg69
g3294
sg62
(lp3301
S'extension'
p3302
asbag55
(g76
g57
NtRp3303
(dp3304
g60
(dp3305
g87
g88
ssg69
g3294
sg62
(lp3306
S':'
asbag55
(g76
g57
NtRp3307
(dp3308
g60
(dp3309
sg69
g3294
sg62
(lp3310
g55
(g56
g57
NtRp3311
(dp3312
g60
(dp3313
g68
I5
ssg69
g3307
sg62
(lp3314
S'html'
p3315
asbasbasbag55
(g71
g57
NtRp3316
(dp3317
g60
(dp3318
sg69
g65
sg62
(lp3319
g55
(g76
g57
NtRp3320
(dp3321
g60
(dp3322
g80
g81
ssg69
g3316
sg62
(lp3323
S'folder'
p3324
asbag55
(g76
g57
NtRp3325
(dp3326
g60
(dp3327
g87
g88
ssg69
g3316
sg62
(lp3328
S':'
asbag55
(g76
g57
NtRp3329
(dp3330
g60
(dp3331
sg69
g3316
sg62
(lp3332
g55
(g56
g57
NtRp3333
(dp3334
g60
(dp3335
g68
I5
ssg69
g3329
sg62
(lp3336
S'D:\\Workbench\\private\\web2py_src\\applications\\examples\\'
p3337
asbasbasbag55
(g71
g57
NtRp3338
(dp3339
g60
(dp3340
sg69
g65
sg62
(lp3341
g55
(g76
g57
NtRp3342
(dp3343
g60
(dp3344
g80
g81
ssg69
g3338
sg62
(lp3345
S'function'
p3346
asbag55
(g76
g57
NtRp3347
(dp3348
g60
(dp3349
g87
g88
ssg69
g3338
sg62
(lp3350
S':'
asbag55
(g76
g57
NtRp3351
(dp3352
g60
(dp3353
sg69
g3338
sg62
(lp3354
g55
(g56
g57
NtRp3355
(dp3356
g60
(dp3357
g68
I5
ssg69
g3351
sg62
(lp3358
S'upload'
p3359
asbasbasbag55
(g71
g57
NtRp3360
(dp3361
g60
(dp3362
sg69
g65
sg62
(lp3363
g55
(g76
g57
NtRp3364
(dp3365
g60
(dp3366
g80
g81
ssg69
g3360
sg62
(lp3367
S'get_vars'
p3368
asbag55
(g76
g57
NtRp3369
(dp3370
g60
(dp3371
g87
g88
ssg69
g3360
sg62
(lp3372
S':'
asbag55
(g76
g57
NtRp3373
(dp3374
g60
(dp3375
sg69
g3360
sg62
(lp3376
g55
(g56
g57
NtRp3377
(dp3378
g60
(dp3379
g68
I5
ssg69
g3373
sg62
(lp3380
g55
(g64
g57
NtRp3381
(dp3382
g60
(dp3383
g68
I4
ssg69
Nsg62
(lp3384
sbasbasbasbag55
(g71
g57
NtRp3385
(dp3386
g60
(dp3387
sg69
g65
sg62
(lp3388
g55
(g76
g57
NtRp3389
(dp3390
g60
(dp3391
g80
g81
ssg69
g3385
sg62
(lp3392
S'global_settings'
p3393
asbag55
(g76
g57
NtRp3394
(dp3395
g60
(dp3396
g87
g88
ssg69
g3385
sg62
(lp3397
S':'
asbag55
(g76
g57
NtRp3398
(dp3399
g60
(dp3400
sg69
g3385
sg62
(lp3401
g55
(g56
g57
NtRp3402
(dp3403
g60
(dp3404
g68
I5
ssg69
g3398
sg62
(lp3405
g55
(g64
g57
NtRp3406
(dp3407
g60
(dp3408
g68
I4
ssg69
Nsg62
(lp3409
g55
(g71
g57
NtRp3410
(dp3411
g60
(dp3412
sg69
g3406
sg62
(lp3413
g55
(g76
g57
NtRp3414
(dp3415
g60
(dp3416
g80
g81
ssg69
g3410
sg62
(lp3417
g1942
asbag55
(g76
g57
NtRp3418
(dp3419
g60
(dp3420
g87
g88
ssg69
g3410
sg62
(lp3421
S':'
asbag55
(g76
g57
NtRp3422
(dp3423
g60
(dp3424
sg69
g3410
sg62
(lp3425
g55
(g56
g57
NtRp3426
(dp3427
g60
(dp3428
g68
I4
ssg69
g3422
sg62
(lp3429
S"set(['D:\\\\Workbench\\\\private\\\\web2py_src\\\\applications\\\\welcome\\\\', 'D:\\\\Workbench\\\\private\\\\web2py_src\\\\applications\\\\examples\\\\', 'D:\\\\Workbench\\\\private\\\\web2py_src\\\\applications\\\\admin\\\\'])"
p3430
asbasbasbag55
(g71
g57
NtRp3431
(dp3432
g60
(dp3433
sg69
g3406
sg62
(lp3434
g55
(g76
g57
NtRp3435
(dp3436
g60
(dp3437
g80
g81
ssg69
g3431
sg62
(lp3438
g1964
asbag55
(g76
g57
NtRp3439
(dp3440
g60
(dp3441
g87
g88
ssg69
g3431
sg62
(lp3442
S':'
asbag55
(g76
g57
NtRp3443
(dp3444
g60
(dp3445
sg69
g3431
sg62
(lp3446
g55
(g56
g57
NtRp3447
(dp3448
g60
(dp3449
g68
I4
ssg69
g3443
sg62
(lp3450
g1977
asbasbasbag55
(g71
g57
NtRp3451
(dp3452
g60
(dp3453
sg69
g3406
sg62
(lp3454
g55
(g76
g57
NtRp3455
(dp3456
g60
(dp3457
g80
g81
ssg69
g3451
sg62
(lp3458
g2052
asbag55
(g76
g57
NtRp3459
(dp3460
g60
(dp3461
g87
g88
ssg69
g3451
sg62
(lp3462
S':'
asbag55
(g76
g57
NtRp3463
(dp3464
g60
(dp3465
sg69
g3451
sg62
(lp3466
g55
(g56
g57
NtRp3467
(dp3468
g60
(dp3469
g68
I4
ssg69
g3463
sg62
(lp3470
S'set([])'
p3471
asbasbasbag55
(g71
g57
NtRp3472
(dp3473
g60
(dp3474
sg69
g3406
sg62
(lp3475
g55
(g76
g57
NtRp3476
(dp3477
g60
(dp3478
g80
g81
ssg69
g3472
sg62
(lp3479
g2074
asbag55
(g76
g57
NtRp3480
(dp3481
g60
(dp3482
g87
g88
ssg69
g3472
sg62
(lp3483
S':'
asbag55
(g76
g57
NtRp3484
(dp3485
g60
(dp3486
sg69
g3472
sg62
(lp3487
g55
(g56
g57
NtRp3488
(dp3489
g60
(dp3490
g68
I4
ssg69
g3484
sg62
(lp3491
g98
asbasbasbag55
(g71
g57
NtRp3492
(dp3493
g60
(dp3494
sg69
g3406
sg62
(lp3495
g55
(g76
g57
NtRp3496
(dp3497
g60
(dp3498
g80
g81
ssg69
g3492
sg62
(lp3499
g2139
asbag55
(g76
g57
NtRp3500
(dp3501
g60
(dp3502
g87
g88
ssg69
g3492
sg62
(lp3503
S':'
asbag55
(g76
g57
NtRp3504
(dp3505
g60
(dp3506
sg69
g3492
sg62
(lp3507
g55
(g56
g57
NtRp3508
(dp3509
g60
(dp3510
g68
I4
ssg69
g3504
sg62
(lp3511
g1977
asbasbasbag55
(g71
g57
NtRp3512
(dp3513
g60
(dp3514
sg69
g3406
sg62
(lp3515
g55
(g76
g57
NtRp3516
(dp3517
g60
(dp3518
g80
g81
ssg69
g3512
sg62
(lp3519
g2358
asbag55
(g76
g57
NtRp3520
(dp3521
g60
(dp3522
g87
g88
ssg69
g3512
sg62
(lp3523
S':'
asbag55
(g76
g57
NtRp3524
(dp3525
g60
(dp3526
sg69
g3512
sg62
(lp3527
g55
(g56
g57
NtRp3528
(dp3529
g60
(dp3530
g68
I4
ssg69
g3524
sg62
(lp3531
g98
asbasbasbag55
(g71
g57
NtRp3532
(dp3533
g60
(dp3534
sg69
g3406
sg62
(lp3535
g55
(g76
g57
NtRp3536
(dp3537
g60
(dp3538
g80
g81
ssg69
g3532
sg62
(lp3539
g2991
asbag55
(g76
g57
NtRp3540
(dp3541
g60
(dp3542
g87
g88
ssg69
g3532
sg62
(lp3543
S':'
asbag55
(g76
g57
NtRp3544
(dp3545
g60
(dp3546
sg69
g3532
sg62
(lp3547
g55
(g56
g57
NtRp3548
(dp3549
g60
(dp3550
g68
I4
ssg69
g3544
sg62
(lp3551
g55
(g64
g57
NtRp3552
(dp3553
g60
(dp3554
g68
I3
ssg69
Nsg62
(lp3555
g55
(g71
g57
NtRp3556
(dp3557
g60
(dp3558
sg69
g3552
sg62
(lp3559
g55
(g76
g57
NtRp3560
(dp3561
g60
(dp3562
sg69
g3556
sg62
(lp3563
g55
(g56
g57
NtRp3564
(dp3565
g60
(dp3566
g68
I3
ssg69
g3560
sg62
(lp3567
S'1'
asbasbasbag55
(g71
g57
NtRp3568
(dp3569
g60
(dp3570
sg69
g3552
sg62
(lp3571
g55
(g76
g57
NtRp3572
(dp3573
g60
(dp3574
sg69
g3568
sg62
(lp3575
g55
(g56
g57
NtRp3576
(dp3577
g60
(dp3578
g68
I3
ssg69
g3572
sg62
(lp3579
S'99'
p3580
asbasbasbag55
(g71
g57
NtRp3581
(dp3582
g60
(dp3583
sg69
g3552
sg62
(lp3584
g55
(g76
g57
NtRp3585
(dp3586
g60
(dp3587
sg69
g3581
sg62
(lp3588
g55
(g56
g57
NtRp3589
(dp3590
g60
(dp3591
g68
I3
ssg69
g3585
sg62
(lp3592
S'2'
asbasbasbag55
(g71
g57
NtRp3593
(dp3594
g60
(dp3595
sg69
g3552
sg62
(lp3596
g55
(g76
g57
NtRp3597
(dp3598
g60
(dp3599
sg69
g3593
sg62
(lp3600
g55
(g56
g57
NtRp3601
(dp3602
g60
(dp3603
g68
I3
ssg69
g3597
sg62
(lp3604
S'datetime.datetime(2011, 9, 26, 6, 55, 33)'
p3605
asbasbasbag55
(g71
g57
NtRp3606
(dp3607
g60
(dp3608
sg69
g3552
sg62
(lp3609
g55
(g76
g57
NtRp3610
(dp3611
g60
(dp3612
sg69
g3606
sg62
(lp3613
g55
(g56
g57
NtRp3614
(dp3615
g60
(dp3616
g68
I3
ssg69
g3610
sg62
(lp3617
g3070
asbasbasbasbasbasbasbasbasbasbasbag55
(g71
g57
NtRp3618
(dp3619
g60
(dp3620
sg69
g65
sg62
(lp3621
g55
(g76
g57
NtRp3622
(dp3623
g60
(dp3624
g80
g81
ssg69
g3618
sg62
(lp3625
S'is_https'
p3626
asbag55
(g76
g57
NtRp3627
(dp3628
g60
(dp3629
g87
g88
ssg69
g3618
sg62
(lp3630
S':'
asbag55
(g76
g57
NtRp3631
(dp3632
g60
(dp3633
sg69
g3618
sg62
(lp3634
g55
(g56
g57
NtRp3635
(dp3636
g60
(dp3637
g68
I5
ssg69
g3631
sg62
(lp3638
g98
asbasbasbag55
(g71
g57
NtRp3639
(dp3640
g60
(dp3641
sg69
g65
sg62
(lp3642
g55
(g76
g57
NtRp3643
(dp3644
g60
(dp3645
g80
g81
ssg69
g3639
sg62
(lp3646
S'is_local'
p3647
asbag55
(g76
g57
NtRp3648
(dp3649
g60
(dp3650
g87
g88
ssg69
g3639
sg62
(lp3651
S':'
asbag55
(g76
g57
NtRp3652
(dp3653
g60
(dp3654
sg69
g3639
sg62
(lp3655
g55
(g56
g57
NtRp3656
(dp3657
g60
(dp3658
g68
I5
ssg69
g3652
sg62
(lp3659
g3201
asbasbasbag55
(g71
g57
NtRp3660
(dp3661
g60
(dp3662
sg69
g65
sg62
(lp3663
g55
(g76
g57
NtRp3664
(dp3665
g60
(dp3666
g80
g81
ssg69
g3660
sg62
(lp3667
S'is_restful'
p3668
asbag55
(g76
g57
NtRp3669
(dp3670
g60
(dp3671
g87
g88
ssg69
g3660
sg62
(lp3672
S':'
asbag55
(g76
g57
NtRp3673
(dp3674
g60
(dp3675
sg69
g3660
sg62
(lp3676
g55
(g56
g57
NtRp3677
(dp3678
g60
(dp3679
g68
I5
ssg69
g3673
sg62
(lp3680
g98
asbasbasbag55
(g71
g57
NtRp3681
(dp3682
g60
(dp3683
sg69
g65
sg62
(lp3684
g55
(g76
g57
NtRp3685
(dp3686
g60
(dp3687
g80
g81
ssg69
g3681
sg62
(lp3688
S'now'
p3689
asbag55
(g76
g57
NtRp3690
(dp3691
g60
(dp3692
g87
g88
ssg69
g3681
sg62
(lp3693
S':'
asbag55
(g76
g57
NtRp3694
(dp3695
g60
(dp3696
sg69
g3681
sg62
(lp3697
g55
(g56
g57
NtRp3698
(dp3699
g60
(dp3700
g68
I5
ssg69
g3694
sg62
(lp3701
S'datetime.datetime(2012, 3, 12, 22, 21, 53, 621000)'
p3702
asbasbasbag55
(g71
g57
NtRp3703
(dp3704
g60
(dp3705
sg69
g65
sg62
(lp3706
g55
(g76
g57
NtRp3707
(dp3708
g60
(dp3709
g80
g81
ssg69
g3703
sg62
(lp3710
S'post_vars'
p3711
asbag55
(g76
g57
NtRp3712
(dp3713
g60
(dp3714
g87
g88
ssg69
g3703
sg62
(lp3715
S':'
asbag55
(g76
g57
NtRp3716
(dp3717
g60
(dp3718
sg69
g3703
sg62
(lp3719
g55
(g56
g57
NtRp3720
(dp3721
g60
(dp3722
g68
I5
ssg69
g3716
sg62
(lp3723
g55
(g64
g57
NtRp3724
(dp3725
g60
(dp3726
g68
I4
ssg69
Nsg62
(lp3727
g55
(g71
g57
NtRp3728
(dp3729
g60
(dp3730
sg69
g3724
sg62
(lp3731
g55
(g76
g57
NtRp3732
(dp3733
g60
(dp3734
g80
g81
ssg69
g3728
sg62
(lp3735
S'myfile'
p3736
asbag55
(g76
g57
NtRp3737
(dp3738
g60
(dp3739
g87
g88
ssg69
g3728
sg62
(lp3740
S':'
asbag55
(g76
g57
NtRp3741
(dp3742
g60
(dp3743
sg69
g3728
sg62
(lp3744
g55
(g56
g57
NtRp3745
(dp3746
g60
(dp3747
g68
I4
ssg69
g3741
sg62
(lp3748
S'FieldStorage object'
p3749
asbasbasbasbasbasbasbag55
(g71
g57
NtRp3750
(dp3751
g60
(dp3752
sg69
g65
sg62
(lp3753
g55
(g76
g57
NtRp3754
(dp3755
g60
(dp3756
g80
g81
ssg69
g3750
sg62
(lp3757
S'url'
p3758
asbag55
(g76
g57
NtRp3759
(dp3760
g60
(dp3761
g87
g88
ssg69
g3750
sg62
(lp3762
S':'
asbag55
(g76
g57
NtRp3763
(dp3764
g60
(dp3765
sg69
g3750
sg62
(lp3766
g55
(g56
g57
NtRp3767
(dp3768
g60
(dp3769
g68
I5
ssg69
g3763
sg62
(lp3770
S'/examples/transform/upload'
p3771
asbasbasbag55
(g71
g57
NtRp3772
(dp3773
g60
(dp3774
sg69
g65
sg62
(lp3775
g55
(g76
g57
NtRp3776
(dp3777
g60
(dp3778
g80
g81
ssg69
g3772
sg62
(lp3779
S'utcnow'
p3780
asbag55
(g76
g57
NtRp3781
(dp3782
g60
(dp3783
g87
g88
ssg69
g3772
sg62
(lp3784
S':'
asbag55
(g76
g57
NtRp3785
(dp3786
g60
(dp3787
sg69
g3772
sg62
(lp3788
g55
(g56
g57
NtRp3789
(dp3790
g60
(dp3791
g68
I5
ssg69
g3785
sg62
(lp3792
S'datetime.datetime(2012, 3, 12, 14, 21, 53, 621000)'
p3793
asbasbasbag55
(g71
g57
NtRp3794
(dp3795
g60
(dp3796
sg69
g65
sg62
(lp3797
g55
(g76
g57
NtRp3798
(dp3799
g60
(dp3800
g80
g81
ssg69
g3794
sg62
(lp3801
S'uuid'
p3802
asbag55
(g76
g57
NtRp3803
(dp3804
g60
(dp3805
g87
g88
ssg69
g3794
sg62
(lp3806
S':'
asbag55
(g76
g57
NtRp3807
(dp3808
g60
(dp3809
sg69
g3794
sg62
(lp3810
g55
(g56
g57
NtRp3811
(dp3812
g60
(dp3813
g68
I5
ssg69
g3807
sg62
(lp3814
S'examples/127.0.0.1.2012-03-12.22-21-53.786a467c-0207-44ac-ae23-ece10b622799'
p3815
asbasbasbag55
(g71
g57
NtRp3816
(dp3817
g60
(dp3818
sg69
g65
sg62
(lp3819
g55
(g76
g57
NtRp3820
(dp3821
g60
(dp3822
g80
g81
ssg69
g3816
sg62
(lp3823
S'vars'
p3824
asbag55
(g76
g57
NtRp3825
(dp3826
g60
(dp3827
g87
g88
ssg69
g3816
sg62
(lp3828
S':'
asbag55
(g76
g57
NtRp3829
(dp3830
g60
(dp3831
sg69
g3816
sg62
(lp3832
g55
(g56
g57
NtRp3833
(dp3834
g60
(dp3835
g68
I5
ssg69
g3829
sg62
(lp3836
g55
(g64
g57
NtRp3837
(dp3838
g60
(dp3839
g68
I4
ssg69
Nsg62
(lp3840
g55
(g71
g57
NtRp3841
(dp3842
g60
(dp3843
sg69
g3837
sg62
(lp3844
g55
(g76
g57
NtRp3845
(dp3846
g60
(dp3847
g80
g81
ssg69
g3841
sg62
(lp3848
g3736
asbag55
(g76
g57
NtRp3849
(dp3850
g60
(dp3851
g87
g88
ssg69
g3841
sg62
(lp3852
S':'
asbag55
(g76
g57
NtRp3853
(dp3854
g60
(dp3855
sg69
g3841
sg62
(lp3856
g55
(g56
g57
NtRp3857
(dp3858
g60
(dp3859
g68
I4
ssg69
g3853
sg62
(lp3860
g3749
asbasbasbasbasbasbasbag55
(g71
g57
NtRp3861
(dp3862
g60
(dp3863
sg69
g65
sg62
(lp3864
g55
(g76
g57
NtRp3865
(dp3866
g60
(dp3867
g80
g81
ssg69
g3861
sg62
(lp3868
S'wsgi'
p3869
asbag55
(g76
g57
NtRp3870
(dp3871
g60
(dp3872
g87
g88
ssg69
g3861
sg62
(lp3873
S':'
asbag55
(g76
g57
NtRp3874
(dp3875
g60
(dp3876
sg69
g3861
sg62
(lp3877
g55
(g56
g57
NtRp3878
(dp3879
g60
(dp3880
g68
I5
ssg69
g3874
sg62
(lp3881
g55
(g64
g57
NtRp3882
(dp3883
g60
(dp3884
g68
I4
ssg69
Nsg62
(lp3885
g55
(g71
g57
NtRp3886
(dp3887
g60
(dp3888
sg69
g3882
sg62
(lp3889
g55
(g76
g57
NtRp3890
(dp3891
g60
(dp3892
g80
g81
ssg69
g3886
sg62
(lp3893
S'environ'
p3894
asbag55
(g76
g57
NtRp3895
(dp3896
g60
(dp3897
g87
g88
ssg69
g3886
sg62
(lp3898
S':'
asbag55
(g76
g57
NtRp3899
(dp3900
g60
(dp3901
sg69
g3886
sg62
(lp3902
g55
(g56
g57
NtRp3903
(dp3904
g60
(dp3905
g68
I4
ssg69
g3899
sg62
(lp3906
g55
(g64
g57
NtRp3907
(dp3908
g60
(dp3909
g68
I3
ssg69
Nsg62
(lp3910
g55
(g71
g57
NtRp3911
(dp3912
g60
(dp3913
sg69
g3907
sg62
(lp3914
g55
(g76
g57
NtRp3915
(dp3916
g60
(dp3917
g80
g81
ssg69
g3911
sg62
(lp3918
S'COMSPEC'
p3919
asbag55
(g76
g57
NtRp3920
(dp3921
g60
(dp3922
g87
g88
ssg69
g3911
sg62
(lp3923
S':'
asbag55
(g76
g57
NtRp3924
(dp3925
g60
(dp3926
sg69
g3911
sg62
(lp3927
g55
(g56
g57
NtRp3928
(dp3929
g60
(dp3930
g68
I3
ssg69
g3924
sg62
(lp3931
g1999
asbasbasbag55
(g71
g57
NtRp3932
(dp3933
g60
(dp3934
sg69
g3907
sg62
(lp3935
g55
(g76
g57
NtRp3936
(dp3937
g60
(dp3938
g80
g81
ssg69
g3932
sg62
(lp3939
S'CONTENT_LENGTH'
p3940
asbag55
(g76
g57
NtRp3941
(dp3942
g60
(dp3943
g87
g88
ssg69
g3932
sg62
(lp3944
S':'
asbag55
(g76
g57
NtRp3945
(dp3946
g60
(dp3947
sg69
g3932
sg62
(lp3948
g55
(g56
g57
NtRp3949
(dp3950
g60
(dp3951
g68
I3
ssg69
g3945
sg62
(lp3952
g2021
asbasbasbag55
(g71
g57
NtRp3953
(dp3954
g60
(dp3955
sg69
g3907
sg62
(lp3956
g55
(g76
g57
NtRp3957
(dp3958
g60
(dp3959
g80
g81
ssg69
g3953
sg62
(lp3960
S'CONTENT_TYPE'
p3961
asbag55
(g76
g57
NtRp3962
(dp3963
g60
(dp3964
g87
g88
ssg69
g3953
sg62
(lp3965
S':'
asbag55
(g76
g57
NtRp3966
(dp3967
g60
(dp3968
sg69
g3953
sg62
(lp3969
g55
(g56
g57
NtRp3970
(dp3971
g60
(dp3972
g68
I3
ssg69
g3966
sg62
(lp3973
g2043
asbasbasbag55
(g71
g57
NtRp3974
(dp3975
g60
(dp3976
sg69
g3907
sg62
(lp3977
g55
(g76
g57
NtRp3978
(dp3979
g60
(dp3980
g80
g81
ssg69
g3974
sg62
(lp3981
S'DOCUMENT_ROOT'
p3982
asbag55
(g76
g57
NtRp3983
(dp3984
g60
(dp3985
g87
g88
ssg69
g3974
sg62
(lp3986
S':'
asbag55
(g76
g57
NtRp3987
(dp3988
g60
(dp3989
sg69
g3974
sg62
(lp3990
g55
(g56
g57
NtRp3991
(dp3992
g60
(dp3993
g68
I3
ssg69
g3987
sg62
(lp3994
g2108
asbasbasbag55
(g71
g57
NtRp3995
(dp3996
g60
(dp3997
sg69
g3907
sg62
(lp3998
g55
(g76
g57
NtRp3999
(dp4000
g60
(dp4001
g80
g81
ssg69
g3995
sg62
(lp4002
S'GATEWAY_INTERFACE'
p4003
asbag55
(g76
g57
NtRp4004
(dp4005
g60
(dp4006
g87
g88
ssg69
g3995
sg62
(lp4007
S':'
asbag55
(g76
g57
NtRp4008
(dp4009
g60
(dp4010
sg69
g3995
sg62
(lp4011
g55
(g56
g57
NtRp4012
(dp4013
g60
(dp4014
g68
I3
ssg69
g4008
sg62
(lp4015
g2130
asbasbasbag55
(g71
g57
NtRp4016
(dp4017
g60
(dp4018
sg69
g3907
sg62
(lp4019
g55
(g76
g57
NtRp4020
(dp4021
g60
(dp4022
g80
g81
ssg69
g4016
sg62
(lp4023
S'HTTP_ACCEPT'
p4024
asbag55
(g76
g57
NtRp4025
(dp4026
g60
(dp4027
g87
g88
ssg69
g4016
sg62
(lp4028
S':'
asbag55
(g76
g57
NtRp4029
(dp4030
g60
(dp4031
sg69
g4016
sg62
(lp4032
g55
(g56
g57
NtRp4033
(dp4034
g60
(dp4035
g68
I3
ssg69
g4029
sg62
(lp4036
g2173
asbasbasbag55
(g71
g57
NtRp4037
(dp4038
g60
(dp4039
sg69
g3907
sg62
(lp4040
g55
(g76
g57
NtRp4041
(dp4042
g60
(dp4043
g80
g81
ssg69
g4037
sg62
(lp4044
S'HTTP_ACCEPT_ENCODING'
p4045
asbag55
(g76
g57
NtRp4046
(dp4047
g60
(dp4048
g87
g88
ssg69
g4037
sg62
(lp4049
S':'
asbag55
(g76
g57
NtRp4050
(dp4051
g60
(dp4052
sg69
g4037
sg62
(lp4053
g55
(g56
g57
NtRp4054
(dp4055
g60
(dp4056
g68
I3
ssg69
g4050
sg62
(lp4057
g2195
asbasbasbag55
(g71
g57
NtRp4058
(dp4059
g60
(dp4060
sg69
g3907
sg62
(lp4061
g55
(g76
g57
NtRp4062
(dp4063
g60
(dp4064
g80
g81
ssg69
g4058
sg62
(lp4065
S'HTTP_ACCEPT_LANGUAGE'
p4066
asbag55
(g76
g57
NtRp4067
(dp4068
g60
(dp4069
g87
g88
ssg69
g4058
sg62
(lp4070
S':'
asbag55
(g76
g57
NtRp4071
(dp4072
g60
(dp4073
sg69
g4058
sg62
(lp4074
g55
(g56
g57
NtRp4075
(dp4076
g60
(dp4077
g68
I3
ssg69
g4071
sg62
(lp4078
g2217
asbasbasbag55
(g71
g57
NtRp4079
(dp4080
g60
(dp4081
sg69
g3907
sg62
(lp4082
g55
(g76
g57
NtRp4083
(dp4084
g60
(dp4085
g80
g81
ssg69
g4079
sg62
(lp4086
S'HTTP_CACHE_CONTROL'
p4087
asbag55
(g76
g57
NtRp4088
(dp4089
g60
(dp4090
g87
g88
ssg69
g4079
sg62
(lp4091
S':'
asbag55
(g76
g57
NtRp4092
(dp4093
g60
(dp4094
sg69
g4079
sg62
(lp4095
g55
(g56
g57
NtRp4096
(dp4097
g60
(dp4098
g68
I3
ssg69
g4092
sg62
(lp4099
g2239
asbasbasbag55
(g71
g57
NtRp4100
(dp4101
g60
(dp4102
sg69
g3907
sg62
(lp4103
g55
(g76
g57
NtRp4104
(dp4105
g60
(dp4106
g80
g81
ssg69
g4100
sg62
(lp4107
S'HTTP_CONNECTION'
p4108
asbag55
(g76
g57
NtRp4109
(dp4110
g60
(dp4111
g87
g88
ssg69
g4100
sg62
(lp4112
S':'
asbag55
(g76
g57
NtRp4113
(dp4114
g60
(dp4115
sg69
g4100
sg62
(lp4116
g55
(g56
g57
NtRp4117
(dp4118
g60
(dp4119
g68
I3
ssg69
g4113
sg62
(lp4120
g2261
asbasbasbag55
(g71
g57
NtRp4121
(dp4122
g60
(dp4123
sg69
g3907
sg62
(lp4124
g55
(g76
g57
NtRp4125
(dp4126
g60
(dp4127
g80
g81
ssg69
g4121
sg62
(lp4128
S'HTTP_COOKIE'
p4129
asbag55
(g76
g57
NtRp4130
(dp4131
g60
(dp4132
g87
g88
ssg69
g4121
sg62
(lp4133
S':'
asbag55
(g76
g57
NtRp4134
(dp4135
g60
(dp4136
sg69
g4121
sg62
(lp4137
g55
(g56
g57
NtRp4138
(dp4139
g60
(dp4140
g68
I3
ssg69
g4134
sg62
(lp4141
g2283
asbasbasbag55
(g71
g57
NtRp4142
(dp4143
g60
(dp4144
sg69
g3907
sg62
(lp4145
g55
(g76
g57
NtRp4146
(dp4147
g60
(dp4148
g80
g81
ssg69
g4142
sg62
(lp4149
S'HTTP_HOST'
p4150
asbag55
(g76
g57
NtRp4151
(dp4152
g60
(dp4153
g87
g88
ssg69
g4142
sg62
(lp4154
S':'
asbag55
(g76
g57
NtRp4155
(dp4156
g60
(dp4157
sg69
g4142
sg62
(lp4158
g55
(g56
g57
NtRp4159
(dp4160
g60
(dp4161
g68
I3
ssg69
g4155
sg62
(lp4162
g2305
asbasbasbag55
(g71
g57
NtRp4163
(dp4164
g60
(dp4165
sg69
g3907
sg62
(lp4166
g55
(g76
g57
NtRp4167
(dp4168
g60
(dp4169
g80
g81
ssg69
g4163
sg62
(lp4170
S'HTTP_REFERER'
p4171
asbag55
(g76
g57
NtRp4172
(dp4173
g60
(dp4174
g87
g88
ssg69
g4163
sg62
(lp4175
S':'
asbag55
(g76
g57
NtRp4176
(dp4177
g60
(dp4178
sg69
g4163
sg62
(lp4179
g55
(g56
g57
NtRp4180
(dp4181
g60
(dp4182
g68
I3
ssg69
g4176
sg62
(lp4183
g2327
asbasbasbag55
(g71
g57
NtRp4184
(dp4185
g60
(dp4186
sg69
g3907
sg62
(lp4187
g55
(g76
g57
NtRp4188
(dp4189
g60
(dp4190
g80
g81
ssg69
g4184
sg62
(lp4191
S'HTTP_USER_AGENT'
p4192
asbag55
(g76
g57
NtRp4193
(dp4194
g60
(dp4195
g87
g88
ssg69
g4184
sg62
(lp4196
S':'
asbag55
(g76
g57
NtRp4197
(dp4198
g60
(dp4199
sg69
g4184
sg62
(lp4200
g55
(g56
g57
NtRp4201
(dp4202
g60
(dp4203
g68
I3
ssg69
g4197
sg62
(lp4204
g2349
asbasbasbag55
(g71
g57
NtRp4205
(dp4206
g60
(dp4207
sg69
g3907
sg62
(lp4208
g55
(g76
g57
NtRp4209
(dp4210
g60
(dp4211
g80
g81
ssg69
g4205
sg62
(lp4212
S'PATHEXT'
p4213
asbag55
(g76
g57
NtRp4214
(dp4215
g60
(dp4216
g87
g88
ssg69
g4205
sg62
(lp4217
S':'
asbag55
(g76
g57
NtRp4218
(dp4219
g60
(dp4220
sg69
g4205
sg62
(lp4221
g55
(g56
g57
NtRp4222
(dp4223
g60
(dp4224
g68
I3
ssg69
g4218
sg62
(lp4225
g2635
asbasbasbag55
(g71
g57
NtRp4226
(dp4227
g60
(dp4228
sg69
g3907
sg62
(lp4229
g55
(g76
g57
NtRp4230
(dp4231
g60
(dp4232
g80
g81
ssg69
g4226
sg62
(lp4233
S'PATH_INFO'
p4234
asbag55
(g76
g57
NtRp4235
(dp4236
g60
(dp4237
g87
g88
ssg69
g4226
sg62
(lp4238
S':'
asbag55
(g76
g57
NtRp4239
(dp4240
g60
(dp4241
sg69
g4226
sg62
(lp4242
g55
(g56
g57
NtRp4243
(dp4244
g60
(dp4245
g68
I3
ssg69
g4239
sg62
(lp4246
g2591
asbasbasbag55
(g71
g57
NtRp4247
(dp4248
g60
(dp4249
sg69
g3907
sg62
(lp4250
g55
(g76
g57
NtRp4251
(dp4252
g60
(dp4253
g80
g81
ssg69
g4247
sg62
(lp4254
S'PATH_TRANSLATED'
p4255
asbag55
(g76
g57
NtRp4256
(dp4257
g60
(dp4258
g87
g88
ssg69
g4247
sg62
(lp4259
S':'
asbag55
(g76
g57
NtRp4260
(dp4261
g60
(dp4262
sg69
g4247
sg62
(lp4263
g55
(g56
g57
NtRp4264
(dp4265
g60
(dp4266
g68
I3
ssg69
g4260
sg62
(lp4267
g2613
asbasbasbag55
(g71
g57
NtRp4268
(dp4269
g60
(dp4270
sg69
g3907
sg62
(lp4271
g55
(g76
g57
NtRp4272
(dp4273
g60
(dp4274
g80
g81
ssg69
g4268
sg62
(lp4275
S'QUERY_STRING'
p4276
asbag55
(g76
g57
NtRp4277
(dp4278
g60
(dp4279
g87
g88
ssg69
g4268
sg62
(lp4280
S':'
asbag55
(g76
g57
NtRp4281
(dp4282
g60
(dp4283
sg69
g4268
sg62
(lp4284
g55
(g56
g57
NtRp4285
(dp4286
g60
(dp4287
g68
I3
ssg69
g4281
sg62
(lp4288
S''
asbasbasbag55
(g71
g57
NtRp4289
(dp4290
g60
(dp4291
sg69
g3907
sg62
(lp4292
g55
(g76
g57
NtRp4293
(dp4294
g60
(dp4295
g80
g81
ssg69
g4289
sg62
(lp4296
S'REMOTE_ADDR'
p4297
asbag55
(g76
g57
NtRp4298
(dp4299
g60
(dp4300
g87
g88
ssg69
g4289
sg62
(lp4301
S':'
asbag55
(g76
g57
NtRp4302
(dp4303
g60
(dp4304
sg69
g4289
sg62
(lp4305
g55
(g56
g57
NtRp4306
(dp4307
g60
(dp4308
g68
I3
ssg69
g4302
sg62
(lp4309
g188
asbasbasbag55
(g71
g57
NtRp4310
(dp4311
g60
(dp4312
sg69
g3907
sg62
(lp4313
g55
(g76
g57
NtRp4314
(dp4315
g60
(dp4316
g80
g81
ssg69
g4310
sg62
(lp4317
S'REMOTE_PORT'
p4318
asbag55
(g76
g57
NtRp4319
(dp4320
g60
(dp4321
g87
g88
ssg69
g4310
sg62
(lp4322
S':'
asbag55
(g76
g57
NtRp4323
(dp4324
g60
(dp4325
sg69
g4310
sg62
(lp4326
g55
(g56
g57
NtRp4327
(dp4328
g60
(dp4329
g68
I3
ssg69
g4323
sg62
(lp4330
g2699
asbasbasbag55
(g71
g57
NtRp4331
(dp4332
g60
(dp4333
sg69
g3907
sg62
(lp4334
g55
(g76
g57
NtRp4335
(dp4336
g60
(dp4337
g80
g81
ssg69
g4331
sg62
(lp4338
S'REQUEST_METHOD'
p4339
asbag55
(g76
g57
NtRp4340
(dp4341
g60
(dp4342
g87
g88
ssg69
g4331
sg62
(lp4343
S':'
asbag55
(g76
g57
NtRp4344
(dp4345
g60
(dp4346
sg69
g4331
sg62
(lp4347
g55
(g56
g57
NtRp4348
(dp4349
g60
(dp4350
g68
I3
ssg69
g4344
sg62
(lp4351
g2721
asbasbasbag55
(g71
g57
NtRp4352
(dp4353
g60
(dp4354
sg69
g3907
sg62
(lp4355
g55
(g76
g57
NtRp4356
(dp4357
g60
(dp4358
g80
g81
ssg69
g4352
sg62
(lp4359
S'REQUEST_URI'
p4360
asbag55
(g76
g57
NtRp4361
(dp4362
g60
(dp4363
g87
g88
ssg69
g4352
sg62
(lp4364
S':'
asbag55
(g76
g57
NtRp4365
(dp4366
g60
(dp4367
sg69
g4352
sg62
(lp4368
g55
(g56
g57
NtRp4369
(dp4370
g60
(dp4371
g68
I3
ssg69
g4365
sg62
(lp4372
g2743
asbasbasbag55
(g71
g57
NtRp4373
(dp4374
g60
(dp4375
sg69
g3907
sg62
(lp4376
g55
(g76
g57
NtRp4377
(dp4378
g60
(dp4379
g80
g81
ssg69
g4373
sg62
(lp4380
S'SCRIPT_FILENAME'
p4381
asbag55
(g76
g57
NtRp4382
(dp4383
g60
(dp4384
g87
g88
ssg69
g4373
sg62
(lp4385
S':'
asbag55
(g76
g57
NtRp4386
(dp4387
g60
(dp4388
sg69
g4373
sg62
(lp4389
g55
(g56
g57
NtRp4390
(dp4391
g60
(dp4392
g68
I3
ssg69
g4386
sg62
(lp4393
g2765
asbasbasbag55
(g71
g57
NtRp4394
(dp4395
g60
(dp4396
sg69
g3907
sg62
(lp4397
g55
(g76
g57
NtRp4398
(dp4399
g60
(dp4400
g80
g81
ssg69
g4394
sg62
(lp4401
S'SCRIPT_NAME'
p4402
asbag55
(g76
g57
NtRp4403
(dp4404
g60
(dp4405
g87
g88
ssg69
g4394
sg62
(lp4406
S':'
asbag55
(g76
g57
NtRp4407
(dp4408
g60
(dp4409
sg69
g4394
sg62
(lp4410
g55
(g56
g57
NtRp4411
(dp4412
g60
(dp4413
g68
I3
ssg69
g4407
sg62
(lp4414
S''
asbasbasbag55
(g71
g57
NtRp4415
(dp4416
g60
(dp4417
sg69
g3907
sg62
(lp4418
g55
(g76
g57
NtRp4419
(dp4420
g60
(dp4421
g80
g81
ssg69
g4415
sg62
(lp4422
S'SERVER_ADDR'
p4423
asbag55
(g76
g57
NtRp4424
(dp4425
g60
(dp4426
g87
g88
ssg69
g4415
sg62
(lp4427
S':'
asbag55
(g76
g57
NtRp4428
(dp4429
g60
(dp4430
sg69
g4415
sg62
(lp4431
g55
(g56
g57
NtRp4432
(dp4433
g60
(dp4434
g68
I3
ssg69
g4428
sg62
(lp4435
g2808
asbasbasbag55
(g71
g57
NtRp4436
(dp4437
g60
(dp4438
sg69
g3907
sg62
(lp4439
g55
(g76
g57
NtRp4440
(dp4441
g60
(dp4442
g80
g81
ssg69
g4436
sg62
(lp4443
S'SERVER_ADMIN'
p4444
asbag55
(g76
g57
NtRp4445
(dp4446
g60
(dp4447
g87
g88
ssg69
g4436
sg62
(lp4448
S':'
asbag55
(g76
g57
NtRp4449
(dp4450
g60
(dp4451
sg69
g4436
sg62
(lp4452
g55
(g56
g57
NtRp4453
(dp4454
g60
(dp4455
g68
I3
ssg69
g4449
sg62
(lp4456
g2830
asbasbasbag55
(g71
g57
NtRp4457
(dp4458
g60
(dp4459
sg69
g3907
sg62
(lp4460
g55
(g76
g57
NtRp4461
(dp4462
g60
(dp4463
g80
g81
ssg69
g4457
sg62
(lp4464
S'SERVER_NAME'
p4465
asbag55
(g76
g57
NtRp4466
(dp4467
g60
(dp4468
g87
g88
ssg69
g4457
sg62
(lp4469
S':'
asbag55
(g76
g57
NtRp4470
(dp4471
g60
(dp4472
sg69
g4457
sg62
(lp4473
g55
(g56
g57
NtRp4474
(dp4475
g60
(dp4476
g68
I3
ssg69
g4470
sg62
(lp4477
g2852
asbasbasbag55
(g71
g57
NtRp4478
(dp4479
g60
(dp4480
sg69
g3907
sg62
(lp4481
g55
(g76
g57
NtRp4482
(dp4483
g60
(dp4484
g80
g81
ssg69
g4478
sg62
(lp4485
S'SERVER_PORT'
p4486
asbag55
(g76
g57
NtRp4487
(dp4488
g60
(dp4489
g87
g88
ssg69
g4478
sg62
(lp4490
S':'
asbag55
(g76
g57
NtRp4491
(dp4492
g60
(dp4493
sg69
g4478
sg62
(lp4494
g55
(g56
g57
NtRp4495
(dp4496
g60
(dp4497
g68
I3
ssg69
g4491
sg62
(lp4498
g2874
asbasbasbag55
(g71
g57
NtRp4499
(dp4500
g60
(dp4501
sg69
g3907
sg62
(lp4502
g55
(g76
g57
NtRp4503
(dp4504
g60
(dp4505
g80
g81
ssg69
g4499
sg62
(lp4506
S'SERVER_PROTOCOL'
p4507
asbag55
(g76
g57
NtRp4508
(dp4509
g60
(dp4510
g87
g88
ssg69
g4499
sg62
(lp4511
S':'
asbag55
(g76
g57
NtRp4512
(dp4513
g60
(dp4514
sg69
g4499
sg62
(lp4515
g55
(g56
g57
NtRp4516
(dp4517
g60
(dp4518
g68
I3
ssg69
g4512
sg62
(lp4519
g2896
asbasbasbag55
(g71
g57
NtRp4520
(dp4521
g60
(dp4522
sg69
g3907
sg62
(lp4523
g55
(g76
g57
NtRp4524
(dp4525
g60
(dp4526
g80
g81
ssg69
g4520
sg62
(lp4527
S'SERVER_SIGNATURE'
p4528
asbag55
(g76
g57
NtRp4529
(dp4530
g60
(dp4531
g87
g88
ssg69
g4520
sg62
(lp4532
S':'
asbag55
(g76
g57
NtRp4533
(dp4534
g60
(dp4535
sg69
g4520
sg62
(lp4536
g55
(g56
g57
NtRp4537
(dp4538
g60
(dp4539
g68
I3
ssg69
g4533
sg62
(lp4540
S''
asbasbasbag55
(g71
g57
NtRp4541
(dp4542
g60
(dp4543
sg69
g3907
sg62
(lp4544
g55
(g76
g57
NtRp4545
(dp4546
g60
(dp4547
g80
g81
ssg69
g4541
sg62
(lp4548
S'SERVER_SOFTWARE'
p4549
asbag55
(g76
g57
NtRp4550
(dp4551
g60
(dp4552
g87
g88
ssg69
g4541
sg62
(lp4553
S':'
asbag55
(g76
g57
NtRp4554
(dp4555
g60
(dp4556
sg69
g4541
sg62
(lp4557
g55
(g56
g57
NtRp4558
(dp4559
g60
(dp4560
g68
I3
ssg69
g4554
sg62
(lp4561
g2939
asbasbasbag55
(g71
g57
NtRp4562
(dp4563
g60
(dp4564
sg69
g3907
sg62
(lp4565
g55
(g76
g57
NtRp4566
(dp4567
g60
(dp4568
g80
g81
ssg69
g4562
sg62
(lp4569
S'SystemRoot'
p4570
asbag55
(g76
g57
NtRp4571
(dp4572
g60
(dp4573
g87
g88
ssg69
g4562
sg62
(lp4574
S':'
asbag55
(g76
g57
NtRp4575
(dp4576
g60
(dp4577
sg69
g4562
sg62
(lp4578
g55
(g56
g57
NtRp4579
(dp4580
g60
(dp4581
g68
I3
ssg69
g4575
sg62
(lp4582
g2961
asbasbasbag55
(g71
g57
NtRp4583
(dp4584
g60
(dp4585
sg69
g3907
sg62
(lp4586
g55
(g76
g57
NtRp4587
(dp4588
g60
(dp4589
g80
g81
ssg69
g4583
sg62
(lp4590
S'WINDIR'
p4591
asbag55
(g76
g57
NtRp4592
(dp4593
g60
(dp4594
g87
g88
ssg69
g4583
sg62
(lp4595
S':'
asbag55
(g76
g57
NtRp4596
(dp4597
g60
(dp4598
sg69
g4583
sg62
(lp4599
g55
(g56
g57
NtRp4600
(dp4601
g60
(dp4602
g68
I3
ssg69
g4596
sg62
(lp4603
g3092
asbasbasbag55
(g71
g57
NtRp4604
(dp4605
g60
(dp4606
sg69
g3907
sg62
(lp4607
g55
(g76
g57
NtRp4608
(dp4609
g60
(dp4610
g80
g81
ssg69
g4604
sg62
(lp4611
S'mod_wsgi.application_group'
p4612
asbag55
(g76
g57
NtRp4613
(dp4614
g60
(dp4615
g87
g88
ssg69
g4604
sg62
(lp4616
S':'
asbag55
(g76
g57
NtRp4617
(dp4618
g60
(dp4619
sg69
g4604
sg62
(lp4620
g55
(g56
g57
NtRp4621
(dp4622
g60
(dp4623
g68
I3
ssg69
g4617
sg62
(lp4624
g2392
asbasbasbag55
(g71
g57
NtRp4625
(dp4626
g60
(dp4627
sg69
g3907
sg62
(lp4628
g55
(g76
g57
NtRp4629
(dp4630
g60
(dp4631
g80
g81
ssg69
g4625
sg62
(lp4632
S'mod_wsgi.callable_object'
p4633
asbag55
(g76
g57
NtRp4634
(dp4635
g60
(dp4636
g87
g88
ssg69
g4625
sg62
(lp4637
S':'
asbag55
(g76
g57
NtRp4638
(dp4639
g60
(dp4640
sg69
g4625
sg62
(lp4641
g55
(g56
g57
NtRp4642
(dp4643
g60
(dp4644
g68
I3
ssg69
g4638
sg62
(lp4645
g2414
asbasbasbag55
(g71
g57
NtRp4646
(dp4647
g60
(dp4648
sg69
g3907
sg62
(lp4649
g55
(g76
g57
NtRp4650
(dp4651
g60
(dp4652
g80
g81
ssg69
g4646
sg62
(lp4653
S'mod_wsgi.handler_script'
p4654
asbag55
(g76
g57
NtRp4655
(dp4656
g60
(dp4657
g87
g88
ssg69
g4646
sg62
(lp4658
S':'
asbag55
(g76
g57
NtRp4659
(dp4660
g60
(dp4661
sg69
g4646
sg62
(lp4662
g55
(g56
g57
NtRp4663
(dp4664
g60
(dp4665
g68
I3
ssg69
g4659
sg62
(lp4666
S''
asbasbasbag55
(g71
g57
NtRp4667
(dp4668
g60
(dp4669
sg69
g3907
sg62
(lp4670
g55
(g76
g57
NtRp4671
(dp4672
g60
(dp4673
g80
g81
ssg69
g4667
sg62
(lp4674
S'mod_wsgi.input_chunked'
p4675
asbag55
(g76
g57
NtRp4676
(dp4677
g60
(dp4678
g87
g88
ssg69
g4667
sg62
(lp4679
S':'
asbag55
(g76
g57
NtRp4680
(dp4681
g60
(dp4682
sg69
g4667
sg62
(lp4683
g55
(g56
g57
NtRp4684
(dp4685
g60
(dp4686
g68
I3
ssg69
g4680
sg62
(lp4687
S'0'
asbasbasbag55
(g71
g57
NtRp4688
(dp4689
g60
(dp4690
sg69
g3907
sg62
(lp4691
g55
(g76
g57
NtRp4692
(dp4693
g60
(dp4694
g80
g81
ssg69
g4688
sg62
(lp4695
S'mod_wsgi.process_group'
p4696
asbag55
(g76
g57
NtRp4697
(dp4698
g60
(dp4699
g87
g88
ssg69
g4688
sg62
(lp4700
S':'
asbag55
(g76
g57
NtRp4701
(dp4702
g60
(dp4703
sg69
g4688
sg62
(lp4704
g55
(g56
g57
NtRp4705
(dp4706
g60
(dp4707
g68
I3
ssg69
g4701
sg62
(lp4708
S''
asbasbasbag55
(g71
g57
NtRp4709
(dp4710
g60
(dp4711
sg69
g3907
sg62
(lp4712
g55
(g76
g57
NtRp4713
(dp4714
g60
(dp4715
g80
g81
ssg69
g4709
sg62
(lp4716
S'mod_wsgi.request_handler'
p4717
asbag55
(g76
g57
NtRp4718
(dp4719
g60
(dp4720
g87
g88
ssg69
g4709
sg62
(lp4721
S':'
asbag55
(g76
g57
NtRp4722
(dp4723
g60
(dp4724
sg69
g4709
sg62
(lp4725
g55
(g56
g57
NtRp4726
(dp4727
g60
(dp4728
g68
I3
ssg69
g4722
sg62
(lp4729
g2499
asbasbasbag55
(g71
g57
NtRp4730
(dp4731
g60
(dp4732
sg69
g3907
sg62
(lp4733
g55
(g76
g57
NtRp4734
(dp4735
g60
(dp4736
g80
g81
ssg69
g4730
sg62
(lp4737
S'mod_wsgi.script_reloading'
p4738
asbag55
(g76
g57
NtRp4739
(dp4740
g60
(dp4741
g87
g88
ssg69
g4730
sg62
(lp4742
S':'
asbag55
(g76
g57
NtRp4743
(dp4744
g60
(dp4745
sg69
g4730
sg62
(lp4746
g55
(g56
g57
NtRp4747
(dp4748
g60
(dp4749
g68
I3
ssg69
g4743
sg62
(lp4750
S'1'
asbasbasbag55
(g71
g57
NtRp4751
(dp4752
g60
(dp4753
sg69
g3907
sg62
(lp4754
g55
(g76
g57
NtRp4755
(dp4756
g60
(dp4757
g80
g81
ssg69
g4751
sg62
(lp4758
S'mod_wsgi.version'
p4759
asbag55
(g76
g57
NtRp4760
(dp4761
g60
(dp4762
g87
g88
ssg69
g4751
sg62
(lp4763
S':'
asbag55
(g76
g57
NtRp4764
(dp4765
g60
(dp4766
sg69
g4751
sg62
(lp4767
g55
(g56
g57
NtRp4768
(dp4769
g60
(dp4770
g68
I3
ssg69
g4764
sg62
(lp4771
g55
(g64
g57
NtRp4772
(dp4773
g60
(dp4774
g68
I2
ssg69
Nsg62
(lp4775
g55
(g71
g57
NtRp4776
(dp4777
g60
(dp4778
sg69
g4772
sg62
(lp4779
g55
(g76
g57
NtRp4780
(dp4781
g60
(dp4782
sg69
g4776
sg62
(lp4783
g55
(g56
g57
NtRp4784
(dp4785
g60
(dp4786
g68
I2
ssg69
g4780
sg62
(lp4787
S'3'
asbasbasbag55
(g71
g57
NtRp4788
(dp4789
g60
(dp4790
sg69
g4772
sg62
(lp4791
g55
(g76
g57
NtRp4792
(dp4793
g60
(dp4794
sg69
g4788
sg62
(lp4795
g55
(g56
g57
NtRp4796
(dp4797
g60
(dp4798
g68
I2
ssg69
g4792
sg62
(lp4799
S'3'
asbasbasbasbasbasbasbag55
(g71
g57
NtRp4800
(dp4801
g60
(dp4802
sg69
g3907
sg62
(lp4803
g55
(g76
g57
NtRp4804
(dp4805
g60
(dp4806
g80
g81
ssg69
g4800
sg62
(lp4807
S'wsgi.errors'
p4808
asbag55
(g76
g57
NtRp4809
(dp4810
g60
(dp4811
g87
g88
ssg69
g4800
sg62
(lp4812
S':'
asbag55
(g76
g57
NtRp4813
(dp4814
g60
(dp4815
sg69
g4800
sg62
(lp4816
g55
(g56
g57
NtRp4817
(dp4818
g60
(dp4819
g68
I3
ssg69
g4813
sg62
(lp4820
S'<mod_wsgi.Log object at 0x04007138>'
p4821
asbasbasbag55
(g71
g57
NtRp4822
(dp4823
g60
(dp4824
sg69
g3907
sg62
(lp4825
g55
(g76
g57
NtRp4826
(dp4827
g60
(dp4828
g80
g81
ssg69
g4822
sg62
(lp4829
S'wsgi.file_wrapper'
p4830
asbag55
(g76
g57
NtRp4831
(dp4832
g60
(dp4833
g87
g88
ssg69
g4822
sg62
(lp4834
S':'
asbag55
(g76
g57
NtRp4835
(dp4836
g60
(dp4837
sg69
g4822
sg62
(lp4838
g55
(g56
g57
NtRp4839
(dp4840
g60
(dp4841
g68
I3
ssg69
g4835
sg62
(lp4842
S'<built-in method file_wrapper of mod_wsgi.Adapter object at 0x042A3338>'
p4843
asbasbasbag55
(g71
g57
NtRp4844
(dp4845
g60
(dp4846
sg69
g3907
sg62
(lp4847
g55
(g76
g57
NtRp4848
(dp4849
g60
(dp4850
g80
g81
ssg69
g4844
sg62
(lp4851
S'wsgi.input'
p4852
asbag55
(g76
g57
NtRp4853
(dp4854
g60
(dp4855
g87
g88
ssg69
g4844
sg62
(lp4856
S':'
asbag55
(g76
g57
NtRp4857
(dp4858
g60
(dp4859
sg69
g4844
sg62
(lp4860
g55
(g56
g57
NtRp4861
(dp4862
g60
(dp4863
g68
I3
ssg69
g4857
sg62
(lp4864
S"<closed file '<fdopen>', mode 'w+b' at 0x0579E0D0>"
p4865
asbasbasbag55
(g71
g57
NtRp4866
(dp4867
g60
(dp4868
sg69
g3907
sg62
(lp4869
g55
(g76
g57
NtRp4870
(dp4871
g60
(dp4872
g80
g81
ssg69
g4866
sg62
(lp4873
S'wsgi.multiprocess'
p4874
asbag55
(g76
g57
NtRp4875
(dp4876
g60
(dp4877
g87
g88
ssg69
g4866
sg62
(lp4878
S':'
asbag55
(g76
g57
NtRp4879
(dp4880
g60
(dp4881
sg69
g4866
sg62
(lp4882
g55
(g56
g57
NtRp4883
(dp4884
g60
(dp4885
g68
I3
ssg69
g4879
sg62
(lp4886
g98
asbasbasbag55
(g71
g57
NtRp4887
(dp4888
g60
(dp4889
sg69
g3907
sg62
(lp4890
g55
(g76
g57
NtRp4891
(dp4892
g60
(dp4893
g80
g81
ssg69
g4887
sg62
(lp4894
S'wsgi.multithread'
p4895
asbag55
(g76
g57
NtRp4896
(dp4897
g60
(dp4898
g87
g88
ssg69
g4887
sg62
(lp4899
S':'
asbag55
(g76
g57
NtRp4900
(dp4901
g60
(dp4902
sg69
g4887
sg62
(lp4903
g55
(g56
g57
NtRp4904
(dp4905
g60
(dp4906
g68
I3
ssg69
g4900
sg62
(lp4907
g3201
asbasbasbag55
(g71
g57
NtRp4908
(dp4909
g60
(dp4910
sg69
g3907
sg62
(lp4911
g55
(g76
g57
NtRp4912
(dp4913
g60
(dp4914
g80
g81
ssg69
g4908
sg62
(lp4915
S'wsgi.run_once'
p4916
asbag55
(g76
g57
NtRp4917
(dp4918
g60
(dp4919
g87
g88
ssg69
g4908
sg62
(lp4920
S':'
asbag55
(g76
g57
NtRp4921
(dp4922
g60
(dp4923
sg69
g4908
sg62
(lp4924
g55
(g56
g57
NtRp4925
(dp4926
g60
(dp4927
g68
I3
ssg69
g4921
sg62
(lp4928
g98
asbasbasbag55
(g71
g57
NtRp4929
(dp4930
g60
(dp4931
sg69
g3907
sg62
(lp4932
g55
(g76
g57
NtRp4933
(dp4934
g60
(dp4935
g80
g81
ssg69
g4929
sg62
(lp4936
S'wsgi.url_scheme'
p4937
asbag55
(g76
g57
NtRp4938
(dp4939
g60
(dp4940
g87
g88
ssg69
g4929
sg62
(lp4941
S':'
asbag55
(g76
g57
NtRp4942
(dp4943
g60
(dp4944
sg69
g4929
sg62
(lp4945
g55
(g56
g57
NtRp4946
(dp4947
g60
(dp4948
g68
I3
ssg69
g4942
sg62
(lp4949
g3244
asbasbasbag55
(g71
g57
NtRp4950
(dp4951
g60
(dp4952
sg69
g3907
sg62
(lp4953
g55
(g76
g57
NtRp4954
(dp4955
g60
(dp4956
g80
g81
ssg69
g4950
sg62
(lp4957
S'wsgi.version'
p4958
asbag55
(g76
g57
NtRp4959
(dp4960
g60
(dp4961
g87
g88
ssg69
g4950
sg62
(lp4962
S':'
asbag55
(g76
g57
NtRp4963
(dp4964
g60
(dp4965
sg69
g4950
sg62
(lp4966
g55
(g56
g57
NtRp4967
(dp4968
g60
(dp4969
g68
I3
ssg69
g4963
sg62
(lp4970
S'1'
asbasbasbasbasbasbasbasbasbasbasbasbasbsS'frames'
p4971
(lp4972
(dp4973
S'file'
p4974
S'D:\\Workbench\\private\\web2py_src\\gluon\\main.py'
p4975
sS'dump'
p4976
(dp4977
S'global serve_controller'
p4978
S'<function serve_controller>'
p4979
sS'session'
p4980
S"<Storage {'_Session__hash': '\\xc8[\\xd5\\xc1#\\xd8e\\x10\\xe3\\x06\\x0ba\\xddT\\x92m'}>"
p4981
sS'request'
p4982
S"<Storage {'body': <closed file '<fdopen>', mode ...\\xf4q\\x88E\\x89\\xf8\\xef\\x81\\xa3\\x06?\\xff\\xd9')}>}>"
p4983
sS'response'
p4984
S"<Storage {'status': 200, 'body': <cStringIO.Stri...>, 'files': [], 'view': 'transform/upload.html'}>"
p4985
ssS'lnum'
p4986
I490
sS'lines'
p4987
(dp4988
I485
S''
sI486
S'                # ##################################################'
p4989
sI487
S'                # run controller'
p4990
sI488
S'                # ##################################################'
p4991
sI489
S''
sI490
S'                serve_controller(request, response, session)'
p4992
sI491
S''
sI492
S'            except HTTP, http_response:'
p4993
sI493
S'                if static_file:'
p4994
sI494
S'                    return http_response.to(responder)'
p4995
ssS'call'
p4996
S"(environ={'COMSPEC': r'C:\\Windows\\system32\\cmd.exe', 'CONTENT_LENGTH': '510119', 'CONTENT_TYPE': 'multipart/form-data; boundary=---------------------------7dc26d35160b8a', 'DOCUMENT_ROOT': 'D:/Workbench/documentroot', 'GATEWAY_INTERFACE': 'CGI/1.1', 'HTTP_ACCEPT': 'text/html, application/xhtml+xml, */*', 'HTTP_ACCEPT_ENCODING': 'gzip, deflate', 'HTTP_ACCEPT_LANGUAGE': 'zh-CN', 'HTTP_CACHE_CONTROL': 'no-cache', 'HTTP_CONNECTION': 'Keep-Alive', ...}, responder=<built-in method start_response of mod_wsgi.Adapter object>)"
p4997
sS'func'
p4998
S'wsgibase'
p4999
sa(dp5000
g4974
S'D:\\Workbench\\private\\web2py_src\\gluon\\main.py'
p5001
sg4976
(dp5002
S'global run_controller_in'
p5003
S'<function run_controller_in>'
p5004
sS'request.controller'
p5005
S"'transform'"
p5006
sS'request'
p5007
S"<Storage {'body': <closed file '<fdopen>', mode ...\\xf4q\\x88E\\x89\\xf8\\xef\\x81\\xa3\\x06?\\xff\\xd9')}>}>"
p5008
sS'environment'
p5009
S"{'A': <class 'gluon.html.A'>, 'B': <class 'gluon.html.B'>, 'BEAUTIFY': <class 'gluon.html.BEAUTIFY'>, 'BODY': <class 'gluon.html.BODY'>, 'BR': <class 'gluon.html.BR'>, 'BUTTON': <class 'gluon.html.BUTTON'>, 'CAT': <class 'gluon.html.CAT'>, 'CENTER': <class 'gluon.html.CENTER'>, 'CLEANUP': <class 'gluon.validators.CLEANUP'>, 'CODE': <class 'gluon.html.CODE'>, ...}"
p5010
sS'request.function'
p5011
S"'upload'"
p5012
sS'page'
p5013
S'undefined'
p5014
ssg4986
I204
sg4987
(dp5015
I199
S'    # process models, controller and view (if required)'
p5016
sI200
S'    # ##################################################'
p5017
sI201
S''
sI202
S'    run_models_in(environment)'
p5018
sI203
S'    response._view_environment = copy.copy(environment)'
p5019
sI204
S'    page = run_controller_in(request.controller, request.function, environment)'
p5020
sI205
S'    if isinstance(page, dict):'
p5021
sI206
S'        response._vars = page'
p5022
sI207
S'        for key in page:'
p5023
sI208
S'            response._view_environment[key] = page[key]'
p5024
ssg4996
S"(request=<Storage {'body': <closed file '<fdopen>', mode ...\\xf4q\\x88E\\x89\\xf8\\xef\\x81\\xa3\\x06?\\xff\\xd9')}>}>, response=<Storage {'status': 200, 'body': <cStringIO.Stri...>, 'files': [], 'view': 'transform/upload.html'}>, session=<Storage {'_Session__hash': '\\xc8[\\xd5\\xc1#\\xd8e\\x10\\xe3\\x06\\x0ba\\xddT\\x92m'}>)"
p5025
sg4998
S'serve_controller'
p5026
sa(dp5027
g4974
S'D:\\Workbench\\private\\web2py_src\\gluon\\compileapp.py'
p5028
sg4976
(dp5029
S'vars.xml'
p5030
S'None'
p5031
sS'vars'
p5032
S"<Storage {'body': <closed file '<fdopen>', mode ...\\xf4q\\x88E\\x89\\xf8\\xef\\x81\\xa3\\x06?\\xff\\xd9')}>}>"
p5033
ssg4986
I461
sg4987
(dp5034
I456
S'        for p in response.postprocessing:'
p5035
sI457
S'            vars = p(vars)'
p5036
sI458
S'    if isinstance(vars,unicode):'
p5037
sI459
S"        vars = vars.encode('utf8')"
p5038
sI460
S"    if hasattr(vars,'xml'):"
p5039
sI461
S'        vars = vars.xml()'
p5040
sI462
S'    return vars'
p5041
sI463
S''
sI464
S'def run_view_in(environment):'
p5042
sI465
S'    """'
p5043
ssg4996
S"(controller='transform', function='upload', environment={'A': <class 'gluon.html.A'>, 'B': <class 'gluon.html.B'>, 'BEAUTIFY': <class 'gluon.html.BEAUTIFY'>, 'BODY': <class 'gluon.html.BODY'>, 'BR': <class 'gluon.html.BR'>, 'BUTTON': <class 'gluon.html.BUTTON'>, 'CAT': <class 'gluon.html.CAT'>, 'CENTER': <class 'gluon.html.CENTER'>, 'CLEANUP': <class 'gluon.validators.CLEANUP'>, 'CODE': <class 'gluon.html.CODE'>, ...})"
p5044
sg4998
S'run_controller_in'
p5045
sasS'pyver'
p5046
S'Python 2.7.2: C:\\Program Files\\Apache Software Foundation\\Apache2.2\\bin\\httpd.exe'
p5047
sS'session'
p5048
g55
(g56
g57
NtRp5049
(dp5050
g60
(dp5051
sg62
(lp5052
g55
(g64
g57
NtRp5053
(dp5054
g60
(dp5055
g68
I5
ssg69
Nsg62
(lp5056
sbasbsS'etype'
p5057
S"<type 'exceptions.TypeError'>"
p5058
sS'date'
p5059
S'Mon Mar 12 22:21:53 2012'
p5060
sS'response'
p5061
g55
(g56
g57
NtRp5062
(dp5063
g60
(dp5064
sg62
(lp5065
g55
(g64
g57
NtRp5066
(dp5067
g60
(dp5068
g68
I5
ssg69
Nsg62
(lp5069
g55
(g71
g57
NtRp5070
(dp5071
g60
(dp5072
sg69
g5066
sg62
(lp5073
g55
(g76
g57
NtRp5074
(dp5075
g60
(dp5076
g80
g81
ssg69
g5070
sg62
(lp5077
g153
asbag55
(g76
g57
NtRp5078
(dp5079
g60
(dp5080
g87
g88
ssg69
g5070
sg62
(lp5081
S':'
asbag55
(g76
g57
NtRp5082
(dp5083
g60
(dp5084
sg69
g5070
sg62
(lp5085
g55
(g56
g57
NtRp5086
(dp5087
g60
(dp5088
g68
I5
ssg69
g5082
sg62
(lp5089
S'<cStringIO.StringO object at 0x058A0900>'
p5090
asbasbasbag55
(g71
g57
NtRp5091
(dp5092
g60
(dp5093
sg69
g5066
sg62
(lp5094
g55
(g76
g57
NtRp5095
(dp5096
g60
(dp5097
g80
g81
ssg69
g5091
sg62
(lp5098
g219
asbag55
(g76
g57
NtRp5099
(dp5100
g60
(dp5101
g87
g88
ssg69
g5091
sg62
(lp5102
S':'
asbag55
(g76
g57
NtRp5103
(dp5104
g60
(dp5105
sg69
g5091
sg62
(lp5106
g55
(g56
g57
NtRp5107
(dp5108
g60
(dp5109
g68
I5
ssg69
g5103
sg62
(lp5110
g55
(g64
g57
NtRp5111
(dp5112
g60
(dp5113
g68
I4
ssg69
Nsg62
(lp5114
g55
(g71
g57
NtRp5115
(dp5116
g60
(dp5117
sg69
g5111
sg62
(lp5118
g55
(g76
g57
NtRp5119
(dp5120
g60
(dp5121
g80
g81
ssg69
g5115
sg62
(lp5122
S'session_id_examples'
p5123
asbag55
(g76
g57
NtRp5124
(dp5125
g60
(dp5126
g87
g88
ssg69
g5115
sg62
(lp5127
S':'
asbag55
(g76
g57
NtRp5128
(dp5129
g60
(dp5130
sg69
g5115
sg62
(lp5131
g55
(g56
g57
NtRp5132
(dp5133
g60
(dp5134
g68
I4
ssg69
g5128
sg62
(lp5135
g55
(g64
g57
NtRp5136
(dp5137
g60
(dp5138
g68
I3
ssg69
Nsg62
(lp5139
g55
(g71
g57
NtRp5140
(dp5141
g60
(dp5142
sg69
g5136
sg62
(lp5143
g55
(g76
g57
NtRp5144
(dp5145
g60
(dp5146
g80
g81
ssg69
g5140
sg62
(lp5147
g269
asbag55
(g76
g57
NtRp5148
(dp5149
g60
(dp5150
g87
g88
ssg69
g5140
sg62
(lp5151
S':'
asbag55
(g76
g57
NtRp5152
(dp5153
g60
(dp5154
sg69
g5140
sg62
(lp5155
g55
(g56
g57
NtRp5156
(dp5157
g60
(dp5158
g68
I3
ssg69
g5152
sg62
(lp5159
S''
asbasbasbag55
(g71
g57
NtRp5160
(dp5161
g60
(dp5162
sg69
g5136
sg62
(lp5163
g55
(g76
g57
NtRp5164
(dp5165
g60
(dp5166
g80
g81
ssg69
g5160
sg62
(lp5167
g290
asbag55
(g76
g57
NtRp5168
(dp5169
g60
(dp5170
g87
g88
ssg69
g5160
sg62
(lp5171
S':'
asbag55
(g76
g57
NtRp5172
(dp5173
g60
(dp5174
sg69
g5160
sg62
(lp5175
g55
(g56
g57
NtRp5176
(dp5177
g60
(dp5178
g68
I3
ssg69
g5172
sg62
(lp5179
S''
asbasbasbag55
(g71
g57
NtRp5180
(dp5181
g60
(dp5182
sg69
g5136
sg62
(lp5183
g55
(g76
g57
NtRp5184
(dp5185
g60
(dp5186
g80
g81
ssg69
g5180
sg62
(lp5187
g311
asbag55
(g76
g57
NtRp5188
(dp5189
g60
(dp5190
g87
g88
ssg69
g5180
sg62
(lp5191
S':'
asbag55
(g76
g57
NtRp5192
(dp5193
g60
(dp5194
sg69
g5180
sg62
(lp5195
g55
(g56
g57
NtRp5196
(dp5197
g60
(dp5198
g68
I3
ssg69
g5192
sg62
(lp5199
S''
asbasbasbag55
(g71
g57
NtRp5200
(dp5201
g60
(dp5202
sg69
g5136
sg62
(lp5203
g55
(g76
g57
NtRp5204
(dp5205
g60
(dp5206
g80
g81
ssg69
g5200
sg62
(lp5207
g332
asbag55
(g76
g57
NtRp5208
(dp5209
g60
(dp5210
g87
g88
ssg69
g5200
sg62
(lp5211
S':'
asbag55
(g76
g57
NtRp5212
(dp5213
g60
(dp5214
sg69
g5200
sg62
(lp5215
g55
(g56
g57
NtRp5216
(dp5217
g60
(dp5218
g68
I3
ssg69
g5212
sg62
(lp5219
S''
asbasbasbag55
(g71
g57
NtRp5220
(dp5221
g60
(dp5222
sg69
g5136
sg62
(lp5223
g55
(g76
g57
NtRp5224
(dp5225
g60
(dp5226
g80
g81
ssg69
g5220
sg62
(lp5227
g353
asbag55
(g76
g57
NtRp5228
(dp5229
g60
(dp5230
g87
g88
ssg69
g5220
sg62
(lp5231
S':'
asbag55
(g76
g57
NtRp5232
(dp5233
g60
(dp5234
sg69
g5220
sg62
(lp5235
g55
(g56
g57
NtRp5236
(dp5237
g60
(dp5238
g68
I3
ssg69
g5232
sg62
(lp5239
S''
asbasbasbag55
(g71
g57
NtRp5240
(dp5241
g60
(dp5242
sg69
g5136
sg62
(lp5243
g55
(g76
g57
NtRp5244
(dp5245
g60
(dp5246
g80
g81
ssg69
g5240
sg62
(lp5247
g374
asbag55
(g76
g57
NtRp5248
(dp5249
g60
(dp5250
g87
g88
ssg69
g5240
sg62
(lp5251
S':'
asbag55
(g76
g57
NtRp5252
(dp5253
g60
(dp5254
sg69
g5240
sg62
(lp5255
g55
(g56
g57
NtRp5256
(dp5257
g60
(dp5258
g68
I3
ssg69
g5252
sg62
(lp5259
S'/'
asbasbasbag55
(g71
g57
NtRp5260
(dp5261
g60
(dp5262
sg69
g5136
sg62
(lp5263
g55
(g76
g57
NtRp5264
(dp5265
g60
(dp5266
g80
g81
ssg69
g5260
sg62
(lp5267
g395
asbag55
(g76
g57
NtRp5268
(dp5269
g60
(dp5270
g87
g88
ssg69
g5260
sg62
(lp5271
S':'
asbag55
(g76
g57
NtRp5272
(dp5273
g60
(dp5274
sg69
g5260
sg62
(lp5275
g55
(g56
g57
NtRp5276
(dp5277
g60
(dp5278
g68
I3
ssg69
g5272
sg62
(lp5279
S''
asbasbasbag55
(g71
g57
NtRp5280
(dp5281
g60
(dp5282
sg69
g5136
sg62
(lp5283
g55
(g76
g57
NtRp5284
(dp5285
g60
(dp5286
g80
g81
ssg69
g5280
sg62
(lp5287
g416
asbag55
(g76
g57
NtRp5288
(dp5289
g60
(dp5290
g87
g88
ssg69
g5280
sg62
(lp5291
S':'
asbag55
(g76
g57
NtRp5292
(dp5293
g60
(dp5294
sg69
g5280
sg62
(lp5295
g55
(g56
g57
NtRp5296
(dp5297
g60
(dp5298
g68
I3
ssg69
g5292
sg62
(lp5299
S''
asbasbasbasbasbasbasbasbasbasbasbag55
(g71
g57
NtRp5300
(dp5301
g60
(dp5302
sg69
g5066
sg62
(lp5303
g55
(g76
g57
NtRp5304
(dp5305
g60
(dp5306
g80
g81
ssg69
g5300
sg62
(lp5307
S'files'
p5308
asbag55
(g76
g57
NtRp5309
(dp5310
g60
(dp5311
g87
g88
ssg69
g5300
sg62
(lp5312
S':'
asbag55
(g76
g57
NtRp5313
(dp5314
g60
(dp5315
sg69
g5300
sg62
(lp5316
g55
(g56
g57
NtRp5317
(dp5318
g60
(dp5319
g68
I5
ssg69
g5313
sg62
(lp5320
g55
(g64
g57
NtRp5321
(dp5322
g60
(dp5323
g68
I4
ssg69
Nsg62
(lp5324
sbasbasbasbag55
(g71
g57
NtRp5325
(dp5326
g60
(dp5327
sg69
g5066
sg62
(lp5328
g55
(g76
g57
NtRp5329
(dp5330
g60
(dp5331
g80
g81
ssg69
g5325
sg62
(lp5332
S'flash'
p5333
asbag55
(g76
g57
NtRp5334
(dp5335
g60
(dp5336
g87
g88
ssg69
g5325
sg62
(lp5337
S':'
asbag55
(g76
g57
NtRp5338
(dp5339
g60
(dp5340
sg69
g5325
sg62
(lp5341
g55
(g56
g57
NtRp5342
(dp5343
g60
(dp5344
g68
I5
ssg69
g5338
sg62
(lp5345
S''
asbasbasbag55
(g71
g57
NtRp5346
(dp5347
g60
(dp5348
sg69
g5066
sg62
(lp5349
g55
(g76
g57
NtRp5350
(dp5351
g60
(dp5352
g80
g81
ssg69
g5346
sg62
(lp5353
S'generic_patterns'
p5354
asbag55
(g76
g57
NtRp5355
(dp5356
g60
(dp5357
g87
g88
ssg69
g5346
sg62
(lp5358
S':'
asbag55
(g76
g57
NtRp5359
(dp5360
g60
(dp5361
sg69
g5346
sg62
(lp5362
g55
(g56
g57
NtRp5363
(dp5364
g60
(dp5365
g68
I5
ssg69
g5359
sg62
(lp5366
g55
(g64
g57
NtRp5367
(dp5368
g60
(dp5369
g68
I4
ssg69
Nsg62
(lp5370
sbasbasbasbag55
(g71
g57
NtRp5371
(dp5372
g60
(dp5373
sg69
g5066
sg62
(lp5374
g55
(g76
g57
NtRp5375
(dp5376
g60
(dp5377
g80
g81
ssg69
g5371
sg62
(lp5378
S'headers'
p5379
asbag55
(g76
g57
NtRp5380
(dp5381
g60
(dp5382
g87
g88
ssg69
g5371
sg62
(lp5383
S':'
asbag55
(g76
g57
NtRp5384
(dp5385
g60
(dp5386
sg69
g5371
sg62
(lp5387
g55
(g56
g57
NtRp5388
(dp5389
g60
(dp5390
g68
I5
ssg69
g5384
sg62
(lp5391
g55
(g64
g57
NtRp5392
(dp5393
g60
(dp5394
g68
I4
ssg69
Nsg62
(lp5395
g55
(g71
g57
NtRp5396
(dp5397
g60
(dp5398
sg69
g5392
sg62
(lp5399
g55
(g76
g57
NtRp5400
(dp5401
g60
(dp5402
g80
g81
ssg69
g5396
sg62
(lp5403
S'Cache-Control'
p5404
asbag55
(g76
g57
NtRp5405
(dp5406
g60
(dp5407
g87
g88
ssg69
g5396
sg62
(lp5408
S':'
asbag55
(g76
g57
NtRp5409
(dp5410
g60
(dp5411
sg69
g5396
sg62
(lp5412
g55
(g56
g57
NtRp5413
(dp5414
g60
(dp5415
g68
I4
ssg69
g5409
sg62
(lp5416
S'no-store, no-cache, must-revalidate, post-check=0, pre-check=0'
p5417
asbasbasbag55
(g71
g57
NtRp5418
(dp5419
g60
(dp5420
sg69
g5392
sg62
(lp5421
g55
(g76
g57
NtRp5422
(dp5423
g60
(dp5424
g80
g81
ssg69
g5418
sg62
(lp5425
S'Content-Type'
p5426
asbag55
(g76
g57
NtRp5427
(dp5428
g60
(dp5429
g87
g88
ssg69
g5418
sg62
(lp5430
S':'
asbag55
(g76
g57
NtRp5431
(dp5432
g60
(dp5433
sg69
g5418
sg62
(lp5434
g55
(g56
g57
NtRp5435
(dp5436
g60
(dp5437
g68
I4
ssg69
g5431
sg62
(lp5438
S'text/html; charset=utf-8'
p5439
asbasbasbag55
(g71
g57
NtRp5440
(dp5441
g60
(dp5442
sg69
g5392
sg62
(lp5443
g55
(g76
g57
NtRp5444
(dp5445
g60
(dp5446
g80
g81
ssg69
g5440
sg62
(lp5447
S'Expires'
p5448
asbag55
(g76
g57
NtRp5449
(dp5450
g60
(dp5451
g87
g88
ssg69
g5440
sg62
(lp5452
S':'
asbag55
(g76
g57
NtRp5453
(dp5454
g60
(dp5455
sg69
g5440
sg62
(lp5456
g55
(g56
g57
NtRp5457
(dp5458
g60
(dp5459
g68
I4
ssg69
g5453
sg62
(lp5460
S'Mon, 12 Mar 2012 14:21:53 GMT'
p5461
asbasbasbag55
(g71
g57
NtRp5462
(dp5463
g60
(dp5464
sg69
g5392
sg62
(lp5465
g55
(g76
g57
NtRp5466
(dp5467
g60
(dp5468
g80
g81
ssg69
g5462
sg62
(lp5469
S'Pragma'
p5470
asbag55
(g76
g57
NtRp5471
(dp5472
g60
(dp5473
g87
g88
ssg69
g5462
sg62
(lp5474
S':'
asbag55
(g76
g57
NtRp5475
(dp5476
g60
(dp5477
sg69
g5462
sg62
(lp5478
g55
(g56
g57
NtRp5479
(dp5480
g60
(dp5481
g68
I4
ssg69
g5475
sg62
(lp5482
S'no-cache'
p5483
asbasbasbag55
(g71
g57
NtRp5484
(dp5485
g60
(dp5486
sg69
g5392
sg62
(lp5487
g55
(g76
g57
NtRp5488
(dp5489
g60
(dp5490
g80
g81
ssg69
g5484
sg62
(lp5491
S'X-Powered-By'
p5492
asbag55
(g76
g57
NtRp5493
(dp5494
g60
(dp5495
g87
g88
ssg69
g5484
sg62
(lp5496
S':'
asbag55
(g76
g57
NtRp5497
(dp5498
g60
(dp5499
sg69
g5484
sg62
(lp5500
g55
(g56
g57
NtRp5501
(dp5502
g60
(dp5503
g68
I4
ssg69
g5497
sg62
(lp5504
S'web2py'
p5505
asbasbasbasbasbasbasbag55
(g71
g57
NtRp5506
(dp5507
g60
(dp5508
sg69
g5066
sg62
(lp5509
g55
(g76
g57
NtRp5510
(dp5511
g60
(dp5512
g80
g81
ssg69
g5506
sg62
(lp5513
S'menu'
p5514
asbag55
(g76
g57
NtRp5515
(dp5516
g60
(dp5517
g87
g88
ssg69
g5506
sg62
(lp5518
S':'
asbag55
(g76
g57
NtRp5519
(dp5520
g60
(dp5521
sg69
g5506
sg62
(lp5522
g55
(g56
g57
NtRp5523
(dp5524
g60
(dp5525
g68
I5
ssg69
g5519
sg62
(lp5526
g55
(g64
g57
NtRp5527
(dp5528
g60
(dp5529
g68
I4
ssg69
Nsg62
(lp5530
sbasbasbasbag55
(g71
g57
NtRp5531
(dp5532
g60
(dp5533
sg69
g5066
sg62
(lp5534
g55
(g76
g57
NtRp5535
(dp5536
g60
(dp5537
g80
g81
ssg69
g5531
sg62
(lp5538
S'meta'
p5539
asbag55
(g76
g57
NtRp5540
(dp5541
g60
(dp5542
g87
g88
ssg69
g5531
sg62
(lp5543
S':'
asbag55
(g76
g57
NtRp5544
(dp5545
g60
(dp5546
sg69
g5531
sg62
(lp5547
g55
(g56
g57
NtRp5548
(dp5549
g60
(dp5550
g68
I5
ssg69
g5544
sg62
(lp5551
g55
(g64
g57
NtRp5552
(dp5553
g60
(dp5554
g68
I4
ssg69
Nsg62
(lp5555
sbasbasbasbag55
(g71
g57
NtRp5556
(dp5557
g60
(dp5558
sg69
g5066
sg62
(lp5559
g55
(g76
g57
NtRp5560
(dp5561
g60
(dp5562
g80
g81
ssg69
g5556
sg62
(lp5563
S'postprocessing'
p5564
asbag55
(g76
g57
NtRp5565
(dp5566
g60
(dp5567
g87
g88
ssg69
g5556
sg62
(lp5568
S':'
asbag55
(g76
g57
NtRp5569
(dp5570
g60
(dp5571
sg69
g5556
sg62
(lp5572
g55
(g56
g57
NtRp5573
(dp5574
g60
(dp5575
g68
I5
ssg69
g5569
sg62
(lp5576
g55
(g64
g57
NtRp5577
(dp5578
g60
(dp5579
g68
I4
ssg69
Nsg62
(lp5580
sbasbasbasbag55
(g71
g57
NtRp5581
(dp5582
g60
(dp5583
sg69
g5066
sg62
(lp5584
g55
(g76
g57
NtRp5585
(dp5586
g60
(dp5587
g80
g81
ssg69
g5581
sg62
(lp5588
S'session_filename'
p5589
asbag55
(g76
g57
NtRp5590
(dp5591
g60
(dp5592
g87
g88
ssg69
g5581
sg62
(lp5593
S':'
asbag55
(g76
g57
NtRp5594
(dp5595
g60
(dp5596
sg69
g5581
sg62
(lp5597
g55
(g56
g57
NtRp5598
(dp5599
g60
(dp5600
g68
I5
ssg69
g5594
sg62
(lp5601
S'D:\\Workbench\\private\\web2py_src\\applications\\examples\\sessions\\127.0.0.1-1228d67b-6bcf-46be-ad0b-af786331d026'
p5602
asbasbasbag55
(g71
g57
NtRp5603
(dp5604
g60
(dp5605
sg69
g5066
sg62
(lp5606
g55
(g76
g57
NtRp5607
(dp5608
g60
(dp5609
g80
g81
ssg69
g5603
sg62
(lp5610
S'session_id'
p5611
asbag55
(g76
g57
NtRp5612
(dp5613
g60
(dp5614
g87
g88
ssg69
g5603
sg62
(lp5615
S':'
asbag55
(g76
g57
NtRp5616
(dp5617
g60
(dp5618
sg69
g5603
sg62
(lp5619
g55
(g56
g57
NtRp5620
(dp5621
g60
(dp5622
g68
I5
ssg69
g5616
sg62
(lp5623
S'127.0.0.1-1228d67b-6bcf-46be-ad0b-af786331d026'
p5624
asbasbasbag55
(g71
g57
NtRp5625
(dp5626
g60
(dp5627
sg69
g5066
sg62
(lp5628
g55
(g76
g57
NtRp5629
(dp5630
g60
(dp5631
g80
g81
ssg69
g5625
sg62
(lp5632
S'session_id_name'
p5633
asbag55
(g76
g57
NtRp5634
(dp5635
g60
(dp5636
g87
g88
ssg69
g5625
sg62
(lp5637
S':'
asbag55
(g76
g57
NtRp5638
(dp5639
g60
(dp5640
sg69
g5625
sg62
(lp5641
g55
(g56
g57
NtRp5642
(dp5643
g60
(dp5644
g68
I5
ssg69
g5638
sg62
(lp5645
g5123
asbasbasbag55
(g71
g57
NtRp5646
(dp5647
g60
(dp5648
sg69
g5066
sg62
(lp5649
g55
(g76
g57
NtRp5650
(dp5651
g60
(dp5652
g80
g81
ssg69
g5646
sg62
(lp5653
S'session_new'
p5654
asbag55
(g76
g57
NtRp5655
(dp5656
g60
(dp5657
g87
g88
ssg69
g5646
sg62
(lp5658
S':'
asbag55
(g76
g57
NtRp5659
(dp5660
g60
(dp5661
sg69
g5646
sg62
(lp5662
g55
(g56
g57
NtRp5663
(dp5664
g60
(dp5665
g68
I5
ssg69
g5659
sg62
(lp5666
g3201
asbasbasbag55
(g71
g57
NtRp5667
(dp5668
g60
(dp5669
sg69
g5066
sg62
(lp5670
g55
(g76
g57
NtRp5671
(dp5672
g60
(dp5673
g80
g81
ssg69
g5667
sg62
(lp5674
S'status'
p5675
asbag55
(g76
g57
NtRp5676
(dp5677
g60
(dp5678
g87
g88
ssg69
g5667
sg62
(lp5679
S':'
asbag55
(g76
g57
NtRp5680
(dp5681
g60
(dp5682
sg69
g5667
sg62
(lp5683
g55
(g56
g57
NtRp5684
(dp5685
g60
(dp5686
g68
I5
ssg69
g5680
sg62
(lp5687
S'200'
p5688
asbasbasbag55
(g71
g57
NtRp5689
(dp5690
g60
(dp5691
sg69
g5066
sg62
(lp5692
g55
(g76
g57
NtRp5693
(dp5694
g60
(dp5695
g80
g81
ssg69
g5689
sg62
(lp5696
g3802
asbag55
(g76
g57
NtRp5697
(dp5698
g60
(dp5699
g87
g88
ssg69
g5689
sg62
(lp5700
S':'
asbag55
(g76
g57
NtRp5701
(dp5702
g60
(dp5703
sg69
g5689
sg62
(lp5704
g55
(g56
g57
NtRp5705
(dp5706
g60
(dp5707
g68
I5
ssg69
g5701
sg62
(lp5708
g3815
asbasbasbag55
(g71
g57
NtRp5709
(dp5710
g60
(dp5711
sg69
g5066
sg62
(lp5712
g55
(g76
g57
NtRp5713
(dp5714
g60
(dp5715
g80
g81
ssg69
g5709
sg62
(lp5716
S'view'
p5717
asbag55
(g76
g57
NtRp5718
(dp5719
g60
(dp5720
g87
g88
ssg69
g5709
sg62
(lp5721
S':'
asbag55
(g76
g57
NtRp5722
(dp5723
g60
(dp5724
sg69
g5709
sg62
(lp5725
g55
(g56
g57
NtRp5726
(dp5727
g60
(dp5728
g68
I5
ssg69
g5722
sg62
(lp5729
S'transform/upload.html'
p5730
asbasbasbasbasbsS'locals'
p5731
(dp5732
g3346
S"'upload'"
p5733
sg5
S"'import pprint\\nimport cgitb\\ncgitb.enable()\\n\\ndef i...se None\\n\\nresponse._vars=response._caller(upload)\\n'"
p5734
sg3824
S"<Storage {'body': <closed file '<fdopen>', mode ...\\xf4q\\x88E\\x89\\xf8\\xef\\x81\\xa3\\x06?\\xff\\xd9')}>}>"
p5735
sS'exposed'
p5736
S"['index', 'upload']"
p5737
sS'filename'
p5738
S"r'D:\\Workbench\\private\\web2py_src\\applications\\examples\\controllers/transform.py'"
p5739
sS'environment'
p5740
S"{'A': <class 'gluon.html.A'>, 'B': <class 'gluon.html.B'>, 'BEAUTIFY': <class 'gluon.html.BEAUTIFY'>, 'BODY': <class 'gluon.html.BODY'>, 'BR': <class 'gluon.html.BR'>, 'BUTTON': <class 'gluon.html.BUTTON'>, 'CAT': <class 'gluon.html.CAT'>, 'CENTER': <class 'gluon.html.CENTER'>, 'CLEANUP': <class 'gluon.validators.CLEANUP'>, 'CODE': <class 'gluon.html.CODE'>, ...}"
p5741
sS'badf'
p5742
S"'invalid function (transform/upload)'"
p5743
sg197
S"'transform'"
p5744
sS'badc'
p5745
S"'invalid controller (transform/upload)'"
p5746
sg374
S"r'D:\\Workbench\\private\\web2py_src\\applications\\examples\\compiled'"
p5747
sg3324
S"r'D:\\Workbench\\private\\web2py_src\\applications\\examples\\'"
p5748
sg5061
S"<Storage {'status': 200, 'body': <cStringIO.Stri...>, 'files': [], 'view': 'transform/upload.html'}>"
p5749
sssS'traceback'
p5750
S'Traceback (most recent call last):\n  File "D:\\Workbench\\private\\web2py_src\\gluon\\main.py", line 490, in wsgibase\n    serve_controller(request, response, session)\n  File "D:\\Workbench\\private\\web2py_src\\gluon\\main.py", line 204, in serve_controller\n    page = run_controller_in(request.controller, request.function, environment)\n  File "D:\\Workbench\\private\\web2py_src\\gluon\\compileapp.py", line 461, in run_controller_in\n    vars = vars.xml()\nTypeError: \'NoneType\' object is not callable\n'
p5751
s.