(dp1
S'output'
p2
S''
sS'layer'
p3
S'D:\\Workbench\\private\\web2py_src\\applications\\examples\\controllers/transform.py'
p4
sS'code'
p5
S"\ndef index():\n    return dict()\n\ndef upload():\n    file = request.vars.myfile.file\n    wfile = open('a.jpg')\n    wfile.write(file.readlines())\n    return 'yes: %s' % file.readlines() if file else None\n\nresponse._vars=response._caller(upload)\n"
p6
sS'snapshot'
p7
(dp8
S'exception'
p9
(dp10
S'__getslice__'
p11
S"<method-wrapper '__getslice__' of exceptions.IOError object>"
p12
sS'__str__'
p13
S"<method-wrapper '__str__' of exceptions.IOError object>"
p14
sS'__reduce__'
p15
S'<built-in method __reduce__ of exceptions.IOError object>'
p16
sS'__dict__'
p17
S'{}'
p18
sS'__sizeof__'
p19
S'<built-in method __sizeof__ of exceptions.IOError object>'
p20
sS'__init__'
p21
S"<method-wrapper '__init__' of exceptions.IOError object>"
p22
sS'__setattr__'
p23
S"<method-wrapper '__setattr__' of exceptions.IOError object>"
p24
sS'__reduce_ex__'
p25
S'<built-in method __reduce_ex__ of exceptions.IOError object>'
p26
sS'__new__'
p27
S'<built-in method __new__ of type object>'
p28
sS'errno'
p29
S'2'
sS'__format__'
p30
S'<built-in method __format__ of exceptions.IOError object>'
p31
sS'__class__'
p32
S"<type 'exceptions.IOError'>"
p33
sS'filename'
p34
S"'a.jpg'"
p35
sS'__doc__'
p36
S"'I/O operation failed.'"
p37
sS'__getitem__'
p38
S"<method-wrapper '__getitem__' of exceptions.IOError object>"
p39
sS'__setstate__'
p40
S'<built-in method __setstate__ of exceptions.IOError object>'
p41
sS'__getattribute__'
p42
S"<method-wrapper '__getattribute__' of exceptions.IOError object>"
p43
sS'args'
p44
S"(2, 'No such file or directory')"
p45
sS'__subclasshook__'
p46
S'<built-in method __subclasshook__ of type object>'
p47
sS'__unicode__'
p48
S'<built-in method __unicode__ of exceptions.IOError object>'
p49
sS'strerror'
p50
S"'No such file or directory'"
p51
sS'__delattr__'
p52
S"<method-wrapper '__delattr__' of exceptions.IOError object>"
p53
sS'__repr__'
p54
S"<method-wrapper '__repr__' of exceptions.IOError object>"
p55
sS'__hash__'
p56
S"<method-wrapper '__hash__' of exceptions.IOError object>"
p57
ssS'evalue'
p58
S"[Errno 2] No such file or directory: 'a.jpg'"
p59
sS'request'
p60
ccopy_reg
_reconstructor
p61
(cgluon.html
BEAUTIFY
p62
c__builtin__
object
p63
NtRp64
(dp65
S'attributes'
p66
(dp67
sS'components'
p68
(lp69
g61
(cgluon.html
TABLE
p70
g63
NtRp71
(dp72
g66
(dp73
S'level'
p74
I5
ssS'parent'
p75
Nsg68
(lp76
g61
(cgluon.html
TR
p77
g63
NtRp78
(dp79
g66
(dp80
sg75
g71
sg68
(lp81
g61
(cgluon.html
TD
p82
g63
NtRp83
(dp84
g66
(dp85
S'_style'
p86
S'font-weight:bold;'
p87
ssg75
g78
sg68
(lp88
S'ajax'
p89
asbag61
(g82
g63
NtRp90
(dp91
g66
(dp92
S'_valign'
p93
S'top'
p94
ssg75
g78
sg68
(lp95
S':'
asbag61
(g82
g63
NtRp96
(dp97
g66
(dp98
sg75
g78
sg68
(lp99
g61
(g62
g63
NtRp100
(dp101
g66
(dp102
g74
I5
ssg75
g96
sg68
(lp103
S'False'
p104
asbasbasbag61
(g77
g63
NtRp105
(dp106
g66
(dp107
sg75
g71
sg68
(lp108
g61
(g82
g63
NtRp109
(dp110
g66
(dp111
g86
g87
ssg75
g105
sg68
(lp112
S'application'
p113
asbag61
(g82
g63
NtRp114
(dp115
g66
(dp116
g93
g94
ssg75
g105
sg68
(lp117
S':'
asbag61
(g82
g63
NtRp118
(dp119
g66
(dp120
sg75
g105
sg68
(lp121
g61
(g62
g63
NtRp122
(dp123
g66
(dp124
g74
I5
ssg75
g118
sg68
(lp125
S'examples'
p126
asbasbasbag61
(g77
g63
NtRp127
(dp128
g66
(dp129
sg75
g71
sg68
(lp130
g61
(g82
g63
NtRp131
(dp132
g66
(dp133
g86
g87
ssg75
g127
sg68
(lp134
g44
asbag61
(g82
g63
NtRp135
(dp136
g66
(dp137
g93
g94
ssg75
g127
sg68
(lp138
S':'
asbag61
(g82
g63
NtRp139
(dp140
g66
(dp141
sg75
g127
sg68
(lp142
g61
(g62
g63
NtRp143
(dp144
g66
(dp145
g74
I5
ssg75
g139
sg68
(lp146
g61
(g70
g63
NtRp147
(dp148
g66
(dp149
g74
I4
ssg75
Nsg68
(lp150
sbasbasbasbag61
(g77
g63
NtRp151
(dp152
g66
(dp153
sg75
g71
sg68
(lp154
g61
(g82
g63
NtRp155
(dp156
g66
(dp157
g86
g87
ssg75
g151
sg68
(lp158
S'body'
p159
asbag61
(g82
g63
NtRp160
(dp161
g66
(dp162
g93
g94
ssg75
g151
sg68
(lp163
S':'
asbag61
(g82
g63
NtRp164
(dp165
g66
(dp166
sg75
g151
sg68
(lp167
g61
(g62
g63
NtRp168
(dp169
g66
(dp170
g74
I5
ssg75
g164
sg68
(lp171
S"<open file '<fdopen>', mode 'w+b' at 0x03E0E6A8>"
p172
asbasbasbag61
(g77
g63
NtRp173
(dp174
g66
(dp175
sg75
g71
sg68
(lp176
g61
(g82
g63
NtRp177
(dp178
g66
(dp179
g86
g87
ssg75
g173
sg68
(lp180
S'client'
p181
asbag61
(g82
g63
NtRp182
(dp183
g66
(dp184
g93
g94
ssg75
g173
sg68
(lp185
S':'
asbag61
(g82
g63
NtRp186
(dp187
g66
(dp188
sg75
g173
sg68
(lp189
g61
(g62
g63
NtRp190
(dp191
g66
(dp192
g74
I5
ssg75
g186
sg68
(lp193
S'127.0.0.1'
p194
asbasbasbag61
(g77
g63
NtRp195
(dp196
g66
(dp197
sg75
g71
sg68
(lp198
g61
(g82
g63
NtRp199
(dp200
g66
(dp201
g86
g87
ssg75
g195
sg68
(lp202
S'controller'
p203
asbag61
(g82
g63
NtRp204
(dp205
g66
(dp206
g93
g94
ssg75
g195
sg68
(lp207
S':'
asbag61
(g82
g63
NtRp208
(dp209
g66
(dp210
sg75
g195
sg68
(lp211
g61
(g62
g63
NtRp212
(dp213
g66
(dp214
g74
I5
ssg75
g208
sg68
(lp215
S'transform'
p216
asbasbasbag61
(g77
g63
NtRp217
(dp218
g66
(dp219
sg75
g71
sg68
(lp220
g61
(g82
g63
NtRp221
(dp222
g66
(dp223
g86
g87
ssg75
g217
sg68
(lp224
S'cookies'
p225
asbag61
(g82
g63
NtRp226
(dp227
g66
(dp228
g93
g94
ssg75
g217
sg68
(lp229
S':'
asbag61
(g82
g63
NtRp230
(dp231
g66
(dp232
sg75
g217
sg68
(lp233
g61
(g62
g63
NtRp234
(dp235
g66
(dp236
g74
I5
ssg75
g230
sg68
(lp237
g61
(g70
g63
NtRp238
(dp239
g66
(dp240
g74
I4
ssg75
Nsg68
(lp241
g61
(g77
g63
NtRp242
(dp243
g66
(dp244
sg75
g238
sg68
(lp245
g61
(g82
g63
NtRp246
(dp247
g66
(dp248
g86
g87
ssg75
g242
sg68
(lp249
S'ac'
p250
asbag61
(g82
g63
NtRp251
(dp252
g66
(dp253
g93
g94
ssg75
g242
sg68
(lp254
S':'
asbag61
(g82
g63
NtRp255
(dp256
g66
(dp257
sg75
g242
sg68
(lp258
g61
(g62
g63
NtRp259
(dp260
g66
(dp261
g74
I4
ssg75
g255
sg68
(lp262
g61
(g70
g63
NtRp263
(dp264
g66
(dp265
g74
I3
ssg75
Nsg68
(lp266
g61
(g77
g63
NtRp267
(dp268
g66
(dp269
sg75
g263
sg68
(lp270
g61
(g82
g63
NtRp271
(dp272
g66
(dp273
g86
g87
ssg75
g267
sg68
(lp274
S'comment'
p275
asbag61
(g82
g63
NtRp276
(dp277
g66
(dp278
g93
g94
ssg75
g267
sg68
(lp279
S':'
asbag61
(g82
g63
NtRp280
(dp281
g66
(dp282
sg75
g267
sg68
(lp283
g61
(g62
g63
NtRp284
(dp285
g66
(dp286
g74
I3
ssg75
g280
sg68
(lp287
S''
asbasbasbag61
(g77
g63
NtRp288
(dp289
g66
(dp290
sg75
g263
sg68
(lp291
g61
(g82
g63
NtRp292
(dp293
g66
(dp294
g86
g87
ssg75
g288
sg68
(lp295
S'domain'
p296
asbag61
(g82
g63
NtRp297
(dp298
g66
(dp299
g93
g94
ssg75
g288
sg68
(lp300
S':'
asbag61
(g82
g63
NtRp301
(dp302
g66
(dp303
sg75
g288
sg68
(lp304
g61
(g62
g63
NtRp305
(dp306
g66
(dp307
g74
I3
ssg75
g301
sg68
(lp308
S''
asbasbasbag61
(g77
g63
NtRp309
(dp310
g66
(dp311
sg75
g263
sg68
(lp312
g61
(g82
g63
NtRp313
(dp314
g66
(dp315
g86
g87
ssg75
g309
sg68
(lp316
S'expires'
p317
asbag61
(g82
g63
NtRp318
(dp319
g66
(dp320
g93
g94
ssg75
g309
sg68
(lp321
S':'
asbag61
(g82
g63
NtRp322
(dp323
g66
(dp324
sg75
g309
sg68
(lp325
g61
(g62
g63
NtRp326
(dp327
g66
(dp328
g74
I3
ssg75
g322
sg68
(lp329
S''
asbasbasbag61
(g77
g63
NtRp330
(dp331
g66
(dp332
sg75
g263
sg68
(lp333
g61
(g82
g63
NtRp334
(dp335
g66
(dp336
g86
g87
ssg75
g330
sg68
(lp337
S'httponly'
p338
asbag61
(g82
g63
NtRp339
(dp340
g66
(dp341
g93
g94
ssg75
g330
sg68
(lp342
S':'
asbag61
(g82
g63
NtRp343
(dp344
g66
(dp345
sg75
g330
sg68
(lp346
g61
(g62
g63
NtRp347
(dp348
g66
(dp349
g74
I3
ssg75
g343
sg68
(lp350
S''
asbasbasbag61
(g77
g63
NtRp351
(dp352
g66
(dp353
sg75
g263
sg68
(lp354
g61
(g82
g63
NtRp355
(dp356
g66
(dp357
g86
g87
ssg75
g351
sg68
(lp358
S'max-age'
p359
asbag61
(g82
g63
NtRp360
(dp361
g66
(dp362
g93
g94
ssg75
g351
sg68
(lp363
S':'
asbag61
(g82
g63
NtRp364
(dp365
g66
(dp366
sg75
g351
sg68
(lp367
g61
(g62
g63
NtRp368
(dp369
g66
(dp370
g74
I3
ssg75
g364
sg68
(lp371
S''
asbasbasbag61
(g77
g63
NtRp372
(dp373
g66
(dp374
sg75
g263
sg68
(lp375
g61
(g82
g63
NtRp376
(dp377
g66
(dp378
g86
g87
ssg75
g372
sg68
(lp379
S'path'
p380
asbag61
(g82
g63
NtRp381
(dp382
g66
(dp383
g93
g94
ssg75
g372
sg68
(lp384
S':'
asbag61
(g82
g63
NtRp385
(dp386
g66
(dp387
sg75
g372
sg68
(lp388
g61
(g62
g63
NtRp389
(dp390
g66
(dp391
g74
I3
ssg75
g385
sg68
(lp392
S''
asbasbasbag61
(g77
g63
NtRp393
(dp394
g66
(dp395
sg75
g263
sg68
(lp396
g61
(g82
g63
NtRp397
(dp398
g66
(dp399
g86
g87
ssg75
g393
sg68
(lp400
S'secure'
p401
asbag61
(g82
g63
NtRp402
(dp403
g66
(dp404
g93
g94
ssg75
g393
sg68
(lp405
S':'
asbag61
(g82
g63
NtRp406
(dp407
g66
(dp408
sg75
g393
sg68
(lp409
g61
(g62
g63
NtRp410
(dp411
g66
(dp412
g74
I3
ssg75
g406
sg68
(lp413
S''
asbasbasbag61
(g77
g63
NtRp414
(dp415
g66
(dp416
sg75
g263
sg68
(lp417
g61
(g82
g63
NtRp418
(dp419
g66
(dp420
g86
g87
ssg75
g414
sg68
(lp421
S'version'
p422
asbag61
(g82
g63
NtRp423
(dp424
g66
(dp425
g93
g94
ssg75
g414
sg68
(lp426
S':'
asbag61
(g82
g63
NtRp427
(dp428
g66
(dp429
sg75
g414
sg68
(lp430
g61
(g62
g63
NtRp431
(dp432
g66
(dp433
g74
I3
ssg75
g427
sg68
(lp434
S''
asbasbasbasbasbasbasbag61
(g77
g63
NtRp435
(dp436
g66
(dp437
sg75
g238
sg68
(lp438
g61
(g82
g63
NtRp439
(dp440
g66
(dp441
g86
g87
ssg75
g435
sg68
(lp442
S'euin_cookie'
p443
asbag61
(g82
g63
NtRp444
(dp445
g66
(dp446
g93
g94
ssg75
g435
sg68
(lp447
S':'
asbag61
(g82
g63
NtRp448
(dp449
g66
(dp450
sg75
g435
sg68
(lp451
g61
(g62
g63
NtRp452
(dp453
g66
(dp454
g74
I4
ssg75
g448
sg68
(lp455
g61
(g70
g63
NtRp456
(dp457
g66
(dp458
g74
I3
ssg75
Nsg68
(lp459
g61
(g77
g63
NtRp460
(dp461
g66
(dp462
sg75
g456
sg68
(lp463
g61
(g82
g63
NtRp464
(dp465
g66
(dp466
g86
g87
ssg75
g460
sg68
(lp467
g275
asbag61
(g82
g63
NtRp468
(dp469
g66
(dp470
g93
g94
ssg75
g460
sg68
(lp471
S':'
asbag61
(g82
g63
NtRp472
(dp473
g66
(dp474
sg75
g460
sg68
(lp475
g61
(g62
g63
NtRp476
(dp477
g66
(dp478
g74
I3
ssg75
g472
sg68
(lp479
S''
asbasbasbag61
(g77
g63
NtRp480
(dp481
g66
(dp482
sg75
g456
sg68
(lp483
g61
(g82
g63
NtRp484
(dp485
g66
(dp486
g86
g87
ssg75
g480
sg68
(lp487
g296
asbag61
(g82
g63
NtRp488
(dp489
g66
(dp490
g93
g94
ssg75
g480
sg68
(lp491
S':'
asbag61
(g82
g63
NtRp492
(dp493
g66
(dp494
sg75
g480
sg68
(lp495
g61
(g62
g63
NtRp496
(dp497
g66
(dp498
g74
I3
ssg75
g492
sg68
(lp499
S''
asbasbasbag61
(g77
g63
NtRp500
(dp501
g66
(dp502
sg75
g456
sg68
(lp503
g61
(g82
g63
NtRp504
(dp505
g66
(dp506
g86
g87
ssg75
g500
sg68
(lp507
g317
asbag61
(g82
g63
NtRp508
(dp509
g66
(dp510
g93
g94
ssg75
g500
sg68
(lp511
S':'
asbag61
(g82
g63
NtRp512
(dp513
g66
(dp514
sg75
g500
sg68
(lp515
g61
(g62
g63
NtRp516
(dp517
g66
(dp518
g74
I3
ssg75
g512
sg68
(lp519
S''
asbasbasbag61
(g77
g63
NtRp520
(dp521
g66
(dp522
sg75
g456
sg68
(lp523
g61
(g82
g63
NtRp524
(dp525
g66
(dp526
g86
g87
ssg75
g520
sg68
(lp527
g338
asbag61
(g82
g63
NtRp528
(dp529
g66
(dp530
g93
g94
ssg75
g520
sg68
(lp531
S':'
asbag61
(g82
g63
NtRp532
(dp533
g66
(dp534
sg75
g520
sg68
(lp535
g61
(g62
g63
NtRp536
(dp537
g66
(dp538
g74
I3
ssg75
g532
sg68
(lp539
S''
asbasbasbag61
(g77
g63
NtRp540
(dp541
g66
(dp542
sg75
g456
sg68
(lp543
g61
(g82
g63
NtRp544
(dp545
g66
(dp546
g86
g87
ssg75
g540
sg68
(lp547
g359
asbag61
(g82
g63
NtRp548
(dp549
g66
(dp550
g93
g94
ssg75
g540
sg68
(lp551
S':'
asbag61
(g82
g63
NtRp552
(dp553
g66
(dp554
sg75
g540
sg68
(lp555
g61
(g62
g63
NtRp556
(dp557
g66
(dp558
g74
I3
ssg75
g552
sg68
(lp559
S''
asbasbasbag61
(g77
g63
NtRp560
(dp561
g66
(dp562
sg75
g456
sg68
(lp563
g61
(g82
g63
NtRp564
(dp565
g66
(dp566
g86
g87
ssg75
g560
sg68
(lp567
g380
asbag61
(g82
g63
NtRp568
(dp569
g66
(dp570
g93
g94
ssg75
g560
sg68
(lp571
S':'
asbag61
(g82
g63
NtRp572
(dp573
g66
(dp574
sg75
g560
sg68
(lp575
g61
(g62
g63
NtRp576
(dp577
g66
(dp578
g74
I3
ssg75
g572
sg68
(lp579
S''
asbasbasbag61
(g77
g63
NtRp580
(dp581
g66
(dp582
sg75
g456
sg68
(lp583
g61
(g82
g63
NtRp584
(dp585
g66
(dp586
g86
g87
ssg75
g580
sg68
(lp587
g401
asbag61
(g82
g63
NtRp588
(dp589
g66
(dp590
g93
g94
ssg75
g580
sg68
(lp591
S':'
asbag61
(g82
g63
NtRp592
(dp593
g66
(dp594
sg75
g580
sg68
(lp595
g61
(g62
g63
NtRp596
(dp597
g66
(dp598
g74
I3
ssg75
g592
sg68
(lp599
S''
asbasbasbag61
(g77
g63
NtRp600
(dp601
g66
(dp602
sg75
g456
sg68
(lp603
g61
(g82
g63
NtRp604
(dp605
g66
(dp606
g86
g87
ssg75
g600
sg68
(lp607
g422
asbag61
(g82
g63
NtRp608
(dp609
g66
(dp610
g93
g94
ssg75
g600
sg68
(lp611
S':'
asbag61
(g82
g63
NtRp612
(dp613
g66
(dp614
sg75
g600
sg68
(lp615
g61
(g62
g63
NtRp616
(dp617
g66
(dp618
g74
I3
ssg75
g612
sg68
(lp619
S''
asbasbasbasbasbasbasbag61
(g77
g63
NtRp620
(dp621
g66
(dp622
sg75
g238
sg68
(lp623
g61
(g82
g63
NtRp624
(dp625
g66
(dp626
g86
g87
ssg75
g620
sg68
(lp627
S'o_cookie'
p628
asbag61
(g82
g63
NtRp629
(dp630
g66
(dp631
g93
g94
ssg75
g620
sg68
(lp632
S':'
asbag61
(g82
g63
NtRp633
(dp634
g66
(dp635
sg75
g620
sg68
(lp636
g61
(g62
g63
NtRp637
(dp638
g66
(dp639
g74
I4
ssg75
g633
sg68
(lp640
g61
(g70
g63
NtRp641
(dp642
g66
(dp643
g74
I3
ssg75
Nsg68
(lp644
g61
(g77
g63
NtRp645
(dp646
g66
(dp647
sg75
g641
sg68
(lp648
g61
(g82
g63
NtRp649
(dp650
g66
(dp651
g86
g87
ssg75
g645
sg68
(lp652
g275
asbag61
(g82
g63
NtRp653
(dp654
g66
(dp655
g93
g94
ssg75
g645
sg68
(lp656
S':'
asbag61
(g82
g63
NtRp657
(dp658
g66
(dp659
sg75
g645
sg68
(lp660
g61
(g62
g63
NtRp661
(dp662
g66
(dp663
g74
I3
ssg75
g657
sg68
(lp664
S''
asbasbasbag61
(g77
g63
NtRp665
(dp666
g66
(dp667
sg75
g641
sg68
(lp668
g61
(g82
g63
NtRp669
(dp670
g66
(dp671
g86
g87
ssg75
g665
sg68
(lp672
g296
asbag61
(g82
g63
NtRp673
(dp674
g66
(dp675
g93
g94
ssg75
g665
sg68
(lp676
S':'
asbag61
(g82
g63
NtRp677
(dp678
g66
(dp679
sg75
g665
sg68
(lp680
g61
(g62
g63
NtRp681
(dp682
g66
(dp683
g74
I3
ssg75
g677
sg68
(lp684
S''
asbasbasbag61
(g77
g63
NtRp685
(dp686
g66
(dp687
sg75
g641
sg68
(lp688
g61
(g82
g63
NtRp689
(dp690
g66
(dp691
g86
g87
ssg75
g685
sg68
(lp692
g317
asbag61
(g82
g63
NtRp693
(dp694
g66
(dp695
g93
g94
ssg75
g685
sg68
(lp696
S':'
asbag61
(g82
g63
NtRp697
(dp698
g66
(dp699
sg75
g685
sg68
(lp700
g61
(g62
g63
NtRp701
(dp702
g66
(dp703
g74
I3
ssg75
g697
sg68
(lp704
S''
asbasbasbag61
(g77
g63
NtRp705
(dp706
g66
(dp707
sg75
g641
sg68
(lp708
g61
(g82
g63
NtRp709
(dp710
g66
(dp711
g86
g87
ssg75
g705
sg68
(lp712
g338
asbag61
(g82
g63
NtRp713
(dp714
g66
(dp715
g93
g94
ssg75
g705
sg68
(lp716
S':'
asbag61
(g82
g63
NtRp717
(dp718
g66
(dp719
sg75
g705
sg68
(lp720
g61
(g62
g63
NtRp721
(dp722
g66
(dp723
g74
I3
ssg75
g717
sg68
(lp724
S''
asbasbasbag61
(g77
g63
NtRp725
(dp726
g66
(dp727
sg75
g641
sg68
(lp728
g61
(g82
g63
NtRp729
(dp730
g66
(dp731
g86
g87
ssg75
g725
sg68
(lp732
g359
asbag61
(g82
g63
NtRp733
(dp734
g66
(dp735
g93
g94
ssg75
g725
sg68
(lp736
S':'
asbag61
(g82
g63
NtRp737
(dp738
g66
(dp739
sg75
g725
sg68
(lp740
g61
(g62
g63
NtRp741
(dp742
g66
(dp743
g74
I3
ssg75
g737
sg68
(lp744
S''
asbasbasbag61
(g77
g63
NtRp745
(dp746
g66
(dp747
sg75
g641
sg68
(lp748
g61
(g82
g63
NtRp749
(dp750
g66
(dp751
g86
g87
ssg75
g745
sg68
(lp752
g380
asbag61
(g82
g63
NtRp753
(dp754
g66
(dp755
g93
g94
ssg75
g745
sg68
(lp756
S':'
asbag61
(g82
g63
NtRp757
(dp758
g66
(dp759
sg75
g745
sg68
(lp760
g61
(g62
g63
NtRp761
(dp762
g66
(dp763
g74
I3
ssg75
g757
sg68
(lp764
S''
asbasbasbag61
(g77
g63
NtRp765
(dp766
g66
(dp767
sg75
g641
sg68
(lp768
g61
(g82
g63
NtRp769
(dp770
g66
(dp771
g86
g87
ssg75
g765
sg68
(lp772
g401
asbag61
(g82
g63
NtRp773
(dp774
g66
(dp775
g93
g94
ssg75
g765
sg68
(lp776
S':'
asbag61
(g82
g63
NtRp777
(dp778
g66
(dp779
sg75
g765
sg68
(lp780
g61
(g62
g63
NtRp781
(dp782
g66
(dp783
g74
I3
ssg75
g777
sg68
(lp784
S''
asbasbasbag61
(g77
g63
NtRp785
(dp786
g66
(dp787
sg75
g641
sg68
(lp788
g61
(g82
g63
NtRp789
(dp790
g66
(dp791
g86
g87
ssg75
g785
sg68
(lp792
g422
asbag61
(g82
g63
NtRp793
(dp794
g66
(dp795
g93
g94
ssg75
g785
sg68
(lp796
S':'
asbag61
(g82
g63
NtRp797
(dp798
g66
(dp799
sg75
g785
sg68
(lp800
g61
(g62
g63
NtRp801
(dp802
g66
(dp803
g74
I3
ssg75
g797
sg68
(lp804
S''
asbasbasbasbasbasbasbag61
(g77
g63
NtRp805
(dp806
g66
(dp807
sg75
g238
sg68
(lp808
g61
(g82
g63
NtRp809
(dp810
g66
(dp811
g86
g87
ssg75
g805
sg68
(lp812
S'pgv_flv'
p813
asbag61
(g82
g63
NtRp814
(dp815
g66
(dp816
g93
g94
ssg75
g805
sg68
(lp817
S':'
asbag61
(g82
g63
NtRp818
(dp819
g66
(dp820
sg75
g805
sg68
(lp821
g61
(g62
g63
NtRp822
(dp823
g66
(dp824
g74
I4
ssg75
g818
sg68
(lp825
g61
(g70
g63
NtRp826
(dp827
g66
(dp828
g74
I3
ssg75
Nsg68
(lp829
g61
(g77
g63
NtRp830
(dp831
g66
(dp832
sg75
g826
sg68
(lp833
g61
(g82
g63
NtRp834
(dp835
g66
(dp836
g86
g87
ssg75
g830
sg68
(lp837
g275
asbag61
(g82
g63
NtRp838
(dp839
g66
(dp840
g93
g94
ssg75
g830
sg68
(lp841
S':'
asbag61
(g82
g63
NtRp842
(dp843
g66
(dp844
sg75
g830
sg68
(lp845
g61
(g62
g63
NtRp846
(dp847
g66
(dp848
g74
I3
ssg75
g842
sg68
(lp849
S''
asbasbasbag61
(g77
g63
NtRp850
(dp851
g66
(dp852
sg75
g826
sg68
(lp853
g61
(g82
g63
NtRp854
(dp855
g66
(dp856
g86
g87
ssg75
g850
sg68
(lp857
g296
asbag61
(g82
g63
NtRp858
(dp859
g66
(dp860
g93
g94
ssg75
g850
sg68
(lp861
S':'
asbag61
(g82
g63
NtRp862
(dp863
g66
(dp864
sg75
g850
sg68
(lp865
g61
(g62
g63
NtRp866
(dp867
g66
(dp868
g74
I3
ssg75
g862
sg68
(lp869
S''
asbasbasbag61
(g77
g63
NtRp870
(dp871
g66
(dp872
sg75
g826
sg68
(lp873
g61
(g82
g63
NtRp874
(dp875
g66
(dp876
g86
g87
ssg75
g870
sg68
(lp877
g317
asbag61
(g82
g63
NtRp878
(dp879
g66
(dp880
g93
g94
ssg75
g870
sg68
(lp881
S':'
asbag61
(g82
g63
NtRp882
(dp883
g66
(dp884
sg75
g870
sg68
(lp885
g61
(g62
g63
NtRp886
(dp887
g66
(dp888
g74
I3
ssg75
g882
sg68
(lp889
S''
asbasbasbag61
(g77
g63
NtRp890
(dp891
g66
(dp892
sg75
g826
sg68
(lp893
g61
(g82
g63
NtRp894
(dp895
g66
(dp896
g86
g87
ssg75
g890
sg68
(lp897
g338
asbag61
(g82
g63
NtRp898
(dp899
g66
(dp900
g93
g94
ssg75
g890
sg68
(lp901
S':'
asbag61
(g82
g63
NtRp902
(dp903
g66
(dp904
sg75
g890
sg68
(lp905
g61
(g62
g63
NtRp906
(dp907
g66
(dp908
g74
I3
ssg75
g902
sg68
(lp909
S''
asbasbasbag61
(g77
g63
NtRp910
(dp911
g66
(dp912
sg75
g826
sg68
(lp913
g61
(g82
g63
NtRp914
(dp915
g66
(dp916
g86
g87
ssg75
g910
sg68
(lp917
g359
asbag61
(g82
g63
NtRp918
(dp919
g66
(dp920
g93
g94
ssg75
g910
sg68
(lp921
S':'
asbag61
(g82
g63
NtRp922
(dp923
g66
(dp924
sg75
g910
sg68
(lp925
g61
(g62
g63
NtRp926
(dp927
g66
(dp928
g74
I3
ssg75
g922
sg68
(lp929
S''
asbasbasbag61
(g77
g63
NtRp930
(dp931
g66
(dp932
sg75
g826
sg68
(lp933
g61
(g82
g63
NtRp934
(dp935
g66
(dp936
g86
g87
ssg75
g930
sg68
(lp937
g380
asbag61
(g82
g63
NtRp938
(dp939
g66
(dp940
g93
g94
ssg75
g930
sg68
(lp941
S':'
asbag61
(g82
g63
NtRp942
(dp943
g66
(dp944
sg75
g930
sg68
(lp945
g61
(g62
g63
NtRp946
(dp947
g66
(dp948
g74
I3
ssg75
g942
sg68
(lp949
S''
asbasbasbag61
(g77
g63
NtRp950
(dp951
g66
(dp952
sg75
g826
sg68
(lp953
g61
(g82
g63
NtRp954
(dp955
g66
(dp956
g86
g87
ssg75
g950
sg68
(lp957
g401
asbag61
(g82
g63
NtRp958
(dp959
g66
(dp960
g93
g94
ssg75
g950
sg68
(lp961
S':'
asbag61
(g82
g63
NtRp962
(dp963
g66
(dp964
sg75
g950
sg68
(lp965
g61
(g62
g63
NtRp966
(dp967
g66
(dp968
g74
I3
ssg75
g962
sg68
(lp969
S''
asbasbasbag61
(g77
g63
NtRp970
(dp971
g66
(dp972
sg75
g826
sg68
(lp973
g61
(g82
g63
NtRp974
(dp975
g66
(dp976
g86
g87
ssg75
g970
sg68
(lp977
g422
asbag61
(g82
g63
NtRp978
(dp979
g66
(dp980
g93
g94
ssg75
g970
sg68
(lp981
S':'
asbag61
(g82
g63
NtRp982
(dp983
g66
(dp984
sg75
g970
sg68
(lp985
g61
(g62
g63
NtRp986
(dp987
g66
(dp988
g74
I3
ssg75
g982
sg68
(lp989
S''
asbasbasbasbasbasbasbag61
(g77
g63
NtRp990
(dp991
g66
(dp992
sg75
g238
sg68
(lp993
g61
(g82
g63
NtRp994
(dp995
g66
(dp996
g86
g87
ssg75
g990
sg68
(lp997
S'pgv_pvid'
p998
asbag61
(g82
g63
NtRp999
(dp1000
g66
(dp1001
g93
g94
ssg75
g990
sg68
(lp1002
S':'
asbag61
(g82
g63
NtRp1003
(dp1004
g66
(dp1005
sg75
g990
sg68
(lp1006
g61
(g62
g63
NtRp1007
(dp1008
g66
(dp1009
g74
I4
ssg75
g1003
sg68
(lp1010
g61
(g70
g63
NtRp1011
(dp1012
g66
(dp1013
g74
I3
ssg75
Nsg68
(lp1014
g61
(g77
g63
NtRp1015
(dp1016
g66
(dp1017
sg75
g1011
sg68
(lp1018
g61
(g82
g63
NtRp1019
(dp1020
g66
(dp1021
g86
g87
ssg75
g1015
sg68
(lp1022
g275
asbag61
(g82
g63
NtRp1023
(dp1024
g66
(dp1025
g93
g94
ssg75
g1015
sg68
(lp1026
S':'
asbag61
(g82
g63
NtRp1027
(dp1028
g66
(dp1029
sg75
g1015
sg68
(lp1030
g61
(g62
g63
NtRp1031
(dp1032
g66
(dp1033
g74
I3
ssg75
g1027
sg68
(lp1034
S''
asbasbasbag61
(g77
g63
NtRp1035
(dp1036
g66
(dp1037
sg75
g1011
sg68
(lp1038
g61
(g82
g63
NtRp1039
(dp1040
g66
(dp1041
g86
g87
ssg75
g1035
sg68
(lp1042
g296
asbag61
(g82
g63
NtRp1043
(dp1044
g66
(dp1045
g93
g94
ssg75
g1035
sg68
(lp1046
S':'
asbag61
(g82
g63
NtRp1047
(dp1048
g66
(dp1049
sg75
g1035
sg68
(lp1050
g61
(g62
g63
NtRp1051
(dp1052
g66
(dp1053
g74
I3
ssg75
g1047
sg68
(lp1054
S''
asbasbasbag61
(g77
g63
NtRp1055
(dp1056
g66
(dp1057
sg75
g1011
sg68
(lp1058
g61
(g82
g63
NtRp1059
(dp1060
g66
(dp1061
g86
g87
ssg75
g1055
sg68
(lp1062
g317
asbag61
(g82
g63
NtRp1063
(dp1064
g66
(dp1065
g93
g94
ssg75
g1055
sg68
(lp1066
S':'
asbag61
(g82
g63
NtRp1067
(dp1068
g66
(dp1069
sg75
g1055
sg68
(lp1070
g61
(g62
g63
NtRp1071
(dp1072
g66
(dp1073
g74
I3
ssg75
g1067
sg68
(lp1074
S''
asbasbasbag61
(g77
g63
NtRp1075
(dp1076
g66
(dp1077
sg75
g1011
sg68
(lp1078
g61
(g82
g63
NtRp1079
(dp1080
g66
(dp1081
g86
g87
ssg75
g1075
sg68
(lp1082
g338
asbag61
(g82
g63
NtRp1083
(dp1084
g66
(dp1085
g93
g94
ssg75
g1075
sg68
(lp1086
S':'
asbag61
(g82
g63
NtRp1087
(dp1088
g66
(dp1089
sg75
g1075
sg68
(lp1090
g61
(g62
g63
NtRp1091
(dp1092
g66
(dp1093
g74
I3
ssg75
g1087
sg68
(lp1094
S''
asbasbasbag61
(g77
g63
NtRp1095
(dp1096
g66
(dp1097
sg75
g1011
sg68
(lp1098
g61
(g82
g63
NtRp1099
(dp1100
g66
(dp1101
g86
g87
ssg75
g1095
sg68
(lp1102
g359
asbag61
(g82
g63
NtRp1103
(dp1104
g66
(dp1105
g93
g94
ssg75
g1095
sg68
(lp1106
S':'
asbag61
(g82
g63
NtRp1107
(dp1108
g66
(dp1109
sg75
g1095
sg68
(lp1110
g61
(g62
g63
NtRp1111
(dp1112
g66
(dp1113
g74
I3
ssg75
g1107
sg68
(lp1114
S''
asbasbasbag61
(g77
g63
NtRp1115
(dp1116
g66
(dp1117
sg75
g1011
sg68
(lp1118
g61
(g82
g63
NtRp1119
(dp1120
g66
(dp1121
g86
g87
ssg75
g1115
sg68
(lp1122
g380
asbag61
(g82
g63
NtRp1123
(dp1124
g66
(dp1125
g93
g94
ssg75
g1115
sg68
(lp1126
S':'
asbag61
(g82
g63
NtRp1127
(dp1128
g66
(dp1129
sg75
g1115
sg68
(lp1130
g61
(g62
g63
NtRp1131
(dp1132
g66
(dp1133
g74
I3
ssg75
g1127
sg68
(lp1134
S''
asbasbasbag61
(g77
g63
NtRp1135
(dp1136
g66
(dp1137
sg75
g1011
sg68
(lp1138
g61
(g82
g63
NtRp1139
(dp1140
g66
(dp1141
g86
g87
ssg75
g1135
sg68
(lp1142
g401
asbag61
(g82
g63
NtRp1143
(dp1144
g66
(dp1145
g93
g94
ssg75
g1135
sg68
(lp1146
S':'
asbag61
(g82
g63
NtRp1147
(dp1148
g66
(dp1149
sg75
g1135
sg68
(lp1150
g61
(g62
g63
NtRp1151
(dp1152
g66
(dp1153
g74
I3
ssg75
g1147
sg68
(lp1154
S''
asbasbasbag61
(g77
g63
NtRp1155
(dp1156
g66
(dp1157
sg75
g1011
sg68
(lp1158
g61
(g82
g63
NtRp1159
(dp1160
g66
(dp1161
g86
g87
ssg75
g1155
sg68
(lp1162
g422
asbag61
(g82
g63
NtRp1163
(dp1164
g66
(dp1165
g93
g94
ssg75
g1155
sg68
(lp1166
S':'
asbag61
(g82
g63
NtRp1167
(dp1168
g66
(dp1169
sg75
g1155
sg68
(lp1170
g61
(g62
g63
NtRp1171
(dp1172
g66
(dp1173
g74
I3
ssg75
g1167
sg68
(lp1174
S''
asbasbasbasbasbasbasbag61
(g77
g63
NtRp1175
(dp1176
g66
(dp1177
sg75
g238
sg68
(lp1178
g61
(g82
g63
NtRp1179
(dp1180
g66
(dp1181
g86
g87
ssg75
g1175
sg68
(lp1182
S'pgv_r_cookie'
p1183
asbag61
(g82
g63
NtRp1184
(dp1185
g66
(dp1186
g93
g94
ssg75
g1175
sg68
(lp1187
S':'
asbag61
(g82
g63
NtRp1188
(dp1189
g66
(dp1190
sg75
g1175
sg68
(lp1191
g61
(g62
g63
NtRp1192
(dp1193
g66
(dp1194
g74
I4
ssg75
g1188
sg68
(lp1195
g61
(g70
g63
NtRp1196
(dp1197
g66
(dp1198
g74
I3
ssg75
Nsg68
(lp1199
g61
(g77
g63
NtRp1200
(dp1201
g66
(dp1202
sg75
g1196
sg68
(lp1203
g61
(g82
g63
NtRp1204
(dp1205
g66
(dp1206
g86
g87
ssg75
g1200
sg68
(lp1207
g275
asbag61
(g82
g63
NtRp1208
(dp1209
g66
(dp1210
g93
g94
ssg75
g1200
sg68
(lp1211
S':'
asbag61
(g82
g63
NtRp1212
(dp1213
g66
(dp1214
sg75
g1200
sg68
(lp1215
g61
(g62
g63
NtRp1216
(dp1217
g66
(dp1218
g74
I3
ssg75
g1212
sg68
(lp1219
S''
asbasbasbag61
(g77
g63
NtRp1220
(dp1221
g66
(dp1222
sg75
g1196
sg68
(lp1223
g61
(g82
g63
NtRp1224
(dp1225
g66
(dp1226
g86
g87
ssg75
g1220
sg68
(lp1227
g296
asbag61
(g82
g63
NtRp1228
(dp1229
g66
(dp1230
g93
g94
ssg75
g1220
sg68
(lp1231
S':'
asbag61
(g82
g63
NtRp1232
(dp1233
g66
(dp1234
sg75
g1220
sg68
(lp1235
g61
(g62
g63
NtRp1236
(dp1237
g66
(dp1238
g74
I3
ssg75
g1232
sg68
(lp1239
S''
asbasbasbag61
(g77
g63
NtRp1240
(dp1241
g66
(dp1242
sg75
g1196
sg68
(lp1243
g61
(g82
g63
NtRp1244
(dp1245
g66
(dp1246
g86
g87
ssg75
g1240
sg68
(lp1247
g317
asbag61
(g82
g63
NtRp1248
(dp1249
g66
(dp1250
g93
g94
ssg75
g1240
sg68
(lp1251
S':'
asbag61
(g82
g63
NtRp1252
(dp1253
g66
(dp1254
sg75
g1240
sg68
(lp1255
g61
(g62
g63
NtRp1256
(dp1257
g66
(dp1258
g74
I3
ssg75
g1252
sg68
(lp1259
S''
asbasbasbag61
(g77
g63
NtRp1260
(dp1261
g66
(dp1262
sg75
g1196
sg68
(lp1263
g61
(g82
g63
NtRp1264
(dp1265
g66
(dp1266
g86
g87
ssg75
g1260
sg68
(lp1267
g338
asbag61
(g82
g63
NtRp1268
(dp1269
g66
(dp1270
g93
g94
ssg75
g1260
sg68
(lp1271
S':'
asbag61
(g82
g63
NtRp1272
(dp1273
g66
(dp1274
sg75
g1260
sg68
(lp1275
g61
(g62
g63
NtRp1276
(dp1277
g66
(dp1278
g74
I3
ssg75
g1272
sg68
(lp1279
S''
asbasbasbag61
(g77
g63
NtRp1280
(dp1281
g66
(dp1282
sg75
g1196
sg68
(lp1283
g61
(g82
g63
NtRp1284
(dp1285
g66
(dp1286
g86
g87
ssg75
g1280
sg68
(lp1287
g359
asbag61
(g82
g63
NtRp1288
(dp1289
g66
(dp1290
g93
g94
ssg75
g1280
sg68
(lp1291
S':'
asbag61
(g82
g63
NtRp1292
(dp1293
g66
(dp1294
sg75
g1280
sg68
(lp1295
g61
(g62
g63
NtRp1296
(dp1297
g66
(dp1298
g74
I3
ssg75
g1292
sg68
(lp1299
S''
asbasbasbag61
(g77
g63
NtRp1300
(dp1301
g66
(dp1302
sg75
g1196
sg68
(lp1303
g61
(g82
g63
NtRp1304
(dp1305
g66
(dp1306
g86
g87
ssg75
g1300
sg68
(lp1307
g380
asbag61
(g82
g63
NtRp1308
(dp1309
g66
(dp1310
g93
g94
ssg75
g1300
sg68
(lp1311
S':'
asbag61
(g82
g63
NtRp1312
(dp1313
g66
(dp1314
sg75
g1300
sg68
(lp1315
g61
(g62
g63
NtRp1316
(dp1317
g66
(dp1318
g74
I3
ssg75
g1312
sg68
(lp1319
S''
asbasbasbag61
(g77
g63
NtRp1320
(dp1321
g66
(dp1322
sg75
g1196
sg68
(lp1323
g61
(g82
g63
NtRp1324
(dp1325
g66
(dp1326
g86
g87
ssg75
g1320
sg68
(lp1327
g401
asbag61
(g82
g63
NtRp1328
(dp1329
g66
(dp1330
g93
g94
ssg75
g1320
sg68
(lp1331
S':'
asbag61
(g82
g63
NtRp1332
(dp1333
g66
(dp1334
sg75
g1320
sg68
(lp1335
g61
(g62
g63
NtRp1336
(dp1337
g66
(dp1338
g74
I3
ssg75
g1332
sg68
(lp1339
S''
asbasbasbag61
(g77
g63
NtRp1340
(dp1341
g66
(dp1342
sg75
g1196
sg68
(lp1343
g61
(g82
g63
NtRp1344
(dp1345
g66
(dp1346
g86
g87
ssg75
g1340
sg68
(lp1347
g422
asbag61
(g82
g63
NtRp1348
(dp1349
g66
(dp1350
g93
g94
ssg75
g1340
sg68
(lp1351
S':'
asbag61
(g82
g63
NtRp1352
(dp1353
g66
(dp1354
sg75
g1340
sg68
(lp1355
g61
(g62
g63
NtRp1356
(dp1357
g66
(dp1358
g74
I3
ssg75
g1352
sg68
(lp1359
S''
asbasbasbasbasbasbasbag61
(g77
g63
NtRp1360
(dp1361
g66
(dp1362
sg75
g238
sg68
(lp1363
g61
(g82
g63
NtRp1364
(dp1365
g66
(dp1366
g86
g87
ssg75
g1360
sg68
(lp1367
S'pt2gguin'
p1368
asbag61
(g82
g63
NtRp1369
(dp1370
g66
(dp1371
g93
g94
ssg75
g1360
sg68
(lp1372
S':'
asbag61
(g82
g63
NtRp1373
(dp1374
g66
(dp1375
sg75
g1360
sg68
(lp1376
g61
(g62
g63
NtRp1377
(dp1378
g66
(dp1379
g74
I4
ssg75
g1373
sg68
(lp1380
g61
(g70
g63
NtRp1381
(dp1382
g66
(dp1383
g74
I3
ssg75
Nsg68
(lp1384
g61
(g77
g63
NtRp1385
(dp1386
g66
(dp1387
sg75
g1381
sg68
(lp1388
g61
(g82
g63
NtRp1389
(dp1390
g66
(dp1391
g86
g87
ssg75
g1385
sg68
(lp1392
g275
asbag61
(g82
g63
NtRp1393
(dp1394
g66
(dp1395
g93
g94
ssg75
g1385
sg68
(lp1396
S':'
asbag61
(g82
g63
NtRp1397
(dp1398
g66
(dp1399
sg75
g1385
sg68
(lp1400
g61
(g62
g63
NtRp1401
(dp1402
g66
(dp1403
g74
I3
ssg75
g1397
sg68
(lp1404
S''
asbasbasbag61
(g77
g63
NtRp1405
(dp1406
g66
(dp1407
sg75
g1381
sg68
(lp1408
g61
(g82
g63
NtRp1409
(dp1410
g66
(dp1411
g86
g87
ssg75
g1405
sg68
(lp1412
g296
asbag61
(g82
g63
NtRp1413
(dp1414
g66
(dp1415
g93
g94
ssg75
g1405
sg68
(lp1416
S':'
asbag61
(g82
g63
NtRp1417
(dp1418
g66
(dp1419
sg75
g1405
sg68
(lp1420
g61
(g62
g63
NtRp1421
(dp1422
g66
(dp1423
g74
I3
ssg75
g1417
sg68
(lp1424
S''
asbasbasbag61
(g77
g63
NtRp1425
(dp1426
g66
(dp1427
sg75
g1381
sg68
(lp1428
g61
(g82
g63
NtRp1429
(dp1430
g66
(dp1431
g86
g87
ssg75
g1425
sg68
(lp1432
g317
asbag61
(g82
g63
NtRp1433
(dp1434
g66
(dp1435
g93
g94
ssg75
g1425
sg68
(lp1436
S':'
asbag61
(g82
g63
NtRp1437
(dp1438
g66
(dp1439
sg75
g1425
sg68
(lp1440
g61
(g62
g63
NtRp1441
(dp1442
g66
(dp1443
g74
I3
ssg75
g1437
sg68
(lp1444
S''
asbasbasbag61
(g77
g63
NtRp1445
(dp1446
g66
(dp1447
sg75
g1381
sg68
(lp1448
g61
(g82
g63
NtRp1449
(dp1450
g66
(dp1451
g86
g87
ssg75
g1445
sg68
(lp1452
g338
asbag61
(g82
g63
NtRp1453
(dp1454
g66
(dp1455
g93
g94
ssg75
g1445
sg68
(lp1456
S':'
asbag61
(g82
g63
NtRp1457
(dp1458
g66
(dp1459
sg75
g1445
sg68
(lp1460
g61
(g62
g63
NtRp1461
(dp1462
g66
(dp1463
g74
I3
ssg75
g1457
sg68
(lp1464
S''
asbasbasbag61
(g77
g63
NtRp1465
(dp1466
g66
(dp1467
sg75
g1381
sg68
(lp1468
g61
(g82
g63
NtRp1469
(dp1470
g66
(dp1471
g86
g87
ssg75
g1465
sg68
(lp1472
g359
asbag61
(g82
g63
NtRp1473
(dp1474
g66
(dp1475
g93
g94
ssg75
g1465
sg68
(lp1476
S':'
asbag61
(g82
g63
NtRp1477
(dp1478
g66
(dp1479
sg75
g1465
sg68
(lp1480
g61
(g62
g63
NtRp1481
(dp1482
g66
(dp1483
g74
I3
ssg75
g1477
sg68
(lp1484
S''
asbasbasbag61
(g77
g63
NtRp1485
(dp1486
g66
(dp1487
sg75
g1381
sg68
(lp1488
g61
(g82
g63
NtRp1489
(dp1490
g66
(dp1491
g86
g87
ssg75
g1485
sg68
(lp1492
g380
asbag61
(g82
g63
NtRp1493
(dp1494
g66
(dp1495
g93
g94
ssg75
g1485
sg68
(lp1496
S':'
asbag61
(g82
g63
NtRp1497
(dp1498
g66
(dp1499
sg75
g1485
sg68
(lp1500
g61
(g62
g63
NtRp1501
(dp1502
g66
(dp1503
g74
I3
ssg75
g1497
sg68
(lp1504
S''
asbasbasbag61
(g77
g63
NtRp1505
(dp1506
g66
(dp1507
sg75
g1381
sg68
(lp1508
g61
(g82
g63
NtRp1509
(dp1510
g66
(dp1511
g86
g87
ssg75
g1505
sg68
(lp1512
g401
asbag61
(g82
g63
NtRp1513
(dp1514
g66
(dp1515
g93
g94
ssg75
g1505
sg68
(lp1516
S':'
asbag61
(g82
g63
NtRp1517
(dp1518
g66
(dp1519
sg75
g1505
sg68
(lp1520
g61
(g62
g63
NtRp1521
(dp1522
g66
(dp1523
g74
I3
ssg75
g1517
sg68
(lp1524
S''
asbasbasbag61
(g77
g63
NtRp1525
(dp1526
g66
(dp1527
sg75
g1381
sg68
(lp1528
g61
(g82
g63
NtRp1529
(dp1530
g66
(dp1531
g86
g87
ssg75
g1525
sg68
(lp1532
g422
asbag61
(g82
g63
NtRp1533
(dp1534
g66
(dp1535
g93
g94
ssg75
g1525
sg68
(lp1536
S':'
asbag61
(g82
g63
NtRp1537
(dp1538
g66
(dp1539
sg75
g1525
sg68
(lp1540
g61
(g62
g63
NtRp1541
(dp1542
g66
(dp1543
g74
I3
ssg75
g1537
sg68
(lp1544
S''
asbasbasbasbasbasbasbag61
(g77
g63
NtRp1545
(dp1546
g66
(dp1547
sg75
g238
sg68
(lp1548
g61
(g82
g63
NtRp1549
(dp1550
g66
(dp1551
g86
g87
ssg75
g1545
sg68
(lp1552
S'session_id_examples'
p1553
asbag61
(g82
g63
NtRp1554
(dp1555
g66
(dp1556
g93
g94
ssg75
g1545
sg68
(lp1557
S':'
asbag61
(g82
g63
NtRp1558
(dp1559
g66
(dp1560
sg75
g1545
sg68
(lp1561
g61
(g62
g63
NtRp1562
(dp1563
g66
(dp1564
g74
I4
ssg75
g1558
sg68
(lp1565
g61
(g70
g63
NtRp1566
(dp1567
g66
(dp1568
g74
I3
ssg75
Nsg68
(lp1569
g61
(g77
g63
NtRp1570
(dp1571
g66
(dp1572
sg75
g1566
sg68
(lp1573
g61
(g82
g63
NtRp1574
(dp1575
g66
(dp1576
g86
g87
ssg75
g1570
sg68
(lp1577
g275
asbag61
(g82
g63
NtRp1578
(dp1579
g66
(dp1580
g93
g94
ssg75
g1570
sg68
(lp1581
S':'
asbag61
(g82
g63
NtRp1582
(dp1583
g66
(dp1584
sg75
g1570
sg68
(lp1585
g61
(g62
g63
NtRp1586
(dp1587
g66
(dp1588
g74
I3
ssg75
g1582
sg68
(lp1589
S''
asbasbasbag61
(g77
g63
NtRp1590
(dp1591
g66
(dp1592
sg75
g1566
sg68
(lp1593
g61
(g82
g63
NtRp1594
(dp1595
g66
(dp1596
g86
g87
ssg75
g1590
sg68
(lp1597
g296
asbag61
(g82
g63
NtRp1598
(dp1599
g66
(dp1600
g93
g94
ssg75
g1590
sg68
(lp1601
S':'
asbag61
(g82
g63
NtRp1602
(dp1603
g66
(dp1604
sg75
g1590
sg68
(lp1605
g61
(g62
g63
NtRp1606
(dp1607
g66
(dp1608
g74
I3
ssg75
g1602
sg68
(lp1609
S''
asbasbasbag61
(g77
g63
NtRp1610
(dp1611
g66
(dp1612
sg75
g1566
sg68
(lp1613
g61
(g82
g63
NtRp1614
(dp1615
g66
(dp1616
g86
g87
ssg75
g1610
sg68
(lp1617
g317
asbag61
(g82
g63
NtRp1618
(dp1619
g66
(dp1620
g93
g94
ssg75
g1610
sg68
(lp1621
S':'
asbag61
(g82
g63
NtRp1622
(dp1623
g66
(dp1624
sg75
g1610
sg68
(lp1625
g61
(g62
g63
NtRp1626
(dp1627
g66
(dp1628
g74
I3
ssg75
g1622
sg68
(lp1629
S''
asbasbasbag61
(g77
g63
NtRp1630
(dp1631
g66
(dp1632
sg75
g1566
sg68
(lp1633
g61
(g82
g63
NtRp1634
(dp1635
g66
(dp1636
g86
g87
ssg75
g1630
sg68
(lp1637
g338
asbag61
(g82
g63
NtRp1638
(dp1639
g66
(dp1640
g93
g94
ssg75
g1630
sg68
(lp1641
S':'
asbag61
(g82
g63
NtRp1642
(dp1643
g66
(dp1644
sg75
g1630
sg68
(lp1645
g61
(g62
g63
NtRp1646
(dp1647
g66
(dp1648
g74
I3
ssg75
g1642
sg68
(lp1649
S''
asbasbasbag61
(g77
g63
NtRp1650
(dp1651
g66
(dp1652
sg75
g1566
sg68
(lp1653
g61
(g82
g63
NtRp1654
(dp1655
g66
(dp1656
g86
g87
ssg75
g1650
sg68
(lp1657
g359
asbag61
(g82
g63
NtRp1658
(dp1659
g66
(dp1660
g93
g94
ssg75
g1650
sg68
(lp1661
S':'
asbag61
(g82
g63
NtRp1662
(dp1663
g66
(dp1664
sg75
g1650
sg68
(lp1665
g61
(g62
g63
NtRp1666
(dp1667
g66
(dp1668
g74
I3
ssg75
g1662
sg68
(lp1669
S''
asbasbasbag61
(g77
g63
NtRp1670
(dp1671
g66
(dp1672
sg75
g1566
sg68
(lp1673
g61
(g82
g63
NtRp1674
(dp1675
g66
(dp1676
g86
g87
ssg75
g1670
sg68
(lp1677
g380
asbag61
(g82
g63
NtRp1678
(dp1679
g66
(dp1680
g93
g94
ssg75
g1670
sg68
(lp1681
S':'
asbag61
(g82
g63
NtRp1682
(dp1683
g66
(dp1684
sg75
g1670
sg68
(lp1685
g61
(g62
g63
NtRp1686
(dp1687
g66
(dp1688
g74
I3
ssg75
g1682
sg68
(lp1689
S''
asbasbasbag61
(g77
g63
NtRp1690
(dp1691
g66
(dp1692
sg75
g1566
sg68
(lp1693
g61
(g82
g63
NtRp1694
(dp1695
g66
(dp1696
g86
g87
ssg75
g1690
sg68
(lp1697
g401
asbag61
(g82
g63
NtRp1698
(dp1699
g66
(dp1700
g93
g94
ssg75
g1690
sg68
(lp1701
S':'
asbag61
(g82
g63
NtRp1702
(dp1703
g66
(dp1704
sg75
g1690
sg68
(lp1705
g61
(g62
g63
NtRp1706
(dp1707
g66
(dp1708
g74
I3
ssg75
g1702
sg68
(lp1709
S''
asbasbasbag61
(g77
g63
NtRp1710
(dp1711
g66
(dp1712
sg75
g1566
sg68
(lp1713
g61
(g82
g63
NtRp1714
(dp1715
g66
(dp1716
g86
g87
ssg75
g1710
sg68
(lp1717
g422
asbag61
(g82
g63
NtRp1718
(dp1719
g66
(dp1720
g93
g94
ssg75
g1710
sg68
(lp1721
S':'
asbag61
(g82
g63
NtRp1722
(dp1723
g66
(dp1724
sg75
g1710
sg68
(lp1725
g61
(g62
g63
NtRp1726
(dp1727
g66
(dp1728
g74
I3
ssg75
g1722
sg68
(lp1729
S''
asbasbasbasbasbasbasbag61
(g77
g63
NtRp1730
(dp1731
g66
(dp1732
sg75
g238
sg68
(lp1733
g61
(g82
g63
NtRp1734
(dp1735
g66
(dp1736
g86
g87
ssg75
g1730
sg68
(lp1737
S'session_id_welcome'
p1738
asbag61
(g82
g63
NtRp1739
(dp1740
g66
(dp1741
g93
g94
ssg75
g1730
sg68
(lp1742
S':'
asbag61
(g82
g63
NtRp1743
(dp1744
g66
(dp1745
sg75
g1730
sg68
(lp1746
g61
(g62
g63
NtRp1747
(dp1748
g66
(dp1749
g74
I4
ssg75
g1743
sg68
(lp1750
g61
(g70
g63
NtRp1751
(dp1752
g66
(dp1753
g74
I3
ssg75
Nsg68
(lp1754
g61
(g77
g63
NtRp1755
(dp1756
g66
(dp1757
sg75
g1751
sg68
(lp1758
g61
(g82
g63
NtRp1759
(dp1760
g66
(dp1761
g86
g87
ssg75
g1755
sg68
(lp1762
g275
asbag61
(g82
g63
NtRp1763
(dp1764
g66
(dp1765
g93
g94
ssg75
g1755
sg68
(lp1766
S':'
asbag61
(g82
g63
NtRp1767
(dp1768
g66
(dp1769
sg75
g1755
sg68
(lp1770
g61
(g62
g63
NtRp1771
(dp1772
g66
(dp1773
g74
I3
ssg75
g1767
sg68
(lp1774
S''
asbasbasbag61
(g77
g63
NtRp1775
(dp1776
g66
(dp1777
sg75
g1751
sg68
(lp1778
g61
(g82
g63
NtRp1779
(dp1780
g66
(dp1781
g86
g87
ssg75
g1775
sg68
(lp1782
g296
asbag61
(g82
g63
NtRp1783
(dp1784
g66
(dp1785
g93
g94
ssg75
g1775
sg68
(lp1786
S':'
asbag61
(g82
g63
NtRp1787
(dp1788
g66
(dp1789
sg75
g1775
sg68
(lp1790
g61
(g62
g63
NtRp1791
(dp1792
g66
(dp1793
g74
I3
ssg75
g1787
sg68
(lp1794
S''
asbasbasbag61
(g77
g63
NtRp1795
(dp1796
g66
(dp1797
sg75
g1751
sg68
(lp1798
g61
(g82
g63
NtRp1799
(dp1800
g66
(dp1801
g86
g87
ssg75
g1795
sg68
(lp1802
g317
asbag61
(g82
g63
NtRp1803
(dp1804
g66
(dp1805
g93
g94
ssg75
g1795
sg68
(lp1806
S':'
asbag61
(g82
g63
NtRp1807
(dp1808
g66
(dp1809
sg75
g1795
sg68
(lp1810
g61
(g62
g63
NtRp1811
(dp1812
g66
(dp1813
g74
I3
ssg75
g1807
sg68
(lp1814
S''
asbasbasbag61
(g77
g63
NtRp1815
(dp1816
g66
(dp1817
sg75
g1751
sg68
(lp1818
g61
(g82
g63
NtRp1819
(dp1820
g66
(dp1821
g86
g87
ssg75
g1815
sg68
(lp1822
g338
asbag61
(g82
g63
NtRp1823
(dp1824
g66
(dp1825
g93
g94
ssg75
g1815
sg68
(lp1826
S':'
asbag61
(g82
g63
NtRp1827
(dp1828
g66
(dp1829
sg75
g1815
sg68
(lp1830
g61
(g62
g63
NtRp1831
(dp1832
g66
(dp1833
g74
I3
ssg75
g1827
sg68
(lp1834
S''
asbasbasbag61
(g77
g63
NtRp1835
(dp1836
g66
(dp1837
sg75
g1751
sg68
(lp1838
g61
(g82
g63
NtRp1839
(dp1840
g66
(dp1841
g86
g87
ssg75
g1835
sg68
(lp1842
g359
asbag61
(g82
g63
NtRp1843
(dp1844
g66
(dp1845
g93
g94
ssg75
g1835
sg68
(lp1846
S':'
asbag61
(g82
g63
NtRp1847
(dp1848
g66
(dp1849
sg75
g1835
sg68
(lp1850
g61
(g62
g63
NtRp1851
(dp1852
g66
(dp1853
g74
I3
ssg75
g1847
sg68
(lp1854
S''
asbasbasbag61
(g77
g63
NtRp1855
(dp1856
g66
(dp1857
sg75
g1751
sg68
(lp1858
g61
(g82
g63
NtRp1859
(dp1860
g66
(dp1861
g86
g87
ssg75
g1855
sg68
(lp1862
g380
asbag61
(g82
g63
NtRp1863
(dp1864
g66
(dp1865
g93
g94
ssg75
g1855
sg68
(lp1866
S':'
asbag61
(g82
g63
NtRp1867
(dp1868
g66
(dp1869
sg75
g1855
sg68
(lp1870
g61
(g62
g63
NtRp1871
(dp1872
g66
(dp1873
g74
I3
ssg75
g1867
sg68
(lp1874
S''
asbasbasbag61
(g77
g63
NtRp1875
(dp1876
g66
(dp1877
sg75
g1751
sg68
(lp1878
g61
(g82
g63
NtRp1879
(dp1880
g66
(dp1881
g86
g87
ssg75
g1875
sg68
(lp1882
g401
asbag61
(g82
g63
NtRp1883
(dp1884
g66
(dp1885
g93
g94
ssg75
g1875
sg68
(lp1886
S':'
asbag61
(g82
g63
NtRp1887
(dp1888
g66
(dp1889
sg75
g1875
sg68
(lp1890
g61
(g62
g63
NtRp1891
(dp1892
g66
(dp1893
g74
I3
ssg75
g1887
sg68
(lp1894
S''
asbasbasbag61
(g77
g63
NtRp1895
(dp1896
g66
(dp1897
sg75
g1751
sg68
(lp1898
g61
(g82
g63
NtRp1899
(dp1900
g66
(dp1901
g86
g87
ssg75
g1895
sg68
(lp1902
g422
asbag61
(g82
g63
NtRp1903
(dp1904
g66
(dp1905
g93
g94
ssg75
g1895
sg68
(lp1906
S':'
asbag61
(g82
g63
NtRp1907
(dp1908
g66
(dp1909
sg75
g1895
sg68
(lp1910
g61
(g62
g63
NtRp1911
(dp1912
g66
(dp1913
g74
I3
ssg75
g1907
sg68
(lp1914
S''
asbasbasbasbasbasbasbag61
(g77
g63
NtRp1915
(dp1916
g66
(dp1917
sg75
g238
sg68
(lp1918
g61
(g82
g63
NtRp1919
(dp1920
g66
(dp1921
g86
g87
ssg75
g1915
sg68
(lp1922
S'uin_cookie'
p1923
asbag61
(g82
g63
NtRp1924
(dp1925
g66
(dp1926
g93
g94
ssg75
g1915
sg68
(lp1927
S':'
asbag61
(g82
g63
NtRp1928
(dp1929
g66
(dp1930
sg75
g1915
sg68
(lp1931
g61
(g62
g63
NtRp1932
(dp1933
g66
(dp1934
g74
I4
ssg75
g1928
sg68
(lp1935
g61
(g70
g63
NtRp1936
(dp1937
g66
(dp1938
g74
I3
ssg75
Nsg68
(lp1939
g61
(g77
g63
NtRp1940
(dp1941
g66
(dp1942
sg75
g1936
sg68
(lp1943
g61
(g82
g63
NtRp1944
(dp1945
g66
(dp1946
g86
g87
ssg75
g1940
sg68
(lp1947
g275
asbag61
(g82
g63
NtRp1948
(dp1949
g66
(dp1950
g93
g94
ssg75
g1940
sg68
(lp1951
S':'
asbag61
(g82
g63
NtRp1952
(dp1953
g66
(dp1954
sg75
g1940
sg68
(lp1955
g61
(g62
g63
NtRp1956
(dp1957
g66
(dp1958
g74
I3
ssg75
g1952
sg68
(lp1959
S''
asbasbasbag61
(g77
g63
NtRp1960
(dp1961
g66
(dp1962
sg75
g1936
sg68
(lp1963
g61
(g82
g63
NtRp1964
(dp1965
g66
(dp1966
g86
g87
ssg75
g1960
sg68
(lp1967
g296
asbag61
(g82
g63
NtRp1968
(dp1969
g66
(dp1970
g93
g94
ssg75
g1960
sg68
(lp1971
S':'
asbag61
(g82
g63
NtRp1972
(dp1973
g66
(dp1974
sg75
g1960
sg68
(lp1975
g61
(g62
g63
NtRp1976
(dp1977
g66
(dp1978
g74
I3
ssg75
g1972
sg68
(lp1979
S''
asbasbasbag61
(g77
g63
NtRp1980
(dp1981
g66
(dp1982
sg75
g1936
sg68
(lp1983
g61
(g82
g63
NtRp1984
(dp1985
g66
(dp1986
g86
g87
ssg75
g1980
sg68
(lp1987
g317
asbag61
(g82
g63
NtRp1988
(dp1989
g66
(dp1990
g93
g94
ssg75
g1980
sg68
(lp1991
S':'
asbag61
(g82
g63
NtRp1992
(dp1993
g66
(dp1994
sg75
g1980
sg68
(lp1995
g61
(g62
g63
NtRp1996
(dp1997
g66
(dp1998
g74
I3
ssg75
g1992
sg68
(lp1999
S''
asbasbasbag61
(g77
g63
NtRp2000
(dp2001
g66
(dp2002
sg75
g1936
sg68
(lp2003
g61
(g82
g63
NtRp2004
(dp2005
g66
(dp2006
g86
g87
ssg75
g2000
sg68
(lp2007
g338
asbag61
(g82
g63
NtRp2008
(dp2009
g66
(dp2010
g93
g94
ssg75
g2000
sg68
(lp2011
S':'
asbag61
(g82
g63
NtRp2012
(dp2013
g66
(dp2014
sg75
g2000
sg68
(lp2015
g61
(g62
g63
NtRp2016
(dp2017
g66
(dp2018
g74
I3
ssg75
g2012
sg68
(lp2019
S''
asbasbasbag61
(g77
g63
NtRp2020
(dp2021
g66
(dp2022
sg75
g1936
sg68
(lp2023
g61
(g82
g63
NtRp2024
(dp2025
g66
(dp2026
g86
g87
ssg75
g2020
sg68
(lp2027
g359
asbag61
(g82
g63
NtRp2028
(dp2029
g66
(dp2030
g93
g94
ssg75
g2020
sg68
(lp2031
S':'
asbag61
(g82
g63
NtRp2032
(dp2033
g66
(dp2034
sg75
g2020
sg68
(lp2035
g61
(g62
g63
NtRp2036
(dp2037
g66
(dp2038
g74
I3
ssg75
g2032
sg68
(lp2039
S''
asbasbasbag61
(g77
g63
NtRp2040
(dp2041
g66
(dp2042
sg75
g1936
sg68
(lp2043
g61
(g82
g63
NtRp2044
(dp2045
g66
(dp2046
g86
g87
ssg75
g2040
sg68
(lp2047
g380
asbag61
(g82
g63
NtRp2048
(dp2049
g66
(dp2050
g93
g94
ssg75
g2040
sg68
(lp2051
S':'
asbag61
(g82
g63
NtRp2052
(dp2053
g66
(dp2054
sg75
g2040
sg68
(lp2055
g61
(g62
g63
NtRp2056
(dp2057
g66
(dp2058
g74
I3
ssg75
g2052
sg68
(lp2059
S''
asbasbasbag61
(g77
g63
NtRp2060
(dp2061
g66
(dp2062
sg75
g1936
sg68
(lp2063
g61
(g82
g63
NtRp2064
(dp2065
g66
(dp2066
g86
g87
ssg75
g2060
sg68
(lp2067
g401
asbag61
(g82
g63
NtRp2068
(dp2069
g66
(dp2070
g93
g94
ssg75
g2060
sg68
(lp2071
S':'
asbag61
(g82
g63
NtRp2072
(dp2073
g66
(dp2074
sg75
g2060
sg68
(lp2075
g61
(g62
g63
NtRp2076
(dp2077
g66
(dp2078
g74
I3
ssg75
g2072
sg68
(lp2079
S''
asbasbasbag61
(g77
g63
NtRp2080
(dp2081
g66
(dp2082
sg75
g1936
sg68
(lp2083
g61
(g82
g63
NtRp2084
(dp2085
g66
(dp2086
g86
g87
ssg75
g2080
sg68
(lp2087
g422
asbag61
(g82
g63
NtRp2088
(dp2089
g66
(dp2090
g93
g94
ssg75
g2080
sg68
(lp2091
S':'
asbag61
(g82
g63
NtRp2092
(dp2093
g66
(dp2094
sg75
g2080
sg68
(lp2095
g61
(g62
g63
NtRp2096
(dp2097
g66
(dp2098
g74
I3
ssg75
g2092
sg68
(lp2099
S''
asbasbasbasbasbasbasbasbasbasbasbag61
(g77
g63
NtRp2100
(dp2101
g66
(dp2102
sg75
g71
sg68
(lp2103
g61
(g82
g63
NtRp2104
(dp2105
g66
(dp2106
g86
g87
ssg75
g2100
sg68
(lp2107
S'env'
p2108
asbag61
(g82
g63
NtRp2109
(dp2110
g66
(dp2111
g93
g94
ssg75
g2100
sg68
(lp2112
S':'
asbag61
(g82
g63
NtRp2113
(dp2114
g66
(dp2115
sg75
g2100
sg68
(lp2116
g61
(g62
g63
NtRp2117
(dp2118
g66
(dp2119
g74
I5
ssg75
g2113
sg68
(lp2120
g61
(g70
g63
NtRp2121
(dp2122
g66
(dp2123
g74
I4
ssg75
Nsg68
(lp2124
g61
(g77
g63
NtRp2125
(dp2126
g66
(dp2127
sg75
g2121
sg68
(lp2128
g61
(g82
g63
NtRp2129
(dp2130
g66
(dp2131
g86
g87
ssg75
g2125
sg68
(lp2132
S'app_folders'
p2133
asbag61
(g82
g63
NtRp2134
(dp2135
g66
(dp2136
g93
g94
ssg75
g2125
sg68
(lp2137
S':'
asbag61
(g82
g63
NtRp2138
(dp2139
g66
(dp2140
sg75
g2125
sg68
(lp2141
g61
(g62
g63
NtRp2142
(dp2143
g66
(dp2144
g74
I4
ssg75
g2138
sg68
(lp2145
S"set(['D:\\\\Workbench\\\\private\\\\web2py_src\\\\applications\\\\welcome\\\\', 'D:\\\\Workbench\\\\private\\\\web2py_src\\\\applications\\\\examples\\\\'])"
p2146
asbasbasbag61
(g77
g63
NtRp2147
(dp2148
g66
(dp2149
sg75
g2121
sg68
(lp2150
g61
(g82
g63
NtRp2151
(dp2152
g66
(dp2153
g86
g87
ssg75
g2147
sg68
(lp2154
S'applications_parent'
p2155
asbag61
(g82
g63
NtRp2156
(dp2157
g66
(dp2158
g93
g94
ssg75
g2147
sg68
(lp2159
S':'
asbag61
(g82
g63
NtRp2160
(dp2161
g66
(dp2162
sg75
g2147
sg68
(lp2163
g61
(g62
g63
NtRp2164
(dp2165
g66
(dp2166
g74
I4
ssg75
g2160
sg68
(lp2167
S'D:\\Workbench\\private\\web2py_src'
p2168
asbasbasbag61
(g77
g63
NtRp2169
(dp2170
g66
(dp2171
sg75
g2121
sg68
(lp2172
g61
(g82
g63
NtRp2173
(dp2174
g66
(dp2175
g86
g87
ssg75
g2169
sg68
(lp2176
S'comspec'
p2177
asbag61
(g82
g63
NtRp2178
(dp2179
g66
(dp2180
g93
g94
ssg75
g2169
sg68
(lp2181
S':'
asbag61
(g82
g63
NtRp2182
(dp2183
g66
(dp2184
sg75
g2169
sg68
(lp2185
g61
(g62
g63
NtRp2186
(dp2187
g66
(dp2188
g74
I4
ssg75
g2182
sg68
(lp2189
S'C:\\Windows\\system32\\cmd.exe'
p2190
asbasbasbag61
(g77
g63
NtRp2191
(dp2192
g66
(dp2193
sg75
g2121
sg68
(lp2194
g61
(g82
g63
NtRp2195
(dp2196
g66
(dp2197
g86
g87
ssg75
g2191
sg68
(lp2198
S'content_length'
p2199
asbag61
(g82
g63
NtRp2200
(dp2201
g66
(dp2202
g93
g94
ssg75
g2191
sg68
(lp2203
S':'
asbag61
(g82
g63
NtRp2204
(dp2205
g66
(dp2206
sg75
g2191
sg68
(lp2207
g61
(g62
g63
NtRp2208
(dp2209
g66
(dp2210
g74
I4
ssg75
g2204
sg68
(lp2211
S'15685'
p2212
asbasbasbag61
(g77
g63
NtRp2213
(dp2214
g66
(dp2215
sg75
g2121
sg68
(lp2216
g61
(g82
g63
NtRp2217
(dp2218
g66
(dp2219
g86
g87
ssg75
g2213
sg68
(lp2220
S'content_type'
p2221
asbag61
(g82
g63
NtRp2222
(dp2223
g66
(dp2224
g93
g94
ssg75
g2213
sg68
(lp2225
S':'
asbag61
(g82
g63
NtRp2226
(dp2227
g66
(dp2228
sg75
g2213
sg68
(lp2229
g61
(g62
g63
NtRp2230
(dp2231
g66
(dp2232
g74
I4
ssg75
g2226
sg68
(lp2233
S'multipart/form-data; boundary=---------------------------7dc3bd1430b86'
p2234
asbasbasbag61
(g77
g63
NtRp2235
(dp2236
g66
(dp2237
sg75
g2121
sg68
(lp2238
g61
(g82
g63
NtRp2239
(dp2240
g66
(dp2241
g86
g87
ssg75
g2235
sg68
(lp2242
S'db_sessions'
p2243
asbag61
(g82
g63
NtRp2244
(dp2245
g66
(dp2246
g93
g94
ssg75
g2235
sg68
(lp2247
S':'
asbag61
(g82
g63
NtRp2248
(dp2249
g66
(dp2250
sg75
g2235
sg68
(lp2251
g61
(g62
g63
NtRp2252
(dp2253
g66
(dp2254
g74
I4
ssg75
g2248
sg68
(lp2255
S'set([])'
p2256
asbasbasbag61
(g77
g63
NtRp2257
(dp2258
g66
(dp2259
sg75
g2121
sg68
(lp2260
g61
(g82
g63
NtRp2261
(dp2262
g66
(dp2263
g86
g87
ssg75
g2257
sg68
(lp2264
S'debugging'
p2265
asbag61
(g82
g63
NtRp2266
(dp2267
g66
(dp2268
g93
g94
ssg75
g2257
sg68
(lp2269
S':'
asbag61
(g82
g63
NtRp2270
(dp2271
g66
(dp2272
sg75
g2257
sg68
(lp2273
g61
(g62
g63
NtRp2274
(dp2275
g66
(dp2276
g74
I4
ssg75
g2270
sg68
(lp2277
g104
asbasbasbag61
(g77
g63
NtRp2278
(dp2279
g66
(dp2280
sg75
g2121
sg68
(lp2281
g61
(g82
g63
NtRp2282
(dp2283
g66
(dp2284
g86
g87
ssg75
g2278
sg68
(lp2285
S'document_root'
p2286
asbag61
(g82
g63
NtRp2287
(dp2288
g66
(dp2289
g93
g94
ssg75
g2278
sg68
(lp2290
S':'
asbag61
(g82
g63
NtRp2291
(dp2292
g66
(dp2293
sg75
g2278
sg68
(lp2294
g61
(g62
g63
NtRp2295
(dp2296
g66
(dp2297
g74
I4
ssg75
g2291
sg68
(lp2298
S'D:/Workbench/documentroot'
p2299
asbasbasbag61
(g77
g63
NtRp2300
(dp2301
g66
(dp2302
sg75
g2121
sg68
(lp2303
g61
(g82
g63
NtRp2304
(dp2305
g66
(dp2306
g86
g87
ssg75
g2300
sg68
(lp2307
S'gateway_interface'
p2308
asbag61
(g82
g63
NtRp2309
(dp2310
g66
(dp2311
g93
g94
ssg75
g2300
sg68
(lp2312
S':'
asbag61
(g82
g63
NtRp2313
(dp2314
g66
(dp2315
sg75
g2300
sg68
(lp2316
g61
(g62
g63
NtRp2317
(dp2318
g66
(dp2319
g74
I4
ssg75
g2313
sg68
(lp2320
S'CGI/1.1'
p2321
asbasbasbag61
(g77
g63
NtRp2322
(dp2323
g66
(dp2324
sg75
g2121
sg68
(lp2325
g61
(g82
g63
NtRp2326
(dp2327
g66
(dp2328
g86
g87
ssg75
g2322
sg68
(lp2329
S'gluon_parent'
p2330
asbag61
(g82
g63
NtRp2331
(dp2332
g66
(dp2333
g93
g94
ssg75
g2322
sg68
(lp2334
S':'
asbag61
(g82
g63
NtRp2335
(dp2336
g66
(dp2337
sg75
g2322
sg68
(lp2338
g61
(g62
g63
NtRp2339
(dp2340
g66
(dp2341
g74
I4
ssg75
g2335
sg68
(lp2342
g2168
asbasbasbag61
(g77
g63
NtRp2343
(dp2344
g66
(dp2345
sg75
g2121
sg68
(lp2346
g61
(g82
g63
NtRp2347
(dp2348
g66
(dp2349
g86
g87
ssg75
g2343
sg68
(lp2350
S'http_accept'
p2351
asbag61
(g82
g63
NtRp2352
(dp2353
g66
(dp2354
g93
g94
ssg75
g2343
sg68
(lp2355
S':'
asbag61
(g82
g63
NtRp2356
(dp2357
g66
(dp2358
sg75
g2343
sg68
(lp2359
g61
(g62
g63
NtRp2360
(dp2361
g66
(dp2362
g74
I4
ssg75
g2356
sg68
(lp2363
S'text/html, application/xhtml+xml, */*'
p2364
asbasbasbag61
(g77
g63
NtRp2365
(dp2366
g66
(dp2367
sg75
g2121
sg68
(lp2368
g61
(g82
g63
NtRp2369
(dp2370
g66
(dp2371
g86
g87
ssg75
g2365
sg68
(lp2372
S'http_accept_encoding'
p2373
asbag61
(g82
g63
NtRp2374
(dp2375
g66
(dp2376
g93
g94
ssg75
g2365
sg68
(lp2377
S':'
asbag61
(g82
g63
NtRp2378
(dp2379
g66
(dp2380
sg75
g2365
sg68
(lp2381
g61
(g62
g63
NtRp2382
(dp2383
g66
(dp2384
g74
I4
ssg75
g2378
sg68
(lp2385
S'gzip, deflate'
p2386
asbasbasbag61
(g77
g63
NtRp2387
(dp2388
g66
(dp2389
sg75
g2121
sg68
(lp2390
g61
(g82
g63
NtRp2391
(dp2392
g66
(dp2393
g86
g87
ssg75
g2387
sg68
(lp2394
S'http_accept_language'
p2395
asbag61
(g82
g63
NtRp2396
(dp2397
g66
(dp2398
g93
g94
ssg75
g2387
sg68
(lp2399
S':'
asbag61
(g82
g63
NtRp2400
(dp2401
g66
(dp2402
sg75
g2387
sg68
(lp2403
g61
(g62
g63
NtRp2404
(dp2405
g66
(dp2406
g74
I4
ssg75
g2400
sg68
(lp2407
S'zh-CN'
p2408
asbasbasbag61
(g77
g63
NtRp2409
(dp2410
g66
(dp2411
sg75
g2121
sg68
(lp2412
g61
(g82
g63
NtRp2413
(dp2414
g66
(dp2415
g86
g87
ssg75
g2409
sg68
(lp2416
S'http_connection'
p2417
asbag61
(g82
g63
NtRp2418
(dp2419
g66
(dp2420
g93
g94
ssg75
g2409
sg68
(lp2421
S':'
asbag61
(g82
g63
NtRp2422
(dp2423
g66
(dp2424
sg75
g2409
sg68
(lp2425
g61
(g62
g63
NtRp2426
(dp2427
g66
(dp2428
g74
I4
ssg75
g2422
sg68
(lp2429
S'Keep-Alive'
p2430
asbasbasbag61
(g77
g63
NtRp2431
(dp2432
g66
(dp2433
sg75
g2121
sg68
(lp2434
g61
(g82
g63
NtRp2435
(dp2436
g66
(dp2437
g86
g87
ssg75
g2431
sg68
(lp2438
S'http_cookie'
p2439
asbag61
(g82
g63
NtRp2440
(dp2441
g66
(dp2442
g93
g94
ssg75
g2431
sg68
(lp2443
S':'
asbag61
(g82
g63
NtRp2444
(dp2445
g66
(dp2446
sg75
g2431
sg68
(lp2447
g61
(g62
g63
NtRp2448
(dp2449
g66
(dp2450
g74
I4
ssg75
g2444
sg68
(lp2451
S'uin_cookie=395865019; euin_cookie=793BCD5770BD7CF235D9C2172ABA75C38BC469ABBA6B937A; pt2gguin=o0395865019; pgv_pvid=8180672002; pgv_flv=10.0; pgv_r_cookie=1231046432770; o_cookie=395865019; ac=1,015,; session_id_welcome=127.0.0.1-7ab94ce1-3bf5-41d1-8bb7-f2ef9a51a30d; session_id_examples=127.0.0.1-9628cd08-b02f-4258-8dca-4ddbaf99761e'
p2452
asbasbasbag61
(g77
g63
NtRp2453
(dp2454
g66
(dp2455
sg75
g2121
sg68
(lp2456
g61
(g82
g63
NtRp2457
(dp2458
g66
(dp2459
g86
g87
ssg75
g2453
sg68
(lp2460
S'http_host'
p2461
asbag61
(g82
g63
NtRp2462
(dp2463
g66
(dp2464
g93
g94
ssg75
g2453
sg68
(lp2465
S':'
asbag61
(g82
g63
NtRp2466
(dp2467
g66
(dp2468
sg75
g2453
sg68
(lp2469
g61
(g62
g63
NtRp2470
(dp2471
g66
(dp2472
g74
I4
ssg75
g2466
sg68
(lp2473
S'tgtoolbox.qq.com'
p2474
asbasbasbag61
(g77
g63
NtRp2475
(dp2476
g66
(dp2477
sg75
g2121
sg68
(lp2478
g61
(g82
g63
NtRp2479
(dp2480
g66
(dp2481
g86
g87
ssg75
g2475
sg68
(lp2482
S'http_pragma'
p2483
asbag61
(g82
g63
NtRp2484
(dp2485
g66
(dp2486
g93
g94
ssg75
g2475
sg68
(lp2487
S':'
asbag61
(g82
g63
NtRp2488
(dp2489
g66
(dp2490
sg75
g2475
sg68
(lp2491
g61
(g62
g63
NtRp2492
(dp2493
g66
(dp2494
g74
I4
ssg75
g2488
sg68
(lp2495
S'no-cache'
p2496
asbasbasbag61
(g77
g63
NtRp2497
(dp2498
g66
(dp2499
sg75
g2121
sg68
(lp2500
g61
(g82
g63
NtRp2501
(dp2502
g66
(dp2503
g86
g87
ssg75
g2497
sg68
(lp2504
S'http_referer'
p2505
asbag61
(g82
g63
NtRp2506
(dp2507
g66
(dp2508
g93
g94
ssg75
g2497
sg68
(lp2509
S':'
asbag61
(g82
g63
NtRp2510
(dp2511
g66
(dp2512
sg75
g2497
sg68
(lp2513
g61
(g62
g63
NtRp2514
(dp2515
g66
(dp2516
g74
I4
ssg75
g2510
sg68
(lp2517
S'http://tgtoolbox.qq.com/examples/transform/'
p2518
asbasbasbag61
(g77
g63
NtRp2519
(dp2520
g66
(dp2521
sg75
g2121
sg68
(lp2522
g61
(g82
g63
NtRp2523
(dp2524
g66
(dp2525
g86
g87
ssg75
g2519
sg68
(lp2526
S'http_user_agent'
p2527
asbag61
(g82
g63
NtRp2528
(dp2529
g66
(dp2530
g93
g94
ssg75
g2519
sg68
(lp2531
S':'
asbag61
(g82
g63
NtRp2532
(dp2533
g66
(dp2534
sg75
g2519
sg68
(lp2535
g61
(g62
g63
NtRp2536
(dp2537
g66
(dp2538
g74
I4
ssg75
g2532
sg68
(lp2539
S'Mozilla/5.0 (compatible; MSIE 9.0; Windows NT 6.1; Trident/5.0)'
p2540
asbasbasbag61
(g77
g63
NtRp2541
(dp2542
g66
(dp2543
sg75
g2121
sg68
(lp2544
g61
(g82
g63
NtRp2545
(dp2546
g66
(dp2547
g86
g87
ssg75
g2541
sg68
(lp2548
S'is_jython'
p2549
asbag61
(g82
g63
NtRp2550
(dp2551
g66
(dp2552
g93
g94
ssg75
g2541
sg68
(lp2553
S':'
asbag61
(g82
g63
NtRp2554
(dp2555
g66
(dp2556
sg75
g2541
sg68
(lp2557
g61
(g62
g63
NtRp2558
(dp2559
g66
(dp2560
g74
I4
ssg75
g2554
sg68
(lp2561
g104
asbasbasbag61
(g77
g63
NtRp2562
(dp2563
g66
(dp2564
sg75
g2121
sg68
(lp2565
g61
(g82
g63
NtRp2566
(dp2567
g66
(dp2568
g86
g87
ssg75
g2562
sg68
(lp2569
S'mod_wsgi_application_group'
p2570
asbag61
(g82
g63
NtRp2571
(dp2572
g66
(dp2573
g93
g94
ssg75
g2562
sg68
(lp2574
S':'
asbag61
(g82
g63
NtRp2575
(dp2576
g66
(dp2577
sg75
g2562
sg68
(lp2578
g61
(g62
g63
NtRp2579
(dp2580
g66
(dp2581
g74
I4
ssg75
g2575
sg68
(lp2582
S'XIAOFTANG-NB.tencent.com|'
p2583
asbasbasbag61
(g77
g63
NtRp2584
(dp2585
g66
(dp2586
sg75
g2121
sg68
(lp2587
g61
(g82
g63
NtRp2588
(dp2589
g66
(dp2590
g86
g87
ssg75
g2584
sg68
(lp2591
S'mod_wsgi_callable_object'
p2592
asbag61
(g82
g63
NtRp2593
(dp2594
g66
(dp2595
g93
g94
ssg75
g2584
sg68
(lp2596
S':'
asbag61
(g82
g63
NtRp2597
(dp2598
g66
(dp2599
sg75
g2584
sg68
(lp2600
g61
(g62
g63
NtRp2601
(dp2602
g66
(dp2603
g74
I4
ssg75
g2597
sg68
(lp2604
S'application'
p2605
asbasbasbag61
(g77
g63
NtRp2606
(dp2607
g66
(dp2608
sg75
g2121
sg68
(lp2609
g61
(g82
g63
NtRp2610
(dp2611
g66
(dp2612
g86
g87
ssg75
g2606
sg68
(lp2613
S'mod_wsgi_handler_script'
p2614
asbag61
(g82
g63
NtRp2615
(dp2616
g66
(dp2617
g93
g94
ssg75
g2606
sg68
(lp2618
S':'
asbag61
(g82
g63
NtRp2619
(dp2620
g66
(dp2621
sg75
g2606
sg68
(lp2622
g61
(g62
g63
NtRp2623
(dp2624
g66
(dp2625
g74
I4
ssg75
g2619
sg68
(lp2626
S''
asbasbasbag61
(g77
g63
NtRp2627
(dp2628
g66
(dp2629
sg75
g2121
sg68
(lp2630
g61
(g82
g63
NtRp2631
(dp2632
g66
(dp2633
g86
g87
ssg75
g2627
sg68
(lp2634
S'mod_wsgi_input_chunked'
p2635
asbag61
(g82
g63
NtRp2636
(dp2637
g66
(dp2638
g93
g94
ssg75
g2627
sg68
(lp2639
S':'
asbag61
(g82
g63
NtRp2640
(dp2641
g66
(dp2642
sg75
g2627
sg68
(lp2643
g61
(g62
g63
NtRp2644
(dp2645
g66
(dp2646
g74
I4
ssg75
g2640
sg68
(lp2647
S'0'
asbasbasbag61
(g77
g63
NtRp2648
(dp2649
g66
(dp2650
sg75
g2121
sg68
(lp2651
g61
(g82
g63
NtRp2652
(dp2653
g66
(dp2654
g86
g87
ssg75
g2648
sg68
(lp2655
S'mod_wsgi_process_group'
p2656
asbag61
(g82
g63
NtRp2657
(dp2658
g66
(dp2659
g93
g94
ssg75
g2648
sg68
(lp2660
S':'
asbag61
(g82
g63
NtRp2661
(dp2662
g66
(dp2663
sg75
g2648
sg68
(lp2664
g61
(g62
g63
NtRp2665
(dp2666
g66
(dp2667
g74
I4
ssg75
g2661
sg68
(lp2668
S''
asbasbasbag61
(g77
g63
NtRp2669
(dp2670
g66
(dp2671
sg75
g2121
sg68
(lp2672
g61
(g82
g63
NtRp2673
(dp2674
g66
(dp2675
g86
g87
ssg75
g2669
sg68
(lp2676
S'mod_wsgi_request_handler'
p2677
asbag61
(g82
g63
NtRp2678
(dp2679
g66
(dp2680
g93
g94
ssg75
g2669
sg68
(lp2681
S':'
asbag61
(g82
g63
NtRp2682
(dp2683
g66
(dp2684
sg75
g2669
sg68
(lp2685
g61
(g62
g63
NtRp2686
(dp2687
g66
(dp2688
g74
I4
ssg75
g2682
sg68
(lp2689
S'wsgi-script'
p2690
asbasbasbag61
(g77
g63
NtRp2691
(dp2692
g66
(dp2693
sg75
g2121
sg68
(lp2694
g61
(g82
g63
NtRp2695
(dp2696
g66
(dp2697
g86
g87
ssg75
g2691
sg68
(lp2698
S'mod_wsgi_script_reloading'
p2699
asbag61
(g82
g63
NtRp2700
(dp2701
g66
(dp2702
g93
g94
ssg75
g2691
sg68
(lp2703
S':'
asbag61
(g82
g63
NtRp2704
(dp2705
g66
(dp2706
sg75
g2691
sg68
(lp2707
g61
(g62
g63
NtRp2708
(dp2709
g66
(dp2710
g74
I4
ssg75
g2704
sg68
(lp2711
S'1'
asbasbasbag61
(g77
g63
NtRp2712
(dp2713
g66
(dp2714
sg75
g2121
sg68
(lp2715
g61
(g82
g63
NtRp2716
(dp2717
g66
(dp2718
g86
g87
ssg75
g2712
sg68
(lp2719
S'mod_wsgi_version'
p2720
asbag61
(g82
g63
NtRp2721
(dp2722
g66
(dp2723
g93
g94
ssg75
g2712
sg68
(lp2724
S':'
asbag61
(g82
g63
NtRp2725
(dp2726
g66
(dp2727
sg75
g2712
sg68
(lp2728
g61
(g62
g63
NtRp2729
(dp2730
g66
(dp2731
g74
I4
ssg75
g2725
sg68
(lp2732
g61
(g70
g63
NtRp2733
(dp2734
g66
(dp2735
g74
I3
ssg75
Nsg68
(lp2736
g61
(g77
g63
NtRp2737
(dp2738
g66
(dp2739
sg75
g2733
sg68
(lp2740
g61
(g82
g63
NtRp2741
(dp2742
g66
(dp2743
sg75
g2737
sg68
(lp2744
g61
(g62
g63
NtRp2745
(dp2746
g66
(dp2747
g74
I3
ssg75
g2741
sg68
(lp2748
S'3'
asbasbasbag61
(g77
g63
NtRp2749
(dp2750
g66
(dp2751
sg75
g2733
sg68
(lp2752
g61
(g82
g63
NtRp2753
(dp2754
g66
(dp2755
sg75
g2749
sg68
(lp2756
g61
(g62
g63
NtRp2757
(dp2758
g66
(dp2759
g74
I3
ssg75
g2753
sg68
(lp2760
S'3'
asbasbasbasbasbasbasbag61
(g77
g63
NtRp2761
(dp2762
g66
(dp2763
sg75
g2121
sg68
(lp2764
g61
(g82
g63
NtRp2765
(dp2766
g66
(dp2767
g86
g87
ssg75
g2761
sg68
(lp2768
S'path_info'
p2769
asbag61
(g82
g63
NtRp2770
(dp2771
g66
(dp2772
g93
g94
ssg75
g2761
sg68
(lp2773
S':'
asbag61
(g82
g63
NtRp2774
(dp2775
g66
(dp2776
sg75
g2761
sg68
(lp2777
g61
(g62
g63
NtRp2778
(dp2779
g66
(dp2780
g74
I4
ssg75
g2774
sg68
(lp2781
S'/examples/transform/upload'
p2782
asbasbasbag61
(g77
g63
NtRp2783
(dp2784
g66
(dp2785
sg75
g2121
sg68
(lp2786
g61
(g82
g63
NtRp2787
(dp2788
g66
(dp2789
g86
g87
ssg75
g2783
sg68
(lp2790
S'path_translated'
p2791
asbag61
(g82
g63
NtRp2792
(dp2793
g66
(dp2794
g93
g94
ssg75
g2783
sg68
(lp2795
S':'
asbag61
(g82
g63
NtRp2796
(dp2797
g66
(dp2798
sg75
g2783
sg68
(lp2799
g61
(g62
g63
NtRp2800
(dp2801
g66
(dp2802
g74
I4
ssg75
g2796
sg68
(lp2803
S'D:\\Workbench\\private\\web2py_src\\wsgihandler.py\\examples\\transform\\upload'
p2804
asbasbasbag61
(g77
g63
NtRp2805
(dp2806
g66
(dp2807
sg75
g2121
sg68
(lp2808
g61
(g82
g63
NtRp2809
(dp2810
g66
(dp2811
g86
g87
ssg75
g2805
sg68
(lp2812
S'pathext'
p2813
asbag61
(g82
g63
NtRp2814
(dp2815
g66
(dp2816
g93
g94
ssg75
g2805
sg68
(lp2817
S':'
asbag61
(g82
g63
NtRp2818
(dp2819
g66
(dp2820
sg75
g2805
sg68
(lp2821
g61
(g62
g63
NtRp2822
(dp2823
g66
(dp2824
g74
I4
ssg75
g2818
sg68
(lp2825
S'.COM;.EXE;.BAT;.CMD;.VBS;.VBE;.JS;.JSE;.WSF;.WSH;.MSC;.py;.pyw'
p2826
asbasbasbag61
(g77
g63
NtRp2827
(dp2828
g66
(dp2829
sg75
g2121
sg68
(lp2830
g61
(g82
g63
NtRp2831
(dp2832
g66
(dp2833
g86
g87
ssg75
g2827
sg68
(lp2834
S'query_string'
p2835
asbag61
(g82
g63
NtRp2836
(dp2837
g66
(dp2838
g93
g94
ssg75
g2827
sg68
(lp2839
S':'
asbag61
(g82
g63
NtRp2840
(dp2841
g66
(dp2842
sg75
g2827
sg68
(lp2843
g61
(g62
g63
NtRp2844
(dp2845
g66
(dp2846
g74
I4
ssg75
g2840
sg68
(lp2847
S''
asbasbasbag61
(g77
g63
NtRp2848
(dp2849
g66
(dp2850
sg75
g2121
sg68
(lp2851
g61
(g82
g63
NtRp2852
(dp2853
g66
(dp2854
g86
g87
ssg75
g2848
sg68
(lp2855
S'remote_addr'
p2856
asbag61
(g82
g63
NtRp2857
(dp2858
g66
(dp2859
g93
g94
ssg75
g2848
sg68
(lp2860
S':'
asbag61
(g82
g63
NtRp2861
(dp2862
g66
(dp2863
sg75
g2848
sg68
(lp2864
g61
(g62
g63
NtRp2865
(dp2866
g66
(dp2867
g74
I4
ssg75
g2861
sg68
(lp2868
g194
asbasbasbag61
(g77
g63
NtRp2869
(dp2870
g66
(dp2871
sg75
g2121
sg68
(lp2872
g61
(g82
g63
NtRp2873
(dp2874
g66
(dp2875
g86
g87
ssg75
g2869
sg68
(lp2876
S'remote_port'
p2877
asbag61
(g82
g63
NtRp2878
(dp2879
g66
(dp2880
g93
g94
ssg75
g2869
sg68
(lp2881
S':'
asbag61
(g82
g63
NtRp2882
(dp2883
g66
(dp2884
sg75
g2869
sg68
(lp2885
g61
(g62
g63
NtRp2886
(dp2887
g66
(dp2888
g74
I4
ssg75
g2882
sg68
(lp2889
S'52805'
p2890
asbasbasbag61
(g77
g63
NtRp2891
(dp2892
g66
(dp2893
sg75
g2121
sg68
(lp2894
g61
(g82
g63
NtRp2895
(dp2896
g66
(dp2897
g86
g87
ssg75
g2891
sg68
(lp2898
S'request_method'
p2899
asbag61
(g82
g63
NtRp2900
(dp2901
g66
(dp2902
g93
g94
ssg75
g2891
sg68
(lp2903
S':'
asbag61
(g82
g63
NtRp2904
(dp2905
g66
(dp2906
sg75
g2891
sg68
(lp2907
g61
(g62
g63
NtRp2908
(dp2909
g66
(dp2910
g74
I4
ssg75
g2904
sg68
(lp2911
S'POST'
p2912
asbasbasbag61
(g77
g63
NtRp2913
(dp2914
g66
(dp2915
sg75
g2121
sg68
(lp2916
g61
(g82
g63
NtRp2917
(dp2918
g66
(dp2919
g86
g87
ssg75
g2913
sg68
(lp2920
S'request_uri'
p2921
asbag61
(g82
g63
NtRp2922
(dp2923
g66
(dp2924
g93
g94
ssg75
g2913
sg68
(lp2925
S':'
asbag61
(g82
g63
NtRp2926
(dp2927
g66
(dp2928
sg75
g2913
sg68
(lp2929
g61
(g62
g63
NtRp2930
(dp2931
g66
(dp2932
g74
I4
ssg75
g2926
sg68
(lp2933
S'/examples/transform/upload'
p2934
asbasbasbag61
(g77
g63
NtRp2935
(dp2936
g66
(dp2937
sg75
g2121
sg68
(lp2938
g61
(g82
g63
NtRp2939
(dp2940
g66
(dp2941
g86
g87
ssg75
g2935
sg68
(lp2942
S'script_filename'
p2943
asbag61
(g82
g63
NtRp2944
(dp2945
g66
(dp2946
g93
g94
ssg75
g2935
sg68
(lp2947
S':'
asbag61
(g82
g63
NtRp2948
(dp2949
g66
(dp2950
sg75
g2935
sg68
(lp2951
g61
(g62
g63
NtRp2952
(dp2953
g66
(dp2954
g74
I4
ssg75
g2948
sg68
(lp2955
S'D:/Workbench/private/web2py_src/wsgihandler.py'
p2956
asbasbasbag61
(g77
g63
NtRp2957
(dp2958
g66
(dp2959
sg75
g2121
sg68
(lp2960
g61
(g82
g63
NtRp2961
(dp2962
g66
(dp2963
g86
g87
ssg75
g2957
sg68
(lp2964
S'script_name'
p2965
asbag61
(g82
g63
NtRp2966
(dp2967
g66
(dp2968
g93
g94
ssg75
g2957
sg68
(lp2969
S':'
asbag61
(g82
g63
NtRp2970
(dp2971
g66
(dp2972
sg75
g2957
sg68
(lp2973
g61
(g62
g63
NtRp2974
(dp2975
g66
(dp2976
g74
I4
ssg75
g2970
sg68
(lp2977
S''
asbasbasbag61
(g77
g63
NtRp2978
(dp2979
g66
(dp2980
sg75
g2121
sg68
(lp2981
g61
(g82
g63
NtRp2982
(dp2983
g66
(dp2984
g86
g87
ssg75
g2978
sg68
(lp2985
S'server_addr'
p2986
asbag61
(g82
g63
NtRp2987
(dp2988
g66
(dp2989
g93
g94
ssg75
g2978
sg68
(lp2990
S':'
asbag61
(g82
g63
NtRp2991
(dp2992
g66
(dp2993
sg75
g2978
sg68
(lp2994
g61
(g62
g63
NtRp2995
(dp2996
g66
(dp2997
g74
I4
ssg75
g2991
sg68
(lp2998
S'127.0.0.1'
p2999
asbasbasbag61
(g77
g63
NtRp3000
(dp3001
g66
(dp3002
sg75
g2121
sg68
(lp3003
g61
(g82
g63
NtRp3004
(dp3005
g66
(dp3006
g86
g87
ssg75
g3000
sg68
(lp3007
S'server_admin'
p3008
asbag61
(g82
g63
NtRp3009
(dp3010
g66
(dp3011
g93
g94
ssg75
g3000
sg68
(lp3012
S':'
asbag61
(g82
g63
NtRp3013
(dp3014
g66
(dp3015
sg75
g3000
sg68
(lp3016
g61
(g62
g63
NtRp3017
(dp3018
g66
(dp3019
g74
I4
ssg75
g3013
sg68
(lp3020
S'admin@tencent.com'
p3021
asbasbasbag61
(g77
g63
NtRp3022
(dp3023
g66
(dp3024
sg75
g2121
sg68
(lp3025
g61
(g82
g63
NtRp3026
(dp3027
g66
(dp3028
g86
g87
ssg75
g3022
sg68
(lp3029
S'server_name'
p3030
asbag61
(g82
g63
NtRp3031
(dp3032
g66
(dp3033
g93
g94
ssg75
g3022
sg68
(lp3034
S':'
asbag61
(g82
g63
NtRp3035
(dp3036
g66
(dp3037
sg75
g3022
sg68
(lp3038
g61
(g62
g63
NtRp3039
(dp3040
g66
(dp3041
g74
I4
ssg75
g3035
sg68
(lp3042
S'tgtoolbox.qq.com'
p3043
asbasbasbag61
(g77
g63
NtRp3044
(dp3045
g66
(dp3046
sg75
g2121
sg68
(lp3047
g61
(g82
g63
NtRp3048
(dp3049
g66
(dp3050
g86
g87
ssg75
g3044
sg68
(lp3051
S'server_port'
p3052
asbag61
(g82
g63
NtRp3053
(dp3054
g66
(dp3055
g93
g94
ssg75
g3044
sg68
(lp3056
S':'
asbag61
(g82
g63
NtRp3057
(dp3058
g66
(dp3059
sg75
g3044
sg68
(lp3060
g61
(g62
g63
NtRp3061
(dp3062
g66
(dp3063
g74
I4
ssg75
g3057
sg68
(lp3064
S'80'
p3065
asbasbasbag61
(g77
g63
NtRp3066
(dp3067
g66
(dp3068
sg75
g2121
sg68
(lp3069
g61
(g82
g63
NtRp3070
(dp3071
g66
(dp3072
g86
g87
ssg75
g3066
sg68
(lp3073
S'server_protocol'
p3074
asbag61
(g82
g63
NtRp3075
(dp3076
g66
(dp3077
g93
g94
ssg75
g3066
sg68
(lp3078
S':'
asbag61
(g82
g63
NtRp3079
(dp3080
g66
(dp3081
sg75
g3066
sg68
(lp3082
g61
(g62
g63
NtRp3083
(dp3084
g66
(dp3085
g74
I4
ssg75
g3079
sg68
(lp3086
S'HTTP/1.1'
p3087
asbasbasbag61
(g77
g63
NtRp3088
(dp3089
g66
(dp3090
sg75
g2121
sg68
(lp3091
g61
(g82
g63
NtRp3092
(dp3093
g66
(dp3094
g86
g87
ssg75
g3088
sg68
(lp3095
S'server_signature'
p3096
asbag61
(g82
g63
NtRp3097
(dp3098
g66
(dp3099
g93
g94
ssg75
g3088
sg68
(lp3100
S':'
asbag61
(g82
g63
NtRp3101
(dp3102
g66
(dp3103
sg75
g3088
sg68
(lp3104
g61
(g62
g63
NtRp3105
(dp3106
g66
(dp3107
g74
I4
ssg75
g3101
sg68
(lp3108
S''
asbasbasbag61
(g77
g63
NtRp3109
(dp3110
g66
(dp3111
sg75
g2121
sg68
(lp3112
g61
(g82
g63
NtRp3113
(dp3114
g66
(dp3115
g86
g87
ssg75
g3109
sg68
(lp3116
S'server_software'
p3117
asbag61
(g82
g63
NtRp3118
(dp3119
g66
(dp3120
g93
g94
ssg75
g3109
sg68
(lp3121
S':'
asbag61
(g82
g63
NtRp3122
(dp3123
g66
(dp3124
sg75
g3109
sg68
(lp3125
g61
(g62
g63
NtRp3126
(dp3127
g66
(dp3128
g74
I4
ssg75
g3122
sg68
(lp3129
S'Apache/2.2.21 (Win32) PHP/5.2.17 mod_wsgi/3.3 Python/2.7.2'
p3130
asbasbasbag61
(g77
g63
NtRp3131
(dp3132
g66
(dp3133
sg75
g2121
sg68
(lp3134
g61
(g82
g63
NtRp3135
(dp3136
g66
(dp3137
g86
g87
ssg75
g3131
sg68
(lp3138
S'systemroot'
p3139
asbag61
(g82
g63
NtRp3140
(dp3141
g66
(dp3142
g93
g94
ssg75
g3131
sg68
(lp3143
S':'
asbag61
(g82
g63
NtRp3144
(dp3145
g66
(dp3146
sg75
g3131
sg68
(lp3147
g61
(g62
g63
NtRp3148
(dp3149
g66
(dp3150
g74
I4
ssg75
g3144
sg68
(lp3151
S'C:\\Windows'
p3152
asbasbasbag61
(g77
g63
NtRp3153
(dp3154
g66
(dp3155
sg75
g2121
sg68
(lp3156
g61
(g82
g63
NtRp3157
(dp3158
g66
(dp3159
g86
g87
ssg75
g3153
sg68
(lp3160
S'web2py_path'
p3161
asbag61
(g82
g63
NtRp3162
(dp3163
g66
(dp3164
g93
g94
ssg75
g3153
sg68
(lp3165
S':'
asbag61
(g82
g63
NtRp3166
(dp3167
g66
(dp3168
sg75
g3153
sg68
(lp3169
g61
(g62
g63
NtRp3170
(dp3171
g66
(dp3172
g74
I4
ssg75
g3166
sg68
(lp3173
g2168
asbasbasbag61
(g77
g63
NtRp3174
(dp3175
g66
(dp3176
sg75
g2121
sg68
(lp3177
g61
(g82
g63
NtRp3178
(dp3179
g66
(dp3180
g86
g87
ssg75
g3174
sg68
(lp3181
S'web2py_version'
p3182
asbag61
(g82
g63
NtRp3183
(dp3184
g66
(dp3185
g93
g94
ssg75
g3174
sg68
(lp3186
S':'
asbag61
(g82
g63
NtRp3187
(dp3188
g66
(dp3189
sg75
g3174
sg68
(lp3190
g61
(g62
g63
NtRp3191
(dp3192
g66
(dp3193
g74
I4
ssg75
g3187
sg68
(lp3194
g61
(g70
g63
NtRp3195
(dp3196
g66
(dp3197
g74
I3
ssg75
Nsg68
(lp3198
g61
(g77
g63
NtRp3199
(dp3200
g66
(dp3201
sg75
g3195
sg68
(lp3202
g61
(g82
g63
NtRp3203
(dp3204
g66
(dp3205
sg75
g3199
sg68
(lp3206
g61
(g62
g63
NtRp3207
(dp3208
g66
(dp3209
g74
I3
ssg75
g3203
sg68
(lp3210
S'1'
asbasbasbag61
(g77
g63
NtRp3211
(dp3212
g66
(dp3213
sg75
g3195
sg68
(lp3214
g61
(g82
g63
NtRp3215
(dp3216
g66
(dp3217
sg75
g3211
sg68
(lp3218
g61
(g62
g63
NtRp3219
(dp3220
g66
(dp3221
g74
I3
ssg75
g3215
sg68
(lp3222
S'99'
p3223
asbasbasbag61
(g77
g63
NtRp3224
(dp3225
g66
(dp3226
sg75
g3195
sg68
(lp3227
g61
(g82
g63
NtRp3228
(dp3229
g66
(dp3230
sg75
g3224
sg68
(lp3231
g61
(g62
g63
NtRp3232
(dp3233
g66
(dp3234
g74
I3
ssg75
g3228
sg68
(lp3235
S'2'
asbasbasbag61
(g77
g63
NtRp3236
(dp3237
g66
(dp3238
sg75
g3195
sg68
(lp3239
g61
(g82
g63
NtRp3240
(dp3241
g66
(dp3242
sg75
g3236
sg68
(lp3243
g61
(g62
g63
NtRp3244
(dp3245
g66
(dp3246
g74
I3
ssg75
g3240
sg68
(lp3247
S'datetime.datetime(2011, 9, 26, 6, 55, 33)'
p3248
asbasbasbag61
(g77
g63
NtRp3249
(dp3250
g66
(dp3251
sg75
g3195
sg68
(lp3252
g61
(g82
g63
NtRp3253
(dp3254
g66
(dp3255
sg75
g3249
sg68
(lp3256
g61
(g62
g63
NtRp3257
(dp3258
g66
(dp3259
g74
I3
ssg75
g3253
sg68
(lp3260
S'stable'
p3261
asbasbasbasbasbasbasbag61
(g77
g63
NtRp3262
(dp3263
g66
(dp3264
sg75
g2121
sg68
(lp3265
g61
(g82
g63
NtRp3266
(dp3267
g66
(dp3268
g86
g87
ssg75
g3262
sg68
(lp3269
S'windir'
p3270
asbag61
(g82
g63
NtRp3271
(dp3272
g66
(dp3273
g93
g94
ssg75
g3262
sg68
(lp3274
S':'
asbag61
(g82
g63
NtRp3275
(dp3276
g66
(dp3277
sg75
g3262
sg68
(lp3278
g61
(g62
g63
NtRp3279
(dp3280
g66
(dp3281
g74
I4
ssg75
g3275
sg68
(lp3282
S'C:\\Windows'
p3283
asbasbasbag61
(g77
g63
NtRp3284
(dp3285
g66
(dp3286
sg75
g2121
sg68
(lp3287
g61
(g82
g63
NtRp3288
(dp3289
g66
(dp3290
g86
g87
ssg75
g3284
sg68
(lp3291
S'wsgi_errors'
p3292
asbag61
(g82
g63
NtRp3293
(dp3294
g66
(dp3295
g93
g94
ssg75
g3284
sg68
(lp3296
S':'
asbag61
(g82
g63
NtRp3297
(dp3298
g66
(dp3299
sg75
g3284
sg68
(lp3300
g61
(g62
g63
NtRp3301
(dp3302
g66
(dp3303
g74
I4
ssg75
g3297
sg68
(lp3304
S'<mod_wsgi.Log object at 0x03E084A8>'
p3305
asbasbasbag61
(g77
g63
NtRp3306
(dp3307
g66
(dp3308
sg75
g2121
sg68
(lp3309
g61
(g82
g63
NtRp3310
(dp3311
g66
(dp3312
g86
g87
ssg75
g3306
sg68
(lp3313
S'wsgi_file_wrapper'
p3314
asbag61
(g82
g63
NtRp3315
(dp3316
g66
(dp3317
g93
g94
ssg75
g3306
sg68
(lp3318
S':'
asbag61
(g82
g63
NtRp3319
(dp3320
g66
(dp3321
sg75
g3306
sg68
(lp3322
g61
(g62
g63
NtRp3323
(dp3324
g66
(dp3325
g74
I4
ssg75
g3319
sg68
(lp3326
S'<built-in method file_wrapper of mod_wsgi.Adapter object at 0x03E13068>'
p3327
asbasbasbag61
(g77
g63
NtRp3328
(dp3329
g66
(dp3330
sg75
g2121
sg68
(lp3331
g61
(g82
g63
NtRp3332
(dp3333
g66
(dp3334
g86
g87
ssg75
g3328
sg68
(lp3335
S'wsgi_input'
p3336
asbag61
(g82
g63
NtRp3337
(dp3338
g66
(dp3339
g93
g94
ssg75
g3328
sg68
(lp3340
S':'
asbag61
(g82
g63
NtRp3341
(dp3342
g66
(dp3343
sg75
g3328
sg68
(lp3344
g61
(g62
g63
NtRp3345
(dp3346
g66
(dp3347
g74
I4
ssg75
g3341
sg68
(lp3348
S'<mod_wsgi.Input object at 0x03E08E08>'
p3349
asbasbasbag61
(g77
g63
NtRp3350
(dp3351
g66
(dp3352
sg75
g2121
sg68
(lp3353
g61
(g82
g63
NtRp3354
(dp3355
g66
(dp3356
g86
g87
ssg75
g3350
sg68
(lp3357
S'wsgi_multiprocess'
p3358
asbag61
(g82
g63
NtRp3359
(dp3360
g66
(dp3361
g93
g94
ssg75
g3350
sg68
(lp3362
S':'
asbag61
(g82
g63
NtRp3363
(dp3364
g66
(dp3365
sg75
g3350
sg68
(lp3366
g61
(g62
g63
NtRp3367
(dp3368
g66
(dp3369
g74
I4
ssg75
g3363
sg68
(lp3370
g104
asbasbasbag61
(g77
g63
NtRp3371
(dp3372
g66
(dp3373
sg75
g2121
sg68
(lp3374
g61
(g82
g63
NtRp3375
(dp3376
g66
(dp3377
g86
g87
ssg75
g3371
sg68
(lp3378
S'wsgi_multithread'
p3379
asbag61
(g82
g63
NtRp3380
(dp3381
g66
(dp3382
g93
g94
ssg75
g3371
sg68
(lp3383
S':'
asbag61
(g82
g63
NtRp3384
(dp3385
g66
(dp3386
sg75
g3371
sg68
(lp3387
g61
(g62
g63
NtRp3388
(dp3389
g66
(dp3390
g74
I4
ssg75
g3384
sg68
(lp3391
S'True'
p3392
asbasbasbag61
(g77
g63
NtRp3393
(dp3394
g66
(dp3395
sg75
g2121
sg68
(lp3396
g61
(g82
g63
NtRp3397
(dp3398
g66
(dp3399
g86
g87
ssg75
g3393
sg68
(lp3400
S'wsgi_run_once'
p3401
asbag61
(g82
g63
NtRp3402
(dp3403
g66
(dp3404
g93
g94
ssg75
g3393
sg68
(lp3405
S':'
asbag61
(g82
g63
NtRp3406
(dp3407
g66
(dp3408
sg75
g3393
sg68
(lp3409
g61
(g62
g63
NtRp3410
(dp3411
g66
(dp3412
g74
I4
ssg75
g3406
sg68
(lp3413
g104
asbasbasbag61
(g77
g63
NtRp3414
(dp3415
g66
(dp3416
sg75
g2121
sg68
(lp3417
g61
(g82
g63
NtRp3418
(dp3419
g66
(dp3420
g86
g87
ssg75
g3414
sg68
(lp3421
S'wsgi_url_scheme'
p3422
asbag61
(g82
g63
NtRp3423
(dp3424
g66
(dp3425
g93
g94
ssg75
g3414
sg68
(lp3426
S':'
asbag61
(g82
g63
NtRp3427
(dp3428
g66
(dp3429
sg75
g3414
sg68
(lp3430
g61
(g62
g63
NtRp3431
(dp3432
g66
(dp3433
g74
I4
ssg75
g3427
sg68
(lp3434
S'http'
p3435
asbasbasbag61
(g77
g63
NtRp3436
(dp3437
g66
(dp3438
sg75
g2121
sg68
(lp3439
g61
(g82
g63
NtRp3440
(dp3441
g66
(dp3442
g86
g87
ssg75
g3436
sg68
(lp3443
S'wsgi_version'
p3444
asbag61
(g82
g63
NtRp3445
(dp3446
g66
(dp3447
g93
g94
ssg75
g3436
sg68
(lp3448
S':'
asbag61
(g82
g63
NtRp3449
(dp3450
g66
(dp3451
sg75
g3436
sg68
(lp3452
g61
(g62
g63
NtRp3453
(dp3454
g66
(dp3455
g74
I4
ssg75
g3449
sg68
(lp3456
g61
(g70
g63
NtRp3457
(dp3458
g66
(dp3459
g74
I3
ssg75
Nsg68
(lp3460
g61
(g77
g63
NtRp3461
(dp3462
g66
(dp3463
sg75
g3457
sg68
(lp3464
g61
(g82
g63
NtRp3465
(dp3466
g66
(dp3467
sg75
g3461
sg68
(lp3468
g61
(g62
g63
NtRp3469
(dp3470
g66
(dp3471
g74
I3
ssg75
g3465
sg68
(lp3472
S'1'
asbasbasbag61
(g77
g63
NtRp3473
(dp3474
g66
(dp3475
sg75
g3457
sg68
(lp3476
g61
(g82
g63
NtRp3477
(dp3478
g66
(dp3479
sg75
g3473
sg68
(lp3480
g61
(g62
g63
NtRp3481
(dp3482
g66
(dp3483
g74
I3
ssg75
g3477
sg68
(lp3484
S'1'
asbasbasbasbasbasbasbasbasbasbasbag61
(g77
g63
NtRp3485
(dp3486
g66
(dp3487
sg75
g71
sg68
(lp3488
g61
(g82
g63
NtRp3489
(dp3490
g66
(dp3491
g86
g87
ssg75
g3485
sg68
(lp3492
S'extension'
p3493
asbag61
(g82
g63
NtRp3494
(dp3495
g66
(dp3496
g93
g94
ssg75
g3485
sg68
(lp3497
S':'
asbag61
(g82
g63
NtRp3498
(dp3499
g66
(dp3500
sg75
g3485
sg68
(lp3501
g61
(g62
g63
NtRp3502
(dp3503
g66
(dp3504
g74
I5
ssg75
g3498
sg68
(lp3505
S'html'
p3506
asbasbasbag61
(g77
g63
NtRp3507
(dp3508
g66
(dp3509
sg75
g71
sg68
(lp3510
g61
(g82
g63
NtRp3511
(dp3512
g66
(dp3513
g86
g87
ssg75
g3507
sg68
(lp3514
S'folder'
p3515
asbag61
(g82
g63
NtRp3516
(dp3517
g66
(dp3518
g93
g94
ssg75
g3507
sg68
(lp3519
S':'
asbag61
(g82
g63
NtRp3520
(dp3521
g66
(dp3522
sg75
g3507
sg68
(lp3523
g61
(g62
g63
NtRp3524
(dp3525
g66
(dp3526
g74
I5
ssg75
g3520
sg68
(lp3527
S'D:\\Workbench\\private\\web2py_src\\applications\\examples\\'
p3528
asbasbasbag61
(g77
g63
NtRp3529
(dp3530
g66
(dp3531
sg75
g71
sg68
(lp3532
g61
(g82
g63
NtRp3533
(dp3534
g66
(dp3535
g86
g87
ssg75
g3529
sg68
(lp3536
S'function'
p3537
asbag61
(g82
g63
NtRp3538
(dp3539
g66
(dp3540
g93
g94
ssg75
g3529
sg68
(lp3541
S':'
asbag61
(g82
g63
NtRp3542
(dp3543
g66
(dp3544
sg75
g3529
sg68
(lp3545
g61
(g62
g63
NtRp3546
(dp3547
g66
(dp3548
g74
I5
ssg75
g3542
sg68
(lp3549
S'upload'
p3550
asbasbasbag61
(g77
g63
NtRp3551
(dp3552
g66
(dp3553
sg75
g71
sg68
(lp3554
g61
(g82
g63
NtRp3555
(dp3556
g66
(dp3557
g86
g87
ssg75
g3551
sg68
(lp3558
S'get_vars'
p3559
asbag61
(g82
g63
NtRp3560
(dp3561
g66
(dp3562
g93
g94
ssg75
g3551
sg68
(lp3563
S':'
asbag61
(g82
g63
NtRp3564
(dp3565
g66
(dp3566
sg75
g3551
sg68
(lp3567
g61
(g62
g63
NtRp3568
(dp3569
g66
(dp3570
g74
I5
ssg75
g3564
sg68
(lp3571
g61
(g70
g63
NtRp3572
(dp3573
g66
(dp3574
g74
I4
ssg75
Nsg68
(lp3575
sbasbasbasbag61
(g77
g63
NtRp3576
(dp3577
g66
(dp3578
sg75
g71
sg68
(lp3579
g61
(g82
g63
NtRp3580
(dp3581
g66
(dp3582
g86
g87
ssg75
g3576
sg68
(lp3583
S'global_settings'
p3584
asbag61
(g82
g63
NtRp3585
(dp3586
g66
(dp3587
g93
g94
ssg75
g3576
sg68
(lp3588
S':'
asbag61
(g82
g63
NtRp3589
(dp3590
g66
(dp3591
sg75
g3576
sg68
(lp3592
g61
(g62
g63
NtRp3593
(dp3594
g66
(dp3595
g74
I5
ssg75
g3589
sg68
(lp3596
g61
(g70
g63
NtRp3597
(dp3598
g66
(dp3599
g74
I4
ssg75
Nsg68
(lp3600
g61
(g77
g63
NtRp3601
(dp3602
g66
(dp3603
sg75
g3597
sg68
(lp3604
g61
(g82
g63
NtRp3605
(dp3606
g66
(dp3607
g86
g87
ssg75
g3601
sg68
(lp3608
g2133
asbag61
(g82
g63
NtRp3609
(dp3610
g66
(dp3611
g93
g94
ssg75
g3601
sg68
(lp3612
S':'
asbag61
(g82
g63
NtRp3613
(dp3614
g66
(dp3615
sg75
g3601
sg68
(lp3616
g61
(g62
g63
NtRp3617
(dp3618
g66
(dp3619
g74
I4
ssg75
g3613
sg68
(lp3620
S"set(['D:\\\\Workbench\\\\private\\\\web2py_src\\\\applications\\\\welcome\\\\', 'D:\\\\Workbench\\\\private\\\\web2py_src\\\\applications\\\\examples\\\\'])"
p3621
asbasbasbag61
(g77
g63
NtRp3622
(dp3623
g66
(dp3624
sg75
g3597
sg68
(lp3625
g61
(g82
g63
NtRp3626
(dp3627
g66
(dp3628
g86
g87
ssg75
g3622
sg68
(lp3629
g2155
asbag61
(g82
g63
NtRp3630
(dp3631
g66
(dp3632
g93
g94
ssg75
g3622
sg68
(lp3633
S':'
asbag61
(g82
g63
NtRp3634
(dp3635
g66
(dp3636
sg75
g3622
sg68
(lp3637
g61
(g62
g63
NtRp3638
(dp3639
g66
(dp3640
g74
I4
ssg75
g3634
sg68
(lp3641
g2168
asbasbasbag61
(g77
g63
NtRp3642
(dp3643
g66
(dp3644
sg75
g3597
sg68
(lp3645
g61
(g82
g63
NtRp3646
(dp3647
g66
(dp3648
g86
g87
ssg75
g3642
sg68
(lp3649
g2243
asbag61
(g82
g63
NtRp3650
(dp3651
g66
(dp3652
g93
g94
ssg75
g3642
sg68
(lp3653
S':'
asbag61
(g82
g63
NtRp3654
(dp3655
g66
(dp3656
sg75
g3642
sg68
(lp3657
g61
(g62
g63
NtRp3658
(dp3659
g66
(dp3660
g74
I4
ssg75
g3654
sg68
(lp3661
S'set([])'
p3662
asbasbasbag61
(g77
g63
NtRp3663
(dp3664
g66
(dp3665
sg75
g3597
sg68
(lp3666
g61
(g82
g63
NtRp3667
(dp3668
g66
(dp3669
g86
g87
ssg75
g3663
sg68
(lp3670
g2265
asbag61
(g82
g63
NtRp3671
(dp3672
g66
(dp3673
g93
g94
ssg75
g3663
sg68
(lp3674
S':'
asbag61
(g82
g63
NtRp3675
(dp3676
g66
(dp3677
sg75
g3663
sg68
(lp3678
g61
(g62
g63
NtRp3679
(dp3680
g66
(dp3681
g74
I4
ssg75
g3675
sg68
(lp3682
g104
asbasbasbag61
(g77
g63
NtRp3683
(dp3684
g66
(dp3685
sg75
g3597
sg68
(lp3686
g61
(g82
g63
NtRp3687
(dp3688
g66
(dp3689
g86
g87
ssg75
g3683
sg68
(lp3690
g2330
asbag61
(g82
g63
NtRp3691
(dp3692
g66
(dp3693
g93
g94
ssg75
g3683
sg68
(lp3694
S':'
asbag61
(g82
g63
NtRp3695
(dp3696
g66
(dp3697
sg75
g3683
sg68
(lp3698
g61
(g62
g63
NtRp3699
(dp3700
g66
(dp3701
g74
I4
ssg75
g3695
sg68
(lp3702
g2168
asbasbasbag61
(g77
g63
NtRp3703
(dp3704
g66
(dp3705
sg75
g3597
sg68
(lp3706
g61
(g82
g63
NtRp3707
(dp3708
g66
(dp3709
g86
g87
ssg75
g3703
sg68
(lp3710
g2549
asbag61
(g82
g63
NtRp3711
(dp3712
g66
(dp3713
g93
g94
ssg75
g3703
sg68
(lp3714
S':'
asbag61
(g82
g63
NtRp3715
(dp3716
g66
(dp3717
sg75
g3703
sg68
(lp3718
g61
(g62
g63
NtRp3719
(dp3720
g66
(dp3721
g74
I4
ssg75
g3715
sg68
(lp3722
g104
asbasbasbag61
(g77
g63
NtRp3723
(dp3724
g66
(dp3725
sg75
g3597
sg68
(lp3726
g61
(g82
g63
NtRp3727
(dp3728
g66
(dp3729
g86
g87
ssg75
g3723
sg68
(lp3730
g3182
asbag61
(g82
g63
NtRp3731
(dp3732
g66
(dp3733
g93
g94
ssg75
g3723
sg68
(lp3734
S':'
asbag61
(g82
g63
NtRp3735
(dp3736
g66
(dp3737
sg75
g3723
sg68
(lp3738
g61
(g62
g63
NtRp3739
(dp3740
g66
(dp3741
g74
I4
ssg75
g3735
sg68
(lp3742
g61
(g70
g63
NtRp3743
(dp3744
g66
(dp3745
g74
I3
ssg75
Nsg68
(lp3746
g61
(g77
g63
NtRp3747
(dp3748
g66
(dp3749
sg75
g3743
sg68
(lp3750
g61
(g82
g63
NtRp3751
(dp3752
g66
(dp3753
sg75
g3747
sg68
(lp3754
g61
(g62
g63
NtRp3755
(dp3756
g66
(dp3757
g74
I3
ssg75
g3751
sg68
(lp3758
S'1'
asbasbasbag61
(g77
g63
NtRp3759
(dp3760
g66
(dp3761
sg75
g3743
sg68
(lp3762
g61
(g82
g63
NtRp3763
(dp3764
g66
(dp3765
sg75
g3759
sg68
(lp3766
g61
(g62
g63
NtRp3767
(dp3768
g66
(dp3769
g74
I3
ssg75
g3763
sg68
(lp3770
S'99'
p3771
asbasbasbag61
(g77
g63
NtRp3772
(dp3773
g66
(dp3774
sg75
g3743
sg68
(lp3775
g61
(g82
g63
NtRp3776
(dp3777
g66
(dp3778
sg75
g3772
sg68
(lp3779
g61
(g62
g63
NtRp3780
(dp3781
g66
(dp3782
g74
I3
ssg75
g3776
sg68
(lp3783
S'2'
asbasbasbag61
(g77
g63
NtRp3784
(dp3785
g66
(dp3786
sg75
g3743
sg68
(lp3787
g61
(g82
g63
NtRp3788
(dp3789
g66
(dp3790
sg75
g3784
sg68
(lp3791
g61
(g62
g63
NtRp3792
(dp3793
g66
(dp3794
g74
I3
ssg75
g3788
sg68
(lp3795
S'datetime.datetime(2011, 9, 26, 6, 55, 33)'
p3796
asbasbasbag61
(g77
g63
NtRp3797
(dp3798
g66
(dp3799
sg75
g3743
sg68
(lp3800
g61
(g82
g63
NtRp3801
(dp3802
g66
(dp3803
sg75
g3797
sg68
(lp3804
g61
(g62
g63
NtRp3805
(dp3806
g66
(dp3807
g74
I3
ssg75
g3801
sg68
(lp3808
g3261
asbasbasbasbasbasbasbasbasbasbasbag61
(g77
g63
NtRp3809
(dp3810
g66
(dp3811
sg75
g71
sg68
(lp3812
g61
(g82
g63
NtRp3813
(dp3814
g66
(dp3815
g86
g87
ssg75
g3809
sg68
(lp3816
S'is_https'
p3817
asbag61
(g82
g63
NtRp3818
(dp3819
g66
(dp3820
g93
g94
ssg75
g3809
sg68
(lp3821
S':'
asbag61
(g82
g63
NtRp3822
(dp3823
g66
(dp3824
sg75
g3809
sg68
(lp3825
g61
(g62
g63
NtRp3826
(dp3827
g66
(dp3828
g74
I5
ssg75
g3822
sg68
(lp3829
g104
asbasbasbag61
(g77
g63
NtRp3830
(dp3831
g66
(dp3832
sg75
g71
sg68
(lp3833
g61
(g82
g63
NtRp3834
(dp3835
g66
(dp3836
g86
g87
ssg75
g3830
sg68
(lp3837
S'is_local'
p3838
asbag61
(g82
g63
NtRp3839
(dp3840
g66
(dp3841
g93
g94
ssg75
g3830
sg68
(lp3842
S':'
asbag61
(g82
g63
NtRp3843
(dp3844
g66
(dp3845
sg75
g3830
sg68
(lp3846
g61
(g62
g63
NtRp3847
(dp3848
g66
(dp3849
g74
I5
ssg75
g3843
sg68
(lp3850
g3392
asbasbasbag61
(g77
g63
NtRp3851
(dp3852
g66
(dp3853
sg75
g71
sg68
(lp3854
g61
(g82
g63
NtRp3855
(dp3856
g66
(dp3857
g86
g87
ssg75
g3851
sg68
(lp3858
S'is_restful'
p3859
asbag61
(g82
g63
NtRp3860
(dp3861
g66
(dp3862
g93
g94
ssg75
g3851
sg68
(lp3863
S':'
asbag61
(g82
g63
NtRp3864
(dp3865
g66
(dp3866
sg75
g3851
sg68
(lp3867
g61
(g62
g63
NtRp3868
(dp3869
g66
(dp3870
g74
I5
ssg75
g3864
sg68
(lp3871
g104
asbasbasbag61
(g77
g63
NtRp3872
(dp3873
g66
(dp3874
sg75
g71
sg68
(lp3875
g61
(g82
g63
NtRp3876
(dp3877
g66
(dp3878
g86
g87
ssg75
g3872
sg68
(lp3879
S'now'
p3880
asbag61
(g82
g63
NtRp3881
(dp3882
g66
(dp3883
g93
g94
ssg75
g3872
sg68
(lp3884
S':'
asbag61
(g82
g63
NtRp3885
(dp3886
g66
(dp3887
sg75
g3872
sg68
(lp3888
g61
(g62
g63
NtRp3889
(dp3890
g66
(dp3891
g74
I5
ssg75
g3885
sg68
(lp3892
S'datetime.datetime(2012, 3, 10, 20, 13, 29, 682000)'
p3893
asbasbasbag61
(g77
g63
NtRp3894
(dp3895
g66
(dp3896
sg75
g71
sg68
(lp3897
g61
(g82
g63
NtRp3898
(dp3899
g66
(dp3900
g86
g87
ssg75
g3894
sg68
(lp3901
S'post_vars'
p3902
asbag61
(g82
g63
NtRp3903
(dp3904
g66
(dp3905
g93
g94
ssg75
g3894
sg68
(lp3906
S':'
asbag61
(g82
g63
NtRp3907
(dp3908
g66
(dp3909
sg75
g3894
sg68
(lp3910
g61
(g62
g63
NtRp3911
(dp3912
g66
(dp3913
g74
I5
ssg75
g3907
sg68
(lp3914
g61
(g70
g63
NtRp3915
(dp3916
g66
(dp3917
g74
I4
ssg75
Nsg68
(lp3918
g61
(g77
g63
NtRp3919
(dp3920
g66
(dp3921
sg75
g3915
sg68
(lp3922
g61
(g82
g63
NtRp3923
(dp3924
g66
(dp3925
g86
g87
ssg75
g3919
sg68
(lp3926
S'myfile'
p3927
asbag61
(g82
g63
NtRp3928
(dp3929
g66
(dp3930
g93
g94
ssg75
g3919
sg68
(lp3931
S':'
asbag61
(g82
g63
NtRp3932
(dp3933
g66
(dp3934
sg75
g3919
sg68
(lp3935
g61
(g62
g63
NtRp3936
(dp3937
g66
(dp3938
g74
I4
ssg75
g3932
sg68
(lp3939
S'FieldStorage object'
p3940
asbasbasbasbasbasbasbag61
(g77
g63
NtRp3941
(dp3942
g66
(dp3943
sg75
g71
sg68
(lp3944
g61
(g82
g63
NtRp3945
(dp3946
g66
(dp3947
g86
g87
ssg75
g3941
sg68
(lp3948
S'url'
p3949
asbag61
(g82
g63
NtRp3950
(dp3951
g66
(dp3952
g93
g94
ssg75
g3941
sg68
(lp3953
S':'
asbag61
(g82
g63
NtRp3954
(dp3955
g66
(dp3956
sg75
g3941
sg68
(lp3957
g61
(g62
g63
NtRp3958
(dp3959
g66
(dp3960
g74
I5
ssg75
g3954
sg68
(lp3961
S'/examples/transform/upload'
p3962
asbasbasbag61
(g77
g63
NtRp3963
(dp3964
g66
(dp3965
sg75
g71
sg68
(lp3966
g61
(g82
g63
NtRp3967
(dp3968
g66
(dp3969
g86
g87
ssg75
g3963
sg68
(lp3970
S'utcnow'
p3971
asbag61
(g82
g63
NtRp3972
(dp3973
g66
(dp3974
g93
g94
ssg75
g3963
sg68
(lp3975
S':'
asbag61
(g82
g63
NtRp3976
(dp3977
g66
(dp3978
sg75
g3963
sg68
(lp3979
g61
(g62
g63
NtRp3980
(dp3981
g66
(dp3982
g74
I5
ssg75
g3976
sg68
(lp3983
S'datetime.datetime(2012, 3, 10, 12, 13, 29, 682000)'
p3984
asbasbasbag61
(g77
g63
NtRp3985
(dp3986
g66
(dp3987
sg75
g71
sg68
(lp3988
g61
(g82
g63
NtRp3989
(dp3990
g66
(dp3991
g86
g87
ssg75
g3985
sg68
(lp3992
S'uuid'
p3993
asbag61
(g82
g63
NtRp3994
(dp3995
g66
(dp3996
g93
g94
ssg75
g3985
sg68
(lp3997
S':'
asbag61
(g82
g63
NtRp3998
(dp3999
g66
(dp4000
sg75
g3985
sg68
(lp4001
g61
(g62
g63
NtRp4002
(dp4003
g66
(dp4004
g74
I5
ssg75
g3998
sg68
(lp4005
S'examples/127.0.0.1.2012-03-10.20-13-29.420a3d2d-1294-4b6b-b0a1-035f3729818c'
p4006
asbasbasbag61
(g77
g63
NtRp4007
(dp4008
g66
(dp4009
sg75
g71
sg68
(lp4010
g61
(g82
g63
NtRp4011
(dp4012
g66
(dp4013
g86
g87
ssg75
g4007
sg68
(lp4014
S'vars'
p4015
asbag61
(g82
g63
NtRp4016
(dp4017
g66
(dp4018
g93
g94
ssg75
g4007
sg68
(lp4019
S':'
asbag61
(g82
g63
NtRp4020
(dp4021
g66
(dp4022
sg75
g4007
sg68
(lp4023
g61
(g62
g63
NtRp4024
(dp4025
g66
(dp4026
g74
I5
ssg75
g4020
sg68
(lp4027
g61
(g70
g63
NtRp4028
(dp4029
g66
(dp4030
g74
I4
ssg75
Nsg68
(lp4031
g61
(g77
g63
NtRp4032
(dp4033
g66
(dp4034
sg75
g4028
sg68
(lp4035
g61
(g82
g63
NtRp4036
(dp4037
g66
(dp4038
g86
g87
ssg75
g4032
sg68
(lp4039
g3927
asbag61
(g82
g63
NtRp4040
(dp4041
g66
(dp4042
g93
g94
ssg75
g4032
sg68
(lp4043
S':'
asbag61
(g82
g63
NtRp4044
(dp4045
g66
(dp4046
sg75
g4032
sg68
(lp4047
g61
(g62
g63
NtRp4048
(dp4049
g66
(dp4050
g74
I4
ssg75
g4044
sg68
(lp4051
g3940
asbasbasbasbasbasbasbag61
(g77
g63
NtRp4052
(dp4053
g66
(dp4054
sg75
g71
sg68
(lp4055
g61
(g82
g63
NtRp4056
(dp4057
g66
(dp4058
g86
g87
ssg75
g4052
sg68
(lp4059
S'wsgi'
p4060
asbag61
(g82
g63
NtRp4061
(dp4062
g66
(dp4063
g93
g94
ssg75
g4052
sg68
(lp4064
S':'
asbag61
(g82
g63
NtRp4065
(dp4066
g66
(dp4067
sg75
g4052
sg68
(lp4068
g61
(g62
g63
NtRp4069
(dp4070
g66
(dp4071
g74
I5
ssg75
g4065
sg68
(lp4072
g61
(g70
g63
NtRp4073
(dp4074
g66
(dp4075
g74
I4
ssg75
Nsg68
(lp4076
g61
(g77
g63
NtRp4077
(dp4078
g66
(dp4079
sg75
g4073
sg68
(lp4080
g61
(g82
g63
NtRp4081
(dp4082
g66
(dp4083
g86
g87
ssg75
g4077
sg68
(lp4084
S'environ'
p4085
asbag61
(g82
g63
NtRp4086
(dp4087
g66
(dp4088
g93
g94
ssg75
g4077
sg68
(lp4089
S':'
asbag61
(g82
g63
NtRp4090
(dp4091
g66
(dp4092
sg75
g4077
sg68
(lp4093
g61
(g62
g63
NtRp4094
(dp4095
g66
(dp4096
g74
I4
ssg75
g4090
sg68
(lp4097
g61
(g70
g63
NtRp4098
(dp4099
g66
(dp4100
g74
I3
ssg75
Nsg68
(lp4101
g61
(g77
g63
NtRp4102
(dp4103
g66
(dp4104
sg75
g4098
sg68
(lp4105
g61
(g82
g63
NtRp4106
(dp4107
g66
(dp4108
g86
g87
ssg75
g4102
sg68
(lp4109
S'COMSPEC'
p4110
asbag61
(g82
g63
NtRp4111
(dp4112
g66
(dp4113
g93
g94
ssg75
g4102
sg68
(lp4114
S':'
asbag61
(g82
g63
NtRp4115
(dp4116
g66
(dp4117
sg75
g4102
sg68
(lp4118
g61
(g62
g63
NtRp4119
(dp4120
g66
(dp4121
g74
I3
ssg75
g4115
sg68
(lp4122
g2190
asbasbasbag61
(g77
g63
NtRp4123
(dp4124
g66
(dp4125
sg75
g4098
sg68
(lp4126
g61
(g82
g63
NtRp4127
(dp4128
g66
(dp4129
g86
g87
ssg75
g4123
sg68
(lp4130
S'CONTENT_LENGTH'
p4131
asbag61
(g82
g63
NtRp4132
(dp4133
g66
(dp4134
g93
g94
ssg75
g4123
sg68
(lp4135
S':'
asbag61
(g82
g63
NtRp4136
(dp4137
g66
(dp4138
sg75
g4123
sg68
(lp4139
g61
(g62
g63
NtRp4140
(dp4141
g66
(dp4142
g74
I3
ssg75
g4136
sg68
(lp4143
g2212
asbasbasbag61
(g77
g63
NtRp4144
(dp4145
g66
(dp4146
sg75
g4098
sg68
(lp4147
g61
(g82
g63
NtRp4148
(dp4149
g66
(dp4150
g86
g87
ssg75
g4144
sg68
(lp4151
S'CONTENT_TYPE'
p4152
asbag61
(g82
g63
NtRp4153
(dp4154
g66
(dp4155
g93
g94
ssg75
g4144
sg68
(lp4156
S':'
asbag61
(g82
g63
NtRp4157
(dp4158
g66
(dp4159
sg75
g4144
sg68
(lp4160
g61
(g62
g63
NtRp4161
(dp4162
g66
(dp4163
g74
I3
ssg75
g4157
sg68
(lp4164
g2234
asbasbasbag61
(g77
g63
NtRp4165
(dp4166
g66
(dp4167
sg75
g4098
sg68
(lp4168
g61
(g82
g63
NtRp4169
(dp4170
g66
(dp4171
g86
g87
ssg75
g4165
sg68
(lp4172
S'DOCUMENT_ROOT'
p4173
asbag61
(g82
g63
NtRp4174
(dp4175
g66
(dp4176
g93
g94
ssg75
g4165
sg68
(lp4177
S':'
asbag61
(g82
g63
NtRp4178
(dp4179
g66
(dp4180
sg75
g4165
sg68
(lp4181
g61
(g62
g63
NtRp4182
(dp4183
g66
(dp4184
g74
I3
ssg75
g4178
sg68
(lp4185
g2299
asbasbasbag61
(g77
g63
NtRp4186
(dp4187
g66
(dp4188
sg75
g4098
sg68
(lp4189
g61
(g82
g63
NtRp4190
(dp4191
g66
(dp4192
g86
g87
ssg75
g4186
sg68
(lp4193
S'GATEWAY_INTERFACE'
p4194
asbag61
(g82
g63
NtRp4195
(dp4196
g66
(dp4197
g93
g94
ssg75
g4186
sg68
(lp4198
S':'
asbag61
(g82
g63
NtRp4199
(dp4200
g66
(dp4201
sg75
g4186
sg68
(lp4202
g61
(g62
g63
NtRp4203
(dp4204
g66
(dp4205
g74
I3
ssg75
g4199
sg68
(lp4206
g2321
asbasbasbag61
(g77
g63
NtRp4207
(dp4208
g66
(dp4209
sg75
g4098
sg68
(lp4210
g61
(g82
g63
NtRp4211
(dp4212
g66
(dp4213
g86
g87
ssg75
g4207
sg68
(lp4214
S'HTTP_ACCEPT'
p4215
asbag61
(g82
g63
NtRp4216
(dp4217
g66
(dp4218
g93
g94
ssg75
g4207
sg68
(lp4219
S':'
asbag61
(g82
g63
NtRp4220
(dp4221
g66
(dp4222
sg75
g4207
sg68
(lp4223
g61
(g62
g63
NtRp4224
(dp4225
g66
(dp4226
g74
I3
ssg75
g4220
sg68
(lp4227
g2364
asbasbasbag61
(g77
g63
NtRp4228
(dp4229
g66
(dp4230
sg75
g4098
sg68
(lp4231
g61
(g82
g63
NtRp4232
(dp4233
g66
(dp4234
g86
g87
ssg75
g4228
sg68
(lp4235
S'HTTP_ACCEPT_ENCODING'
p4236
asbag61
(g82
g63
NtRp4237
(dp4238
g66
(dp4239
g93
g94
ssg75
g4228
sg68
(lp4240
S':'
asbag61
(g82
g63
NtRp4241
(dp4242
g66
(dp4243
sg75
g4228
sg68
(lp4244
g61
(g62
g63
NtRp4245
(dp4246
g66
(dp4247
g74
I3
ssg75
g4241
sg68
(lp4248
g2386
asbasbasbag61
(g77
g63
NtRp4249
(dp4250
g66
(dp4251
sg75
g4098
sg68
(lp4252
g61
(g82
g63
NtRp4253
(dp4254
g66
(dp4255
g86
g87
ssg75
g4249
sg68
(lp4256
S'HTTP_ACCEPT_LANGUAGE'
p4257
asbag61
(g82
g63
NtRp4258
(dp4259
g66
(dp4260
g93
g94
ssg75
g4249
sg68
(lp4261
S':'
asbag61
(g82
g63
NtRp4262
(dp4263
g66
(dp4264
sg75
g4249
sg68
(lp4265
g61
(g62
g63
NtRp4266
(dp4267
g66
(dp4268
g74
I3
ssg75
g4262
sg68
(lp4269
g2408
asbasbasbag61
(g77
g63
NtRp4270
(dp4271
g66
(dp4272
sg75
g4098
sg68
(lp4273
g61
(g82
g63
NtRp4274
(dp4275
g66
(dp4276
g86
g87
ssg75
g4270
sg68
(lp4277
S'HTTP_CONNECTION'
p4278
asbag61
(g82
g63
NtRp4279
(dp4280
g66
(dp4281
g93
g94
ssg75
g4270
sg68
(lp4282
S':'
asbag61
(g82
g63
NtRp4283
(dp4284
g66
(dp4285
sg75
g4270
sg68
(lp4286
g61
(g62
g63
NtRp4287
(dp4288
g66
(dp4289
g74
I3
ssg75
g4283
sg68
(lp4290
g2430
asbasbasbag61
(g77
g63
NtRp4291
(dp4292
g66
(dp4293
sg75
g4098
sg68
(lp4294
g61
(g82
g63
NtRp4295
(dp4296
g66
(dp4297
g86
g87
ssg75
g4291
sg68
(lp4298
S'HTTP_COOKIE'
p4299
asbag61
(g82
g63
NtRp4300
(dp4301
g66
(dp4302
g93
g94
ssg75
g4291
sg68
(lp4303
S':'
asbag61
(g82
g63
NtRp4304
(dp4305
g66
(dp4306
sg75
g4291
sg68
(lp4307
g61
(g62
g63
NtRp4308
(dp4309
g66
(dp4310
g74
I3
ssg75
g4304
sg68
(lp4311
g2452
asbasbasbag61
(g77
g63
NtRp4312
(dp4313
g66
(dp4314
sg75
g4098
sg68
(lp4315
g61
(g82
g63
NtRp4316
(dp4317
g66
(dp4318
g86
g87
ssg75
g4312
sg68
(lp4319
S'HTTP_HOST'
p4320
asbag61
(g82
g63
NtRp4321
(dp4322
g66
(dp4323
g93
g94
ssg75
g4312
sg68
(lp4324
S':'
asbag61
(g82
g63
NtRp4325
(dp4326
g66
(dp4327
sg75
g4312
sg68
(lp4328
g61
(g62
g63
NtRp4329
(dp4330
g66
(dp4331
g74
I3
ssg75
g4325
sg68
(lp4332
g2474
asbasbasbag61
(g77
g63
NtRp4333
(dp4334
g66
(dp4335
sg75
g4098
sg68
(lp4336
g61
(g82
g63
NtRp4337
(dp4338
g66
(dp4339
g86
g87
ssg75
g4333
sg68
(lp4340
S'HTTP_PRAGMA'
p4341
asbag61
(g82
g63
NtRp4342
(dp4343
g66
(dp4344
g93
g94
ssg75
g4333
sg68
(lp4345
S':'
asbag61
(g82
g63
NtRp4346
(dp4347
g66
(dp4348
sg75
g4333
sg68
(lp4349
g61
(g62
g63
NtRp4350
(dp4351
g66
(dp4352
g74
I3
ssg75
g4346
sg68
(lp4353
g2496
asbasbasbag61
(g77
g63
NtRp4354
(dp4355
g66
(dp4356
sg75
g4098
sg68
(lp4357
g61
(g82
g63
NtRp4358
(dp4359
g66
(dp4360
g86
g87
ssg75
g4354
sg68
(lp4361
S'HTTP_REFERER'
p4362
asbag61
(g82
g63
NtRp4363
(dp4364
g66
(dp4365
g93
g94
ssg75
g4354
sg68
(lp4366
S':'
asbag61
(g82
g63
NtRp4367
(dp4368
g66
(dp4369
sg75
g4354
sg68
(lp4370
g61
(g62
g63
NtRp4371
(dp4372
g66
(dp4373
g74
I3
ssg75
g4367
sg68
(lp4374
g2518
asbasbasbag61
(g77
g63
NtRp4375
(dp4376
g66
(dp4377
sg75
g4098
sg68
(lp4378
g61
(g82
g63
NtRp4379
(dp4380
g66
(dp4381
g86
g87
ssg75
g4375
sg68
(lp4382
S'HTTP_USER_AGENT'
p4383
asbag61
(g82
g63
NtRp4384
(dp4385
g66
(dp4386
g93
g94
ssg75
g4375
sg68
(lp4387
S':'
asbag61
(g82
g63
NtRp4388
(dp4389
g66
(dp4390
sg75
g4375
sg68
(lp4391
g61
(g62
g63
NtRp4392
(dp4393
g66
(dp4394
g74
I3
ssg75
g4388
sg68
(lp4395
g2540
asbasbasbag61
(g77
g63
NtRp4396
(dp4397
g66
(dp4398
sg75
g4098
sg68
(lp4399
g61
(g82
g63
NtRp4400
(dp4401
g66
(dp4402
g86
g87
ssg75
g4396
sg68
(lp4403
S'PATHEXT'
p4404
asbag61
(g82
g63
NtRp4405
(dp4406
g66
(dp4407
g93
g94
ssg75
g4396
sg68
(lp4408
S':'
asbag61
(g82
g63
NtRp4409
(dp4410
g66
(dp4411
sg75
g4396
sg68
(lp4412
g61
(g62
g63
NtRp4413
(dp4414
g66
(dp4415
g74
I3
ssg75
g4409
sg68
(lp4416
g2826
asbasbasbag61
(g77
g63
NtRp4417
(dp4418
g66
(dp4419
sg75
g4098
sg68
(lp4420
g61
(g82
g63
NtRp4421
(dp4422
g66
(dp4423
g86
g87
ssg75
g4417
sg68
(lp4424
S'PATH_INFO'
p4425
asbag61
(g82
g63
NtRp4426
(dp4427
g66
(dp4428
g93
g94
ssg75
g4417
sg68
(lp4429
S':'
asbag61
(g82
g63
NtRp4430
(dp4431
g66
(dp4432
sg75
g4417
sg68
(lp4433
g61
(g62
g63
NtRp4434
(dp4435
g66
(dp4436
g74
I3
ssg75
g4430
sg68
(lp4437
g2782
asbasbasbag61
(g77
g63
NtRp4438
(dp4439
g66
(dp4440
sg75
g4098
sg68
(lp4441
g61
(g82
g63
NtRp4442
(dp4443
g66
(dp4444
g86
g87
ssg75
g4438
sg68
(lp4445
S'PATH_TRANSLATED'
p4446
asbag61
(g82
g63
NtRp4447
(dp4448
g66
(dp4449
g93
g94
ssg75
g4438
sg68
(lp4450
S':'
asbag61
(g82
g63
NtRp4451
(dp4452
g66
(dp4453
sg75
g4438
sg68
(lp4454
g61
(g62
g63
NtRp4455
(dp4456
g66
(dp4457
g74
I3
ssg75
g4451
sg68
(lp4458
g2804
asbasbasbag61
(g77
g63
NtRp4459
(dp4460
g66
(dp4461
sg75
g4098
sg68
(lp4462
g61
(g82
g63
NtRp4463
(dp4464
g66
(dp4465
g86
g87
ssg75
g4459
sg68
(lp4466
S'QUERY_STRING'
p4467
asbag61
(g82
g63
NtRp4468
(dp4469
g66
(dp4470
g93
g94
ssg75
g4459
sg68
(lp4471
S':'
asbag61
(g82
g63
NtRp4472
(dp4473
g66
(dp4474
sg75
g4459
sg68
(lp4475
g61
(g62
g63
NtRp4476
(dp4477
g66
(dp4478
g74
I3
ssg75
g4472
sg68
(lp4479
S''
asbasbasbag61
(g77
g63
NtRp4480
(dp4481
g66
(dp4482
sg75
g4098
sg68
(lp4483
g61
(g82
g63
NtRp4484
(dp4485
g66
(dp4486
g86
g87
ssg75
g4480
sg68
(lp4487
S'REMOTE_ADDR'
p4488
asbag61
(g82
g63
NtRp4489
(dp4490
g66
(dp4491
g93
g94
ssg75
g4480
sg68
(lp4492
S':'
asbag61
(g82
g63
NtRp4493
(dp4494
g66
(dp4495
sg75
g4480
sg68
(lp4496
g61
(g62
g63
NtRp4497
(dp4498
g66
(dp4499
g74
I3
ssg75
g4493
sg68
(lp4500
g194
asbasbasbag61
(g77
g63
NtRp4501
(dp4502
g66
(dp4503
sg75
g4098
sg68
(lp4504
g61
(g82
g63
NtRp4505
(dp4506
g66
(dp4507
g86
g87
ssg75
g4501
sg68
(lp4508
S'REMOTE_PORT'
p4509
asbag61
(g82
g63
NtRp4510
(dp4511
g66
(dp4512
g93
g94
ssg75
g4501
sg68
(lp4513
S':'
asbag61
(g82
g63
NtRp4514
(dp4515
g66
(dp4516
sg75
g4501
sg68
(lp4517
g61
(g62
g63
NtRp4518
(dp4519
g66
(dp4520
g74
I3
ssg75
g4514
sg68
(lp4521
g2890
asbasbasbag61
(g77
g63
NtRp4522
(dp4523
g66
(dp4524
sg75
g4098
sg68
(lp4525
g61
(g82
g63
NtRp4526
(dp4527
g66
(dp4528
g86
g87
ssg75
g4522
sg68
(lp4529
S'REQUEST_METHOD'
p4530
asbag61
(g82
g63
NtRp4531
(dp4532
g66
(dp4533
g93
g94
ssg75
g4522
sg68
(lp4534
S':'
asbag61
(g82
g63
NtRp4535
(dp4536
g66
(dp4537
sg75
g4522
sg68
(lp4538
g61
(g62
g63
NtRp4539
(dp4540
g66
(dp4541
g74
I3
ssg75
g4535
sg68
(lp4542
g2912
asbasbasbag61
(g77
g63
NtRp4543
(dp4544
g66
(dp4545
sg75
g4098
sg68
(lp4546
g61
(g82
g63
NtRp4547
(dp4548
g66
(dp4549
g86
g87
ssg75
g4543
sg68
(lp4550
S'REQUEST_URI'
p4551
asbag61
(g82
g63
NtRp4552
(dp4553
g66
(dp4554
g93
g94
ssg75
g4543
sg68
(lp4555
S':'
asbag61
(g82
g63
NtRp4556
(dp4557
g66
(dp4558
sg75
g4543
sg68
(lp4559
g61
(g62
g63
NtRp4560
(dp4561
g66
(dp4562
g74
I3
ssg75
g4556
sg68
(lp4563
g2934
asbasbasbag61
(g77
g63
NtRp4564
(dp4565
g66
(dp4566
sg75
g4098
sg68
(lp4567
g61
(g82
g63
NtRp4568
(dp4569
g66
(dp4570
g86
g87
ssg75
g4564
sg68
(lp4571
S'SCRIPT_FILENAME'
p4572
asbag61
(g82
g63
NtRp4573
(dp4574
g66
(dp4575
g93
g94
ssg75
g4564
sg68
(lp4576
S':'
asbag61
(g82
g63
NtRp4577
(dp4578
g66
(dp4579
sg75
g4564
sg68
(lp4580
g61
(g62
g63
NtRp4581
(dp4582
g66
(dp4583
g74
I3
ssg75
g4577
sg68
(lp4584
g2956
asbasbasbag61
(g77
g63
NtRp4585
(dp4586
g66
(dp4587
sg75
g4098
sg68
(lp4588
g61
(g82
g63
NtRp4589
(dp4590
g66
(dp4591
g86
g87
ssg75
g4585
sg68
(lp4592
S'SCRIPT_NAME'
p4593
asbag61
(g82
g63
NtRp4594
(dp4595
g66
(dp4596
g93
g94
ssg75
g4585
sg68
(lp4597
S':'
asbag61
(g82
g63
NtRp4598
(dp4599
g66
(dp4600
sg75
g4585
sg68
(lp4601
g61
(g62
g63
NtRp4602
(dp4603
g66
(dp4604
g74
I3
ssg75
g4598
sg68
(lp4605
S''
asbasbasbag61
(g77
g63
NtRp4606
(dp4607
g66
(dp4608
sg75
g4098
sg68
(lp4609
g61
(g82
g63
NtRp4610
(dp4611
g66
(dp4612
g86
g87
ssg75
g4606
sg68
(lp4613
S'SERVER_ADDR'
p4614
asbag61
(g82
g63
NtRp4615
(dp4616
g66
(dp4617
g93
g94
ssg75
g4606
sg68
(lp4618
S':'
asbag61
(g82
g63
NtRp4619
(dp4620
g66
(dp4621
sg75
g4606
sg68
(lp4622
g61
(g62
g63
NtRp4623
(dp4624
g66
(dp4625
g74
I3
ssg75
g4619
sg68
(lp4626
g2999
asbasbasbag61
(g77
g63
NtRp4627
(dp4628
g66
(dp4629
sg75
g4098
sg68
(lp4630
g61
(g82
g63
NtRp4631
(dp4632
g66
(dp4633
g86
g87
ssg75
g4627
sg68
(lp4634
S'SERVER_ADMIN'
p4635
asbag61
(g82
g63
NtRp4636
(dp4637
g66
(dp4638
g93
g94
ssg75
g4627
sg68
(lp4639
S':'
asbag61
(g82
g63
NtRp4640
(dp4641
g66
(dp4642
sg75
g4627
sg68
(lp4643
g61
(g62
g63
NtRp4644
(dp4645
g66
(dp4646
g74
I3
ssg75
g4640
sg68
(lp4647
g3021
asbasbasbag61
(g77
g63
NtRp4648
(dp4649
g66
(dp4650
sg75
g4098
sg68
(lp4651
g61
(g82
g63
NtRp4652
(dp4653
g66
(dp4654
g86
g87
ssg75
g4648
sg68
(lp4655
S'SERVER_NAME'
p4656
asbag61
(g82
g63
NtRp4657
(dp4658
g66
(dp4659
g93
g94
ssg75
g4648
sg68
(lp4660
S':'
asbag61
(g82
g63
NtRp4661
(dp4662
g66
(dp4663
sg75
g4648
sg68
(lp4664
g61
(g62
g63
NtRp4665
(dp4666
g66
(dp4667
g74
I3
ssg75
g4661
sg68
(lp4668
g3043
asbasbasbag61
(g77
g63
NtRp4669
(dp4670
g66
(dp4671
sg75
g4098
sg68
(lp4672
g61
(g82
g63
NtRp4673
(dp4674
g66
(dp4675
g86
g87
ssg75
g4669
sg68
(lp4676
S'SERVER_PORT'
p4677
asbag61
(g82
g63
NtRp4678
(dp4679
g66
(dp4680
g93
g94
ssg75
g4669
sg68
(lp4681
S':'
asbag61
(g82
g63
NtRp4682
(dp4683
g66
(dp4684
sg75
g4669
sg68
(lp4685
g61
(g62
g63
NtRp4686
(dp4687
g66
(dp4688
g74
I3
ssg75
g4682
sg68
(lp4689
g3065
asbasbasbag61
(g77
g63
NtRp4690
(dp4691
g66
(dp4692
sg75
g4098
sg68
(lp4693
g61
(g82
g63
NtRp4694
(dp4695
g66
(dp4696
g86
g87
ssg75
g4690
sg68
(lp4697
S'SERVER_PROTOCOL'
p4698
asbag61
(g82
g63
NtRp4699
(dp4700
g66
(dp4701
g93
g94
ssg75
g4690
sg68
(lp4702
S':'
asbag61
(g82
g63
NtRp4703
(dp4704
g66
(dp4705
sg75
g4690
sg68
(lp4706
g61
(g62
g63
NtRp4707
(dp4708
g66
(dp4709
g74
I3
ssg75
g4703
sg68
(lp4710
g3087
asbasbasbag61
(g77
g63
NtRp4711
(dp4712
g66
(dp4713
sg75
g4098
sg68
(lp4714
g61
(g82
g63
NtRp4715
(dp4716
g66
(dp4717
g86
g87
ssg75
g4711
sg68
(lp4718
S'SERVER_SIGNATURE'
p4719
asbag61
(g82
g63
NtRp4720
(dp4721
g66
(dp4722
g93
g94
ssg75
g4711
sg68
(lp4723
S':'
asbag61
(g82
g63
NtRp4724
(dp4725
g66
(dp4726
sg75
g4711
sg68
(lp4727
g61
(g62
g63
NtRp4728
(dp4729
g66
(dp4730
g74
I3
ssg75
g4724
sg68
(lp4731
S''
asbasbasbag61
(g77
g63
NtRp4732
(dp4733
g66
(dp4734
sg75
g4098
sg68
(lp4735
g61
(g82
g63
NtRp4736
(dp4737
g66
(dp4738
g86
g87
ssg75
g4732
sg68
(lp4739
S'SERVER_SOFTWARE'
p4740
asbag61
(g82
g63
NtRp4741
(dp4742
g66
(dp4743
g93
g94
ssg75
g4732
sg68
(lp4744
S':'
asbag61
(g82
g63
NtRp4745
(dp4746
g66
(dp4747
sg75
g4732
sg68
(lp4748
g61
(g62
g63
NtRp4749
(dp4750
g66
(dp4751
g74
I3
ssg75
g4745
sg68
(lp4752
g3130
asbasbasbag61
(g77
g63
NtRp4753
(dp4754
g66
(dp4755
sg75
g4098
sg68
(lp4756
g61
(g82
g63
NtRp4757
(dp4758
g66
(dp4759
g86
g87
ssg75
g4753
sg68
(lp4760
S'SystemRoot'
p4761
asbag61
(g82
g63
NtRp4762
(dp4763
g66
(dp4764
g93
g94
ssg75
g4753
sg68
(lp4765
S':'
asbag61
(g82
g63
NtRp4766
(dp4767
g66
(dp4768
sg75
g4753
sg68
(lp4769
g61
(g62
g63
NtRp4770
(dp4771
g66
(dp4772
g74
I3
ssg75
g4766
sg68
(lp4773
g3152
asbasbasbag61
(g77
g63
NtRp4774
(dp4775
g66
(dp4776
sg75
g4098
sg68
(lp4777
g61
(g82
g63
NtRp4778
(dp4779
g66
(dp4780
g86
g87
ssg75
g4774
sg68
(lp4781
S'WINDIR'
p4782
asbag61
(g82
g63
NtRp4783
(dp4784
g66
(dp4785
g93
g94
ssg75
g4774
sg68
(lp4786
S':'
asbag61
(g82
g63
NtRp4787
(dp4788
g66
(dp4789
sg75
g4774
sg68
(lp4790
g61
(g62
g63
NtRp4791
(dp4792
g66
(dp4793
g74
I3
ssg75
g4787
sg68
(lp4794
g3283
asbasbasbag61
(g77
g63
NtRp4795
(dp4796
g66
(dp4797
sg75
g4098
sg68
(lp4798
g61
(g82
g63
NtRp4799
(dp4800
g66
(dp4801
g86
g87
ssg75
g4795
sg68
(lp4802
S'mod_wsgi.application_group'
p4803
asbag61
(g82
g63
NtRp4804
(dp4805
g66
(dp4806
g93
g94
ssg75
g4795
sg68
(lp4807
S':'
asbag61
(g82
g63
NtRp4808
(dp4809
g66
(dp4810
sg75
g4795
sg68
(lp4811
g61
(g62
g63
NtRp4812
(dp4813
g66
(dp4814
g74
I3
ssg75
g4808
sg68
(lp4815
g2583
asbasbasbag61
(g77
g63
NtRp4816
(dp4817
g66
(dp4818
sg75
g4098
sg68
(lp4819
g61
(g82
g63
NtRp4820
(dp4821
g66
(dp4822
g86
g87
ssg75
g4816
sg68
(lp4823
S'mod_wsgi.callable_object'
p4824
asbag61
(g82
g63
NtRp4825
(dp4826
g66
(dp4827
g93
g94
ssg75
g4816
sg68
(lp4828
S':'
asbag61
(g82
g63
NtRp4829
(dp4830
g66
(dp4831
sg75
g4816
sg68
(lp4832
g61
(g62
g63
NtRp4833
(dp4834
g66
(dp4835
g74
I3
ssg75
g4829
sg68
(lp4836
g2605
asbasbasbag61
(g77
g63
NtRp4837
(dp4838
g66
(dp4839
sg75
g4098
sg68
(lp4840
g61
(g82
g63
NtRp4841
(dp4842
g66
(dp4843
g86
g87
ssg75
g4837
sg68
(lp4844
S'mod_wsgi.handler_script'
p4845
asbag61
(g82
g63
NtRp4846
(dp4847
g66
(dp4848
g93
g94
ssg75
g4837
sg68
(lp4849
S':'
asbag61
(g82
g63
NtRp4850
(dp4851
g66
(dp4852
sg75
g4837
sg68
(lp4853
g61
(g62
g63
NtRp4854
(dp4855
g66
(dp4856
g74
I3
ssg75
g4850
sg68
(lp4857
S''
asbasbasbag61
(g77
g63
NtRp4858
(dp4859
g66
(dp4860
sg75
g4098
sg68
(lp4861
g61
(g82
g63
NtRp4862
(dp4863
g66
(dp4864
g86
g87
ssg75
g4858
sg68
(lp4865
S'mod_wsgi.input_chunked'
p4866
asbag61
(g82
g63
NtRp4867
(dp4868
g66
(dp4869
g93
g94
ssg75
g4858
sg68
(lp4870
S':'
asbag61
(g82
g63
NtRp4871
(dp4872
g66
(dp4873
sg75
g4858
sg68
(lp4874
g61
(g62
g63
NtRp4875
(dp4876
g66
(dp4877
g74
I3
ssg75
g4871
sg68
(lp4878
S'0'
asbasbasbag61
(g77
g63
NtRp4879
(dp4880
g66
(dp4881
sg75
g4098
sg68
(lp4882
g61
(g82
g63
NtRp4883
(dp4884
g66
(dp4885
g86
g87
ssg75
g4879
sg68
(lp4886
S'mod_wsgi.process_group'
p4887
asbag61
(g82
g63
NtRp4888
(dp4889
g66
(dp4890
g93
g94
ssg75
g4879
sg68
(lp4891
S':'
asbag61
(g82
g63
NtRp4892
(dp4893
g66
(dp4894
sg75
g4879
sg68
(lp4895
g61
(g62
g63
NtRp4896
(dp4897
g66
(dp4898
g74
I3
ssg75
g4892
sg68
(lp4899
S''
asbasbasbag61
(g77
g63
NtRp4900
(dp4901
g66
(dp4902
sg75
g4098
sg68
(lp4903
g61
(g82
g63
NtRp4904
(dp4905
g66
(dp4906
g86
g87
ssg75
g4900
sg68
(lp4907
S'mod_wsgi.request_handler'
p4908
asbag61
(g82
g63
NtRp4909
(dp4910
g66
(dp4911
g93
g94
ssg75
g4900
sg68
(lp4912
S':'
asbag61
(g82
g63
NtRp4913
(dp4914
g66
(dp4915
sg75
g4900
sg68
(lp4916
g61
(g62
g63
NtRp4917
(dp4918
g66
(dp4919
g74
I3
ssg75
g4913
sg68
(lp4920
g2690
asbasbasbag61
(g77
g63
NtRp4921
(dp4922
g66
(dp4923
sg75
g4098
sg68
(lp4924
g61
(g82
g63
NtRp4925
(dp4926
g66
(dp4927
g86
g87
ssg75
g4921
sg68
(lp4928
S'mod_wsgi.script_reloading'
p4929
asbag61
(g82
g63
NtRp4930
(dp4931
g66
(dp4932
g93
g94
ssg75
g4921
sg68
(lp4933
S':'
asbag61
(g82
g63
NtRp4934
(dp4935
g66
(dp4936
sg75
g4921
sg68
(lp4937
g61
(g62
g63
NtRp4938
(dp4939
g66
(dp4940
g74
I3
ssg75
g4934
sg68
(lp4941
S'1'
asbasbasbag61
(g77
g63
NtRp4942
(dp4943
g66
(dp4944
sg75
g4098
sg68
(lp4945
g61
(g82
g63
NtRp4946
(dp4947
g66
(dp4948
g86
g87
ssg75
g4942
sg68
(lp4949
S'mod_wsgi.version'
p4950
asbag61
(g82
g63
NtRp4951
(dp4952
g66
(dp4953
g93
g94
ssg75
g4942
sg68
(lp4954
S':'
asbag61
(g82
g63
NtRp4955
(dp4956
g66
(dp4957
sg75
g4942
sg68
(lp4958
g61
(g62
g63
NtRp4959
(dp4960
g66
(dp4961
g74
I3
ssg75
g4955
sg68
(lp4962
g61
(g70
g63
NtRp4963
(dp4964
g66
(dp4965
g74
I2
ssg75
Nsg68
(lp4966
g61
(g77
g63
NtRp4967
(dp4968
g66
(dp4969
sg75
g4963
sg68
(lp4970
g61
(g82
g63
NtRp4971
(dp4972
g66
(dp4973
sg75
g4967
sg68
(lp4974
g61
(g62
g63
NtRp4975
(dp4976
g66
(dp4977
g74
I2
ssg75
g4971
sg68
(lp4978
S'3'
asbasbasbag61
(g77
g63
NtRp4979
(dp4980
g66
(dp4981
sg75
g4963
sg68
(lp4982
g61
(g82
g63
NtRp4983
(dp4984
g66
(dp4985
sg75
g4979
sg68
(lp4986
g61
(g62
g63
NtRp4987
(dp4988
g66
(dp4989
g74
I2
ssg75
g4983
sg68
(lp4990
S'3'
asbasbasbasbasbasbasbag61
(g77
g63
NtRp4991
(dp4992
g66
(dp4993
sg75
g4098
sg68
(lp4994
g61
(g82
g63
NtRp4995
(dp4996
g66
(dp4997
g86
g87
ssg75
g4991
sg68
(lp4998
S'wsgi.errors'
p4999
asbag61
(g82
g63
NtRp5000
(dp5001
g66
(dp5002
g93
g94
ssg75
g4991
sg68
(lp5003
S':'
asbag61
(g82
g63
NtRp5004
(dp5005
g66
(dp5006
sg75
g4991
sg68
(lp5007
g61
(g62
g63
NtRp5008
(dp5009
g66
(dp5010
g74
I3
ssg75
g5004
sg68
(lp5011
S'<mod_wsgi.Log object at 0x03E084A8>'
p5012
asbasbasbag61
(g77
g63
NtRp5013
(dp5014
g66
(dp5015
sg75
g4098
sg68
(lp5016
g61
(g82
g63
NtRp5017
(dp5018
g66
(dp5019
g86
g87
ssg75
g5013
sg68
(lp5020
S'wsgi.file_wrapper'
p5021
asbag61
(g82
g63
NtRp5022
(dp5023
g66
(dp5024
g93
g94
ssg75
g5013
sg68
(lp5025
S':'
asbag61
(g82
g63
NtRp5026
(dp5027
g66
(dp5028
sg75
g5013
sg68
(lp5029
g61
(g62
g63
NtRp5030
(dp5031
g66
(dp5032
g74
I3
ssg75
g5026
sg68
(lp5033
S'<built-in method file_wrapper of mod_wsgi.Adapter object at 0x03E13068>'
p5034
asbasbasbag61
(g77
g63
NtRp5035
(dp5036
g66
(dp5037
sg75
g4098
sg68
(lp5038
g61
(g82
g63
NtRp5039
(dp5040
g66
(dp5041
g86
g87
ssg75
g5035
sg68
(lp5042
S'wsgi.input'
p5043
asbag61
(g82
g63
NtRp5044
(dp5045
g66
(dp5046
g93
g94
ssg75
g5035
sg68
(lp5047
S':'
asbag61
(g82
g63
NtRp5048
(dp5049
g66
(dp5050
sg75
g5035
sg68
(lp5051
g61
(g62
g63
NtRp5052
(dp5053
g66
(dp5054
g74
I3
ssg75
g5048
sg68
(lp5055
S"<open file '<fdopen>', mode 'w+b' at 0x03E0E6A8>"
p5056
asbasbasbag61
(g77
g63
NtRp5057
(dp5058
g66
(dp5059
sg75
g4098
sg68
(lp5060
g61
(g82
g63
NtRp5061
(dp5062
g66
(dp5063
g86
g87
ssg75
g5057
sg68
(lp5064
S'wsgi.multiprocess'
p5065
asbag61
(g82
g63
NtRp5066
(dp5067
g66
(dp5068
g93
g94
ssg75
g5057
sg68
(lp5069
S':'
asbag61
(g82
g63
NtRp5070
(dp5071
g66
(dp5072
sg75
g5057
sg68
(lp5073
g61
(g62
g63
NtRp5074
(dp5075
g66
(dp5076
g74
I3
ssg75
g5070
sg68
(lp5077
g104
asbasbasbag61
(g77
g63
NtRp5078
(dp5079
g66
(dp5080
sg75
g4098
sg68
(lp5081
g61
(g82
g63
NtRp5082
(dp5083
g66
(dp5084
g86
g87
ssg75
g5078
sg68
(lp5085
S'wsgi.multithread'
p5086
asbag61
(g82
g63
NtRp5087
(dp5088
g66
(dp5089
g93
g94
ssg75
g5078
sg68
(lp5090
S':'
asbag61
(g82
g63
NtRp5091
(dp5092
g66
(dp5093
sg75
g5078
sg68
(lp5094
g61
(g62
g63
NtRp5095
(dp5096
g66
(dp5097
g74
I3
ssg75
g5091
sg68
(lp5098
g3392
asbasbasbag61
(g77
g63
NtRp5099
(dp5100
g66
(dp5101
sg75
g4098
sg68
(lp5102
g61
(g82
g63
NtRp5103
(dp5104
g66
(dp5105
g86
g87
ssg75
g5099
sg68
(lp5106
S'wsgi.run_once'
p5107
asbag61
(g82
g63
NtRp5108
(dp5109
g66
(dp5110
g93
g94
ssg75
g5099
sg68
(lp5111
S':'
asbag61
(g82
g63
NtRp5112
(dp5113
g66
(dp5114
sg75
g5099
sg68
(lp5115
g61
(g62
g63
NtRp5116
(dp5117
g66
(dp5118
g74
I3
ssg75
g5112
sg68
(lp5119
g104
asbasbasbag61
(g77
g63
NtRp5120
(dp5121
g66
(dp5122
sg75
g4098
sg68
(lp5123
g61
(g82
g63
NtRp5124
(dp5125
g66
(dp5126
g86
g87
ssg75
g5120
sg68
(lp5127
S'wsgi.url_scheme'
p5128
asbag61
(g82
g63
NtRp5129
(dp5130
g66
(dp5131
g93
g94
ssg75
g5120
sg68
(lp5132
S':'
asbag61
(g82
g63
NtRp5133
(dp5134
g66
(dp5135
sg75
g5120
sg68
(lp5136
g61
(g62
g63
NtRp5137
(dp5138
g66
(dp5139
g74
I3
ssg75
g5133
sg68
(lp5140
g3435
asbasbasbag61
(g77
g63
NtRp5141
(dp5142
g66
(dp5143
sg75
g4098
sg68
(lp5144
g61
(g82
g63
NtRp5145
(dp5146
g66
(dp5147
g86
g87
ssg75
g5141
sg68
(lp5148
S'wsgi.version'
p5149
asbag61
(g82
g63
NtRp5150
(dp5151
g66
(dp5152
g93
g94
ssg75
g5141
sg68
(lp5153
S':'
asbag61
(g82
g63
NtRp5154
(dp5155
g66
(dp5156
sg75
g5141
sg68
(lp5157
g61
(g62
g63
NtRp5158
(dp5159
g66
(dp5160
g74
I3
ssg75
g5154
sg68
(lp5161
S'1'
asbasbasbasbasbasbasbasbasbasbasbasbasbsS'frames'
p5162
(lp5163
(dp5164
S'file'
p5165
S'D:\\Workbench\\private\\web2py_src\\gluon\\restricted.py'
p5166
sS'dump'
p5167
(dp5168
S'environment'
p5169
S"{'A': <class 'gluon.html.A'>, 'B': <class 'gluon.html.B'>, 'BEAUTIFY': <class 'gluon.html.BEAUTIFY'>, 'BODY': <class 'gluon.html.BODY'>, 'BR': <class 'gluon.html.BR'>, 'BUTTON': <class 'gluon.html.BUTTON'>, 'CAT': <class 'gluon.html.CAT'>, 'CENTER': <class 'gluon.html.CENTER'>, 'CLEANUP': <class 'gluon.validators.CLEANUP'>, 'CODE': <class 'gluon.html.CODE'>, ...}"
p5170
sS'ccode'
p5171
S'<code object <module> at 03E137B8, file "D:\\Work...tions\\examples\\controllers/transform.py", line 2>'
p5172
ssS'lnum'
p5173
I194
sS'lines'
p5174
(dp5175
I192
S'        else:'
p5176
sI193
S'            ccode = compile2(code,layer)'
p5177
sI194
S'        exec ccode in environment'
p5178
sI195
S'    except HTTP:'
p5179
sI196
S'        raise'
p5180
sI197
S'    except Exception, error:'
p5181
sI198
S'        # XXX Show exception in Wing IDE if running in debugger'
p5182
sI189
S'    try:'
p5183
sI190
S'        if type(code) == types.CodeType:'
p5184
sI191
S'            ccode = code'
p5185
ssS'call'
p5186
S"(code='\\ndef index():\\n    return dict()\\n\\ndef upload():\\n ...se None\\n\\nresponse._vars=response._caller(upload)\\n', environment={'A': <class 'gluon.html.A'>, 'B': <class 'gluon.html.B'>, 'BEAUTIFY': <class 'gluon.html.BEAUTIFY'>, 'BODY': <class 'gluon.html.BODY'>, 'BR': <class 'gluon.html.BR'>, 'BUTTON': <class 'gluon.html.BUTTON'>, 'CAT': <class 'gluon.html.CAT'>, 'CENTER': <class 'gluon.html.CENTER'>, 'CLEANUP': <class 'gluon.validators.CLEANUP'>, 'CODE': <class 'gluon.html.CODE'>, ...}, layer=r'D:\\Workbench\\private\\web2py_src\\applications\\examples\\controllers/transform.py')"
p5187
sS'func'
p5188
S'restricted'
p5189
sa(dp5190
g5165
S'D:\\Workbench\\private\\web2py_src\\applications\\examples\\controllers\\transform.py'
p5191
sg5167
(dp5192
sg5173
I11
sg5174
(dp5193
I1
S''
sI2
S'def index():'
p5194
sI3
S'    return dict()'
p5195
sI4
S''
sI5
S'def upload():'
p5196
sI6
S'    file = request.vars.myfile.file'
p5197
sI7
S"    wfile = open('a.jpg')"
p5198
sI8
S'    wfile.write(file.readlines())'
p5199
sI9
S"    return 'yes: %s' % file.readlines() if file else None"
p5200
ssg5186
S'()'
p5201
sg5188
S'<module>'
p5202
sa(dp5203
g5165
S'D:\\Workbench\\private\\web2py_src\\gluon\\globals.py'
p5204
sg5167
(dp5205
S'self'
p5206
S'undefined'
p5207
sS'f'
S'<function upload>'
p5208
ssg5173
I149
sg5174
(dp5209
I144
S'        self.meta = Storage()      # used by web2py_ajax.html'
p5210
sI145
S'        self.menu = []             # used by the default view layout'
p5211
sI146
S'        self.files = []            # used by web2py_ajax.html'
p5212
sI147
S'        self.generic_patterns = [] # patterns to allow generic views'
p5213
sI148
S'        self._vars = None'
p5214
sI149
S'        self._caller = lambda f: f()'
p5215
sI150
S'        self._view_environment = None'
p5216
sI151
S'        self._custom_commit = None'
p5217
sI152
S'        self._custom_rollback = None'
p5218
sI153
S''
ssg5186
S'(f=<function upload>)'
p5219
sg5188
S'<lambda>'
p5220
sa(dp5221
g5165
S'D:\\Workbench\\private\\web2py_src\\applications\\examples\\controllers\\transform.py'
p5222
sg5167
(dp5223
S'builtinopen'
p5224
S'<built-in function open>'
p5225
sS'wfile'
p5226
g5207
ssg5173
I7
sg5174
(dp5227
I1
S''
sI2
S'def index():'
p5228
sI3
S'    return dict()'
p5229
sI4
S''
sI5
S'def upload():'
p5230
sI6
S'    file = request.vars.myfile.file'
p5231
sI7
S"    wfile = open('a.jpg')"
p5232
sI8
S'    wfile.write(file.readlines())'
p5233
sI9
S"    return 'yes: %s' % file.readlines() if file else None"
p5234
ssg5186
S'()'
p5235
sg5188
S'upload'
p5236
sasS'pyver'
p5237
S'Python 2.7.2: C:\\Program Files\\Apache Software Foundation\\Apache2.2\\bin\\httpd.exe'
p5238
sS'session'
p5239
g61
(g62
g63
NtRp5240
(dp5241
g66
(dp5242
sg68
(lp5243
g61
(g70
g63
NtRp5244
(dp5245
g66
(dp5246
g74
I5
ssg75
Nsg68
(lp5247
sbasbsS'etype'
p5248
S"<type 'exceptions.IOError'>"
p5249
sS'date'
p5250
S'Sat Mar 10 20:13:30 2012'
p5251
sS'response'
p5252
g61
(g62
g63
NtRp5253
(dp5254
g66
(dp5255
sg68
(lp5256
g61
(g70
g63
NtRp5257
(dp5258
g66
(dp5259
g74
I5
ssg75
Nsg68
(lp5260
g61
(g77
g63
NtRp5261
(dp5262
g66
(dp5263
sg75
g5257
sg68
(lp5264
g61
(g82
g63
NtRp5265
(dp5266
g66
(dp5267
g86
g87
ssg75
g5261
sg68
(lp5268
g159
asbag61
(g82
g63
NtRp5269
(dp5270
g66
(dp5271
g93
g94
ssg75
g5261
sg68
(lp5272
S':'
asbag61
(g82
g63
NtRp5273
(dp5274
g66
(dp5275
sg75
g5261
sg68
(lp5276
g61
(g62
g63
NtRp5277
(dp5278
g66
(dp5279
g74
I5
ssg75
g5273
sg68
(lp5280
S'<cStringIO.StringO object at 0x03E7BD60>'
p5281
asbasbasbag61
(g77
g63
NtRp5282
(dp5283
g66
(dp5284
sg75
g5257
sg68
(lp5285
g61
(g82
g63
NtRp5286
(dp5287
g66
(dp5288
g86
g87
ssg75
g5282
sg68
(lp5289
g225
asbag61
(g82
g63
NtRp5290
(dp5291
g66
(dp5292
g93
g94
ssg75
g5282
sg68
(lp5293
S':'
asbag61
(g82
g63
NtRp5294
(dp5295
g66
(dp5296
sg75
g5282
sg68
(lp5297
g61
(g62
g63
NtRp5298
(dp5299
g66
(dp5300
g74
I5
ssg75
g5294
sg68
(lp5301
g61
(g70
g63
NtRp5302
(dp5303
g66
(dp5304
g74
I4
ssg75
Nsg68
(lp5305
g61
(g77
g63
NtRp5306
(dp5307
g66
(dp5308
sg75
g5302
sg68
(lp5309
g61
(g82
g63
NtRp5310
(dp5311
g66
(dp5312
g86
g87
ssg75
g5306
sg68
(lp5313
S'session_id_examples'
p5314
asbag61
(g82
g63
NtRp5315
(dp5316
g66
(dp5317
g93
g94
ssg75
g5306
sg68
(lp5318
S':'
asbag61
(g82
g63
NtRp5319
(dp5320
g66
(dp5321
sg75
g5306
sg68
(lp5322
g61
(g62
g63
NtRp5323
(dp5324
g66
(dp5325
g74
I4
ssg75
g5319
sg68
(lp5326
g61
(g70
g63
NtRp5327
(dp5328
g66
(dp5329
g74
I3
ssg75
Nsg68
(lp5330
g61
(g77
g63
NtRp5331
(dp5332
g66
(dp5333
sg75
g5327
sg68
(lp5334
g61
(g82
g63
NtRp5335
(dp5336
g66
(dp5337
g86
g87
ssg75
g5331
sg68
(lp5338
g275
asbag61
(g82
g63
NtRp5339
(dp5340
g66
(dp5341
g93
g94
ssg75
g5331
sg68
(lp5342
S':'
asbag61
(g82
g63
NtRp5343
(dp5344
g66
(dp5345
sg75
g5331
sg68
(lp5346
g61
(g62
g63
NtRp5347
(dp5348
g66
(dp5349
g74
I3
ssg75
g5343
sg68
(lp5350
S''
asbasbasbag61
(g77
g63
NtRp5351
(dp5352
g66
(dp5353
sg75
g5327
sg68
(lp5354
g61
(g82
g63
NtRp5355
(dp5356
g66
(dp5357
g86
g87
ssg75
g5351
sg68
(lp5358
g296
asbag61
(g82
g63
NtRp5359
(dp5360
g66
(dp5361
g93
g94
ssg75
g5351
sg68
(lp5362
S':'
asbag61
(g82
g63
NtRp5363
(dp5364
g66
(dp5365
sg75
g5351
sg68
(lp5366
g61
(g62
g63
NtRp5367
(dp5368
g66
(dp5369
g74
I3
ssg75
g5363
sg68
(lp5370
S''
asbasbasbag61
(g77
g63
NtRp5371
(dp5372
g66
(dp5373
sg75
g5327
sg68
(lp5374
g61
(g82
g63
NtRp5375
(dp5376
g66
(dp5377
g86
g87
ssg75
g5371
sg68
(lp5378
g317
asbag61
(g82
g63
NtRp5379
(dp5380
g66
(dp5381
g93
g94
ssg75
g5371
sg68
(lp5382
S':'
asbag61
(g82
g63
NtRp5383
(dp5384
g66
(dp5385
sg75
g5371
sg68
(lp5386
g61
(g62
g63
NtRp5387
(dp5388
g66
(dp5389
g74
I3
ssg75
g5383
sg68
(lp5390
S''
asbasbasbag61
(g77
g63
NtRp5391
(dp5392
g66
(dp5393
sg75
g5327
sg68
(lp5394
g61
(g82
g63
NtRp5395
(dp5396
g66
(dp5397
g86
g87
ssg75
g5391
sg68
(lp5398
g338
asbag61
(g82
g63
NtRp5399
(dp5400
g66
(dp5401
g93
g94
ssg75
g5391
sg68
(lp5402
S':'
asbag61
(g82
g63
NtRp5403
(dp5404
g66
(dp5405
sg75
g5391
sg68
(lp5406
g61
(g62
g63
NtRp5407
(dp5408
g66
(dp5409
g74
I3
ssg75
g5403
sg68
(lp5410
S''
asbasbasbag61
(g77
g63
NtRp5411
(dp5412
g66
(dp5413
sg75
g5327
sg68
(lp5414
g61
(g82
g63
NtRp5415
(dp5416
g66
(dp5417
g86
g87
ssg75
g5411
sg68
(lp5418
g359
asbag61
(g82
g63
NtRp5419
(dp5420
g66
(dp5421
g93
g94
ssg75
g5411
sg68
(lp5422
S':'
asbag61
(g82
g63
NtRp5423
(dp5424
g66
(dp5425
sg75
g5411
sg68
(lp5426
g61
(g62
g63
NtRp5427
(dp5428
g66
(dp5429
g74
I3
ssg75
g5423
sg68
(lp5430
S''
asbasbasbag61
(g77
g63
NtRp5431
(dp5432
g66
(dp5433
sg75
g5327
sg68
(lp5434
g61
(g82
g63
NtRp5435
(dp5436
g66
(dp5437
g86
g87
ssg75
g5431
sg68
(lp5438
g380
asbag61
(g82
g63
NtRp5439
(dp5440
g66
(dp5441
g93
g94
ssg75
g5431
sg68
(lp5442
S':'
asbag61
(g82
g63
NtRp5443
(dp5444
g66
(dp5445
sg75
g5431
sg68
(lp5446
g61
(g62
g63
NtRp5447
(dp5448
g66
(dp5449
g74
I3
ssg75
g5443
sg68
(lp5450
S'/'
asbasbasbag61
(g77
g63
NtRp5451
(dp5452
g66
(dp5453
sg75
g5327
sg68
(lp5454
g61
(g82
g63
NtRp5455
(dp5456
g66
(dp5457
g86
g87
ssg75
g5451
sg68
(lp5458
g401
asbag61
(g82
g63
NtRp5459
(dp5460
g66
(dp5461
g93
g94
ssg75
g5451
sg68
(lp5462
S':'
asbag61
(g82
g63
NtRp5463
(dp5464
g66
(dp5465
sg75
g5451
sg68
(lp5466
g61
(g62
g63
NtRp5467
(dp5468
g66
(dp5469
g74
I3
ssg75
g5463
sg68
(lp5470
S''
asbasbasbag61
(g77
g63
NtRp5471
(dp5472
g66
(dp5473
sg75
g5327
sg68
(lp5474
g61
(g82
g63
NtRp5475
(dp5476
g66
(dp5477
g86
g87
ssg75
g5471
sg68
(lp5478
g422
asbag61
(g82
g63
NtRp5479
(dp5480
g66
(dp5481
g93
g94
ssg75
g5471
sg68
(lp5482
S':'
asbag61
(g82
g63
NtRp5483
(dp5484
g66
(dp5485
sg75
g5471
sg68
(lp5486
g61
(g62
g63
NtRp5487
(dp5488
g66
(dp5489
g74
I3
ssg75
g5483
sg68
(lp5490
S''
asbasbasbasbasbasbasbasbasbasbasbag61
(g77
g63
NtRp5491
(dp5492
g66
(dp5493
sg75
g5257
sg68
(lp5494
g61
(g82
g63
NtRp5495
(dp5496
g66
(dp5497
g86
g87
ssg75
g5491
sg68
(lp5498
S'files'
p5499
asbag61
(g82
g63
NtRp5500
(dp5501
g66
(dp5502
g93
g94
ssg75
g5491
sg68
(lp5503
S':'
asbag61
(g82
g63
NtRp5504
(dp5505
g66
(dp5506
sg75
g5491
sg68
(lp5507
g61
(g62
g63
NtRp5508
(dp5509
g66
(dp5510
g74
I5
ssg75
g5504
sg68
(lp5511
g61
(g70
g63
NtRp5512
(dp5513
g66
(dp5514
g74
I4
ssg75
Nsg68
(lp5515
sbasbasbasbag61
(g77
g63
NtRp5516
(dp5517
g66
(dp5518
sg75
g5257
sg68
(lp5519
g61
(g82
g63
NtRp5520
(dp5521
g66
(dp5522
g86
g87
ssg75
g5516
sg68
(lp5523
S'flash'
p5524
asbag61
(g82
g63
NtRp5525
(dp5526
g66
(dp5527
g93
g94
ssg75
g5516
sg68
(lp5528
S':'
asbag61
(g82
g63
NtRp5529
(dp5530
g66
(dp5531
sg75
g5516
sg68
(lp5532
g61
(g62
g63
NtRp5533
(dp5534
g66
(dp5535
g74
I5
ssg75
g5529
sg68
(lp5536
S''
asbasbasbag61
(g77
g63
NtRp5537
(dp5538
g66
(dp5539
sg75
g5257
sg68
(lp5540
g61
(g82
g63
NtRp5541
(dp5542
g66
(dp5543
g86
g87
ssg75
g5537
sg68
(lp5544
S'generic_patterns'
p5545
asbag61
(g82
g63
NtRp5546
(dp5547
g66
(dp5548
g93
g94
ssg75
g5537
sg68
(lp5549
S':'
asbag61
(g82
g63
NtRp5550
(dp5551
g66
(dp5552
sg75
g5537
sg68
(lp5553
g61
(g62
g63
NtRp5554
(dp5555
g66
(dp5556
g74
I5
ssg75
g5550
sg68
(lp5557
g61
(g70
g63
NtRp5558
(dp5559
g66
(dp5560
g74
I4
ssg75
Nsg68
(lp5561
sbasbasbasbag61
(g77
g63
NtRp5562
(dp5563
g66
(dp5564
sg75
g5257
sg68
(lp5565
g61
(g82
g63
NtRp5566
(dp5567
g66
(dp5568
g86
g87
ssg75
g5562
sg68
(lp5569
S'headers'
p5570
asbag61
(g82
g63
NtRp5571
(dp5572
g66
(dp5573
g93
g94
ssg75
g5562
sg68
(lp5574
S':'
asbag61
(g82
g63
NtRp5575
(dp5576
g66
(dp5577
sg75
g5562
sg68
(lp5578
g61
(g62
g63
NtRp5579
(dp5580
g66
(dp5581
g74
I5
ssg75
g5575
sg68
(lp5582
g61
(g70
g63
NtRp5583
(dp5584
g66
(dp5585
g74
I4
ssg75
Nsg68
(lp5586
g61
(g77
g63
NtRp5587
(dp5588
g66
(dp5589
sg75
g5583
sg68
(lp5590
g61
(g82
g63
NtRp5591
(dp5592
g66
(dp5593
g86
g87
ssg75
g5587
sg68
(lp5594
S'Cache-Control'
p5595
asbag61
(g82
g63
NtRp5596
(dp5597
g66
(dp5598
g93
g94
ssg75
g5587
sg68
(lp5599
S':'
asbag61
(g82
g63
NtRp5600
(dp5601
g66
(dp5602
sg75
g5587
sg68
(lp5603
g61
(g62
g63
NtRp5604
(dp5605
g66
(dp5606
g74
I4
ssg75
g5600
sg68
(lp5607
S'no-store, no-cache, must-revalidate, post-check=0, pre-check=0'
p5608
asbasbasbag61
(g77
g63
NtRp5609
(dp5610
g66
(dp5611
sg75
g5583
sg68
(lp5612
g61
(g82
g63
NtRp5613
(dp5614
g66
(dp5615
g86
g87
ssg75
g5609
sg68
(lp5616
S'Content-Type'
p5617
asbag61
(g82
g63
NtRp5618
(dp5619
g66
(dp5620
g93
g94
ssg75
g5609
sg68
(lp5621
S':'
asbag61
(g82
g63
NtRp5622
(dp5623
g66
(dp5624
sg75
g5609
sg68
(lp5625
g61
(g62
g63
NtRp5626
(dp5627
g66
(dp5628
g74
I4
ssg75
g5622
sg68
(lp5629
S'text/html; charset=utf-8'
p5630
asbasbasbag61
(g77
g63
NtRp5631
(dp5632
g66
(dp5633
sg75
g5583
sg68
(lp5634
g61
(g82
g63
NtRp5635
(dp5636
g66
(dp5637
g86
g87
ssg75
g5631
sg68
(lp5638
S'Expires'
p5639
asbag61
(g82
g63
NtRp5640
(dp5641
g66
(dp5642
g93
g94
ssg75
g5631
sg68
(lp5643
S':'
asbag61
(g82
g63
NtRp5644
(dp5645
g66
(dp5646
sg75
g5631
sg68
(lp5647
g61
(g62
g63
NtRp5648
(dp5649
g66
(dp5650
g74
I4
ssg75
g5644
sg68
(lp5651
S'Sat, 10 Mar 2012 12:13:29 GMT'
p5652
asbasbasbag61
(g77
g63
NtRp5653
(dp5654
g66
(dp5655
sg75
g5583
sg68
(lp5656
g61
(g82
g63
NtRp5657
(dp5658
g66
(dp5659
g86
g87
ssg75
g5653
sg68
(lp5660
S'Pragma'
p5661
asbag61
(g82
g63
NtRp5662
(dp5663
g66
(dp5664
g93
g94
ssg75
g5653
sg68
(lp5665
S':'
asbag61
(g82
g63
NtRp5666
(dp5667
g66
(dp5668
sg75
g5653
sg68
(lp5669
g61
(g62
g63
NtRp5670
(dp5671
g66
(dp5672
g74
I4
ssg75
g5666
sg68
(lp5673
S'no-cache'
p5674
asbasbasbag61
(g77
g63
NtRp5675
(dp5676
g66
(dp5677
sg75
g5583
sg68
(lp5678
g61
(g82
g63
NtRp5679
(dp5680
g66
(dp5681
g86
g87
ssg75
g5675
sg68
(lp5682
S'X-Powered-By'
p5683
asbag61
(g82
g63
NtRp5684
(dp5685
g66
(dp5686
g93
g94
ssg75
g5675
sg68
(lp5687
S':'
asbag61
(g82
g63
NtRp5688
(dp5689
g66
(dp5690
sg75
g5675
sg68
(lp5691
g61
(g62
g63
NtRp5692
(dp5693
g66
(dp5694
g74
I4
ssg75
g5688
sg68
(lp5695
S'web2py'
p5696
asbasbasbasbasbasbasbag61
(g77
g63
NtRp5697
(dp5698
g66
(dp5699
sg75
g5257
sg68
(lp5700
g61
(g82
g63
NtRp5701
(dp5702
g66
(dp5703
g86
g87
ssg75
g5697
sg68
(lp5704
S'menu'
p5705
asbag61
(g82
g63
NtRp5706
(dp5707
g66
(dp5708
g93
g94
ssg75
g5697
sg68
(lp5709
S':'
asbag61
(g82
g63
NtRp5710
(dp5711
g66
(dp5712
sg75
g5697
sg68
(lp5713
g61
(g62
g63
NtRp5714
(dp5715
g66
(dp5716
g74
I5
ssg75
g5710
sg68
(lp5717
g61
(g70
g63
NtRp5718
(dp5719
g66
(dp5720
g74
I4
ssg75
Nsg68
(lp5721
sbasbasbasbag61
(g77
g63
NtRp5722
(dp5723
g66
(dp5724
sg75
g5257
sg68
(lp5725
g61
(g82
g63
NtRp5726
(dp5727
g66
(dp5728
g86
g87
ssg75
g5722
sg68
(lp5729
S'meta'
p5730
asbag61
(g82
g63
NtRp5731
(dp5732
g66
(dp5733
g93
g94
ssg75
g5722
sg68
(lp5734
S':'
asbag61
(g82
g63
NtRp5735
(dp5736
g66
(dp5737
sg75
g5722
sg68
(lp5738
g61
(g62
g63
NtRp5739
(dp5740
g66
(dp5741
g74
I5
ssg75
g5735
sg68
(lp5742
g61
(g70
g63
NtRp5743
(dp5744
g66
(dp5745
g74
I4
ssg75
Nsg68
(lp5746
sbasbasbasbag61
(g77
g63
NtRp5747
(dp5748
g66
(dp5749
sg75
g5257
sg68
(lp5750
g61
(g82
g63
NtRp5751
(dp5752
g66
(dp5753
g86
g87
ssg75
g5747
sg68
(lp5754
S'postprocessing'
p5755
asbag61
(g82
g63
NtRp5756
(dp5757
g66
(dp5758
g93
g94
ssg75
g5747
sg68
(lp5759
S':'
asbag61
(g82
g63
NtRp5760
(dp5761
g66
(dp5762
sg75
g5747
sg68
(lp5763
g61
(g62
g63
NtRp5764
(dp5765
g66
(dp5766
g74
I5
ssg75
g5760
sg68
(lp5767
g61
(g70
g63
NtRp5768
(dp5769
g66
(dp5770
g74
I4
ssg75
Nsg68
(lp5771
sbasbasbasbag61
(g77
g63
NtRp5772
(dp5773
g66
(dp5774
sg75
g5257
sg68
(lp5775
g61
(g82
g63
NtRp5776
(dp5777
g66
(dp5778
g86
g87
ssg75
g5772
sg68
(lp5779
S'session_filename'
p5780
asbag61
(g82
g63
NtRp5781
(dp5782
g66
(dp5783
g93
g94
ssg75
g5772
sg68
(lp5784
S':'
asbag61
(g82
g63
NtRp5785
(dp5786
g66
(dp5787
sg75
g5772
sg68
(lp5788
g61
(g62
g63
NtRp5789
(dp5790
g66
(dp5791
g74
I5
ssg75
g5785
sg68
(lp5792
S'D:\\Workbench\\private\\web2py_src\\applications\\examples\\sessions\\127.0.0.1-0c232644-2a51-4dab-adf6-7bd5594c0dbc'
p5793
asbasbasbag61
(g77
g63
NtRp5794
(dp5795
g66
(dp5796
sg75
g5257
sg68
(lp5797
g61
(g82
g63
NtRp5798
(dp5799
g66
(dp5800
g86
g87
ssg75
g5794
sg68
(lp5801
S'session_id'
p5802
asbag61
(g82
g63
NtRp5803
(dp5804
g66
(dp5805
g93
g94
ssg75
g5794
sg68
(lp5806
S':'
asbag61
(g82
g63
NtRp5807
(dp5808
g66
(dp5809
sg75
g5794
sg68
(lp5810
g61
(g62
g63
NtRp5811
(dp5812
g66
(dp5813
g74
I5
ssg75
g5807
sg68
(lp5814
S'127.0.0.1-0c232644-2a51-4dab-adf6-7bd5594c0dbc'
p5815
asbasbasbag61
(g77
g63
NtRp5816
(dp5817
g66
(dp5818
sg75
g5257
sg68
(lp5819
g61
(g82
g63
NtRp5820
(dp5821
g66
(dp5822
g86
g87
ssg75
g5816
sg68
(lp5823
S'session_id_name'
p5824
asbag61
(g82
g63
NtRp5825
(dp5826
g66
(dp5827
g93
g94
ssg75
g5816
sg68
(lp5828
S':'
asbag61
(g82
g63
NtRp5829
(dp5830
g66
(dp5831
sg75
g5816
sg68
(lp5832
g61
(g62
g63
NtRp5833
(dp5834
g66
(dp5835
g74
I5
ssg75
g5829
sg68
(lp5836
g5314
asbasbasbag61
(g77
g63
NtRp5837
(dp5838
g66
(dp5839
sg75
g5257
sg68
(lp5840
g61
(g82
g63
NtRp5841
(dp5842
g66
(dp5843
g86
g87
ssg75
g5837
sg68
(lp5844
S'session_new'
p5845
asbag61
(g82
g63
NtRp5846
(dp5847
g66
(dp5848
g93
g94
ssg75
g5837
sg68
(lp5849
S':'
asbag61
(g82
g63
NtRp5850
(dp5851
g66
(dp5852
sg75
g5837
sg68
(lp5853
g61
(g62
g63
NtRp5854
(dp5855
g66
(dp5856
g74
I5
ssg75
g5850
sg68
(lp5857
g3392
asbasbasbag61
(g77
g63
NtRp5858
(dp5859
g66
(dp5860
sg75
g5257
sg68
(lp5861
g61
(g82
g63
NtRp5862
(dp5863
g66
(dp5864
g86
g87
ssg75
g5858
sg68
(lp5865
S'status'
p5866
asbag61
(g82
g63
NtRp5867
(dp5868
g66
(dp5869
g93
g94
ssg75
g5858
sg68
(lp5870
S':'
asbag61
(g82
g63
NtRp5871
(dp5872
g66
(dp5873
sg75
g5858
sg68
(lp5874
g61
(g62
g63
NtRp5875
(dp5876
g66
(dp5877
g74
I5
ssg75
g5871
sg68
(lp5878
S'200'
p5879
asbasbasbag61
(g77
g63
NtRp5880
(dp5881
g66
(dp5882
sg75
g5257
sg68
(lp5883
g61
(g82
g63
NtRp5884
(dp5885
g66
(dp5886
g86
g87
ssg75
g5880
sg68
(lp5887
g3993
asbag61
(g82
g63
NtRp5888
(dp5889
g66
(dp5890
g93
g94
ssg75
g5880
sg68
(lp5891
S':'
asbag61
(g82
g63
NtRp5892
(dp5893
g66
(dp5894
sg75
g5880
sg68
(lp5895
g61
(g62
g63
NtRp5896
(dp5897
g66
(dp5898
g74
I5
ssg75
g5892
sg68
(lp5899
g4006
asbasbasbag61
(g77
g63
NtRp5900
(dp5901
g66
(dp5902
sg75
g5257
sg68
(lp5903
g61
(g82
g63
NtRp5904
(dp5905
g66
(dp5906
g86
g87
ssg75
g5900
sg68
(lp5907
S'view'
p5908
asbag61
(g82
g63
NtRp5909
(dp5910
g66
(dp5911
g93
g94
ssg75
g5900
sg68
(lp5912
S':'
asbag61
(g82
g63
NtRp5913
(dp5914
g66
(dp5915
sg75
g5900
sg68
(lp5916
g61
(g62
g63
NtRp5917
(dp5918
g66
(dp5919
g74
I5
ssg75
g5913
sg68
(lp5920
S'transform/upload.html'
p5921
asbasbasbasbasbsS'locals'
p5922
(dp5923
g5165
S"<open file '<fdopen>', mode 'w+b'>"
p5924
sssS'traceback'
p5925
S'Traceback (most recent call last):\n  File "D:\\Workbench\\private\\web2py_src\\gluon\\restricted.py", line 194, in restricted\n    exec ccode in environment\n  File "D:\\Workbench\\private\\web2py_src\\applications\\examples\\controllers/transform.py", line 11, in <module>\n  File "D:\\Workbench\\private\\web2py_src\\gluon\\globals.py", line 149, in <lambda>\n    self._caller = lambda f: f()\n  File "D:\\Workbench\\private\\web2py_src\\applications\\examples\\controllers/transform.py", line 7, in upload\n    wfile = open(\'a.jpg\')\nIOError: [Errno 2] No such file or directory: \'a.jpg\'\n'
p5926
s.