(dp1
S'output'
p2
S''
sS'layer'
p3
S'Framework'
p4
sS'code'
p5
S''
sS'snapshot'
p6
(dp7
S'exception'
p8
(dp9
S'__hash__'
p10
S"<method-wrapper '__hash__' of exceptions.TypeError object>"
p11
sS'__setattr__'
p12
S"<method-wrapper '__setattr__' of exceptions.TypeError object>"
p13
sS'__reduce_ex__'
p14
S'<built-in method __reduce_ex__ of exceptions.TypeError object>'
p15
sS'__getslice__'
p16
S"<method-wrapper '__getslice__' of exceptions.TypeError object>"
p17
sS'__getitem__'
p18
S"<method-wrapper '__getitem__' of exceptions.TypeError object>"
p19
sS'__setstate__'
p20
S'<built-in method __setstate__ of exceptions.TypeError object>'
p21
sS'__reduce__'
p22
S'<built-in method __reduce__ of exceptions.TypeError object>'
p23
sS'__str__'
p24
S"<method-wrapper '__str__' of exceptions.TypeError object>"
p25
sS'__format__'
p26
S'<built-in method __format__ of exceptions.TypeError object>'
p27
sS'__getattribute__'
p28
S"<method-wrapper '__getattribute__' of exceptions.TypeError object>"
p29
sS'__class__'
p30
S"<type 'exceptions.TypeError'>"
p31
sS'__unicode__'
p32
S'<built-in method __unicode__ of exceptions.TypeError object>'
p33
sS'__delattr__'
p34
S"<method-wrapper '__delattr__' of exceptions.TypeError object>"
p35
sS'__subclasshook__'
p36
S'<built-in method __subclasshook__ of type object>'
p37
sS'__repr__'
p38
S"<method-wrapper '__repr__' of exceptions.TypeError object>"
p39
sS'args'
p40
S'("\'NoneType\' object is not callable",)'
p41
sS'__dict__'
p42
S'{}'
p43
sS'__sizeof__'
p44
S'<built-in method __sizeof__ of exceptions.TypeError object>'
p45
sS'__doc__'
p46
S"'Inappropriate argument type.'"
p47
sS'__init__'
p48
S"<method-wrapper '__init__' of exceptions.TypeError object>"
p49
sS'__new__'
p50
S'<built-in method __new__ of type object>'
p51
ssS'evalue'
p52
S"'NoneType' object is not callable"
p53
sS'request'
p54
ccopy_reg
_reconstructor
p55
(cgluon.html
BEAUTIFY
p56
c__builtin__
object
p57
NtRp58
(dp59
S'attributes'
p60
(dp61
sS'components'
p62
(lp63
g55
(cgluon.html
TABLE
p64
g57
NtRp65
(dp66
g60
(dp67
S'level'
p68
I5
ssS'parent'
p69
Nsg62
(lp70
g55
(cgluon.html
TR
p71
g57
NtRp72
(dp73
g60
(dp74
sg69
g65
sg62
(lp75
g55
(cgluon.html
TD
p76
g57
NtRp77
(dp78
g60
(dp79
S'_style'
p80
S'font-weight:bold;'
p81
ssg69
g72
sg62
(lp82
S'ajax'
p83
asbag55
(g76
g57
NtRp84
(dp85
g60
(dp86
S'_valign'
p87
S'top'
p88
ssg69
g72
sg62
(lp89
S':'
asbag55
(g76
g57
NtRp90
(dp91
g60
(dp92
sg69
g72
sg62
(lp93
g55
(g56
g57
NtRp94
(dp95
g60
(dp96
g68
I5
ssg69
g90
sg62
(lp97
S'False'
p98
asbasbasbag55
(g71
g57
NtRp99
(dp100
g60
(dp101
sg69
g65
sg62
(lp102
g55
(g76
g57
NtRp103
(dp104
g60
(dp105
g80
g81
ssg69
g99
sg62
(lp106
S'application'
p107
asbag55
(g76
g57
NtRp108
(dp109
g60
(dp110
g87
g88
ssg69
g99
sg62
(lp111
S':'
asbag55
(g76
g57
NtRp112
(dp113
g60
(dp114
sg69
g99
sg62
(lp115
g55
(g56
g57
NtRp116
(dp117
g60
(dp118
g68
I5
ssg69
g112
sg62
(lp119
S'examples'
p120
asbasbasbag55
(g71
g57
NtRp121
(dp122
g60
(dp123
sg69
g65
sg62
(lp124
g55
(g76
g57
NtRp125
(dp126
g60
(dp127
g80
g81
ssg69
g121
sg62
(lp128
g40
asbag55
(g76
g57
NtRp129
(dp130
g60
(dp131
g87
g88
ssg69
g121
sg62
(lp132
S':'
asbag55
(g76
g57
NtRp133
(dp134
g60
(dp135
sg69
g121
sg62
(lp136
g55
(g56
g57
NtRp137
(dp138
g60
(dp139
g68
I5
ssg69
g133
sg62
(lp140
g55
(g64
g57
NtRp141
(dp142
g60
(dp143
g68
I4
ssg69
Nsg62
(lp144
sbasbasbasbag55
(g71
g57
NtRp145
(dp146
g60
(dp147
sg69
g65
sg62
(lp148
g55
(g76
g57
NtRp149
(dp150
g60
(dp151
g80
g81
ssg69
g145
sg62
(lp152
S'body'
p153
asbag55
(g76
g57
NtRp154
(dp155
g60
(dp156
g87
g88
ssg69
g145
sg62
(lp157
S':'
asbag55
(g76
g57
NtRp158
(dp159
g60
(dp160
sg69
g145
sg62
(lp161
g55
(g56
g57
NtRp162
(dp163
g60
(dp164
g68
I5
ssg69
g158
sg62
(lp165
S"<closed file '<fdopen>', mode 'w+b' at 0x0408B7B0>"
p166
asbasbasbag55
(g71
g57
NtRp167
(dp168
g60
(dp169
sg69
g65
sg62
(lp170
g55
(g76
g57
NtRp171
(dp172
g60
(dp173
g80
g81
ssg69
g167
sg62
(lp174
S'client'
p175
asbag55
(g76
g57
NtRp176
(dp177
g60
(dp178
g87
g88
ssg69
g167
sg62
(lp179
S':'
asbag55
(g76
g57
NtRp180
(dp181
g60
(dp182
sg69
g167
sg62
(lp183
g55
(g56
g57
NtRp184
(dp185
g60
(dp186
g68
I5
ssg69
g180
sg62
(lp187
S'127.0.0.1'
p188
asbasbasbag55
(g71
g57
NtRp189
(dp190
g60
(dp191
sg69
g65
sg62
(lp192
g55
(g76
g57
NtRp193
(dp194
g60
(dp195
g80
g81
ssg69
g189
sg62
(lp196
S'controller'
p197
asbag55
(g76
g57
NtRp198
(dp199
g60
(dp200
g87
g88
ssg69
g189
sg62
(lp201
S':'
asbag55
(g76
g57
NtRp202
(dp203
g60
(dp204
sg69
g189
sg62
(lp205
g55
(g56
g57
NtRp206
(dp207
g60
(dp208
g68
I5
ssg69
g202
sg62
(lp209
S'transform'
p210
asbasbasbag55
(g71
g57
NtRp211
(dp212
g60
(dp213
sg69
g65
sg62
(lp214
g55
(g76
g57
NtRp215
(dp216
g60
(dp217
g80
g81
ssg69
g211
sg62
(lp218
S'cookies'
p219
asbag55
(g76
g57
NtRp220
(dp221
g60
(dp222
g87
g88
ssg69
g211
sg62
(lp223
S':'
asbag55
(g76
g57
NtRp224
(dp225
g60
(dp226
sg69
g211
sg62
(lp227
g55
(g56
g57
NtRp228
(dp229
g60
(dp230
g68
I5
ssg69
g224
sg62
(lp231
g55
(g64
g57
NtRp232
(dp233
g60
(dp234
g68
I4
ssg69
Nsg62
(lp235
g55
(g71
g57
NtRp236
(dp237
g60
(dp238
sg69
g232
sg62
(lp239
g55
(g76
g57
NtRp240
(dp241
g60
(dp242
g80
g81
ssg69
g236
sg62
(lp243
S'ac'
p244
asbag55
(g76
g57
NtRp245
(dp246
g60
(dp247
g87
g88
ssg69
g236
sg62
(lp248
S':'
asbag55
(g76
g57
NtRp249
(dp250
g60
(dp251
sg69
g236
sg62
(lp252
g55
(g56
g57
NtRp253
(dp254
g60
(dp255
g68
I4
ssg69
g249
sg62
(lp256
g55
(g64
g57
NtRp257
(dp258
g60
(dp259
g68
I3
ssg69
Nsg62
(lp260
g55
(g71
g57
NtRp261
(dp262
g60
(dp263
sg69
g257
sg62
(lp264
g55
(g76
g57
NtRp265
(dp266
g60
(dp267
g80
g81
ssg69
g261
sg62
(lp268
S'comment'
p269
asbag55
(g76
g57
NtRp270
(dp271
g60
(dp272
g87
g88
ssg69
g261
sg62
(lp273
S':'
asbag55
(g76
g57
NtRp274
(dp275
g60
(dp276
sg69
g261
sg62
(lp277
g55
(g56
g57
NtRp278
(dp279
g60
(dp280
g68
I3
ssg69
g274
sg62
(lp281
S''
asbasbasbag55
(g71
g57
NtRp282
(dp283
g60
(dp284
sg69
g257
sg62
(lp285
g55
(g76
g57
NtRp286
(dp287
g60
(dp288
g80
g81
ssg69
g282
sg62
(lp289
S'domain'
p290
asbag55
(g76
g57
NtRp291
(dp292
g60
(dp293
g87
g88
ssg69
g282
sg62
(lp294
S':'
asbag55
(g76
g57
NtRp295
(dp296
g60
(dp297
sg69
g282
sg62
(lp298
g55
(g56
g57
NtRp299
(dp300
g60
(dp301
g68
I3
ssg69
g295
sg62
(lp302
S''
asbasbasbag55
(g71
g57
NtRp303
(dp304
g60
(dp305
sg69
g257
sg62
(lp306
g55
(g76
g57
NtRp307
(dp308
g60
(dp309
g80
g81
ssg69
g303
sg62
(lp310
S'expires'
p311
asbag55
(g76
g57
NtRp312
(dp313
g60
(dp314
g87
g88
ssg69
g303
sg62
(lp315
S':'
asbag55
(g76
g57
NtRp316
(dp317
g60
(dp318
sg69
g303
sg62
(lp319
g55
(g56
g57
NtRp320
(dp321
g60
(dp322
g68
I3
ssg69
g316
sg62
(lp323
S''
asbasbasbag55
(g71
g57
NtRp324
(dp325
g60
(dp326
sg69
g257
sg62
(lp327
g55
(g76
g57
NtRp328
(dp329
g60
(dp330
g80
g81
ssg69
g324
sg62
(lp331
S'httponly'
p332
asbag55
(g76
g57
NtRp333
(dp334
g60
(dp335
g87
g88
ssg69
g324
sg62
(lp336
S':'
asbag55
(g76
g57
NtRp337
(dp338
g60
(dp339
sg69
g324
sg62
(lp340
g55
(g56
g57
NtRp341
(dp342
g60
(dp343
g68
I3
ssg69
g337
sg62
(lp344
S''
asbasbasbag55
(g71
g57
NtRp345
(dp346
g60
(dp347
sg69
g257
sg62
(lp348
g55
(g76
g57
NtRp349
(dp350
g60
(dp351
g80
g81
ssg69
g345
sg62
(lp352
S'max-age'
p353
asbag55
(g76
g57
NtRp354
(dp355
g60
(dp356
g87
g88
ssg69
g345
sg62
(lp357
S':'
asbag55
(g76
g57
NtRp358
(dp359
g60
(dp360
sg69
g345
sg62
(lp361
g55
(g56
g57
NtRp362
(dp363
g60
(dp364
g68
I3
ssg69
g358
sg62
(lp365
S''
asbasbasbag55
(g71
g57
NtRp366
(dp367
g60
(dp368
sg69
g257
sg62
(lp369
g55
(g76
g57
NtRp370
(dp371
g60
(dp372
g80
g81
ssg69
g366
sg62
(lp373
S'path'
p374
asbag55
(g76
g57
NtRp375
(dp376
g60
(dp377
g87
g88
ssg69
g366
sg62
(lp378
S':'
asbag55
(g76
g57
NtRp379
(dp380
g60
(dp381
sg69
g366
sg62
(lp382
g55
(g56
g57
NtRp383
(dp384
g60
(dp385
g68
I3
ssg69
g379
sg62
(lp386
S''
asbasbasbag55
(g71
g57
NtRp387
(dp388
g60
(dp389
sg69
g257
sg62
(lp390
g55
(g76
g57
NtRp391
(dp392
g60
(dp393
g80
g81
ssg69
g387
sg62
(lp394
S'secure'
p395
asbag55
(g76
g57
NtRp396
(dp397
g60
(dp398
g87
g88
ssg69
g387
sg62
(lp399
S':'
asbag55
(g76
g57
NtRp400
(dp401
g60
(dp402
sg69
g387
sg62
(lp403
g55
(g56
g57
NtRp404
(dp405
g60
(dp406
g68
I3
ssg69
g400
sg62
(lp407
S''
asbasbasbag55
(g71
g57
NtRp408
(dp409
g60
(dp410
sg69
g257
sg62
(lp411
g55
(g76
g57
NtRp412
(dp413
g60
(dp414
g80
g81
ssg69
g408
sg62
(lp415
S'version'
p416
asbag55
(g76
g57
NtRp417
(dp418
g60
(dp419
g87
g88
ssg69
g408
sg62
(lp420
S':'
asbag55
(g76
g57
NtRp421
(dp422
g60
(dp423
sg69
g408
sg62
(lp424
g55
(g56
g57
NtRp425
(dp426
g60
(dp427
g68
I3
ssg69
g421
sg62
(lp428
S''
asbasbasbasbasbasbasbag55
(g71
g57
NtRp429
(dp430
g60
(dp431
sg69
g232
sg62
(lp432
g55
(g76
g57
NtRp433
(dp434
g60
(dp435
g80
g81
ssg69
g429
sg62
(lp436
S'euin_cookie'
p437
asbag55
(g76
g57
NtRp438
(dp439
g60
(dp440
g87
g88
ssg69
g429
sg62
(lp441
S':'
asbag55
(g76
g57
NtRp442
(dp443
g60
(dp444
sg69
g429
sg62
(lp445
g55
(g56
g57
NtRp446
(dp447
g60
(dp448
g68
I4
ssg69
g442
sg62
(lp449
g55
(g64
g57
NtRp450
(dp451
g60
(dp452
g68
I3
ssg69
Nsg62
(lp453
g55
(g71
g57
NtRp454
(dp455
g60
(dp456
sg69
g450
sg62
(lp457
g55
(g76
g57
NtRp458
(dp459
g60
(dp460
g80
g81
ssg69
g454
sg62
(lp461
g269
asbag55
(g76
g57
NtRp462
(dp463
g60
(dp464
g87
g88
ssg69
g454
sg62
(lp465
S':'
asbag55
(g76
g57
NtRp466
(dp467
g60
(dp468
sg69
g454
sg62
(lp469
g55
(g56
g57
NtRp470
(dp471
g60
(dp472
g68
I3
ssg69
g466
sg62
(lp473
S''
asbasbasbag55
(g71
g57
NtRp474
(dp475
g60
(dp476
sg69
g450
sg62
(lp477
g55
(g76
g57
NtRp478
(dp479
g60
(dp480
g80
g81
ssg69
g474
sg62
(lp481
g290
asbag55
(g76
g57
NtRp482
(dp483
g60
(dp484
g87
g88
ssg69
g474
sg62
(lp485
S':'
asbag55
(g76
g57
NtRp486
(dp487
g60
(dp488
sg69
g474
sg62
(lp489
g55
(g56
g57
NtRp490
(dp491
g60
(dp492
g68
I3
ssg69
g486
sg62
(lp493
S''
asbasbasbag55
(g71
g57
NtRp494
(dp495
g60
(dp496
sg69
g450
sg62
(lp497
g55
(g76
g57
NtRp498
(dp499
g60
(dp500
g80
g81
ssg69
g494
sg62
(lp501
g311
asbag55
(g76
g57
NtRp502
(dp503
g60
(dp504
g87
g88
ssg69
g494
sg62
(lp505
S':'
asbag55
(g76
g57
NtRp506
(dp507
g60
(dp508
sg69
g494
sg62
(lp509
g55
(g56
g57
NtRp510
(dp511
g60
(dp512
g68
I3
ssg69
g506
sg62
(lp513
S''
asbasbasbag55
(g71
g57
NtRp514
(dp515
g60
(dp516
sg69
g450
sg62
(lp517
g55
(g76
g57
NtRp518
(dp519
g60
(dp520
g80
g81
ssg69
g514
sg62
(lp521
g332
asbag55
(g76
g57
NtRp522
(dp523
g60
(dp524
g87
g88
ssg69
g514
sg62
(lp525
S':'
asbag55
(g76
g57
NtRp526
(dp527
g60
(dp528
sg69
g514
sg62
(lp529
g55
(g56
g57
NtRp530
(dp531
g60
(dp532
g68
I3
ssg69
g526
sg62
(lp533
S''
asbasbasbag55
(g71
g57
NtRp534
(dp535
g60
(dp536
sg69
g450
sg62
(lp537
g55
(g76
g57
NtRp538
(dp539
g60
(dp540
g80
g81
ssg69
g534
sg62
(lp541
g353
asbag55
(g76
g57
NtRp542
(dp543
g60
(dp544
g87
g88
ssg69
g534
sg62
(lp545
S':'
asbag55
(g76
g57
NtRp546
(dp547
g60
(dp548
sg69
g534
sg62
(lp549
g55
(g56
g57
NtRp550
(dp551
g60
(dp552
g68
I3
ssg69
g546
sg62
(lp553
S''
asbasbasbag55
(g71
g57
NtRp554
(dp555
g60
(dp556
sg69
g450
sg62
(lp557
g55
(g76
g57
NtRp558
(dp559
g60
(dp560
g80
g81
ssg69
g554
sg62
(lp561
g374
asbag55
(g76
g57
NtRp562
(dp563
g60
(dp564
g87
g88
ssg69
g554
sg62
(lp565
S':'
asbag55
(g76
g57
NtRp566
(dp567
g60
(dp568
sg69
g554
sg62
(lp569
g55
(g56
g57
NtRp570
(dp571
g60
(dp572
g68
I3
ssg69
g566
sg62
(lp573
S''
asbasbasbag55
(g71
g57
NtRp574
(dp575
g60
(dp576
sg69
g450
sg62
(lp577
g55
(g76
g57
NtRp578
(dp579
g60
(dp580
g80
g81
ssg69
g574
sg62
(lp581
g395
asbag55
(g76
g57
NtRp582
(dp583
g60
(dp584
g87
g88
ssg69
g574
sg62
(lp585
S':'
asbag55
(g76
g57
NtRp586
(dp587
g60
(dp588
sg69
g574
sg62
(lp589
g55
(g56
g57
NtRp590
(dp591
g60
(dp592
g68
I3
ssg69
g586
sg62
(lp593
S''
asbasbasbag55
(g71
g57
NtRp594
(dp595
g60
(dp596
sg69
g450
sg62
(lp597
g55
(g76
g57
NtRp598
(dp599
g60
(dp600
g80
g81
ssg69
g594
sg62
(lp601
g416
asbag55
(g76
g57
NtRp602
(dp603
g60
(dp604
g87
g88
ssg69
g594
sg62
(lp605
S':'
asbag55
(g76
g57
NtRp606
(dp607
g60
(dp608
sg69
g594
sg62
(lp609
g55
(g56
g57
NtRp610
(dp611
g60
(dp612
g68
I3
ssg69
g606
sg62
(lp613
S''
asbasbasbasbasbasbasbag55
(g71
g57
NtRp614
(dp615
g60
(dp616
sg69
g232
sg62
(lp617
g55
(g76
g57
NtRp618
(dp619
g60
(dp620
g80
g81
ssg69
g614
sg62
(lp621
S'o_cookie'
p622
asbag55
(g76
g57
NtRp623
(dp624
g60
(dp625
g87
g88
ssg69
g614
sg62
(lp626
S':'
asbag55
(g76
g57
NtRp627
(dp628
g60
(dp629
sg69
g614
sg62
(lp630
g55
(g56
g57
NtRp631
(dp632
g60
(dp633
g68
I4
ssg69
g627
sg62
(lp634
g55
(g64
g57
NtRp635
(dp636
g60
(dp637
g68
I3
ssg69
Nsg62
(lp638
g55
(g71
g57
NtRp639
(dp640
g60
(dp641
sg69
g635
sg62
(lp642
g55
(g76
g57
NtRp643
(dp644
g60
(dp645
g80
g81
ssg69
g639
sg62
(lp646
g269
asbag55
(g76
g57
NtRp647
(dp648
g60
(dp649
g87
g88
ssg69
g639
sg62
(lp650
S':'
asbag55
(g76
g57
NtRp651
(dp652
g60
(dp653
sg69
g639
sg62
(lp654
g55
(g56
g57
NtRp655
(dp656
g60
(dp657
g68
I3
ssg69
g651
sg62
(lp658
S''
asbasbasbag55
(g71
g57
NtRp659
(dp660
g60
(dp661
sg69
g635
sg62
(lp662
g55
(g76
g57
NtRp663
(dp664
g60
(dp665
g80
g81
ssg69
g659
sg62
(lp666
g290
asbag55
(g76
g57
NtRp667
(dp668
g60
(dp669
g87
g88
ssg69
g659
sg62
(lp670
S':'
asbag55
(g76
g57
NtRp671
(dp672
g60
(dp673
sg69
g659
sg62
(lp674
g55
(g56
g57
NtRp675
(dp676
g60
(dp677
g68
I3
ssg69
g671
sg62
(lp678
S''
asbasbasbag55
(g71
g57
NtRp679
(dp680
g60
(dp681
sg69
g635
sg62
(lp682
g55
(g76
g57
NtRp683
(dp684
g60
(dp685
g80
g81
ssg69
g679
sg62
(lp686
g311
asbag55
(g76
g57
NtRp687
(dp688
g60
(dp689
g87
g88
ssg69
g679
sg62
(lp690
S':'
asbag55
(g76
g57
NtRp691
(dp692
g60
(dp693
sg69
g679
sg62
(lp694
g55
(g56
g57
NtRp695
(dp696
g60
(dp697
g68
I3
ssg69
g691
sg62
(lp698
S''
asbasbasbag55
(g71
g57
NtRp699
(dp700
g60
(dp701
sg69
g635
sg62
(lp702
g55
(g76
g57
NtRp703
(dp704
g60
(dp705
g80
g81
ssg69
g699
sg62
(lp706
g332
asbag55
(g76
g57
NtRp707
(dp708
g60
(dp709
g87
g88
ssg69
g699
sg62
(lp710
S':'
asbag55
(g76
g57
NtRp711
(dp712
g60
(dp713
sg69
g699
sg62
(lp714
g55
(g56
g57
NtRp715
(dp716
g60
(dp717
g68
I3
ssg69
g711
sg62
(lp718
S''
asbasbasbag55
(g71
g57
NtRp719
(dp720
g60
(dp721
sg69
g635
sg62
(lp722
g55
(g76
g57
NtRp723
(dp724
g60
(dp725
g80
g81
ssg69
g719
sg62
(lp726
g353
asbag55
(g76
g57
NtRp727
(dp728
g60
(dp729
g87
g88
ssg69
g719
sg62
(lp730
S':'
asbag55
(g76
g57
NtRp731
(dp732
g60
(dp733
sg69
g719
sg62
(lp734
g55
(g56
g57
NtRp735
(dp736
g60
(dp737
g68
I3
ssg69
g731
sg62
(lp738
S''
asbasbasbag55
(g71
g57
NtRp739
(dp740
g60
(dp741
sg69
g635
sg62
(lp742
g55
(g76
g57
NtRp743
(dp744
g60
(dp745
g80
g81
ssg69
g739
sg62
(lp746
g374
asbag55
(g76
g57
NtRp747
(dp748
g60
(dp749
g87
g88
ssg69
g739
sg62
(lp750
S':'
asbag55
(g76
g57
NtRp751
(dp752
g60
(dp753
sg69
g739
sg62
(lp754
g55
(g56
g57
NtRp755
(dp756
g60
(dp757
g68
I3
ssg69
g751
sg62
(lp758
S''
asbasbasbag55
(g71
g57
NtRp759
(dp760
g60
(dp761
sg69
g635
sg62
(lp762
g55
(g76
g57
NtRp763
(dp764
g60
(dp765
g80
g81
ssg69
g759
sg62
(lp766
g395
asbag55
(g76
g57
NtRp767
(dp768
g60
(dp769
g87
g88
ssg69
g759
sg62
(lp770
S':'
asbag55
(g76
g57
NtRp771
(dp772
g60
(dp773
sg69
g759
sg62
(lp774
g55
(g56
g57
NtRp775
(dp776
g60
(dp777
g68
I3
ssg69
g771
sg62
(lp778
S''
asbasbasbag55
(g71
g57
NtRp779
(dp780
g60
(dp781
sg69
g635
sg62
(lp782
g55
(g76
g57
NtRp783
(dp784
g60
(dp785
g80
g81
ssg69
g779
sg62
(lp786
g416
asbag55
(g76
g57
NtRp787
(dp788
g60
(dp789
g87
g88
ssg69
g779
sg62
(lp790
S':'
asbag55
(g76
g57
NtRp791
(dp792
g60
(dp793
sg69
g779
sg62
(lp794
g55
(g56
g57
NtRp795
(dp796
g60
(dp797
g68
I3
ssg69
g791
sg62
(lp798
S''
asbasbasbasbasbasbasbag55
(g71
g57
NtRp799
(dp800
g60
(dp801
sg69
g232
sg62
(lp802
g55
(g76
g57
NtRp803
(dp804
g60
(dp805
g80
g81
ssg69
g799
sg62
(lp806
S'pgv_flv'
p807
asbag55
(g76
g57
NtRp808
(dp809
g60
(dp810
g87
g88
ssg69
g799
sg62
(lp811
S':'
asbag55
(g76
g57
NtRp812
(dp813
g60
(dp814
sg69
g799
sg62
(lp815
g55
(g56
g57
NtRp816
(dp817
g60
(dp818
g68
I4
ssg69
g812
sg62
(lp819
g55
(g64
g57
NtRp820
(dp821
g60
(dp822
g68
I3
ssg69
Nsg62
(lp823
g55
(g71
g57
NtRp824
(dp825
g60
(dp826
sg69
g820
sg62
(lp827
g55
(g76
g57
NtRp828
(dp829
g60
(dp830
g80
g81
ssg69
g824
sg62
(lp831
g269
asbag55
(g76
g57
NtRp832
(dp833
g60
(dp834
g87
g88
ssg69
g824
sg62
(lp835
S':'
asbag55
(g76
g57
NtRp836
(dp837
g60
(dp838
sg69
g824
sg62
(lp839
g55
(g56
g57
NtRp840
(dp841
g60
(dp842
g68
I3
ssg69
g836
sg62
(lp843
S''
asbasbasbag55
(g71
g57
NtRp844
(dp845
g60
(dp846
sg69
g820
sg62
(lp847
g55
(g76
g57
NtRp848
(dp849
g60
(dp850
g80
g81
ssg69
g844
sg62
(lp851
g290
asbag55
(g76
g57
NtRp852
(dp853
g60
(dp854
g87
g88
ssg69
g844
sg62
(lp855
S':'
asbag55
(g76
g57
NtRp856
(dp857
g60
(dp858
sg69
g844
sg62
(lp859
g55
(g56
g57
NtRp860
(dp861
g60
(dp862
g68
I3
ssg69
g856
sg62
(lp863
S''
asbasbasbag55
(g71
g57
NtRp864
(dp865
g60
(dp866
sg69
g820
sg62
(lp867
g55
(g76
g57
NtRp868
(dp869
g60
(dp870
g80
g81
ssg69
g864
sg62
(lp871
g311
asbag55
(g76
g57
NtRp872
(dp873
g60
(dp874
g87
g88
ssg69
g864
sg62
(lp875
S':'
asbag55
(g76
g57
NtRp876
(dp877
g60
(dp878
sg69
g864
sg62
(lp879
g55
(g56
g57
NtRp880
(dp881
g60
(dp882
g68
I3
ssg69
g876
sg62
(lp883
S''
asbasbasbag55
(g71
g57
NtRp884
(dp885
g60
(dp886
sg69
g820
sg62
(lp887
g55
(g76
g57
NtRp888
(dp889
g60
(dp890
g80
g81
ssg69
g884
sg62
(lp891
g332
asbag55
(g76
g57
NtRp892
(dp893
g60
(dp894
g87
g88
ssg69
g884
sg62
(lp895
S':'
asbag55
(g76
g57
NtRp896
(dp897
g60
(dp898
sg69
g884
sg62
(lp899
g55
(g56
g57
NtRp900
(dp901
g60
(dp902
g68
I3
ssg69
g896
sg62
(lp903
S''
asbasbasbag55
(g71
g57
NtRp904
(dp905
g60
(dp906
sg69
g820
sg62
(lp907
g55
(g76
g57
NtRp908
(dp909
g60
(dp910
g80
g81
ssg69
g904
sg62
(lp911
g353
asbag55
(g76
g57
NtRp912
(dp913
g60
(dp914
g87
g88
ssg69
g904
sg62
(lp915
S':'
asbag55
(g76
g57
NtRp916
(dp917
g60
(dp918
sg69
g904
sg62
(lp919
g55
(g56
g57
NtRp920
(dp921
g60
(dp922
g68
I3
ssg69
g916
sg62
(lp923
S''
asbasbasbag55
(g71
g57
NtRp924
(dp925
g60
(dp926
sg69
g820
sg62
(lp927
g55
(g76
g57
NtRp928
(dp929
g60
(dp930
g80
g81
ssg69
g924
sg62
(lp931
g374
asbag55
(g76
g57
NtRp932
(dp933
g60
(dp934
g87
g88
ssg69
g924
sg62
(lp935
S':'
asbag55
(g76
g57
NtRp936
(dp937
g60
(dp938
sg69
g924
sg62
(lp939
g55
(g56
g57
NtRp940
(dp941
g60
(dp942
g68
I3
ssg69
g936
sg62
(lp943
S''
asbasbasbag55
(g71
g57
NtRp944
(dp945
g60
(dp946
sg69
g820
sg62
(lp947
g55
(g76
g57
NtRp948
(dp949
g60
(dp950
g80
g81
ssg69
g944
sg62
(lp951
g395
asbag55
(g76
g57
NtRp952
(dp953
g60
(dp954
g87
g88
ssg69
g944
sg62
(lp955
S':'
asbag55
(g76
g57
NtRp956
(dp957
g60
(dp958
sg69
g944
sg62
(lp959
g55
(g56
g57
NtRp960
(dp961
g60
(dp962
g68
I3
ssg69
g956
sg62
(lp963
S''
asbasbasbag55
(g71
g57
NtRp964
(dp965
g60
(dp966
sg69
g820
sg62
(lp967
g55
(g76
g57
NtRp968
(dp969
g60
(dp970
g80
g81
ssg69
g964
sg62
(lp971
g416
asbag55
(g76
g57
NtRp972
(dp973
g60
(dp974
g87
g88
ssg69
g964
sg62
(lp975
S':'
asbag55
(g76
g57
NtRp976
(dp977
g60
(dp978
sg69
g964
sg62
(lp979
g55
(g56
g57
NtRp980
(dp981
g60
(dp982
g68
I3
ssg69
g976
sg62
(lp983
S''
asbasbasbasbasbasbasbag55
(g71
g57
NtRp984
(dp985
g60
(dp986
sg69
g232
sg62
(lp987
g55
(g76
g57
NtRp988
(dp989
g60
(dp990
g80
g81
ssg69
g984
sg62
(lp991
S'pgv_pvid'
p992
asbag55
(g76
g57
NtRp993
(dp994
g60
(dp995
g87
g88
ssg69
g984
sg62
(lp996
S':'
asbag55
(g76
g57
NtRp997
(dp998
g60
(dp999
sg69
g984
sg62
(lp1000
g55
(g56
g57
NtRp1001
(dp1002
g60
(dp1003
g68
I4
ssg69
g997
sg62
(lp1004
g55
(g64
g57
NtRp1005
(dp1006
g60
(dp1007
g68
I3
ssg69
Nsg62
(lp1008
g55
(g71
g57
NtRp1009
(dp1010
g60
(dp1011
sg69
g1005
sg62
(lp1012
g55
(g76
g57
NtRp1013
(dp1014
g60
(dp1015
g80
g81
ssg69
g1009
sg62
(lp1016
g269
asbag55
(g76
g57
NtRp1017
(dp1018
g60
(dp1019
g87
g88
ssg69
g1009
sg62
(lp1020
S':'
asbag55
(g76
g57
NtRp1021
(dp1022
g60
(dp1023
sg69
g1009
sg62
(lp1024
g55
(g56
g57
NtRp1025
(dp1026
g60
(dp1027
g68
I3
ssg69
g1021
sg62
(lp1028
S''
asbasbasbag55
(g71
g57
NtRp1029
(dp1030
g60
(dp1031
sg69
g1005
sg62
(lp1032
g55
(g76
g57
NtRp1033
(dp1034
g60
(dp1035
g80
g81
ssg69
g1029
sg62
(lp1036
g290
asbag55
(g76
g57
NtRp1037
(dp1038
g60
(dp1039
g87
g88
ssg69
g1029
sg62
(lp1040
S':'
asbag55
(g76
g57
NtRp1041
(dp1042
g60
(dp1043
sg69
g1029
sg62
(lp1044
g55
(g56
g57
NtRp1045
(dp1046
g60
(dp1047
g68
I3
ssg69
g1041
sg62
(lp1048
S''
asbasbasbag55
(g71
g57
NtRp1049
(dp1050
g60
(dp1051
sg69
g1005
sg62
(lp1052
g55
(g76
g57
NtRp1053
(dp1054
g60
(dp1055
g80
g81
ssg69
g1049
sg62
(lp1056
g311
asbag55
(g76
g57
NtRp1057
(dp1058
g60
(dp1059
g87
g88
ssg69
g1049
sg62
(lp1060
S':'
asbag55
(g76
g57
NtRp1061
(dp1062
g60
(dp1063
sg69
g1049
sg62
(lp1064
g55
(g56
g57
NtRp1065
(dp1066
g60
(dp1067
g68
I3
ssg69
g1061
sg62
(lp1068
S''
asbasbasbag55
(g71
g57
NtRp1069
(dp1070
g60
(dp1071
sg69
g1005
sg62
(lp1072
g55
(g76
g57
NtRp1073
(dp1074
g60
(dp1075
g80
g81
ssg69
g1069
sg62
(lp1076
g332
asbag55
(g76
g57
NtRp1077
(dp1078
g60
(dp1079
g87
g88
ssg69
g1069
sg62
(lp1080
S':'
asbag55
(g76
g57
NtRp1081
(dp1082
g60
(dp1083
sg69
g1069
sg62
(lp1084
g55
(g56
g57
NtRp1085
(dp1086
g60
(dp1087
g68
I3
ssg69
g1081
sg62
(lp1088
S''
asbasbasbag55
(g71
g57
NtRp1089
(dp1090
g60
(dp1091
sg69
g1005
sg62
(lp1092
g55
(g76
g57
NtRp1093
(dp1094
g60
(dp1095
g80
g81
ssg69
g1089
sg62
(lp1096
g353
asbag55
(g76
g57
NtRp1097
(dp1098
g60
(dp1099
g87
g88
ssg69
g1089
sg62
(lp1100
S':'
asbag55
(g76
g57
NtRp1101
(dp1102
g60
(dp1103
sg69
g1089
sg62
(lp1104
g55
(g56
g57
NtRp1105
(dp1106
g60
(dp1107
g68
I3
ssg69
g1101
sg62
(lp1108
S''
asbasbasbag55
(g71
g57
NtRp1109
(dp1110
g60
(dp1111
sg69
g1005
sg62
(lp1112
g55
(g76
g57
NtRp1113
(dp1114
g60
(dp1115
g80
g81
ssg69
g1109
sg62
(lp1116
g374
asbag55
(g76
g57
NtRp1117
(dp1118
g60
(dp1119
g87
g88
ssg69
g1109
sg62
(lp1120
S':'
asbag55
(g76
g57
NtRp1121
(dp1122
g60
(dp1123
sg69
g1109
sg62
(lp1124
g55
(g56
g57
NtRp1125
(dp1126
g60
(dp1127
g68
I3
ssg69
g1121
sg62
(lp1128
S''
asbasbasbag55
(g71
g57
NtRp1129
(dp1130
g60
(dp1131
sg69
g1005
sg62
(lp1132
g55
(g76
g57
NtRp1133
(dp1134
g60
(dp1135
g80
g81
ssg69
g1129
sg62
(lp1136
g395
asbag55
(g76
g57
NtRp1137
(dp1138
g60
(dp1139
g87
g88
ssg69
g1129
sg62
(lp1140
S':'
asbag55
(g76
g57
NtRp1141
(dp1142
g60
(dp1143
sg69
g1129
sg62
(lp1144
g55
(g56
g57
NtRp1145
(dp1146
g60
(dp1147
g68
I3
ssg69
g1141
sg62
(lp1148
S''
asbasbasbag55
(g71
g57
NtRp1149
(dp1150
g60
(dp1151
sg69
g1005
sg62
(lp1152
g55
(g76
g57
NtRp1153
(dp1154
g60
(dp1155
g80
g81
ssg69
g1149
sg62
(lp1156
g416
asbag55
(g76
g57
NtRp1157
(dp1158
g60
(dp1159
g87
g88
ssg69
g1149
sg62
(lp1160
S':'
asbag55
(g76
g57
NtRp1161
(dp1162
g60
(dp1163
sg69
g1149
sg62
(lp1164
g55
(g56
g57
NtRp1165
(dp1166
g60
(dp1167
g68
I3
ssg69
g1161
sg62
(lp1168
S''
asbasbasbasbasbasbasbag55
(g71
g57
NtRp1169
(dp1170
g60
(dp1171
sg69
g232
sg62
(lp1172
g55
(g76
g57
NtRp1173
(dp1174
g60
(dp1175
g80
g81
ssg69
g1169
sg62
(lp1176
S'pgv_r_cookie'
p1177
asbag55
(g76
g57
NtRp1178
(dp1179
g60
(dp1180
g87
g88
ssg69
g1169
sg62
(lp1181
S':'
asbag55
(g76
g57
NtRp1182
(dp1183
g60
(dp1184
sg69
g1169
sg62
(lp1185
g55
(g56
g57
NtRp1186
(dp1187
g60
(dp1188
g68
I4
ssg69
g1182
sg62
(lp1189
g55
(g64
g57
NtRp1190
(dp1191
g60
(dp1192
g68
I3
ssg69
Nsg62
(lp1193
g55
(g71
g57
NtRp1194
(dp1195
g60
(dp1196
sg69
g1190
sg62
(lp1197
g55
(g76
g57
NtRp1198
(dp1199
g60
(dp1200
g80
g81
ssg69
g1194
sg62
(lp1201
g269
asbag55
(g76
g57
NtRp1202
(dp1203
g60
(dp1204
g87
g88
ssg69
g1194
sg62
(lp1205
S':'
asbag55
(g76
g57
NtRp1206
(dp1207
g60
(dp1208
sg69
g1194
sg62
(lp1209
g55
(g56
g57
NtRp1210
(dp1211
g60
(dp1212
g68
I3
ssg69
g1206
sg62
(lp1213
S''
asbasbasbag55
(g71
g57
NtRp1214
(dp1215
g60
(dp1216
sg69
g1190
sg62
(lp1217
g55
(g76
g57
NtRp1218
(dp1219
g60
(dp1220
g80
g81
ssg69
g1214
sg62
(lp1221
g290
asbag55
(g76
g57
NtRp1222
(dp1223
g60
(dp1224
g87
g88
ssg69
g1214
sg62
(lp1225
S':'
asbag55
(g76
g57
NtRp1226
(dp1227
g60
(dp1228
sg69
g1214
sg62
(lp1229
g55
(g56
g57
NtRp1230
(dp1231
g60
(dp1232
g68
I3
ssg69
g1226
sg62
(lp1233
S''
asbasbasbag55
(g71
g57
NtRp1234
(dp1235
g60
(dp1236
sg69
g1190
sg62
(lp1237
g55
(g76
g57
NtRp1238
(dp1239
g60
(dp1240
g80
g81
ssg69
g1234
sg62
(lp1241
g311
asbag55
(g76
g57
NtRp1242
(dp1243
g60
(dp1244
g87
g88
ssg69
g1234
sg62
(lp1245
S':'
asbag55
(g76
g57
NtRp1246
(dp1247
g60
(dp1248
sg69
g1234
sg62
(lp1249
g55
(g56
g57
NtRp1250
(dp1251
g60
(dp1252
g68
I3
ssg69
g1246
sg62
(lp1253
S''
asbasbasbag55
(g71
g57
NtRp1254
(dp1255
g60
(dp1256
sg69
g1190
sg62
(lp1257
g55
(g76
g57
NtRp1258
(dp1259
g60
(dp1260
g80
g81
ssg69
g1254
sg62
(lp1261
g332
asbag55
(g76
g57
NtRp1262
(dp1263
g60
(dp1264
g87
g88
ssg69
g1254
sg62
(lp1265
S':'
asbag55
(g76
g57
NtRp1266
(dp1267
g60
(dp1268
sg69
g1254
sg62
(lp1269
g55
(g56
g57
NtRp1270
(dp1271
g60
(dp1272
g68
I3
ssg69
g1266
sg62
(lp1273
S''
asbasbasbag55
(g71
g57
NtRp1274
(dp1275
g60
(dp1276
sg69
g1190
sg62
(lp1277
g55
(g76
g57
NtRp1278
(dp1279
g60
(dp1280
g80
g81
ssg69
g1274
sg62
(lp1281
g353
asbag55
(g76
g57
NtRp1282
(dp1283
g60
(dp1284
g87
g88
ssg69
g1274
sg62
(lp1285
S':'
asbag55
(g76
g57
NtRp1286
(dp1287
g60
(dp1288
sg69
g1274
sg62
(lp1289
g55
(g56
g57
NtRp1290
(dp1291
g60
(dp1292
g68
I3
ssg69
g1286
sg62
(lp1293
S''
asbasbasbag55
(g71
g57
NtRp1294
(dp1295
g60
(dp1296
sg69
g1190
sg62
(lp1297
g55
(g76
g57
NtRp1298
(dp1299
g60
(dp1300
g80
g81
ssg69
g1294
sg62
(lp1301
g374
asbag55
(g76
g57
NtRp1302
(dp1303
g60
(dp1304
g87
g88
ssg69
g1294
sg62
(lp1305
S':'
asbag55
(g76
g57
NtRp1306
(dp1307
g60
(dp1308
sg69
g1294
sg62
(lp1309
g55
(g56
g57
NtRp1310
(dp1311
g60
(dp1312
g68
I3
ssg69
g1306
sg62
(lp1313
S''
asbasbasbag55
(g71
g57
NtRp1314
(dp1315
g60
(dp1316
sg69
g1190
sg62
(lp1317
g55
(g76
g57
NtRp1318
(dp1319
g60
(dp1320
g80
g81
ssg69
g1314
sg62
(lp1321
g395
asbag55
(g76
g57
NtRp1322
(dp1323
g60
(dp1324
g87
g88
ssg69
g1314
sg62
(lp1325
S':'
asbag55
(g76
g57
NtRp1326
(dp1327
g60
(dp1328
sg69
g1314
sg62
(lp1329
g55
(g56
g57
NtRp1330
(dp1331
g60
(dp1332
g68
I3
ssg69
g1326
sg62
(lp1333
S''
asbasbasbag55
(g71
g57
NtRp1334
(dp1335
g60
(dp1336
sg69
g1190
sg62
(lp1337
g55
(g76
g57
NtRp1338
(dp1339
g60
(dp1340
g80
g81
ssg69
g1334
sg62
(lp1341
g416
asbag55
(g76
g57
NtRp1342
(dp1343
g60
(dp1344
g87
g88
ssg69
g1334
sg62
(lp1345
S':'
asbag55
(g76
g57
NtRp1346
(dp1347
g60
(dp1348
sg69
g1334
sg62
(lp1349
g55
(g56
g57
NtRp1350
(dp1351
g60
(dp1352
g68
I3
ssg69
g1346
sg62
(lp1353
S''
asbasbasbasbasbasbasbag55
(g71
g57
NtRp1354
(dp1355
g60
(dp1356
sg69
g232
sg62
(lp1357
g55
(g76
g57
NtRp1358
(dp1359
g60
(dp1360
g80
g81
ssg69
g1354
sg62
(lp1361
S'pt2gguin'
p1362
asbag55
(g76
g57
NtRp1363
(dp1364
g60
(dp1365
g87
g88
ssg69
g1354
sg62
(lp1366
S':'
asbag55
(g76
g57
NtRp1367
(dp1368
g60
(dp1369
sg69
g1354
sg62
(lp1370
g55
(g56
g57
NtRp1371
(dp1372
g60
(dp1373
g68
I4
ssg69
g1367
sg62
(lp1374
g55
(g64
g57
NtRp1375
(dp1376
g60
(dp1377
g68
I3
ssg69
Nsg62
(lp1378
g55
(g71
g57
NtRp1379
(dp1380
g60
(dp1381
sg69
g1375
sg62
(lp1382
g55
(g76
g57
NtRp1383
(dp1384
g60
(dp1385
g80
g81
ssg69
g1379
sg62
(lp1386
g269
asbag55
(g76
g57
NtRp1387
(dp1388
g60
(dp1389
g87
g88
ssg69
g1379
sg62
(lp1390
S':'
asbag55
(g76
g57
NtRp1391
(dp1392
g60
(dp1393
sg69
g1379
sg62
(lp1394
g55
(g56
g57
NtRp1395
(dp1396
g60
(dp1397
g68
I3
ssg69
g1391
sg62
(lp1398
S''
asbasbasbag55
(g71
g57
NtRp1399
(dp1400
g60
(dp1401
sg69
g1375
sg62
(lp1402
g55
(g76
g57
NtRp1403
(dp1404
g60
(dp1405
g80
g81
ssg69
g1399
sg62
(lp1406
g290
asbag55
(g76
g57
NtRp1407
(dp1408
g60
(dp1409
g87
g88
ssg69
g1399
sg62
(lp1410
S':'
asbag55
(g76
g57
NtRp1411
(dp1412
g60
(dp1413
sg69
g1399
sg62
(lp1414
g55
(g56
g57
NtRp1415
(dp1416
g60
(dp1417
g68
I3
ssg69
g1411
sg62
(lp1418
S''
asbasbasbag55
(g71
g57
NtRp1419
(dp1420
g60
(dp1421
sg69
g1375
sg62
(lp1422
g55
(g76
g57
NtRp1423
(dp1424
g60
(dp1425
g80
g81
ssg69
g1419
sg62
(lp1426
g311
asbag55
(g76
g57
NtRp1427
(dp1428
g60
(dp1429
g87
g88
ssg69
g1419
sg62
(lp1430
S':'
asbag55
(g76
g57
NtRp1431
(dp1432
g60
(dp1433
sg69
g1419
sg62
(lp1434
g55
(g56
g57
NtRp1435
(dp1436
g60
(dp1437
g68
I3
ssg69
g1431
sg62
(lp1438
S''
asbasbasbag55
(g71
g57
NtRp1439
(dp1440
g60
(dp1441
sg69
g1375
sg62
(lp1442
g55
(g76
g57
NtRp1443
(dp1444
g60
(dp1445
g80
g81
ssg69
g1439
sg62
(lp1446
g332
asbag55
(g76
g57
NtRp1447
(dp1448
g60
(dp1449
g87
g88
ssg69
g1439
sg62
(lp1450
S':'
asbag55
(g76
g57
NtRp1451
(dp1452
g60
(dp1453
sg69
g1439
sg62
(lp1454
g55
(g56
g57
NtRp1455
(dp1456
g60
(dp1457
g68
I3
ssg69
g1451
sg62
(lp1458
S''
asbasbasbag55
(g71
g57
NtRp1459
(dp1460
g60
(dp1461
sg69
g1375
sg62
(lp1462
g55
(g76
g57
NtRp1463
(dp1464
g60
(dp1465
g80
g81
ssg69
g1459
sg62
(lp1466
g353
asbag55
(g76
g57
NtRp1467
(dp1468
g60
(dp1469
g87
g88
ssg69
g1459
sg62
(lp1470
S':'
asbag55
(g76
g57
NtRp1471
(dp1472
g60
(dp1473
sg69
g1459
sg62
(lp1474
g55
(g56
g57
NtRp1475
(dp1476
g60
(dp1477
g68
I3
ssg69
g1471
sg62
(lp1478
S''
asbasbasbag55
(g71
g57
NtRp1479
(dp1480
g60
(dp1481
sg69
g1375
sg62
(lp1482
g55
(g76
g57
NtRp1483
(dp1484
g60
(dp1485
g80
g81
ssg69
g1479
sg62
(lp1486
g374
asbag55
(g76
g57
NtRp1487
(dp1488
g60
(dp1489
g87
g88
ssg69
g1479
sg62
(lp1490
S':'
asbag55
(g76
g57
NtRp1491
(dp1492
g60
(dp1493
sg69
g1479
sg62
(lp1494
g55
(g56
g57
NtRp1495
(dp1496
g60
(dp1497
g68
I3
ssg69
g1491
sg62
(lp1498
S''
asbasbasbag55
(g71
g57
NtRp1499
(dp1500
g60
(dp1501
sg69
g1375
sg62
(lp1502
g55
(g76
g57
NtRp1503
(dp1504
g60
(dp1505
g80
g81
ssg69
g1499
sg62
(lp1506
g395
asbag55
(g76
g57
NtRp1507
(dp1508
g60
(dp1509
g87
g88
ssg69
g1499
sg62
(lp1510
S':'
asbag55
(g76
g57
NtRp1511
(dp1512
g60
(dp1513
sg69
g1499
sg62
(lp1514
g55
(g56
g57
NtRp1515
(dp1516
g60
(dp1517
g68
I3
ssg69
g1511
sg62
(lp1518
S''
asbasbasbag55
(g71
g57
NtRp1519
(dp1520
g60
(dp1521
sg69
g1375
sg62
(lp1522
g55
(g76
g57
NtRp1523
(dp1524
g60
(dp1525
g80
g81
ssg69
g1519
sg62
(lp1526
g416
asbag55
(g76
g57
NtRp1527
(dp1528
g60
(dp1529
g87
g88
ssg69
g1519
sg62
(lp1530
S':'
asbag55
(g76
g57
NtRp1531
(dp1532
g60
(dp1533
sg69
g1519
sg62
(lp1534
g55
(g56
g57
NtRp1535
(dp1536
g60
(dp1537
g68
I3
ssg69
g1531
sg62
(lp1538
S''
asbasbasbasbasbasbasbag55
(g71
g57
NtRp1539
(dp1540
g60
(dp1541
sg69
g232
sg62
(lp1542
g55
(g76
g57
NtRp1543
(dp1544
g60
(dp1545
g80
g81
ssg69
g1539
sg62
(lp1546
S'session_id_admin'
p1547
asbag55
(g76
g57
NtRp1548
(dp1549
g60
(dp1550
g87
g88
ssg69
g1539
sg62
(lp1551
S':'
asbag55
(g76
g57
NtRp1552
(dp1553
g60
(dp1554
sg69
g1539
sg62
(lp1555
g55
(g56
g57
NtRp1556
(dp1557
g60
(dp1558
g68
I4
ssg69
g1552
sg62
(lp1559
g55
(g64
g57
NtRp1560
(dp1561
g60
(dp1562
g68
I3
ssg69
Nsg62
(lp1563
g55
(g71
g57
NtRp1564
(dp1565
g60
(dp1566
sg69
g1560
sg62
(lp1567
g55
(g76
g57
NtRp1568
(dp1569
g60
(dp1570
g80
g81
ssg69
g1564
sg62
(lp1571
g269
asbag55
(g76
g57
NtRp1572
(dp1573
g60
(dp1574
g87
g88
ssg69
g1564
sg62
(lp1575
S':'
asbag55
(g76
g57
NtRp1576
(dp1577
g60
(dp1578
sg69
g1564
sg62
(lp1579
g55
(g56
g57
NtRp1580
(dp1581
g60
(dp1582
g68
I3
ssg69
g1576
sg62
(lp1583
S''
asbasbasbag55
(g71
g57
NtRp1584
(dp1585
g60
(dp1586
sg69
g1560
sg62
(lp1587
g55
(g76
g57
NtRp1588
(dp1589
g60
(dp1590
g80
g81
ssg69
g1584
sg62
(lp1591
g290
asbag55
(g76
g57
NtRp1592
(dp1593
g60
(dp1594
g87
g88
ssg69
g1584
sg62
(lp1595
S':'
asbag55
(g76
g57
NtRp1596
(dp1597
g60
(dp1598
sg69
g1584
sg62
(lp1599
g55
(g56
g57
NtRp1600
(dp1601
g60
(dp1602
g68
I3
ssg69
g1596
sg62
(lp1603
S''
asbasbasbag55
(g71
g57
NtRp1604
(dp1605
g60
(dp1606
sg69
g1560
sg62
(lp1607
g55
(g76
g57
NtRp1608
(dp1609
g60
(dp1610
g80
g81
ssg69
g1604
sg62
(lp1611
g311
asbag55
(g76
g57
NtRp1612
(dp1613
g60
(dp1614
g87
g88
ssg69
g1604
sg62
(lp1615
S':'
asbag55
(g76
g57
NtRp1616
(dp1617
g60
(dp1618
sg69
g1604
sg62
(lp1619
g55
(g56
g57
NtRp1620
(dp1621
g60
(dp1622
g68
I3
ssg69
g1616
sg62
(lp1623
S''
asbasbasbag55
(g71
g57
NtRp1624
(dp1625
g60
(dp1626
sg69
g1560
sg62
(lp1627
g55
(g76
g57
NtRp1628
(dp1629
g60
(dp1630
g80
g81
ssg69
g1624
sg62
(lp1631
g332
asbag55
(g76
g57
NtRp1632
(dp1633
g60
(dp1634
g87
g88
ssg69
g1624
sg62
(lp1635
S':'
asbag55
(g76
g57
NtRp1636
(dp1637
g60
(dp1638
sg69
g1624
sg62
(lp1639
g55
(g56
g57
NtRp1640
(dp1641
g60
(dp1642
g68
I3
ssg69
g1636
sg62
(lp1643
S''
asbasbasbag55
(g71
g57
NtRp1644
(dp1645
g60
(dp1646
sg69
g1560
sg62
(lp1647
g55
(g76
g57
NtRp1648
(dp1649
g60
(dp1650
g80
g81
ssg69
g1644
sg62
(lp1651
g353
asbag55
(g76
g57
NtRp1652
(dp1653
g60
(dp1654
g87
g88
ssg69
g1644
sg62
(lp1655
S':'
asbag55
(g76
g57
NtRp1656
(dp1657
g60
(dp1658
sg69
g1644
sg62
(lp1659
g55
(g56
g57
NtRp1660
(dp1661
g60
(dp1662
g68
I3
ssg69
g1656
sg62
(lp1663
S''
asbasbasbag55
(g71
g57
NtRp1664
(dp1665
g60
(dp1666
sg69
g1560
sg62
(lp1667
g55
(g76
g57
NtRp1668
(dp1669
g60
(dp1670
g80
g81
ssg69
g1664
sg62
(lp1671
g374
asbag55
(g76
g57
NtRp1672
(dp1673
g60
(dp1674
g87
g88
ssg69
g1664
sg62
(lp1675
S':'
asbag55
(g76
g57
NtRp1676
(dp1677
g60
(dp1678
sg69
g1664
sg62
(lp1679
g55
(g56
g57
NtRp1680
(dp1681
g60
(dp1682
g68
I3
ssg69
g1676
sg62
(lp1683
S''
asbasbasbag55
(g71
g57
NtRp1684
(dp1685
g60
(dp1686
sg69
g1560
sg62
(lp1687
g55
(g76
g57
NtRp1688
(dp1689
g60
(dp1690
g80
g81
ssg69
g1684
sg62
(lp1691
g395
asbag55
(g76
g57
NtRp1692
(dp1693
g60
(dp1694
g87
g88
ssg69
g1684
sg62
(lp1695
S':'
asbag55
(g76
g57
NtRp1696
(dp1697
g60
(dp1698
sg69
g1684
sg62
(lp1699
g55
(g56
g57
NtRp1700
(dp1701
g60
(dp1702
g68
I3
ssg69
g1696
sg62
(lp1703
S''
asbasbasbag55
(g71
g57
NtRp1704
(dp1705
g60
(dp1706
sg69
g1560
sg62
(lp1707
g55
(g76
g57
NtRp1708
(dp1709
g60
(dp1710
g80
g81
ssg69
g1704
sg62
(lp1711
g416
asbag55
(g76
g57
NtRp1712
(dp1713
g60
(dp1714
g87
g88
ssg69
g1704
sg62
(lp1715
S':'
asbag55
(g76
g57
NtRp1716
(dp1717
g60
(dp1718
sg69
g1704
sg62
(lp1719
g55
(g56
g57
NtRp1720
(dp1721
g60
(dp1722
g68
I3
ssg69
g1716
sg62
(lp1723
S''
asbasbasbasbasbasbasbag55
(g71
g57
NtRp1724
(dp1725
g60
(dp1726
sg69
g232
sg62
(lp1727
g55
(g76
g57
NtRp1728
(dp1729
g60
(dp1730
g80
g81
ssg69
g1724
sg62
(lp1731
S'session_id_examples'
p1732
asbag55
(g76
g57
NtRp1733
(dp1734
g60
(dp1735
g87
g88
ssg69
g1724
sg62
(lp1736
S':'
asbag55
(g76
g57
NtRp1737
(dp1738
g60
(dp1739
sg69
g1724
sg62
(lp1740
g55
(g56
g57
NtRp1741
(dp1742
g60
(dp1743
g68
I4
ssg69
g1737
sg62
(lp1744
g55
(g64
g57
NtRp1745
(dp1746
g60
(dp1747
g68
I3
ssg69
Nsg62
(lp1748
g55
(g71
g57
NtRp1749
(dp1750
g60
(dp1751
sg69
g1745
sg62
(lp1752
g55
(g76
g57
NtRp1753
(dp1754
g60
(dp1755
g80
g81
ssg69
g1749
sg62
(lp1756
g269
asbag55
(g76
g57
NtRp1757
(dp1758
g60
(dp1759
g87
g88
ssg69
g1749
sg62
(lp1760
S':'
asbag55
(g76
g57
NtRp1761
(dp1762
g60
(dp1763
sg69
g1749
sg62
(lp1764
g55
(g56
g57
NtRp1765
(dp1766
g60
(dp1767
g68
I3
ssg69
g1761
sg62
(lp1768
S''
asbasbasbag55
(g71
g57
NtRp1769
(dp1770
g60
(dp1771
sg69
g1745
sg62
(lp1772
g55
(g76
g57
NtRp1773
(dp1774
g60
(dp1775
g80
g81
ssg69
g1769
sg62
(lp1776
g290
asbag55
(g76
g57
NtRp1777
(dp1778
g60
(dp1779
g87
g88
ssg69
g1769
sg62
(lp1780
S':'
asbag55
(g76
g57
NtRp1781
(dp1782
g60
(dp1783
sg69
g1769
sg62
(lp1784
g55
(g56
g57
NtRp1785
(dp1786
g60
(dp1787
g68
I3
ssg69
g1781
sg62
(lp1788
S''
asbasbasbag55
(g71
g57
NtRp1789
(dp1790
g60
(dp1791
sg69
g1745
sg62
(lp1792
g55
(g76
g57
NtRp1793
(dp1794
g60
(dp1795
g80
g81
ssg69
g1789
sg62
(lp1796
g311
asbag55
(g76
g57
NtRp1797
(dp1798
g60
(dp1799
g87
g88
ssg69
g1789
sg62
(lp1800
S':'
asbag55
(g76
g57
NtRp1801
(dp1802
g60
(dp1803
sg69
g1789
sg62
(lp1804
g55
(g56
g57
NtRp1805
(dp1806
g60
(dp1807
g68
I3
ssg69
g1801
sg62
(lp1808
S''
asbasbasbag55
(g71
g57
NtRp1809
(dp1810
g60
(dp1811
sg69
g1745
sg62
(lp1812
g55
(g76
g57
NtRp1813
(dp1814
g60
(dp1815
g80
g81
ssg69
g1809
sg62
(lp1816
g332
asbag55
(g76
g57
NtRp1817
(dp1818
g60
(dp1819
g87
g88
ssg69
g1809
sg62
(lp1820
S':'
asbag55
(g76
g57
NtRp1821
(dp1822
g60
(dp1823
sg69
g1809
sg62
(lp1824
g55
(g56
g57
NtRp1825
(dp1826
g60
(dp1827
g68
I3
ssg69
g1821
sg62
(lp1828
S''
asbasbasbag55
(g71
g57
NtRp1829
(dp1830
g60
(dp1831
sg69
g1745
sg62
(lp1832
g55
(g76
g57
NtRp1833
(dp1834
g60
(dp1835
g80
g81
ssg69
g1829
sg62
(lp1836
g353
asbag55
(g76
g57
NtRp1837
(dp1838
g60
(dp1839
g87
g88
ssg69
g1829
sg62
(lp1840
S':'
asbag55
(g76
g57
NtRp1841
(dp1842
g60
(dp1843
sg69
g1829
sg62
(lp1844
g55
(g56
g57
NtRp1845
(dp1846
g60
(dp1847
g68
I3
ssg69
g1841
sg62
(lp1848
S''
asbasbasbag55
(g71
g57
NtRp1849
(dp1850
g60
(dp1851
sg69
g1745
sg62
(lp1852
g55
(g76
g57
NtRp1853
(dp1854
g60
(dp1855
g80
g81
ssg69
g1849
sg62
(lp1856
g374
asbag55
(g76
g57
NtRp1857
(dp1858
g60
(dp1859
g87
g88
ssg69
g1849
sg62
(lp1860
S':'
asbag55
(g76
g57
NtRp1861
(dp1862
g60
(dp1863
sg69
g1849
sg62
(lp1864
g55
(g56
g57
NtRp1865
(dp1866
g60
(dp1867
g68
I3
ssg69
g1861
sg62
(lp1868
S''
asbasbasbag55
(g71
g57
NtRp1869
(dp1870
g60
(dp1871
sg69
g1745
sg62
(lp1872
g55
(g76
g57
NtRp1873
(dp1874
g60
(dp1875
g80
g81
ssg69
g1869
sg62
(lp1876
g395
asbag55
(g76
g57
NtRp1877
(dp1878
g60
(dp1879
g87
g88
ssg69
g1869
sg62
(lp1880
S':'
asbag55
(g76
g57
NtRp1881
(dp1882
g60
(dp1883
sg69
g1869
sg62
(lp1884
g55
(g56
g57
NtRp1885
(dp1886
g60
(dp1887
g68
I3
ssg69
g1881
sg62
(lp1888
S''
asbasbasbag55
(g71
g57
NtRp1889
(dp1890
g60
(dp1891
sg69
g1745
sg62
(lp1892
g55
(g76
g57
NtRp1893
(dp1894
g60
(dp1895
g80
g81
ssg69
g1889
sg62
(lp1896
g416
asbag55
(g76
g57
NtRp1897
(dp1898
g60
(dp1899
g87
g88
ssg69
g1889
sg62
(lp1900
S':'
asbag55
(g76
g57
NtRp1901
(dp1902
g60
(dp1903
sg69
g1889
sg62
(lp1904
g55
(g56
g57
NtRp1905
(dp1906
g60
(dp1907
g68
I3
ssg69
g1901
sg62
(lp1908
S''
asbasbasbasbasbasbasbag55
(g71
g57
NtRp1909
(dp1910
g60
(dp1911
sg69
g232
sg62
(lp1912
g55
(g76
g57
NtRp1913
(dp1914
g60
(dp1915
g80
g81
ssg69
g1909
sg62
(lp1916
S'uin_cookie'
p1917
asbag55
(g76
g57
NtRp1918
(dp1919
g60
(dp1920
g87
g88
ssg69
g1909
sg62
(lp1921
S':'
asbag55
(g76
g57
NtRp1922
(dp1923
g60
(dp1924
sg69
g1909
sg62
(lp1925
g55
(g56
g57
NtRp1926
(dp1927
g60
(dp1928
g68
I4
ssg69
g1922
sg62
(lp1929
g55
(g64
g57
NtRp1930
(dp1931
g60
(dp1932
g68
I3
ssg69
Nsg62
(lp1933
g55
(g71
g57
NtRp1934
(dp1935
g60
(dp1936
sg69
g1930
sg62
(lp1937
g55
(g76
g57
NtRp1938
(dp1939
g60
(dp1940
g80
g81
ssg69
g1934
sg62
(lp1941
g269
asbag55
(g76
g57
NtRp1942
(dp1943
g60
(dp1944
g87
g88
ssg69
g1934
sg62
(lp1945
S':'
asbag55
(g76
g57
NtRp1946
(dp1947
g60
(dp1948
sg69
g1934
sg62
(lp1949
g55
(g56
g57
NtRp1950
(dp1951
g60
(dp1952
g68
I3
ssg69
g1946
sg62
(lp1953
S''
asbasbasbag55
(g71
g57
NtRp1954
(dp1955
g60
(dp1956
sg69
g1930
sg62
(lp1957
g55
(g76
g57
NtRp1958
(dp1959
g60
(dp1960
g80
g81
ssg69
g1954
sg62
(lp1961
g290
asbag55
(g76
g57
NtRp1962
(dp1963
g60
(dp1964
g87
g88
ssg69
g1954
sg62
(lp1965
S':'
asbag55
(g76
g57
NtRp1966
(dp1967
g60
(dp1968
sg69
g1954
sg62
(lp1969
g55
(g56
g57
NtRp1970
(dp1971
g60
(dp1972
g68
I3
ssg69
g1966
sg62
(lp1973
S''
asbasbasbag55
(g71
g57
NtRp1974
(dp1975
g60
(dp1976
sg69
g1930
sg62
(lp1977
g55
(g76
g57
NtRp1978
(dp1979
g60
(dp1980
g80
g81
ssg69
g1974
sg62
(lp1981
g311
asbag55
(g76
g57
NtRp1982
(dp1983
g60
(dp1984
g87
g88
ssg69
g1974
sg62
(lp1985
S':'
asbag55
(g76
g57
NtRp1986
(dp1987
g60
(dp1988
sg69
g1974
sg62
(lp1989
g55
(g56
g57
NtRp1990
(dp1991
g60
(dp1992
g68
I3
ssg69
g1986
sg62
(lp1993
S''
asbasbasbag55
(g71
g57
NtRp1994
(dp1995
g60
(dp1996
sg69
g1930
sg62
(lp1997
g55
(g76
g57
NtRp1998
(dp1999
g60
(dp2000
g80
g81
ssg69
g1994
sg62
(lp2001
g332
asbag55
(g76
g57
NtRp2002
(dp2003
g60
(dp2004
g87
g88
ssg69
g1994
sg62
(lp2005
S':'
asbag55
(g76
g57
NtRp2006
(dp2007
g60
(dp2008
sg69
g1994
sg62
(lp2009
g55
(g56
g57
NtRp2010
(dp2011
g60
(dp2012
g68
I3
ssg69
g2006
sg62
(lp2013
S''
asbasbasbag55
(g71
g57
NtRp2014
(dp2015
g60
(dp2016
sg69
g1930
sg62
(lp2017
g55
(g76
g57
NtRp2018
(dp2019
g60
(dp2020
g80
g81
ssg69
g2014
sg62
(lp2021
g353
asbag55
(g76
g57
NtRp2022
(dp2023
g60
(dp2024
g87
g88
ssg69
g2014
sg62
(lp2025
S':'
asbag55
(g76
g57
NtRp2026
(dp2027
g60
(dp2028
sg69
g2014
sg62
(lp2029
g55
(g56
g57
NtRp2030
(dp2031
g60
(dp2032
g68
I3
ssg69
g2026
sg62
(lp2033
S''
asbasbasbag55
(g71
g57
NtRp2034
(dp2035
g60
(dp2036
sg69
g1930
sg62
(lp2037
g55
(g76
g57
NtRp2038
(dp2039
g60
(dp2040
g80
g81
ssg69
g2034
sg62
(lp2041
g374
asbag55
(g76
g57
NtRp2042
(dp2043
g60
(dp2044
g87
g88
ssg69
g2034
sg62
(lp2045
S':'
asbag55
(g76
g57
NtRp2046
(dp2047
g60
(dp2048
sg69
g2034
sg62
(lp2049
g55
(g56
g57
NtRp2050
(dp2051
g60
(dp2052
g68
I3
ssg69
g2046
sg62
(lp2053
S''
asbasbasbag55
(g71
g57
NtRp2054
(dp2055
g60
(dp2056
sg69
g1930
sg62
(lp2057
g55
(g76
g57
NtRp2058
(dp2059
g60
(dp2060
g80
g81
ssg69
g2054
sg62
(lp2061
g395
asbag55
(g76
g57
NtRp2062
(dp2063
g60
(dp2064
g87
g88
ssg69
g2054
sg62
(lp2065
S':'
asbag55
(g76
g57
NtRp2066
(dp2067
g60
(dp2068
sg69
g2054
sg62
(lp2069
g55
(g56
g57
NtRp2070
(dp2071
g60
(dp2072
g68
I3
ssg69
g2066
sg62
(lp2073
S''
asbasbasbag55
(g71
g57
NtRp2074
(dp2075
g60
(dp2076
sg69
g1930
sg62
(lp2077
g55
(g76
g57
NtRp2078
(dp2079
g60
(dp2080
g80
g81
ssg69
g2074
sg62
(lp2081
g416
asbag55
(g76
g57
NtRp2082
(dp2083
g60
(dp2084
g87
g88
ssg69
g2074
sg62
(lp2085
S':'
asbag55
(g76
g57
NtRp2086
(dp2087
g60
(dp2088
sg69
g2074
sg62
(lp2089
g55
(g56
g57
NtRp2090
(dp2091
g60
(dp2092
g68
I3
ssg69
g2086
sg62
(lp2093
S''
asbasbasbasbasbasbasbasbasbasbasbag55
(g71
g57
NtRp2094
(dp2095
g60
(dp2096
sg69
g65
sg62
(lp2097
g55
(g76
g57
NtRp2098
(dp2099
g60
(dp2100
g80
g81
ssg69
g2094
sg62
(lp2101
S'env'
p2102
asbag55
(g76
g57
NtRp2103
(dp2104
g60
(dp2105
g87
g88
ssg69
g2094
sg62
(lp2106
S':'
asbag55
(g76
g57
NtRp2107
(dp2108
g60
(dp2109
sg69
g2094
sg62
(lp2110
g55
(g56
g57
NtRp2111
(dp2112
g60
(dp2113
g68
I5
ssg69
g2107
sg62
(lp2114
g55
(g64
g57
NtRp2115
(dp2116
g60
(dp2117
g68
I4
ssg69
Nsg62
(lp2118
g55
(g71
g57
NtRp2119
(dp2120
g60
(dp2121
sg69
g2115
sg62
(lp2122
g55
(g76
g57
NtRp2123
(dp2124
g60
(dp2125
g80
g81
ssg69
g2119
sg62
(lp2126
S'app_folders'
p2127
asbag55
(g76
g57
NtRp2128
(dp2129
g60
(dp2130
g87
g88
ssg69
g2119
sg62
(lp2131
S':'
asbag55
(g76
g57
NtRp2132
(dp2133
g60
(dp2134
sg69
g2119
sg62
(lp2135
g55
(g56
g57
NtRp2136
(dp2137
g60
(dp2138
g68
I4
ssg69
g2132
sg62
(lp2139
S"set(['D:\\\\Workbench\\\\private\\\\web2py_src\\\\applications\\\\welcome\\\\', 'D:\\\\Workbench\\\\private\\\\web2py_src\\\\applications\\\\examples\\\\', 'D:\\\\Workbench\\\\private\\\\web2py_src\\\\applications\\\\admin\\\\'])"
p2140
asbasbasbag55
(g71
g57
NtRp2141
(dp2142
g60
(dp2143
sg69
g2115
sg62
(lp2144
g55
(g76
g57
NtRp2145
(dp2146
g60
(dp2147
g80
g81
ssg69
g2141
sg62
(lp2148
S'applications_parent'
p2149
asbag55
(g76
g57
NtRp2150
(dp2151
g60
(dp2152
g87
g88
ssg69
g2141
sg62
(lp2153
S':'
asbag55
(g76
g57
NtRp2154
(dp2155
g60
(dp2156
sg69
g2141
sg62
(lp2157
g55
(g56
g57
NtRp2158
(dp2159
g60
(dp2160
g68
I4
ssg69
g2154
sg62
(lp2161
S'D:\\Workbench\\private\\web2py_src'
p2162
asbasbasbag55
(g71
g57
NtRp2163
(dp2164
g60
(dp2165
sg69
g2115
sg62
(lp2166
g55
(g76
g57
NtRp2167
(dp2168
g60
(dp2169
g80
g81
ssg69
g2163
sg62
(lp2170
S'comspec'
p2171
asbag55
(g76
g57
NtRp2172
(dp2173
g60
(dp2174
g87
g88
ssg69
g2163
sg62
(lp2175
S':'
asbag55
(g76
g57
NtRp2176
(dp2177
g60
(dp2178
sg69
g2163
sg62
(lp2179
g55
(g56
g57
NtRp2180
(dp2181
g60
(dp2182
g68
I4
ssg69
g2176
sg62
(lp2183
S'C:\\Windows\\system32\\cmd.exe'
p2184
asbasbasbag55
(g71
g57
NtRp2185
(dp2186
g60
(dp2187
sg69
g2115
sg62
(lp2188
g55
(g76
g57
NtRp2189
(dp2190
g60
(dp2191
g80
g81
ssg69
g2185
sg62
(lp2192
S'content_length'
p2193
asbag55
(g76
g57
NtRp2194
(dp2195
g60
(dp2196
g87
g88
ssg69
g2185
sg62
(lp2197
S':'
asbag55
(g76
g57
NtRp2198
(dp2199
g60
(dp2200
sg69
g2185
sg62
(lp2201
g55
(g56
g57
NtRp2202
(dp2203
g60
(dp2204
g68
I4
ssg69
g2198
sg62
(lp2205
S'55788'
p2206
asbasbasbag55
(g71
g57
NtRp2207
(dp2208
g60
(dp2209
sg69
g2115
sg62
(lp2210
g55
(g76
g57
NtRp2211
(dp2212
g60
(dp2213
g80
g81
ssg69
g2207
sg62
(lp2214
S'content_type'
p2215
asbag55
(g76
g57
NtRp2216
(dp2217
g60
(dp2218
g87
g88
ssg69
g2207
sg62
(lp2219
S':'
asbag55
(g76
g57
NtRp2220
(dp2221
g60
(dp2222
sg69
g2207
sg62
(lp2223
g55
(g56
g57
NtRp2224
(dp2225
g60
(dp2226
g68
I4
ssg69
g2220
sg62
(lp2227
S'multipart/form-data; boundary=---------------------------7dc2af171803b4'
p2228
asbasbasbag55
(g71
g57
NtRp2229
(dp2230
g60
(dp2231
sg69
g2115
sg62
(lp2232
g55
(g76
g57
NtRp2233
(dp2234
g60
(dp2235
g80
g81
ssg69
g2229
sg62
(lp2236
S'db_sessions'
p2237
asbag55
(g76
g57
NtRp2238
(dp2239
g60
(dp2240
g87
g88
ssg69
g2229
sg62
(lp2241
S':'
asbag55
(g76
g57
NtRp2242
(dp2243
g60
(dp2244
sg69
g2229
sg62
(lp2245
g55
(g56
g57
NtRp2246
(dp2247
g60
(dp2248
g68
I4
ssg69
g2242
sg62
(lp2249
S'set([])'
p2250
asbasbasbag55
(g71
g57
NtRp2251
(dp2252
g60
(dp2253
sg69
g2115
sg62
(lp2254
g55
(g76
g57
NtRp2255
(dp2256
g60
(dp2257
g80
g81
ssg69
g2251
sg62
(lp2258
S'debugging'
p2259
asbag55
(g76
g57
NtRp2260
(dp2261
g60
(dp2262
g87
g88
ssg69
g2251
sg62
(lp2263
S':'
asbag55
(g76
g57
NtRp2264
(dp2265
g60
(dp2266
sg69
g2251
sg62
(lp2267
g55
(g56
g57
NtRp2268
(dp2269
g60
(dp2270
g68
I4
ssg69
g2264
sg62
(lp2271
g98
asbasbasbag55
(g71
g57
NtRp2272
(dp2273
g60
(dp2274
sg69
g2115
sg62
(lp2275
g55
(g76
g57
NtRp2276
(dp2277
g60
(dp2278
g80
g81
ssg69
g2272
sg62
(lp2279
S'document_root'
p2280
asbag55
(g76
g57
NtRp2281
(dp2282
g60
(dp2283
g87
g88
ssg69
g2272
sg62
(lp2284
S':'
asbag55
(g76
g57
NtRp2285
(dp2286
g60
(dp2287
sg69
g2272
sg62
(lp2288
g55
(g56
g57
NtRp2289
(dp2290
g60
(dp2291
g68
I4
ssg69
g2285
sg62
(lp2292
S'D:/Workbench/documentroot'
p2293
asbasbasbag55
(g71
g57
NtRp2294
(dp2295
g60
(dp2296
sg69
g2115
sg62
(lp2297
g55
(g76
g57
NtRp2298
(dp2299
g60
(dp2300
g80
g81
ssg69
g2294
sg62
(lp2301
S'gateway_interface'
p2302
asbag55
(g76
g57
NtRp2303
(dp2304
g60
(dp2305
g87
g88
ssg69
g2294
sg62
(lp2306
S':'
asbag55
(g76
g57
NtRp2307
(dp2308
g60
(dp2309
sg69
g2294
sg62
(lp2310
g55
(g56
g57
NtRp2311
(dp2312
g60
(dp2313
g68
I4
ssg69
g2307
sg62
(lp2314
S'CGI/1.1'
p2315
asbasbasbag55
(g71
g57
NtRp2316
(dp2317
g60
(dp2318
sg69
g2115
sg62
(lp2319
g55
(g76
g57
NtRp2320
(dp2321
g60
(dp2322
g80
g81
ssg69
g2316
sg62
(lp2323
S'gluon_parent'
p2324
asbag55
(g76
g57
NtRp2325
(dp2326
g60
(dp2327
g87
g88
ssg69
g2316
sg62
(lp2328
S':'
asbag55
(g76
g57
NtRp2329
(dp2330
g60
(dp2331
sg69
g2316
sg62
(lp2332
g55
(g56
g57
NtRp2333
(dp2334
g60
(dp2335
g68
I4
ssg69
g2329
sg62
(lp2336
g2162
asbasbasbag55
(g71
g57
NtRp2337
(dp2338
g60
(dp2339
sg69
g2115
sg62
(lp2340
g55
(g76
g57
NtRp2341
(dp2342
g60
(dp2343
g80
g81
ssg69
g2337
sg62
(lp2344
S'http_accept'
p2345
asbag55
(g76
g57
NtRp2346
(dp2347
g60
(dp2348
g87
g88
ssg69
g2337
sg62
(lp2349
S':'
asbag55
(g76
g57
NtRp2350
(dp2351
g60
(dp2352
sg69
g2337
sg62
(lp2353
g55
(g56
g57
NtRp2354
(dp2355
g60
(dp2356
g68
I4
ssg69
g2350
sg62
(lp2357
S'text/html, application/xhtml+xml, */*'
p2358
asbasbasbag55
(g71
g57
NtRp2359
(dp2360
g60
(dp2361
sg69
g2115
sg62
(lp2362
g55
(g76
g57
NtRp2363
(dp2364
g60
(dp2365
g80
g81
ssg69
g2359
sg62
(lp2366
S'http_accept_encoding'
p2367
asbag55
(g76
g57
NtRp2368
(dp2369
g60
(dp2370
g87
g88
ssg69
g2359
sg62
(lp2371
S':'
asbag55
(g76
g57
NtRp2372
(dp2373
g60
(dp2374
sg69
g2359
sg62
(lp2375
g55
(g56
g57
NtRp2376
(dp2377
g60
(dp2378
g68
I4
ssg69
g2372
sg62
(lp2379
S'gzip, deflate'
p2380
asbasbasbag55
(g71
g57
NtRp2381
(dp2382
g60
(dp2383
sg69
g2115
sg62
(lp2384
g55
(g76
g57
NtRp2385
(dp2386
g60
(dp2387
g80
g81
ssg69
g2381
sg62
(lp2388
S'http_accept_language'
p2389
asbag55
(g76
g57
NtRp2390
(dp2391
g60
(dp2392
g87
g88
ssg69
g2381
sg62
(lp2393
S':'
asbag55
(g76
g57
NtRp2394
(dp2395
g60
(dp2396
sg69
g2381
sg62
(lp2397
g55
(g56
g57
NtRp2398
(dp2399
g60
(dp2400
g68
I4
ssg69
g2394
sg62
(lp2401
S'zh-CN'
p2402
asbasbasbag55
(g71
g57
NtRp2403
(dp2404
g60
(dp2405
sg69
g2115
sg62
(lp2406
g55
(g76
g57
NtRp2407
(dp2408
g60
(dp2409
g80
g81
ssg69
g2403
sg62
(lp2410
S'http_cache_control'
p2411
asbag55
(g76
g57
NtRp2412
(dp2413
g60
(dp2414
g87
g88
ssg69
g2403
sg62
(lp2415
S':'
asbag55
(g76
g57
NtRp2416
(dp2417
g60
(dp2418
sg69
g2403
sg62
(lp2419
g55
(g56
g57
NtRp2420
(dp2421
g60
(dp2422
g68
I4
ssg69
g2416
sg62
(lp2423
S'no-cache'
p2424
asbasbasbag55
(g71
g57
NtRp2425
(dp2426
g60
(dp2427
sg69
g2115
sg62
(lp2428
g55
(g76
g57
NtRp2429
(dp2430
g60
(dp2431
g80
g81
ssg69
g2425
sg62
(lp2432
S'http_connection'
p2433
asbag55
(g76
g57
NtRp2434
(dp2435
g60
(dp2436
g87
g88
ssg69
g2425
sg62
(lp2437
S':'
asbag55
(g76
g57
NtRp2438
(dp2439
g60
(dp2440
sg69
g2425
sg62
(lp2441
g55
(g56
g57
NtRp2442
(dp2443
g60
(dp2444
g68
I4
ssg69
g2438
sg62
(lp2445
S'Keep-Alive'
p2446
asbasbasbag55
(g71
g57
NtRp2447
(dp2448
g60
(dp2449
sg69
g2115
sg62
(lp2450
g55
(g76
g57
NtRp2451
(dp2452
g60
(dp2453
g80
g81
ssg69
g2447
sg62
(lp2454
S'http_cookie'
p2455
asbag55
(g76
g57
NtRp2456
(dp2457
g60
(dp2458
g87
g88
ssg69
g2447
sg62
(lp2459
S':'
asbag55
(g76
g57
NtRp2460
(dp2461
g60
(dp2462
sg69
g2447
sg62
(lp2463
g55
(g56
g57
NtRp2464
(dp2465
g60
(dp2466
g68
I4
ssg69
g2460
sg62
(lp2467
S'pt2gguin=o0395865019; pgv_pvid=8180672002; pgv_flv=10.0; pgv_r_cookie=1231046432770; o_cookie=395865019; ac=1,030,019; uin_cookie=395865019; euin_cookie=CA72489798B2C5EA63153C652867FF8C6D82D4A69E93E29C; session_id_examples=127.0.0.1-f518699f-3eba-4c80-847f-e6c7203fd654; session_id_admin=127.0.0.1-128180a0-2933-4b0a-97b0-97c6daa9dc90'
p2468
asbasbasbag55
(g71
g57
NtRp2469
(dp2470
g60
(dp2471
sg69
g2115
sg62
(lp2472
g55
(g76
g57
NtRp2473
(dp2474
g60
(dp2475
g80
g81
ssg69
g2469
sg62
(lp2476
S'http_host'
p2477
asbag55
(g76
g57
NtRp2478
(dp2479
g60
(dp2480
g87
g88
ssg69
g2469
sg62
(lp2481
S':'
asbag55
(g76
g57
NtRp2482
(dp2483
g60
(dp2484
sg69
g2469
sg62
(lp2485
g55
(g56
g57
NtRp2486
(dp2487
g60
(dp2488
g68
I4
ssg69
g2482
sg62
(lp2489
S'tgtoolbox.qq.com'
p2490
asbasbasbag55
(g71
g57
NtRp2491
(dp2492
g60
(dp2493
sg69
g2115
sg62
(lp2494
g55
(g76
g57
NtRp2495
(dp2496
g60
(dp2497
g80
g81
ssg69
g2491
sg62
(lp2498
S'http_referer'
p2499
asbag55
(g76
g57
NtRp2500
(dp2501
g60
(dp2502
g87
g88
ssg69
g2491
sg62
(lp2503
S':'
asbag55
(g76
g57
NtRp2504
(dp2505
g60
(dp2506
sg69
g2491
sg62
(lp2507
g55
(g56
g57
NtRp2508
(dp2509
g60
(dp2510
g68
I4
ssg69
g2504
sg62
(lp2511
S'http://tgtoolbox.qq.com/examples/transform/'
p2512
asbasbasbag55
(g71
g57
NtRp2513
(dp2514
g60
(dp2515
sg69
g2115
sg62
(lp2516
g55
(g76
g57
NtRp2517
(dp2518
g60
(dp2519
g80
g81
ssg69
g2513
sg62
(lp2520
S'http_user_agent'
p2521
asbag55
(g76
g57
NtRp2522
(dp2523
g60
(dp2524
g87
g88
ssg69
g2513
sg62
(lp2525
S':'
asbag55
(g76
g57
NtRp2526
(dp2527
g60
(dp2528
sg69
g2513
sg62
(lp2529
g55
(g56
g57
NtRp2530
(dp2531
g60
(dp2532
g68
I4
ssg69
g2526
sg62
(lp2533
S'Mozilla/5.0 (compatible; MSIE 9.0; Windows NT 6.1; Trident/5.0)'
p2534
asbasbasbag55
(g71
g57
NtRp2535
(dp2536
g60
(dp2537
sg69
g2115
sg62
(lp2538
g55
(g76
g57
NtRp2539
(dp2540
g60
(dp2541
g80
g81
ssg69
g2535
sg62
(lp2542
S'is_jython'
p2543
asbag55
(g76
g57
NtRp2544
(dp2545
g60
(dp2546
g87
g88
ssg69
g2535
sg62
(lp2547
S':'
asbag55
(g76
g57
NtRp2548
(dp2549
g60
(dp2550
sg69
g2535
sg62
(lp2551
g55
(g56
g57
NtRp2552
(dp2553
g60
(dp2554
g68
I4
ssg69
g2548
sg62
(lp2555
g98
asbasbasbag55
(g71
g57
NtRp2556
(dp2557
g60
(dp2558
sg69
g2115
sg62
(lp2559
g55
(g76
g57
NtRp2560
(dp2561
g60
(dp2562
g80
g81
ssg69
g2556
sg62
(lp2563
S'mod_wsgi_application_group'
p2564
asbag55
(g76
g57
NtRp2565
(dp2566
g60
(dp2567
g87
g88
ssg69
g2556
sg62
(lp2568
S':'
asbag55
(g76
g57
NtRp2569
(dp2570
g60
(dp2571
sg69
g2556
sg62
(lp2572
g55
(g56
g57
NtRp2573
(dp2574
g60
(dp2575
g68
I4
ssg69
g2569
sg62
(lp2576
S'XIAOFTANG-NB.tencent.com|'
p2577
asbasbasbag55
(g71
g57
NtRp2578
(dp2579
g60
(dp2580
sg69
g2115
sg62
(lp2581
g55
(g76
g57
NtRp2582
(dp2583
g60
(dp2584
g80
g81
ssg69
g2578
sg62
(lp2585
S'mod_wsgi_callable_object'
p2586
asbag55
(g76
g57
NtRp2587
(dp2588
g60
(dp2589
g87
g88
ssg69
g2578
sg62
(lp2590
S':'
asbag55
(g76
g57
NtRp2591
(dp2592
g60
(dp2593
sg69
g2578
sg62
(lp2594
g55
(g56
g57
NtRp2595
(dp2596
g60
(dp2597
g68
I4
ssg69
g2591
sg62
(lp2598
S'application'
p2599
asbasbasbag55
(g71
g57
NtRp2600
(dp2601
g60
(dp2602
sg69
g2115
sg62
(lp2603
g55
(g76
g57
NtRp2604
(dp2605
g60
(dp2606
g80
g81
ssg69
g2600
sg62
(lp2607
S'mod_wsgi_handler_script'
p2608
asbag55
(g76
g57
NtRp2609
(dp2610
g60
(dp2611
g87
g88
ssg69
g2600
sg62
(lp2612
S':'
asbag55
(g76
g57
NtRp2613
(dp2614
g60
(dp2615
sg69
g2600
sg62
(lp2616
g55
(g56
g57
NtRp2617
(dp2618
g60
(dp2619
g68
I4
ssg69
g2613
sg62
(lp2620
S''
asbasbasbag55
(g71
g57
NtRp2621
(dp2622
g60
(dp2623
sg69
g2115
sg62
(lp2624
g55
(g76
g57
NtRp2625
(dp2626
g60
(dp2627
g80
g81
ssg69
g2621
sg62
(lp2628
S'mod_wsgi_input_chunked'
p2629
asbag55
(g76
g57
NtRp2630
(dp2631
g60
(dp2632
g87
g88
ssg69
g2621
sg62
(lp2633
S':'
asbag55
(g76
g57
NtRp2634
(dp2635
g60
(dp2636
sg69
g2621
sg62
(lp2637
g55
(g56
g57
NtRp2638
(dp2639
g60
(dp2640
g68
I4
ssg69
g2634
sg62
(lp2641
S'0'
asbasbasbag55
(g71
g57
NtRp2642
(dp2643
g60
(dp2644
sg69
g2115
sg62
(lp2645
g55
(g76
g57
NtRp2646
(dp2647
g60
(dp2648
g80
g81
ssg69
g2642
sg62
(lp2649
S'mod_wsgi_process_group'
p2650
asbag55
(g76
g57
NtRp2651
(dp2652
g60
(dp2653
g87
g88
ssg69
g2642
sg62
(lp2654
S':'
asbag55
(g76
g57
NtRp2655
(dp2656
g60
(dp2657
sg69
g2642
sg62
(lp2658
g55
(g56
g57
NtRp2659
(dp2660
g60
(dp2661
g68
I4
ssg69
g2655
sg62
(lp2662
S''
asbasbasbag55
(g71
g57
NtRp2663
(dp2664
g60
(dp2665
sg69
g2115
sg62
(lp2666
g55
(g76
g57
NtRp2667
(dp2668
g60
(dp2669
g80
g81
ssg69
g2663
sg62
(lp2670
S'mod_wsgi_request_handler'
p2671
asbag55
(g76
g57
NtRp2672
(dp2673
g60
(dp2674
g87
g88
ssg69
g2663
sg62
(lp2675
S':'
asbag55
(g76
g57
NtRp2676
(dp2677
g60
(dp2678
sg69
g2663
sg62
(lp2679
g55
(g56
g57
NtRp2680
(dp2681
g60
(dp2682
g68
I4
ssg69
g2676
sg62
(lp2683
S'wsgi-script'
p2684
asbasbasbag55
(g71
g57
NtRp2685
(dp2686
g60
(dp2687
sg69
g2115
sg62
(lp2688
g55
(g76
g57
NtRp2689
(dp2690
g60
(dp2691
g80
g81
ssg69
g2685
sg62
(lp2692
S'mod_wsgi_script_reloading'
p2693
asbag55
(g76
g57
NtRp2694
(dp2695
g60
(dp2696
g87
g88
ssg69
g2685
sg62
(lp2697
S':'
asbag55
(g76
g57
NtRp2698
(dp2699
g60
(dp2700
sg69
g2685
sg62
(lp2701
g55
(g56
g57
NtRp2702
(dp2703
g60
(dp2704
g68
I4
ssg69
g2698
sg62
(lp2705
S'1'
asbasbasbag55
(g71
g57
NtRp2706
(dp2707
g60
(dp2708
sg69
g2115
sg62
(lp2709
g55
(g76
g57
NtRp2710
(dp2711
g60
(dp2712
g80
g81
ssg69
g2706
sg62
(lp2713
S'mod_wsgi_version'
p2714
asbag55
(g76
g57
NtRp2715
(dp2716
g60
(dp2717
g87
g88
ssg69
g2706
sg62
(lp2718
S':'
asbag55
(g76
g57
NtRp2719
(dp2720
g60
(dp2721
sg69
g2706
sg62
(lp2722
g55
(g56
g57
NtRp2723
(dp2724
g60
(dp2725
g68
I4
ssg69
g2719
sg62
(lp2726
g55
(g64
g57
NtRp2727
(dp2728
g60
(dp2729
g68
I3
ssg69
Nsg62
(lp2730
g55
(g71
g57
NtRp2731
(dp2732
g60
(dp2733
sg69
g2727
sg62
(lp2734
g55
(g76
g57
NtRp2735
(dp2736
g60
(dp2737
sg69
g2731
sg62
(lp2738
g55
(g56
g57
NtRp2739
(dp2740
g60
(dp2741
g68
I3
ssg69
g2735
sg62
(lp2742
S'3'
asbasbasbag55
(g71
g57
NtRp2743
(dp2744
g60
(dp2745
sg69
g2727
sg62
(lp2746
g55
(g76
g57
NtRp2747
(dp2748
g60
(dp2749
sg69
g2743
sg62
(lp2750
g55
(g56
g57
NtRp2751
(dp2752
g60
(dp2753
g68
I3
ssg69
g2747
sg62
(lp2754
S'3'
asbasbasbasbasbasbasbag55
(g71
g57
NtRp2755
(dp2756
g60
(dp2757
sg69
g2115
sg62
(lp2758
g55
(g76
g57
NtRp2759
(dp2760
g60
(dp2761
g80
g81
ssg69
g2755
sg62
(lp2762
S'path_info'
p2763
asbag55
(g76
g57
NtRp2764
(dp2765
g60
(dp2766
g87
g88
ssg69
g2755
sg62
(lp2767
S':'
asbag55
(g76
g57
NtRp2768
(dp2769
g60
(dp2770
sg69
g2755
sg62
(lp2771
g55
(g56
g57
NtRp2772
(dp2773
g60
(dp2774
g68
I4
ssg69
g2768
sg62
(lp2775
S'/examples/transform/upload'
p2776
asbasbasbag55
(g71
g57
NtRp2777
(dp2778
g60
(dp2779
sg69
g2115
sg62
(lp2780
g55
(g76
g57
NtRp2781
(dp2782
g60
(dp2783
g80
g81
ssg69
g2777
sg62
(lp2784
S'path_translated'
p2785
asbag55
(g76
g57
NtRp2786
(dp2787
g60
(dp2788
g87
g88
ssg69
g2777
sg62
(lp2789
S':'
asbag55
(g76
g57
NtRp2790
(dp2791
g60
(dp2792
sg69
g2777
sg62
(lp2793
g55
(g56
g57
NtRp2794
(dp2795
g60
(dp2796
g68
I4
ssg69
g2790
sg62
(lp2797
S'D:\\Workbench\\private\\web2py_src\\wsgihandler.py\\examples\\transform\\upload'
p2798
asbasbasbag55
(g71
g57
NtRp2799
(dp2800
g60
(dp2801
sg69
g2115
sg62
(lp2802
g55
(g76
g57
NtRp2803
(dp2804
g60
(dp2805
g80
g81
ssg69
g2799
sg62
(lp2806
S'pathext'
p2807
asbag55
(g76
g57
NtRp2808
(dp2809
g60
(dp2810
g87
g88
ssg69
g2799
sg62
(lp2811
S':'
asbag55
(g76
g57
NtRp2812
(dp2813
g60
(dp2814
sg69
g2799
sg62
(lp2815
g55
(g56
g57
NtRp2816
(dp2817
g60
(dp2818
g68
I4
ssg69
g2812
sg62
(lp2819
S'.COM;.EXE;.BAT;.CMD;.VBS;.VBE;.JS;.JSE;.WSF;.WSH;.MSC;.py;.pyw'
p2820
asbasbasbag55
(g71
g57
NtRp2821
(dp2822
g60
(dp2823
sg69
g2115
sg62
(lp2824
g55
(g76
g57
NtRp2825
(dp2826
g60
(dp2827
g80
g81
ssg69
g2821
sg62
(lp2828
S'query_string'
p2829
asbag55
(g76
g57
NtRp2830
(dp2831
g60
(dp2832
g87
g88
ssg69
g2821
sg62
(lp2833
S':'
asbag55
(g76
g57
NtRp2834
(dp2835
g60
(dp2836
sg69
g2821
sg62
(lp2837
g55
(g56
g57
NtRp2838
(dp2839
g60
(dp2840
g68
I4
ssg69
g2834
sg62
(lp2841
S''
asbasbasbag55
(g71
g57
NtRp2842
(dp2843
g60
(dp2844
sg69
g2115
sg62
(lp2845
g55
(g76
g57
NtRp2846
(dp2847
g60
(dp2848
g80
g81
ssg69
g2842
sg62
(lp2849
S'remote_addr'
p2850
asbag55
(g76
g57
NtRp2851
(dp2852
g60
(dp2853
g87
g88
ssg69
g2842
sg62
(lp2854
S':'
asbag55
(g76
g57
NtRp2855
(dp2856
g60
(dp2857
sg69
g2842
sg62
(lp2858
g55
(g56
g57
NtRp2859
(dp2860
g60
(dp2861
g68
I4
ssg69
g2855
sg62
(lp2862
g188
asbasbasbag55
(g71
g57
NtRp2863
(dp2864
g60
(dp2865
sg69
g2115
sg62
(lp2866
g55
(g76
g57
NtRp2867
(dp2868
g60
(dp2869
g80
g81
ssg69
g2863
sg62
(lp2870
S'remote_port'
p2871
asbag55
(g76
g57
NtRp2872
(dp2873
g60
(dp2874
g87
g88
ssg69
g2863
sg62
(lp2875
S':'
asbag55
(g76
g57
NtRp2876
(dp2877
g60
(dp2878
sg69
g2863
sg62
(lp2879
g55
(g56
g57
NtRp2880
(dp2881
g60
(dp2882
g68
I4
ssg69
g2876
sg62
(lp2883
S'28283'
p2884
asbasbasbag55
(g71
g57
NtRp2885
(dp2886
g60
(dp2887
sg69
g2115
sg62
(lp2888
g55
(g76
g57
NtRp2889
(dp2890
g60
(dp2891
g80
g81
ssg69
g2885
sg62
(lp2892
S'request_method'
p2893
asbag55
(g76
g57
NtRp2894
(dp2895
g60
(dp2896
g87
g88
ssg69
g2885
sg62
(lp2897
S':'
asbag55
(g76
g57
NtRp2898
(dp2899
g60
(dp2900
sg69
g2885
sg62
(lp2901
g55
(g56
g57
NtRp2902
(dp2903
g60
(dp2904
g68
I4
ssg69
g2898
sg62
(lp2905
S'POST'
p2906
asbasbasbag55
(g71
g57
NtRp2907
(dp2908
g60
(dp2909
sg69
g2115
sg62
(lp2910
g55
(g76
g57
NtRp2911
(dp2912
g60
(dp2913
g80
g81
ssg69
g2907
sg62
(lp2914
S'request_uri'
p2915
asbag55
(g76
g57
NtRp2916
(dp2917
g60
(dp2918
g87
g88
ssg69
g2907
sg62
(lp2919
S':'
asbag55
(g76
g57
NtRp2920
(dp2921
g60
(dp2922
sg69
g2907
sg62
(lp2923
g55
(g56
g57
NtRp2924
(dp2925
g60
(dp2926
g68
I4
ssg69
g2920
sg62
(lp2927
S'/examples/transform/upload'
p2928
asbasbasbag55
(g71
g57
NtRp2929
(dp2930
g60
(dp2931
sg69
g2115
sg62
(lp2932
g55
(g76
g57
NtRp2933
(dp2934
g60
(dp2935
g80
g81
ssg69
g2929
sg62
(lp2936
S'script_filename'
p2937
asbag55
(g76
g57
NtRp2938
(dp2939
g60
(dp2940
g87
g88
ssg69
g2929
sg62
(lp2941
S':'
asbag55
(g76
g57
NtRp2942
(dp2943
g60
(dp2944
sg69
g2929
sg62
(lp2945
g55
(g56
g57
NtRp2946
(dp2947
g60
(dp2948
g68
I4
ssg69
g2942
sg62
(lp2949
S'D:/Workbench/private/web2py_src/wsgihandler.py'
p2950
asbasbasbag55
(g71
g57
NtRp2951
(dp2952
g60
(dp2953
sg69
g2115
sg62
(lp2954
g55
(g76
g57
NtRp2955
(dp2956
g60
(dp2957
g80
g81
ssg69
g2951
sg62
(lp2958
S'script_name'
p2959
asbag55
(g76
g57
NtRp2960
(dp2961
g60
(dp2962
g87
g88
ssg69
g2951
sg62
(lp2963
S':'
asbag55
(g76
g57
NtRp2964
(dp2965
g60
(dp2966
sg69
g2951
sg62
(lp2967
g55
(g56
g57
NtRp2968
(dp2969
g60
(dp2970
g68
I4
ssg69
g2964
sg62
(lp2971
S''
asbasbasbag55
(g71
g57
NtRp2972
(dp2973
g60
(dp2974
sg69
g2115
sg62
(lp2975
g55
(g76
g57
NtRp2976
(dp2977
g60
(dp2978
g80
g81
ssg69
g2972
sg62
(lp2979
S'server_addr'
p2980
asbag55
(g76
g57
NtRp2981
(dp2982
g60
(dp2983
g87
g88
ssg69
g2972
sg62
(lp2984
S':'
asbag55
(g76
g57
NtRp2985
(dp2986
g60
(dp2987
sg69
g2972
sg62
(lp2988
g55
(g56
g57
NtRp2989
(dp2990
g60
(dp2991
g68
I4
ssg69
g2985
sg62
(lp2992
S'127.0.0.1'
p2993
asbasbasbag55
(g71
g57
NtRp2994
(dp2995
g60
(dp2996
sg69
g2115
sg62
(lp2997
g55
(g76
g57
NtRp2998
(dp2999
g60
(dp3000
g80
g81
ssg69
g2994
sg62
(lp3001
S'server_admin'
p3002
asbag55
(g76
g57
NtRp3003
(dp3004
g60
(dp3005
g87
g88
ssg69
g2994
sg62
(lp3006
S':'
asbag55
(g76
g57
NtRp3007
(dp3008
g60
(dp3009
sg69
g2994
sg62
(lp3010
g55
(g56
g57
NtRp3011
(dp3012
g60
(dp3013
g68
I4
ssg69
g3007
sg62
(lp3014
S'admin@tencent.com'
p3015
asbasbasbag55
(g71
g57
NtRp3016
(dp3017
g60
(dp3018
sg69
g2115
sg62
(lp3019
g55
(g76
g57
NtRp3020
(dp3021
g60
(dp3022
g80
g81
ssg69
g3016
sg62
(lp3023
S'server_name'
p3024
asbag55
(g76
g57
NtRp3025
(dp3026
g60
(dp3027
g87
g88
ssg69
g3016
sg62
(lp3028
S':'
asbag55
(g76
g57
NtRp3029
(dp3030
g60
(dp3031
sg69
g3016
sg62
(lp3032
g55
(g56
g57
NtRp3033
(dp3034
g60
(dp3035
g68
I4
ssg69
g3029
sg62
(lp3036
S'tgtoolbox.qq.com'
p3037
asbasbasbag55
(g71
g57
NtRp3038
(dp3039
g60
(dp3040
sg69
g2115
sg62
(lp3041
g55
(g76
g57
NtRp3042
(dp3043
g60
(dp3044
g80
g81
ssg69
g3038
sg62
(lp3045
S'server_port'
p3046
asbag55
(g76
g57
NtRp3047
(dp3048
g60
(dp3049
g87
g88
ssg69
g3038
sg62
(lp3050
S':'
asbag55
(g76
g57
NtRp3051
(dp3052
g60
(dp3053
sg69
g3038
sg62
(lp3054
g55
(g56
g57
NtRp3055
(dp3056
g60
(dp3057
g68
I4
ssg69
g3051
sg62
(lp3058
S'80'
p3059
asbasbasbag55
(g71
g57
NtRp3060
(dp3061
g60
(dp3062
sg69
g2115
sg62
(lp3063
g55
(g76
g57
NtRp3064
(dp3065
g60
(dp3066
g80
g81
ssg69
g3060
sg62
(lp3067
S'server_protocol'
p3068
asbag55
(g76
g57
NtRp3069
(dp3070
g60
(dp3071
g87
g88
ssg69
g3060
sg62
(lp3072
S':'
asbag55
(g76
g57
NtRp3073
(dp3074
g60
(dp3075
sg69
g3060
sg62
(lp3076
g55
(g56
g57
NtRp3077
(dp3078
g60
(dp3079
g68
I4
ssg69
g3073
sg62
(lp3080
S'HTTP/1.1'
p3081
asbasbasbag55
(g71
g57
NtRp3082
(dp3083
g60
(dp3084
sg69
g2115
sg62
(lp3085
g55
(g76
g57
NtRp3086
(dp3087
g60
(dp3088
g80
g81
ssg69
g3082
sg62
(lp3089
S'server_signature'
p3090
asbag55
(g76
g57
NtRp3091
(dp3092
g60
(dp3093
g87
g88
ssg69
g3082
sg62
(lp3094
S':'
asbag55
(g76
g57
NtRp3095
(dp3096
g60
(dp3097
sg69
g3082
sg62
(lp3098
g55
(g56
g57
NtRp3099
(dp3100
g60
(dp3101
g68
I4
ssg69
g3095
sg62
(lp3102
S''
asbasbasbag55
(g71
g57
NtRp3103
(dp3104
g60
(dp3105
sg69
g2115
sg62
(lp3106
g55
(g76
g57
NtRp3107
(dp3108
g60
(dp3109
g80
g81
ssg69
g3103
sg62
(lp3110
S'server_software'
p3111
asbag55
(g76
g57
NtRp3112
(dp3113
g60
(dp3114
g87
g88
ssg69
g3103
sg62
(lp3115
S':'
asbag55
(g76
g57
NtRp3116
(dp3117
g60
(dp3118
sg69
g3103
sg62
(lp3119
g55
(g56
g57
NtRp3120
(dp3121
g60
(dp3122
g68
I4
ssg69
g3116
sg62
(lp3123
S'Apache/2.2.21 (Win32) PHP/5.2.17 mod_wsgi/3.3 Python/2.7.2'
p3124
asbasbasbag55
(g71
g57
NtRp3125
(dp3126
g60
(dp3127
sg69
g2115
sg62
(lp3128
g55
(g76
g57
NtRp3129
(dp3130
g60
(dp3131
g80
g81
ssg69
g3125
sg62
(lp3132
S'systemroot'
p3133
asbag55
(g76
g57
NtRp3134
(dp3135
g60
(dp3136
g87
g88
ssg69
g3125
sg62
(lp3137
S':'
asbag55
(g76
g57
NtRp3138
(dp3139
g60
(dp3140
sg69
g3125
sg62
(lp3141
g55
(g56
g57
NtRp3142
(dp3143
g60
(dp3144
g68
I4
ssg69
g3138
sg62
(lp3145
S'C:\\Windows'
p3146
asbasbasbag55
(g71
g57
NtRp3147
(dp3148
g60
(dp3149
sg69
g2115
sg62
(lp3150
g55
(g76
g57
NtRp3151
(dp3152
g60
(dp3153
g80
g81
ssg69
g3147
sg62
(lp3154
S'web2py_path'
p3155
asbag55
(g76
g57
NtRp3156
(dp3157
g60
(dp3158
g87
g88
ssg69
g3147
sg62
(lp3159
S':'
asbag55
(g76
g57
NtRp3160
(dp3161
g60
(dp3162
sg69
g3147
sg62
(lp3163
g55
(g56
g57
NtRp3164
(dp3165
g60
(dp3166
g68
I4
ssg69
g3160
sg62
(lp3167
g2162
asbasbasbag55
(g71
g57
NtRp3168
(dp3169
g60
(dp3170
sg69
g2115
sg62
(lp3171
g55
(g76
g57
NtRp3172
(dp3173
g60
(dp3174
g80
g81
ssg69
g3168
sg62
(lp3175
S'web2py_version'
p3176
asbag55
(g76
g57
NtRp3177
(dp3178
g60
(dp3179
g87
g88
ssg69
g3168
sg62
(lp3180
S':'
asbag55
(g76
g57
NtRp3181
(dp3182
g60
(dp3183
sg69
g3168
sg62
(lp3184
g55
(g56
g57
NtRp3185
(dp3186
g60
(dp3187
g68
I4
ssg69
g3181
sg62
(lp3188
g55
(g64
g57
NtRp3189
(dp3190
g60
(dp3191
g68
I3
ssg69
Nsg62
(lp3192
g55
(g71
g57
NtRp3193
(dp3194
g60
(dp3195
sg69
g3189
sg62
(lp3196
g55
(g76
g57
NtRp3197
(dp3198
g60
(dp3199
sg69
g3193
sg62
(lp3200
g55
(g56
g57
NtRp3201
(dp3202
g60
(dp3203
g68
I3
ssg69
g3197
sg62
(lp3204
S'1'
asbasbasbag55
(g71
g57
NtRp3205
(dp3206
g60
(dp3207
sg69
g3189
sg62
(lp3208
g55
(g76
g57
NtRp3209
(dp3210
g60
(dp3211
sg69
g3205
sg62
(lp3212
g55
(g56
g57
NtRp3213
(dp3214
g60
(dp3215
g68
I3
ssg69
g3209
sg62
(lp3216
S'99'
p3217
asbasbasbag55
(g71
g57
NtRp3218
(dp3219
g60
(dp3220
sg69
g3189
sg62
(lp3221
g55
(g76
g57
NtRp3222
(dp3223
g60
(dp3224
sg69
g3218
sg62
(lp3225
g55
(g56
g57
NtRp3226
(dp3227
g60
(dp3228
g68
I3
ssg69
g3222
sg62
(lp3229
S'2'
asbasbasbag55
(g71
g57
NtRp3230
(dp3231
g60
(dp3232
sg69
g3189
sg62
(lp3233
g55
(g76
g57
NtRp3234
(dp3235
g60
(dp3236
sg69
g3230
sg62
(lp3237
g55
(g56
g57
NtRp3238
(dp3239
g60
(dp3240
g68
I3
ssg69
g3234
sg62
(lp3241
S'datetime.datetime(2011, 9, 26, 6, 55, 33)'
p3242
asbasbasbag55
(g71
g57
NtRp3243
(dp3244
g60
(dp3245
sg69
g3189
sg62
(lp3246
g55
(g76
g57
NtRp3247
(dp3248
g60
(dp3249
sg69
g3243
sg62
(lp3250
g55
(g56
g57
NtRp3251
(dp3252
g60
(dp3253
g68
I3
ssg69
g3247
sg62
(lp3254
S'stable'
p3255
asbasbasbasbasbasbasbag55
(g71
g57
NtRp3256
(dp3257
g60
(dp3258
sg69
g2115
sg62
(lp3259
g55
(g76
g57
NtRp3260
(dp3261
g60
(dp3262
g80
g81
ssg69
g3256
sg62
(lp3263
S'windir'
p3264
asbag55
(g76
g57
NtRp3265
(dp3266
g60
(dp3267
g87
g88
ssg69
g3256
sg62
(lp3268
S':'
asbag55
(g76
g57
NtRp3269
(dp3270
g60
(dp3271
sg69
g3256
sg62
(lp3272
g55
(g56
g57
NtRp3273
(dp3274
g60
(dp3275
g68
I4
ssg69
g3269
sg62
(lp3276
S'C:\\Windows'
p3277
asbasbasbag55
(g71
g57
NtRp3278
(dp3279
g60
(dp3280
sg69
g2115
sg62
(lp3281
g55
(g76
g57
NtRp3282
(dp3283
g60
(dp3284
g80
g81
ssg69
g3278
sg62
(lp3285
S'wsgi_errors'
p3286
asbag55
(g76
g57
NtRp3287
(dp3288
g60
(dp3289
g87
g88
ssg69
g3278
sg62
(lp3290
S':'
asbag55
(g76
g57
NtRp3291
(dp3292
g60
(dp3293
sg69
g3278
sg62
(lp3294
g55
(g56
g57
NtRp3295
(dp3296
g60
(dp3297
g68
I4
ssg69
g3291
sg62
(lp3298
S'<mod_wsgi.Log object at 0x0437AE08>'
p3299
asbasbasbag55
(g71
g57
NtRp3300
(dp3301
g60
(dp3302
sg69
g2115
sg62
(lp3303
g55
(g76
g57
NtRp3304
(dp3305
g60
(dp3306
g80
g81
ssg69
g3300
sg62
(lp3307
S'wsgi_file_wrapper'
p3308
asbag55
(g76
g57
NtRp3309
(dp3310
g60
(dp3311
g87
g88
ssg69
g3300
sg62
(lp3312
S':'
asbag55
(g76
g57
NtRp3313
(dp3314
g60
(dp3315
sg69
g3300
sg62
(lp3316
g55
(g56
g57
NtRp3317
(dp3318
g60
(dp3319
g68
I4
ssg69
g3313
sg62
(lp3320
S'<built-in method file_wrapper of mod_wsgi.Adapter object at 0x03DE4890>'
p3321
asbasbasbag55
(g71
g57
NtRp3322
(dp3323
g60
(dp3324
sg69
g2115
sg62
(lp3325
g55
(g76
g57
NtRp3326
(dp3327
g60
(dp3328
g80
g81
ssg69
g3322
sg62
(lp3329
S'wsgi_input'
p3330
asbag55
(g76
g57
NtRp3331
(dp3332
g60
(dp3333
g87
g88
ssg69
g3322
sg62
(lp3334
S':'
asbag55
(g76
g57
NtRp3335
(dp3336
g60
(dp3337
sg69
g3322
sg62
(lp3338
g55
(g56
g57
NtRp3339
(dp3340
g60
(dp3341
g68
I4
ssg69
g3335
sg62
(lp3342
S'<mod_wsgi.Input object at 0x0404F4A8>'
p3343
asbasbasbag55
(g71
g57
NtRp3344
(dp3345
g60
(dp3346
sg69
g2115
sg62
(lp3347
g55
(g76
g57
NtRp3348
(dp3349
g60
(dp3350
g80
g81
ssg69
g3344
sg62
(lp3351
S'wsgi_multiprocess'
p3352
asbag55
(g76
g57
NtRp3353
(dp3354
g60
(dp3355
g87
g88
ssg69
g3344
sg62
(lp3356
S':'
asbag55
(g76
g57
NtRp3357
(dp3358
g60
(dp3359
sg69
g3344
sg62
(lp3360
g55
(g56
g57
NtRp3361
(dp3362
g60
(dp3363
g68
I4
ssg69
g3357
sg62
(lp3364
g98
asbasbasbag55
(g71
g57
NtRp3365
(dp3366
g60
(dp3367
sg69
g2115
sg62
(lp3368
g55
(g76
g57
NtRp3369
(dp3370
g60
(dp3371
g80
g81
ssg69
g3365
sg62
(lp3372
S'wsgi_multithread'
p3373
asbag55
(g76
g57
NtRp3374
(dp3375
g60
(dp3376
g87
g88
ssg69
g3365
sg62
(lp3377
S':'
asbag55
(g76
g57
NtRp3378
(dp3379
g60
(dp3380
sg69
g3365
sg62
(lp3381
g55
(g56
g57
NtRp3382
(dp3383
g60
(dp3384
g68
I4
ssg69
g3378
sg62
(lp3385
S'True'
p3386
asbasbasbag55
(g71
g57
NtRp3387
(dp3388
g60
(dp3389
sg69
g2115
sg62
(lp3390
g55
(g76
g57
NtRp3391
(dp3392
g60
(dp3393
g80
g81
ssg69
g3387
sg62
(lp3394
S'wsgi_run_once'
p3395
asbag55
(g76
g57
NtRp3396
(dp3397
g60
(dp3398
g87
g88
ssg69
g3387
sg62
(lp3399
S':'
asbag55
(g76
g57
NtRp3400
(dp3401
g60
(dp3402
sg69
g3387
sg62
(lp3403
g55
(g56
g57
NtRp3404
(dp3405
g60
(dp3406
g68
I4
ssg69
g3400
sg62
(lp3407
g98
asbasbasbag55
(g71
g57
NtRp3408
(dp3409
g60
(dp3410
sg69
g2115
sg62
(lp3411
g55
(g76
g57
NtRp3412
(dp3413
g60
(dp3414
g80
g81
ssg69
g3408
sg62
(lp3415
S'wsgi_url_scheme'
p3416
asbag55
(g76
g57
NtRp3417
(dp3418
g60
(dp3419
g87
g88
ssg69
g3408
sg62
(lp3420
S':'
asbag55
(g76
g57
NtRp3421
(dp3422
g60
(dp3423
sg69
g3408
sg62
(lp3424
g55
(g56
g57
NtRp3425
(dp3426
g60
(dp3427
g68
I4
ssg69
g3421
sg62
(lp3428
S'http'
p3429
asbasbasbag55
(g71
g57
NtRp3430
(dp3431
g60
(dp3432
sg69
g2115
sg62
(lp3433
g55
(g76
g57
NtRp3434
(dp3435
g60
(dp3436
g80
g81
ssg69
g3430
sg62
(lp3437
S'wsgi_version'
p3438
asbag55
(g76
g57
NtRp3439
(dp3440
g60
(dp3441
g87
g88
ssg69
g3430
sg62
(lp3442
S':'
asbag55
(g76
g57
NtRp3443
(dp3444
g60
(dp3445
sg69
g3430
sg62
(lp3446
g55
(g56
g57
NtRp3447
(dp3448
g60
(dp3449
g68
I4
ssg69
g3443
sg62
(lp3450
g55
(g64
g57
NtRp3451
(dp3452
g60
(dp3453
g68
I3
ssg69
Nsg62
(lp3454
g55
(g71
g57
NtRp3455
(dp3456
g60
(dp3457
sg69
g3451
sg62
(lp3458
g55
(g76
g57
NtRp3459
(dp3460
g60
(dp3461
sg69
g3455
sg62
(lp3462
g55
(g56
g57
NtRp3463
(dp3464
g60
(dp3465
g68
I3
ssg69
g3459
sg62
(lp3466
S'1'
asbasbasbag55
(g71
g57
NtRp3467
(dp3468
g60
(dp3469
sg69
g3451
sg62
(lp3470
g55
(g76
g57
NtRp3471
(dp3472
g60
(dp3473
sg69
g3467
sg62
(lp3474
g55
(g56
g57
NtRp3475
(dp3476
g60
(dp3477
g68
I3
ssg69
g3471
sg62
(lp3478
S'1'
asbasbasbasbasbasbasbasbasbasbasbag55
(g71
g57
NtRp3479
(dp3480
g60
(dp3481
sg69
g65
sg62
(lp3482
g55
(g76
g57
NtRp3483
(dp3484
g60
(dp3485
g80
g81
ssg69
g3479
sg62
(lp3486
S'extension'
p3487
asbag55
(g76
g57
NtRp3488
(dp3489
g60
(dp3490
g87
g88
ssg69
g3479
sg62
(lp3491
S':'
asbag55
(g76
g57
NtRp3492
(dp3493
g60
(dp3494
sg69
g3479
sg62
(lp3495
g55
(g56
g57
NtRp3496
(dp3497
g60
(dp3498
g68
I5
ssg69
g3492
sg62
(lp3499
S'html'
p3500
asbasbasbag55
(g71
g57
NtRp3501
(dp3502
g60
(dp3503
sg69
g65
sg62
(lp3504
g55
(g76
g57
NtRp3505
(dp3506
g60
(dp3507
g80
g81
ssg69
g3501
sg62
(lp3508
S'folder'
p3509
asbag55
(g76
g57
NtRp3510
(dp3511
g60
(dp3512
g87
g88
ssg69
g3501
sg62
(lp3513
S':'
asbag55
(g76
g57
NtRp3514
(dp3515
g60
(dp3516
sg69
g3501
sg62
(lp3517
g55
(g56
g57
NtRp3518
(dp3519
g60
(dp3520
g68
I5
ssg69
g3514
sg62
(lp3521
S'D:\\Workbench\\private\\web2py_src\\applications\\examples\\'
p3522
asbasbasbag55
(g71
g57
NtRp3523
(dp3524
g60
(dp3525
sg69
g65
sg62
(lp3526
g55
(g76
g57
NtRp3527
(dp3528
g60
(dp3529
g80
g81
ssg69
g3523
sg62
(lp3530
S'function'
p3531
asbag55
(g76
g57
NtRp3532
(dp3533
g60
(dp3534
g87
g88
ssg69
g3523
sg62
(lp3535
S':'
asbag55
(g76
g57
NtRp3536
(dp3537
g60
(dp3538
sg69
g3523
sg62
(lp3539
g55
(g56
g57
NtRp3540
(dp3541
g60
(dp3542
g68
I5
ssg69
g3536
sg62
(lp3543
S'upload'
p3544
asbasbasbag55
(g71
g57
NtRp3545
(dp3546
g60
(dp3547
sg69
g65
sg62
(lp3548
g55
(g76
g57
NtRp3549
(dp3550
g60
(dp3551
g80
g81
ssg69
g3545
sg62
(lp3552
S'get_vars'
p3553
asbag55
(g76
g57
NtRp3554
(dp3555
g60
(dp3556
g87
g88
ssg69
g3545
sg62
(lp3557
S':'
asbag55
(g76
g57
NtRp3558
(dp3559
g60
(dp3560
sg69
g3545
sg62
(lp3561
g55
(g56
g57
NtRp3562
(dp3563
g60
(dp3564
g68
I5
ssg69
g3558
sg62
(lp3565
g55
(g64
g57
NtRp3566
(dp3567
g60
(dp3568
g68
I4
ssg69
Nsg62
(lp3569
sbasbasbasbag55
(g71
g57
NtRp3570
(dp3571
g60
(dp3572
sg69
g65
sg62
(lp3573
g55
(g76
g57
NtRp3574
(dp3575
g60
(dp3576
g80
g81
ssg69
g3570
sg62
(lp3577
S'global_settings'
p3578
asbag55
(g76
g57
NtRp3579
(dp3580
g60
(dp3581
g87
g88
ssg69
g3570
sg62
(lp3582
S':'
asbag55
(g76
g57
NtRp3583
(dp3584
g60
(dp3585
sg69
g3570
sg62
(lp3586
g55
(g56
g57
NtRp3587
(dp3588
g60
(dp3589
g68
I5
ssg69
g3583
sg62
(lp3590
g55
(g64
g57
NtRp3591
(dp3592
g60
(dp3593
g68
I4
ssg69
Nsg62
(lp3594
g55
(g71
g57
NtRp3595
(dp3596
g60
(dp3597
sg69
g3591
sg62
(lp3598
g55
(g76
g57
NtRp3599
(dp3600
g60
(dp3601
g80
g81
ssg69
g3595
sg62
(lp3602
g2127
asbag55
(g76
g57
NtRp3603
(dp3604
g60
(dp3605
g87
g88
ssg69
g3595
sg62
(lp3606
S':'
asbag55
(g76
g57
NtRp3607
(dp3608
g60
(dp3609
sg69
g3595
sg62
(lp3610
g55
(g56
g57
NtRp3611
(dp3612
g60
(dp3613
g68
I4
ssg69
g3607
sg62
(lp3614
S"set(['D:\\\\Workbench\\\\private\\\\web2py_src\\\\applications\\\\welcome\\\\', 'D:\\\\Workbench\\\\private\\\\web2py_src\\\\applications\\\\examples\\\\', 'D:\\\\Workbench\\\\private\\\\web2py_src\\\\applications\\\\admin\\\\'])"
p3615
asbasbasbag55
(g71
g57
NtRp3616
(dp3617
g60
(dp3618
sg69
g3591
sg62
(lp3619
g55
(g76
g57
NtRp3620
(dp3621
g60
(dp3622
g80
g81
ssg69
g3616
sg62
(lp3623
g2149
asbag55
(g76
g57
NtRp3624
(dp3625
g60
(dp3626
g87
g88
ssg69
g3616
sg62
(lp3627
S':'
asbag55
(g76
g57
NtRp3628
(dp3629
g60
(dp3630
sg69
g3616
sg62
(lp3631
g55
(g56
g57
NtRp3632
(dp3633
g60
(dp3634
g68
I4
ssg69
g3628
sg62
(lp3635
g2162
asbasbasbag55
(g71
g57
NtRp3636
(dp3637
g60
(dp3638
sg69
g3591
sg62
(lp3639
g55
(g76
g57
NtRp3640
(dp3641
g60
(dp3642
g80
g81
ssg69
g3636
sg62
(lp3643
g2237
asbag55
(g76
g57
NtRp3644
(dp3645
g60
(dp3646
g87
g88
ssg69
g3636
sg62
(lp3647
S':'
asbag55
(g76
g57
NtRp3648
(dp3649
g60
(dp3650
sg69
g3636
sg62
(lp3651
g55
(g56
g57
NtRp3652
(dp3653
g60
(dp3654
g68
I4
ssg69
g3648
sg62
(lp3655
S'set([])'
p3656
asbasbasbag55
(g71
g57
NtRp3657
(dp3658
g60
(dp3659
sg69
g3591
sg62
(lp3660
g55
(g76
g57
NtRp3661
(dp3662
g60
(dp3663
g80
g81
ssg69
g3657
sg62
(lp3664
g2259
asbag55
(g76
g57
NtRp3665
(dp3666
g60
(dp3667
g87
g88
ssg69
g3657
sg62
(lp3668
S':'
asbag55
(g76
g57
NtRp3669
(dp3670
g60
(dp3671
sg69
g3657
sg62
(lp3672
g55
(g56
g57
NtRp3673
(dp3674
g60
(dp3675
g68
I4
ssg69
g3669
sg62
(lp3676
g98
asbasbasbag55
(g71
g57
NtRp3677
(dp3678
g60
(dp3679
sg69
g3591
sg62
(lp3680
g55
(g76
g57
NtRp3681
(dp3682
g60
(dp3683
g80
g81
ssg69
g3677
sg62
(lp3684
g2324
asbag55
(g76
g57
NtRp3685
(dp3686
g60
(dp3687
g87
g88
ssg69
g3677
sg62
(lp3688
S':'
asbag55
(g76
g57
NtRp3689
(dp3690
g60
(dp3691
sg69
g3677
sg62
(lp3692
g55
(g56
g57
NtRp3693
(dp3694
g60
(dp3695
g68
I4
ssg69
g3689
sg62
(lp3696
g2162
asbasbasbag55
(g71
g57
NtRp3697
(dp3698
g60
(dp3699
sg69
g3591
sg62
(lp3700
g55
(g76
g57
NtRp3701
(dp3702
g60
(dp3703
g80
g81
ssg69
g3697
sg62
(lp3704
g2543
asbag55
(g76
g57
NtRp3705
(dp3706
g60
(dp3707
g87
g88
ssg69
g3697
sg62
(lp3708
S':'
asbag55
(g76
g57
NtRp3709
(dp3710
g60
(dp3711
sg69
g3697
sg62
(lp3712
g55
(g56
g57
NtRp3713
(dp3714
g60
(dp3715
g68
I4
ssg69
g3709
sg62
(lp3716
g98
asbasbasbag55
(g71
g57
NtRp3717
(dp3718
g60
(dp3719
sg69
g3591
sg62
(lp3720
g55
(g76
g57
NtRp3721
(dp3722
g60
(dp3723
g80
g81
ssg69
g3717
sg62
(lp3724
g3176
asbag55
(g76
g57
NtRp3725
(dp3726
g60
(dp3727
g87
g88
ssg69
g3717
sg62
(lp3728
S':'
asbag55
(g76
g57
NtRp3729
(dp3730
g60
(dp3731
sg69
g3717
sg62
(lp3732
g55
(g56
g57
NtRp3733
(dp3734
g60
(dp3735
g68
I4
ssg69
g3729
sg62
(lp3736
g55
(g64
g57
NtRp3737
(dp3738
g60
(dp3739
g68
I3
ssg69
Nsg62
(lp3740
g55
(g71
g57
NtRp3741
(dp3742
g60
(dp3743
sg69
g3737
sg62
(lp3744
g55
(g76
g57
NtRp3745
(dp3746
g60
(dp3747
sg69
g3741
sg62
(lp3748
g55
(g56
g57
NtRp3749
(dp3750
g60
(dp3751
g68
I3
ssg69
g3745
sg62
(lp3752
S'1'
asbasbasbag55
(g71
g57
NtRp3753
(dp3754
g60
(dp3755
sg69
g3737
sg62
(lp3756
g55
(g76
g57
NtRp3757
(dp3758
g60
(dp3759
sg69
g3753
sg62
(lp3760
g55
(g56
g57
NtRp3761
(dp3762
g60
(dp3763
g68
I3
ssg69
g3757
sg62
(lp3764
S'99'
p3765
asbasbasbag55
(g71
g57
NtRp3766
(dp3767
g60
(dp3768
sg69
g3737
sg62
(lp3769
g55
(g76
g57
NtRp3770
(dp3771
g60
(dp3772
sg69
g3766
sg62
(lp3773
g55
(g56
g57
NtRp3774
(dp3775
g60
(dp3776
g68
I3
ssg69
g3770
sg62
(lp3777
S'2'
asbasbasbag55
(g71
g57
NtRp3778
(dp3779
g60
(dp3780
sg69
g3737
sg62
(lp3781
g55
(g76
g57
NtRp3782
(dp3783
g60
(dp3784
sg69
g3778
sg62
(lp3785
g55
(g56
g57
NtRp3786
(dp3787
g60
(dp3788
g68
I3
ssg69
g3782
sg62
(lp3789
S'datetime.datetime(2011, 9, 26, 6, 55, 33)'
p3790
asbasbasbag55
(g71
g57
NtRp3791
(dp3792
g60
(dp3793
sg69
g3737
sg62
(lp3794
g55
(g76
g57
NtRp3795
(dp3796
g60
(dp3797
sg69
g3791
sg62
(lp3798
g55
(g56
g57
NtRp3799
(dp3800
g60
(dp3801
g68
I3
ssg69
g3795
sg62
(lp3802
g3255
asbasbasbasbasbasbasbasbasbasbasbag55
(g71
g57
NtRp3803
(dp3804
g60
(dp3805
sg69
g65
sg62
(lp3806
g55
(g76
g57
NtRp3807
(dp3808
g60
(dp3809
g80
g81
ssg69
g3803
sg62
(lp3810
S'is_https'
p3811
asbag55
(g76
g57
NtRp3812
(dp3813
g60
(dp3814
g87
g88
ssg69
g3803
sg62
(lp3815
S':'
asbag55
(g76
g57
NtRp3816
(dp3817
g60
(dp3818
sg69
g3803
sg62
(lp3819
g55
(g56
g57
NtRp3820
(dp3821
g60
(dp3822
g68
I5
ssg69
g3816
sg62
(lp3823
g98
asbasbasbag55
(g71
g57
NtRp3824
(dp3825
g60
(dp3826
sg69
g65
sg62
(lp3827
g55
(g76
g57
NtRp3828
(dp3829
g60
(dp3830
g80
g81
ssg69
g3824
sg62
(lp3831
S'is_local'
p3832
asbag55
(g76
g57
NtRp3833
(dp3834
g60
(dp3835
g87
g88
ssg69
g3824
sg62
(lp3836
S':'
asbag55
(g76
g57
NtRp3837
(dp3838
g60
(dp3839
sg69
g3824
sg62
(lp3840
g55
(g56
g57
NtRp3841
(dp3842
g60
(dp3843
g68
I5
ssg69
g3837
sg62
(lp3844
g3386
asbasbasbag55
(g71
g57
NtRp3845
(dp3846
g60
(dp3847
sg69
g65
sg62
(lp3848
g55
(g76
g57
NtRp3849
(dp3850
g60
(dp3851
g80
g81
ssg69
g3845
sg62
(lp3852
S'is_restful'
p3853
asbag55
(g76
g57
NtRp3854
(dp3855
g60
(dp3856
g87
g88
ssg69
g3845
sg62
(lp3857
S':'
asbag55
(g76
g57
NtRp3858
(dp3859
g60
(dp3860
sg69
g3845
sg62
(lp3861
g55
(g56
g57
NtRp3862
(dp3863
g60
(dp3864
g68
I5
ssg69
g3858
sg62
(lp3865
g98
asbasbasbag55
(g71
g57
NtRp3866
(dp3867
g60
(dp3868
sg69
g65
sg62
(lp3869
g55
(g76
g57
NtRp3870
(dp3871
g60
(dp3872
g80
g81
ssg69
g3866
sg62
(lp3873
S'now'
p3874
asbag55
(g76
g57
NtRp3875
(dp3876
g60
(dp3877
g87
g88
ssg69
g3866
sg62
(lp3878
S':'
asbag55
(g76
g57
NtRp3879
(dp3880
g60
(dp3881
sg69
g3866
sg62
(lp3882
g55
(g56
g57
NtRp3883
(dp3884
g60
(dp3885
g68
I5
ssg69
g3879
sg62
(lp3886
S'datetime.datetime(2012, 3, 12, 22, 17, 4, 435000)'
p3887
asbasbasbag55
(g71
g57
NtRp3888
(dp3889
g60
(dp3890
sg69
g65
sg62
(lp3891
g55
(g76
g57
NtRp3892
(dp3893
g60
(dp3894
g80
g81
ssg69
g3888
sg62
(lp3895
S'post_vars'
p3896
asbag55
(g76
g57
NtRp3897
(dp3898
g60
(dp3899
g87
g88
ssg69
g3888
sg62
(lp3900
S':'
asbag55
(g76
g57
NtRp3901
(dp3902
g60
(dp3903
sg69
g3888
sg62
(lp3904
g55
(g56
g57
NtRp3905
(dp3906
g60
(dp3907
g68
I5
ssg69
g3901
sg62
(lp3908
g55
(g64
g57
NtRp3909
(dp3910
g60
(dp3911
g68
I4
ssg69
Nsg62
(lp3912
g55
(g71
g57
NtRp3913
(dp3914
g60
(dp3915
sg69
g3909
sg62
(lp3916
g55
(g76
g57
NtRp3917
(dp3918
g60
(dp3919
g80
g81
ssg69
g3913
sg62
(lp3920
S'myfile'
p3921
asbag55
(g76
g57
NtRp3922
(dp3923
g60
(dp3924
g87
g88
ssg69
g3913
sg62
(lp3925
S':'
asbag55
(g76
g57
NtRp3926
(dp3927
g60
(dp3928
sg69
g3913
sg62
(lp3929
g55
(g56
g57
NtRp3930
(dp3931
g60
(dp3932
g68
I4
ssg69
g3926
sg62
(lp3933
S'FieldStorage object'
p3934
asbasbasbasbasbasbasbag55
(g71
g57
NtRp3935
(dp3936
g60
(dp3937
sg69
g65
sg62
(lp3938
g55
(g76
g57
NtRp3939
(dp3940
g60
(dp3941
g80
g81
ssg69
g3935
sg62
(lp3942
S'url'
p3943
asbag55
(g76
g57
NtRp3944
(dp3945
g60
(dp3946
g87
g88
ssg69
g3935
sg62
(lp3947
S':'
asbag55
(g76
g57
NtRp3948
(dp3949
g60
(dp3950
sg69
g3935
sg62
(lp3951
g55
(g56
g57
NtRp3952
(dp3953
g60
(dp3954
g68
I5
ssg69
g3948
sg62
(lp3955
S'/examples/transform/upload'
p3956
asbasbasbag55
(g71
g57
NtRp3957
(dp3958
g60
(dp3959
sg69
g65
sg62
(lp3960
g55
(g76
g57
NtRp3961
(dp3962
g60
(dp3963
g80
g81
ssg69
g3957
sg62
(lp3964
S'utcnow'
p3965
asbag55
(g76
g57
NtRp3966
(dp3967
g60
(dp3968
g87
g88
ssg69
g3957
sg62
(lp3969
S':'
asbag55
(g76
g57
NtRp3970
(dp3971
g60
(dp3972
sg69
g3957
sg62
(lp3973
g55
(g56
g57
NtRp3974
(dp3975
g60
(dp3976
g68
I5
ssg69
g3970
sg62
(lp3977
S'datetime.datetime(2012, 3, 12, 14, 17, 4, 435000)'
p3978
asbasbasbag55
(g71
g57
NtRp3979
(dp3980
g60
(dp3981
sg69
g65
sg62
(lp3982
g55
(g76
g57
NtRp3983
(dp3984
g60
(dp3985
g80
g81
ssg69
g3979
sg62
(lp3986
S'uuid'
p3987
asbag55
(g76
g57
NtRp3988
(dp3989
g60
(dp3990
g87
g88
ssg69
g3979
sg62
(lp3991
S':'
asbag55
(g76
g57
NtRp3992
(dp3993
g60
(dp3994
sg69
g3979
sg62
(lp3995
g55
(g56
g57
NtRp3996
(dp3997
g60
(dp3998
g68
I5
ssg69
g3992
sg62
(lp3999
S'examples/127.0.0.1.2012-03-12.22-17-04.58a20a48-8e63-4974-b1fe-5f0d32a06bbf'
p4000
asbasbasbag55
(g71
g57
NtRp4001
(dp4002
g60
(dp4003
sg69
g65
sg62
(lp4004
g55
(g76
g57
NtRp4005
(dp4006
g60
(dp4007
g80
g81
ssg69
g4001
sg62
(lp4008
S'vars'
p4009
asbag55
(g76
g57
NtRp4010
(dp4011
g60
(dp4012
g87
g88
ssg69
g4001
sg62
(lp4013
S':'
asbag55
(g76
g57
NtRp4014
(dp4015
g60
(dp4016
sg69
g4001
sg62
(lp4017
g55
(g56
g57
NtRp4018
(dp4019
g60
(dp4020
g68
I5
ssg69
g4014
sg62
(lp4021
g55
(g64
g57
NtRp4022
(dp4023
g60
(dp4024
g68
I4
ssg69
Nsg62
(lp4025
g55
(g71
g57
NtRp4026
(dp4027
g60
(dp4028
sg69
g4022
sg62
(lp4029
g55
(g76
g57
NtRp4030
(dp4031
g60
(dp4032
g80
g81
ssg69
g4026
sg62
(lp4033
g3921
asbag55
(g76
g57
NtRp4034
(dp4035
g60
(dp4036
g87
g88
ssg69
g4026
sg62
(lp4037
S':'
asbag55
(g76
g57
NtRp4038
(dp4039
g60
(dp4040
sg69
g4026
sg62
(lp4041
g55
(g56
g57
NtRp4042
(dp4043
g60
(dp4044
g68
I4
ssg69
g4038
sg62
(lp4045
g3934
asbasbasbasbasbasbasbag55
(g71
g57
NtRp4046
(dp4047
g60
(dp4048
sg69
g65
sg62
(lp4049
g55
(g76
g57
NtRp4050
(dp4051
g60
(dp4052
g80
g81
ssg69
g4046
sg62
(lp4053
S'wsgi'
p4054
asbag55
(g76
g57
NtRp4055
(dp4056
g60
(dp4057
g87
g88
ssg69
g4046
sg62
(lp4058
S':'
asbag55
(g76
g57
NtRp4059
(dp4060
g60
(dp4061
sg69
g4046
sg62
(lp4062
g55
(g56
g57
NtRp4063
(dp4064
g60
(dp4065
g68
I5
ssg69
g4059
sg62
(lp4066
g55
(g64
g57
NtRp4067
(dp4068
g60
(dp4069
g68
I4
ssg69
Nsg62
(lp4070
g55
(g71
g57
NtRp4071
(dp4072
g60
(dp4073
sg69
g4067
sg62
(lp4074
g55
(g76
g57
NtRp4075
(dp4076
g60
(dp4077
g80
g81
ssg69
g4071
sg62
(lp4078
S'environ'
p4079
asbag55
(g76
g57
NtRp4080
(dp4081
g60
(dp4082
g87
g88
ssg69
g4071
sg62
(lp4083
S':'
asbag55
(g76
g57
NtRp4084
(dp4085
g60
(dp4086
sg69
g4071
sg62
(lp4087
g55
(g56
g57
NtRp4088
(dp4089
g60
(dp4090
g68
I4
ssg69
g4084
sg62
(lp4091
g55
(g64
g57
NtRp4092
(dp4093
g60
(dp4094
g68
I3
ssg69
Nsg62
(lp4095
g55
(g71
g57
NtRp4096
(dp4097
g60
(dp4098
sg69
g4092
sg62
(lp4099
g55
(g76
g57
NtRp4100
(dp4101
g60
(dp4102
g80
g81
ssg69
g4096
sg62
(lp4103
S'COMSPEC'
p4104
asbag55
(g76
g57
NtRp4105
(dp4106
g60
(dp4107
g87
g88
ssg69
g4096
sg62
(lp4108
S':'
asbag55
(g76
g57
NtRp4109
(dp4110
g60
(dp4111
sg69
g4096
sg62
(lp4112
g55
(g56
g57
NtRp4113
(dp4114
g60
(dp4115
g68
I3
ssg69
g4109
sg62
(lp4116
g2184
asbasbasbag55
(g71
g57
NtRp4117
(dp4118
g60
(dp4119
sg69
g4092
sg62
(lp4120
g55
(g76
g57
NtRp4121
(dp4122
g60
(dp4123
g80
g81
ssg69
g4117
sg62
(lp4124
S'CONTENT_LENGTH'
p4125
asbag55
(g76
g57
NtRp4126
(dp4127
g60
(dp4128
g87
g88
ssg69
g4117
sg62
(lp4129
S':'
asbag55
(g76
g57
NtRp4130
(dp4131
g60
(dp4132
sg69
g4117
sg62
(lp4133
g55
(g56
g57
NtRp4134
(dp4135
g60
(dp4136
g68
I3
ssg69
g4130
sg62
(lp4137
g2206
asbasbasbag55
(g71
g57
NtRp4138
(dp4139
g60
(dp4140
sg69
g4092
sg62
(lp4141
g55
(g76
g57
NtRp4142
(dp4143
g60
(dp4144
g80
g81
ssg69
g4138
sg62
(lp4145
S'CONTENT_TYPE'
p4146
asbag55
(g76
g57
NtRp4147
(dp4148
g60
(dp4149
g87
g88
ssg69
g4138
sg62
(lp4150
S':'
asbag55
(g76
g57
NtRp4151
(dp4152
g60
(dp4153
sg69
g4138
sg62
(lp4154
g55
(g56
g57
NtRp4155
(dp4156
g60
(dp4157
g68
I3
ssg69
g4151
sg62
(lp4158
g2228
asbasbasbag55
(g71
g57
NtRp4159
(dp4160
g60
(dp4161
sg69
g4092
sg62
(lp4162
g55
(g76
g57
NtRp4163
(dp4164
g60
(dp4165
g80
g81
ssg69
g4159
sg62
(lp4166
S'DOCUMENT_ROOT'
p4167
asbag55
(g76
g57
NtRp4168
(dp4169
g60
(dp4170
g87
g88
ssg69
g4159
sg62
(lp4171
S':'
asbag55
(g76
g57
NtRp4172
(dp4173
g60
(dp4174
sg69
g4159
sg62
(lp4175
g55
(g56
g57
NtRp4176
(dp4177
g60
(dp4178
g68
I3
ssg69
g4172
sg62
(lp4179
g2293
asbasbasbag55
(g71
g57
NtRp4180
(dp4181
g60
(dp4182
sg69
g4092
sg62
(lp4183
g55
(g76
g57
NtRp4184
(dp4185
g60
(dp4186
g80
g81
ssg69
g4180
sg62
(lp4187
S'GATEWAY_INTERFACE'
p4188
asbag55
(g76
g57
NtRp4189
(dp4190
g60
(dp4191
g87
g88
ssg69
g4180
sg62
(lp4192
S':'
asbag55
(g76
g57
NtRp4193
(dp4194
g60
(dp4195
sg69
g4180
sg62
(lp4196
g55
(g56
g57
NtRp4197
(dp4198
g60
(dp4199
g68
I3
ssg69
g4193
sg62
(lp4200
g2315
asbasbasbag55
(g71
g57
NtRp4201
(dp4202
g60
(dp4203
sg69
g4092
sg62
(lp4204
g55
(g76
g57
NtRp4205
(dp4206
g60
(dp4207
g80
g81
ssg69
g4201
sg62
(lp4208
S'HTTP_ACCEPT'
p4209
asbag55
(g76
g57
NtRp4210
(dp4211
g60
(dp4212
g87
g88
ssg69
g4201
sg62
(lp4213
S':'
asbag55
(g76
g57
NtRp4214
(dp4215
g60
(dp4216
sg69
g4201
sg62
(lp4217
g55
(g56
g57
NtRp4218
(dp4219
g60
(dp4220
g68
I3
ssg69
g4214
sg62
(lp4221
g2358
asbasbasbag55
(g71
g57
NtRp4222
(dp4223
g60
(dp4224
sg69
g4092
sg62
(lp4225
g55
(g76
g57
NtRp4226
(dp4227
g60
(dp4228
g80
g81
ssg69
g4222
sg62
(lp4229
S'HTTP_ACCEPT_ENCODING'
p4230
asbag55
(g76
g57
NtRp4231
(dp4232
g60
(dp4233
g87
g88
ssg69
g4222
sg62
(lp4234
S':'
asbag55
(g76
g57
NtRp4235
(dp4236
g60
(dp4237
sg69
g4222
sg62
(lp4238
g55
(g56
g57
NtRp4239
(dp4240
g60
(dp4241
g68
I3
ssg69
g4235
sg62
(lp4242
g2380
asbasbasbag55
(g71
g57
NtRp4243
(dp4244
g60
(dp4245
sg69
g4092
sg62
(lp4246
g55
(g76
g57
NtRp4247
(dp4248
g60
(dp4249
g80
g81
ssg69
g4243
sg62
(lp4250
S'HTTP_ACCEPT_LANGUAGE'
p4251
asbag55
(g76
g57
NtRp4252
(dp4253
g60
(dp4254
g87
g88
ssg69
g4243
sg62
(lp4255
S':'
asbag55
(g76
g57
NtRp4256
(dp4257
g60
(dp4258
sg69
g4243
sg62
(lp4259
g55
(g56
g57
NtRp4260
(dp4261
g60
(dp4262
g68
I3
ssg69
g4256
sg62
(lp4263
g2402
asbasbasbag55
(g71
g57
NtRp4264
(dp4265
g60
(dp4266
sg69
g4092
sg62
(lp4267
g55
(g76
g57
NtRp4268
(dp4269
g60
(dp4270
g80
g81
ssg69
g4264
sg62
(lp4271
S'HTTP_CACHE_CONTROL'
p4272
asbag55
(g76
g57
NtRp4273
(dp4274
g60
(dp4275
g87
g88
ssg69
g4264
sg62
(lp4276
S':'
asbag55
(g76
g57
NtRp4277
(dp4278
g60
(dp4279
sg69
g4264
sg62
(lp4280
g55
(g56
g57
NtRp4281
(dp4282
g60
(dp4283
g68
I3
ssg69
g4277
sg62
(lp4284
g2424
asbasbasbag55
(g71
g57
NtRp4285
(dp4286
g60
(dp4287
sg69
g4092
sg62
(lp4288
g55
(g76
g57
NtRp4289
(dp4290
g60
(dp4291
g80
g81
ssg69
g4285
sg62
(lp4292
S'HTTP_CONNECTION'
p4293
asbag55
(g76
g57
NtRp4294
(dp4295
g60
(dp4296
g87
g88
ssg69
g4285
sg62
(lp4297
S':'
asbag55
(g76
g57
NtRp4298
(dp4299
g60
(dp4300
sg69
g4285
sg62
(lp4301
g55
(g56
g57
NtRp4302
(dp4303
g60
(dp4304
g68
I3
ssg69
g4298
sg62
(lp4305
g2446
asbasbasbag55
(g71
g57
NtRp4306
(dp4307
g60
(dp4308
sg69
g4092
sg62
(lp4309
g55
(g76
g57
NtRp4310
(dp4311
g60
(dp4312
g80
g81
ssg69
g4306
sg62
(lp4313
S'HTTP_COOKIE'
p4314
asbag55
(g76
g57
NtRp4315
(dp4316
g60
(dp4317
g87
g88
ssg69
g4306
sg62
(lp4318
S':'
asbag55
(g76
g57
NtRp4319
(dp4320
g60
(dp4321
sg69
g4306
sg62
(lp4322
g55
(g56
g57
NtRp4323
(dp4324
g60
(dp4325
g68
I3
ssg69
g4319
sg62
(lp4326
g2468
asbasbasbag55
(g71
g57
NtRp4327
(dp4328
g60
(dp4329
sg69
g4092
sg62
(lp4330
g55
(g76
g57
NtRp4331
(dp4332
g60
(dp4333
g80
g81
ssg69
g4327
sg62
(lp4334
S'HTTP_HOST'
p4335
asbag55
(g76
g57
NtRp4336
(dp4337
g60
(dp4338
g87
g88
ssg69
g4327
sg62
(lp4339
S':'
asbag55
(g76
g57
NtRp4340
(dp4341
g60
(dp4342
sg69
g4327
sg62
(lp4343
g55
(g56
g57
NtRp4344
(dp4345
g60
(dp4346
g68
I3
ssg69
g4340
sg62
(lp4347
g2490
asbasbasbag55
(g71
g57
NtRp4348
(dp4349
g60
(dp4350
sg69
g4092
sg62
(lp4351
g55
(g76
g57
NtRp4352
(dp4353
g60
(dp4354
g80
g81
ssg69
g4348
sg62
(lp4355
S'HTTP_REFERER'
p4356
asbag55
(g76
g57
NtRp4357
(dp4358
g60
(dp4359
g87
g88
ssg69
g4348
sg62
(lp4360
S':'
asbag55
(g76
g57
NtRp4361
(dp4362
g60
(dp4363
sg69
g4348
sg62
(lp4364
g55
(g56
g57
NtRp4365
(dp4366
g60
(dp4367
g68
I3
ssg69
g4361
sg62
(lp4368
g2512
asbasbasbag55
(g71
g57
NtRp4369
(dp4370
g60
(dp4371
sg69
g4092
sg62
(lp4372
g55
(g76
g57
NtRp4373
(dp4374
g60
(dp4375
g80
g81
ssg69
g4369
sg62
(lp4376
S'HTTP_USER_AGENT'
p4377
asbag55
(g76
g57
NtRp4378
(dp4379
g60
(dp4380
g87
g88
ssg69
g4369
sg62
(lp4381
S':'
asbag55
(g76
g57
NtRp4382
(dp4383
g60
(dp4384
sg69
g4369
sg62
(lp4385
g55
(g56
g57
NtRp4386
(dp4387
g60
(dp4388
g68
I3
ssg69
g4382
sg62
(lp4389
g2534
asbasbasbag55
(g71
g57
NtRp4390
(dp4391
g60
(dp4392
sg69
g4092
sg62
(lp4393
g55
(g76
g57
NtRp4394
(dp4395
g60
(dp4396
g80
g81
ssg69
g4390
sg62
(lp4397
S'PATHEXT'
p4398
asbag55
(g76
g57
NtRp4399
(dp4400
g60
(dp4401
g87
g88
ssg69
g4390
sg62
(lp4402
S':'
asbag55
(g76
g57
NtRp4403
(dp4404
g60
(dp4405
sg69
g4390
sg62
(lp4406
g55
(g56
g57
NtRp4407
(dp4408
g60
(dp4409
g68
I3
ssg69
g4403
sg62
(lp4410
g2820
asbasbasbag55
(g71
g57
NtRp4411
(dp4412
g60
(dp4413
sg69
g4092
sg62
(lp4414
g55
(g76
g57
NtRp4415
(dp4416
g60
(dp4417
g80
g81
ssg69
g4411
sg62
(lp4418
S'PATH_INFO'
p4419
asbag55
(g76
g57
NtRp4420
(dp4421
g60
(dp4422
g87
g88
ssg69
g4411
sg62
(lp4423
S':'
asbag55
(g76
g57
NtRp4424
(dp4425
g60
(dp4426
sg69
g4411
sg62
(lp4427
g55
(g56
g57
NtRp4428
(dp4429
g60
(dp4430
g68
I3
ssg69
g4424
sg62
(lp4431
g2776
asbasbasbag55
(g71
g57
NtRp4432
(dp4433
g60
(dp4434
sg69
g4092
sg62
(lp4435
g55
(g76
g57
NtRp4436
(dp4437
g60
(dp4438
g80
g81
ssg69
g4432
sg62
(lp4439
S'PATH_TRANSLATED'
p4440
asbag55
(g76
g57
NtRp4441
(dp4442
g60
(dp4443
g87
g88
ssg69
g4432
sg62
(lp4444
S':'
asbag55
(g76
g57
NtRp4445
(dp4446
g60
(dp4447
sg69
g4432
sg62
(lp4448
g55
(g56
g57
NtRp4449
(dp4450
g60
(dp4451
g68
I3
ssg69
g4445
sg62
(lp4452
g2798
asbasbasbag55
(g71
g57
NtRp4453
(dp4454
g60
(dp4455
sg69
g4092
sg62
(lp4456
g55
(g76
g57
NtRp4457
(dp4458
g60
(dp4459
g80
g81
ssg69
g4453
sg62
(lp4460
S'QUERY_STRING'
p4461
asbag55
(g76
g57
NtRp4462
(dp4463
g60
(dp4464
g87
g88
ssg69
g4453
sg62
(lp4465
S':'
asbag55
(g76
g57
NtRp4466
(dp4467
g60
(dp4468
sg69
g4453
sg62
(lp4469
g55
(g56
g57
NtRp4470
(dp4471
g60
(dp4472
g68
I3
ssg69
g4466
sg62
(lp4473
S''
asbasbasbag55
(g71
g57
NtRp4474
(dp4475
g60
(dp4476
sg69
g4092
sg62
(lp4477
g55
(g76
g57
NtRp4478
(dp4479
g60
(dp4480
g80
g81
ssg69
g4474
sg62
(lp4481
S'REMOTE_ADDR'
p4482
asbag55
(g76
g57
NtRp4483
(dp4484
g60
(dp4485
g87
g88
ssg69
g4474
sg62
(lp4486
S':'
asbag55
(g76
g57
NtRp4487
(dp4488
g60
(dp4489
sg69
g4474
sg62
(lp4490
g55
(g56
g57
NtRp4491
(dp4492
g60
(dp4493
g68
I3
ssg69
g4487
sg62
(lp4494
g188
asbasbasbag55
(g71
g57
NtRp4495
(dp4496
g60
(dp4497
sg69
g4092
sg62
(lp4498
g55
(g76
g57
NtRp4499
(dp4500
g60
(dp4501
g80
g81
ssg69
g4495
sg62
(lp4502
S'REMOTE_PORT'
p4503
asbag55
(g76
g57
NtRp4504
(dp4505
g60
(dp4506
g87
g88
ssg69
g4495
sg62
(lp4507
S':'
asbag55
(g76
g57
NtRp4508
(dp4509
g60
(dp4510
sg69
g4495
sg62
(lp4511
g55
(g56
g57
NtRp4512
(dp4513
g60
(dp4514
g68
I3
ssg69
g4508
sg62
(lp4515
g2884
asbasbasbag55
(g71
g57
NtRp4516
(dp4517
g60
(dp4518
sg69
g4092
sg62
(lp4519
g55
(g76
g57
NtRp4520
(dp4521
g60
(dp4522
g80
g81
ssg69
g4516
sg62
(lp4523
S'REQUEST_METHOD'
p4524
asbag55
(g76
g57
NtRp4525
(dp4526
g60
(dp4527
g87
g88
ssg69
g4516
sg62
(lp4528
S':'
asbag55
(g76
g57
NtRp4529
(dp4530
g60
(dp4531
sg69
g4516
sg62
(lp4532
g55
(g56
g57
NtRp4533
(dp4534
g60
(dp4535
g68
I3
ssg69
g4529
sg62
(lp4536
g2906
asbasbasbag55
(g71
g57
NtRp4537
(dp4538
g60
(dp4539
sg69
g4092
sg62
(lp4540
g55
(g76
g57
NtRp4541
(dp4542
g60
(dp4543
g80
g81
ssg69
g4537
sg62
(lp4544
S'REQUEST_URI'
p4545
asbag55
(g76
g57
NtRp4546
(dp4547
g60
(dp4548
g87
g88
ssg69
g4537
sg62
(lp4549
S':'
asbag55
(g76
g57
NtRp4550
(dp4551
g60
(dp4552
sg69
g4537
sg62
(lp4553
g55
(g56
g57
NtRp4554
(dp4555
g60
(dp4556
g68
I3
ssg69
g4550
sg62
(lp4557
g2928
asbasbasbag55
(g71
g57
NtRp4558
(dp4559
g60
(dp4560
sg69
g4092
sg62
(lp4561
g55
(g76
g57
NtRp4562
(dp4563
g60
(dp4564
g80
g81
ssg69
g4558
sg62
(lp4565
S'SCRIPT_FILENAME'
p4566
asbag55
(g76
g57
NtRp4567
(dp4568
g60
(dp4569
g87
g88
ssg69
g4558
sg62
(lp4570
S':'
asbag55
(g76
g57
NtRp4571
(dp4572
g60
(dp4573
sg69
g4558
sg62
(lp4574
g55
(g56
g57
NtRp4575
(dp4576
g60
(dp4577
g68
I3
ssg69
g4571
sg62
(lp4578
g2950
asbasbasbag55
(g71
g57
NtRp4579
(dp4580
g60
(dp4581
sg69
g4092
sg62
(lp4582
g55
(g76
g57
NtRp4583
(dp4584
g60
(dp4585
g80
g81
ssg69
g4579
sg62
(lp4586
S'SCRIPT_NAME'
p4587
asbag55
(g76
g57
NtRp4588
(dp4589
g60
(dp4590
g87
g88
ssg69
g4579
sg62
(lp4591
S':'
asbag55
(g76
g57
NtRp4592
(dp4593
g60
(dp4594
sg69
g4579
sg62
(lp4595
g55
(g56
g57
NtRp4596
(dp4597
g60
(dp4598
g68
I3
ssg69
g4592
sg62
(lp4599
S''
asbasbasbag55
(g71
g57
NtRp4600
(dp4601
g60
(dp4602
sg69
g4092
sg62
(lp4603
g55
(g76
g57
NtRp4604
(dp4605
g60
(dp4606
g80
g81
ssg69
g4600
sg62
(lp4607
S'SERVER_ADDR'
p4608
asbag55
(g76
g57
NtRp4609
(dp4610
g60
(dp4611
g87
g88
ssg69
g4600
sg62
(lp4612
S':'
asbag55
(g76
g57
NtRp4613
(dp4614
g60
(dp4615
sg69
g4600
sg62
(lp4616
g55
(g56
g57
NtRp4617
(dp4618
g60
(dp4619
g68
I3
ssg69
g4613
sg62
(lp4620
g2993
asbasbasbag55
(g71
g57
NtRp4621
(dp4622
g60
(dp4623
sg69
g4092
sg62
(lp4624
g55
(g76
g57
NtRp4625
(dp4626
g60
(dp4627
g80
g81
ssg69
g4621
sg62
(lp4628
S'SERVER_ADMIN'
p4629
asbag55
(g76
g57
NtRp4630
(dp4631
g60
(dp4632
g87
g88
ssg69
g4621
sg62
(lp4633
S':'
asbag55
(g76
g57
NtRp4634
(dp4635
g60
(dp4636
sg69
g4621
sg62
(lp4637
g55
(g56
g57
NtRp4638
(dp4639
g60
(dp4640
g68
I3
ssg69
g4634
sg62
(lp4641
g3015
asbasbasbag55
(g71
g57
NtRp4642
(dp4643
g60
(dp4644
sg69
g4092
sg62
(lp4645
g55
(g76
g57
NtRp4646
(dp4647
g60
(dp4648
g80
g81
ssg69
g4642
sg62
(lp4649
S'SERVER_NAME'
p4650
asbag55
(g76
g57
NtRp4651
(dp4652
g60
(dp4653
g87
g88
ssg69
g4642
sg62
(lp4654
S':'
asbag55
(g76
g57
NtRp4655
(dp4656
g60
(dp4657
sg69
g4642
sg62
(lp4658
g55
(g56
g57
NtRp4659
(dp4660
g60
(dp4661
g68
I3
ssg69
g4655
sg62
(lp4662
g3037
asbasbasbag55
(g71
g57
NtRp4663
(dp4664
g60
(dp4665
sg69
g4092
sg62
(lp4666
g55
(g76
g57
NtRp4667
(dp4668
g60
(dp4669
g80
g81
ssg69
g4663
sg62
(lp4670
S'SERVER_PORT'
p4671
asbag55
(g76
g57
NtRp4672
(dp4673
g60
(dp4674
g87
g88
ssg69
g4663
sg62
(lp4675
S':'
asbag55
(g76
g57
NtRp4676
(dp4677
g60
(dp4678
sg69
g4663
sg62
(lp4679
g55
(g56
g57
NtRp4680
(dp4681
g60
(dp4682
g68
I3
ssg69
g4676
sg62
(lp4683
g3059
asbasbasbag55
(g71
g57
NtRp4684
(dp4685
g60
(dp4686
sg69
g4092
sg62
(lp4687
g55
(g76
g57
NtRp4688
(dp4689
g60
(dp4690
g80
g81
ssg69
g4684
sg62
(lp4691
S'SERVER_PROTOCOL'
p4692
asbag55
(g76
g57
NtRp4693
(dp4694
g60
(dp4695
g87
g88
ssg69
g4684
sg62
(lp4696
S':'
asbag55
(g76
g57
NtRp4697
(dp4698
g60
(dp4699
sg69
g4684
sg62
(lp4700
g55
(g56
g57
NtRp4701
(dp4702
g60
(dp4703
g68
I3
ssg69
g4697
sg62
(lp4704
g3081
asbasbasbag55
(g71
g57
NtRp4705
(dp4706
g60
(dp4707
sg69
g4092
sg62
(lp4708
g55
(g76
g57
NtRp4709
(dp4710
g60
(dp4711
g80
g81
ssg69
g4705
sg62
(lp4712
S'SERVER_SIGNATURE'
p4713
asbag55
(g76
g57
NtRp4714
(dp4715
g60
(dp4716
g87
g88
ssg69
g4705
sg62
(lp4717
S':'
asbag55
(g76
g57
NtRp4718
(dp4719
g60
(dp4720
sg69
g4705
sg62
(lp4721
g55
(g56
g57
NtRp4722
(dp4723
g60
(dp4724
g68
I3
ssg69
g4718
sg62
(lp4725
S''
asbasbasbag55
(g71
g57
NtRp4726
(dp4727
g60
(dp4728
sg69
g4092
sg62
(lp4729
g55
(g76
g57
NtRp4730
(dp4731
g60
(dp4732
g80
g81
ssg69
g4726
sg62
(lp4733
S'SERVER_SOFTWARE'
p4734
asbag55
(g76
g57
NtRp4735
(dp4736
g60
(dp4737
g87
g88
ssg69
g4726
sg62
(lp4738
S':'
asbag55
(g76
g57
NtRp4739
(dp4740
g60
(dp4741
sg69
g4726
sg62
(lp4742
g55
(g56
g57
NtRp4743
(dp4744
g60
(dp4745
g68
I3
ssg69
g4739
sg62
(lp4746
g3124
asbasbasbag55
(g71
g57
NtRp4747
(dp4748
g60
(dp4749
sg69
g4092
sg62
(lp4750
g55
(g76
g57
NtRp4751
(dp4752
g60
(dp4753
g80
g81
ssg69
g4747
sg62
(lp4754
S'SystemRoot'
p4755
asbag55
(g76
g57
NtRp4756
(dp4757
g60
(dp4758
g87
g88
ssg69
g4747
sg62
(lp4759
S':'
asbag55
(g76
g57
NtRp4760
(dp4761
g60
(dp4762
sg69
g4747
sg62
(lp4763
g55
(g56
g57
NtRp4764
(dp4765
g60
(dp4766
g68
I3
ssg69
g4760
sg62
(lp4767
g3146
asbasbasbag55
(g71
g57
NtRp4768
(dp4769
g60
(dp4770
sg69
g4092
sg62
(lp4771
g55
(g76
g57
NtRp4772
(dp4773
g60
(dp4774
g80
g81
ssg69
g4768
sg62
(lp4775
S'WINDIR'
p4776
asbag55
(g76
g57
NtRp4777
(dp4778
g60
(dp4779
g87
g88
ssg69
g4768
sg62
(lp4780
S':'
asbag55
(g76
g57
NtRp4781
(dp4782
g60
(dp4783
sg69
g4768
sg62
(lp4784
g55
(g56
g57
NtRp4785
(dp4786
g60
(dp4787
g68
I3
ssg69
g4781
sg62
(lp4788
g3277
asbasbasbag55
(g71
g57
NtRp4789
(dp4790
g60
(dp4791
sg69
g4092
sg62
(lp4792
g55
(g76
g57
NtRp4793
(dp4794
g60
(dp4795
g80
g81
ssg69
g4789
sg62
(lp4796
S'mod_wsgi.application_group'
p4797
asbag55
(g76
g57
NtRp4798
(dp4799
g60
(dp4800
g87
g88
ssg69
g4789
sg62
(lp4801
S':'
asbag55
(g76
g57
NtRp4802
(dp4803
g60
(dp4804
sg69
g4789
sg62
(lp4805
g55
(g56
g57
NtRp4806
(dp4807
g60
(dp4808
g68
I3
ssg69
g4802
sg62
(lp4809
g2577
asbasbasbag55
(g71
g57
NtRp4810
(dp4811
g60
(dp4812
sg69
g4092
sg62
(lp4813
g55
(g76
g57
NtRp4814
(dp4815
g60
(dp4816
g80
g81
ssg69
g4810
sg62
(lp4817
S'mod_wsgi.callable_object'
p4818
asbag55
(g76
g57
NtRp4819
(dp4820
g60
(dp4821
g87
g88
ssg69
g4810
sg62
(lp4822
S':'
asbag55
(g76
g57
NtRp4823
(dp4824
g60
(dp4825
sg69
g4810
sg62
(lp4826
g55
(g56
g57
NtRp4827
(dp4828
g60
(dp4829
g68
I3
ssg69
g4823
sg62
(lp4830
g2599
asbasbasbag55
(g71
g57
NtRp4831
(dp4832
g60
(dp4833
sg69
g4092
sg62
(lp4834
g55
(g76
g57
NtRp4835
(dp4836
g60
(dp4837
g80
g81
ssg69
g4831
sg62
(lp4838
S'mod_wsgi.handler_script'
p4839
asbag55
(g76
g57
NtRp4840
(dp4841
g60
(dp4842
g87
g88
ssg69
g4831
sg62
(lp4843
S':'
asbag55
(g76
g57
NtRp4844
(dp4845
g60
(dp4846
sg69
g4831
sg62
(lp4847
g55
(g56
g57
NtRp4848
(dp4849
g60
(dp4850
g68
I3
ssg69
g4844
sg62
(lp4851
S''
asbasbasbag55
(g71
g57
NtRp4852
(dp4853
g60
(dp4854
sg69
g4092
sg62
(lp4855
g55
(g76
g57
NtRp4856
(dp4857
g60
(dp4858
g80
g81
ssg69
g4852
sg62
(lp4859
S'mod_wsgi.input_chunked'
p4860
asbag55
(g76
g57
NtRp4861
(dp4862
g60
(dp4863
g87
g88
ssg69
g4852
sg62
(lp4864
S':'
asbag55
(g76
g57
NtRp4865
(dp4866
g60
(dp4867
sg69
g4852
sg62
(lp4868
g55
(g56
g57
NtRp4869
(dp4870
g60
(dp4871
g68
I3
ssg69
g4865
sg62
(lp4872
S'0'
asbasbasbag55
(g71
g57
NtRp4873
(dp4874
g60
(dp4875
sg69
g4092
sg62
(lp4876
g55
(g76
g57
NtRp4877
(dp4878
g60
(dp4879
g80
g81
ssg69
g4873
sg62
(lp4880
S'mod_wsgi.process_group'
p4881
asbag55
(g76
g57
NtRp4882
(dp4883
g60
(dp4884
g87
g88
ssg69
g4873
sg62
(lp4885
S':'
asbag55
(g76
g57
NtRp4886
(dp4887
g60
(dp4888
sg69
g4873
sg62
(lp4889
g55
(g56
g57
NtRp4890
(dp4891
g60
(dp4892
g68
I3
ssg69
g4886
sg62
(lp4893
S''
asbasbasbag55
(g71
g57
NtRp4894
(dp4895
g60
(dp4896
sg69
g4092
sg62
(lp4897
g55
(g76
g57
NtRp4898
(dp4899
g60
(dp4900
g80
g81
ssg69
g4894
sg62
(lp4901
S'mod_wsgi.request_handler'
p4902
asbag55
(g76
g57
NtRp4903
(dp4904
g60
(dp4905
g87
g88
ssg69
g4894
sg62
(lp4906
S':'
asbag55
(g76
g57
NtRp4907
(dp4908
g60
(dp4909
sg69
g4894
sg62
(lp4910
g55
(g56
g57
NtRp4911
(dp4912
g60
(dp4913
g68
I3
ssg69
g4907
sg62
(lp4914
g2684
asbasbasbag55
(g71
g57
NtRp4915
(dp4916
g60
(dp4917
sg69
g4092
sg62
(lp4918
g55
(g76
g57
NtRp4919
(dp4920
g60
(dp4921
g80
g81
ssg69
g4915
sg62
(lp4922
S'mod_wsgi.script_reloading'
p4923
asbag55
(g76
g57
NtRp4924
(dp4925
g60
(dp4926
g87
g88
ssg69
g4915
sg62
(lp4927
S':'
asbag55
(g76
g57
NtRp4928
(dp4929
g60
(dp4930
sg69
g4915
sg62
(lp4931
g55
(g56
g57
NtRp4932
(dp4933
g60
(dp4934
g68
I3
ssg69
g4928
sg62
(lp4935
S'1'
asbasbasbag55
(g71
g57
NtRp4936
(dp4937
g60
(dp4938
sg69
g4092
sg62
(lp4939
g55
(g76
g57
NtRp4940
(dp4941
g60
(dp4942
g80
g81
ssg69
g4936
sg62
(lp4943
S'mod_wsgi.version'
p4944
asbag55
(g76
g57
NtRp4945
(dp4946
g60
(dp4947
g87
g88
ssg69
g4936
sg62
(lp4948
S':'
asbag55
(g76
g57
NtRp4949
(dp4950
g60
(dp4951
sg69
g4936
sg62
(lp4952
g55
(g56
g57
NtRp4953
(dp4954
g60
(dp4955
g68
I3
ssg69
g4949
sg62
(lp4956
g55
(g64
g57
NtRp4957
(dp4958
g60
(dp4959
g68
I2
ssg69
Nsg62
(lp4960
g55
(g71
g57
NtRp4961
(dp4962
g60
(dp4963
sg69
g4957
sg62
(lp4964
g55
(g76
g57
NtRp4965
(dp4966
g60
(dp4967
sg69
g4961
sg62
(lp4968
g55
(g56
g57
NtRp4969
(dp4970
g60
(dp4971
g68
I2
ssg69
g4965
sg62
(lp4972
S'3'
asbasbasbag55
(g71
g57
NtRp4973
(dp4974
g60
(dp4975
sg69
g4957
sg62
(lp4976
g55
(g76
g57
NtRp4977
(dp4978
g60
(dp4979
sg69
g4973
sg62
(lp4980
g55
(g56
g57
NtRp4981
(dp4982
g60
(dp4983
g68
I2
ssg69
g4977
sg62
(lp4984
S'3'
asbasbasbasbasbasbasbag55
(g71
g57
NtRp4985
(dp4986
g60
(dp4987
sg69
g4092
sg62
(lp4988
g55
(g76
g57
NtRp4989
(dp4990
g60
(dp4991
g80
g81
ssg69
g4985
sg62
(lp4992
S'wsgi.errors'
p4993
asbag55
(g76
g57
NtRp4994
(dp4995
g60
(dp4996
g87
g88
ssg69
g4985
sg62
(lp4997
S':'
asbag55
(g76
g57
NtRp4998
(dp4999
g60
(dp5000
sg69
g4985
sg62
(lp5001
g55
(g56
g57
NtRp5002
(dp5003
g60
(dp5004
g68
I3
ssg69
g4998
sg62
(lp5005
S'<mod_wsgi.Log object at 0x0437AE08>'
p5006
asbasbasbag55
(g71
g57
NtRp5007
(dp5008
g60
(dp5009
sg69
g4092
sg62
(lp5010
g55
(g76
g57
NtRp5011
(dp5012
g60
(dp5013
g80
g81
ssg69
g5007
sg62
(lp5014
S'wsgi.file_wrapper'
p5015
asbag55
(g76
g57
NtRp5016
(dp5017
g60
(dp5018
g87
g88
ssg69
g5007
sg62
(lp5019
S':'
asbag55
(g76
g57
NtRp5020
(dp5021
g60
(dp5022
sg69
g5007
sg62
(lp5023
g55
(g56
g57
NtRp5024
(dp5025
g60
(dp5026
g68
I3
ssg69
g5020
sg62
(lp5027
S'<built-in method file_wrapper of mod_wsgi.Adapter object at 0x03DE4890>'
p5028
asbasbasbag55
(g71
g57
NtRp5029
(dp5030
g60
(dp5031
sg69
g4092
sg62
(lp5032
g55
(g76
g57
NtRp5033
(dp5034
g60
(dp5035
g80
g81
ssg69
g5029
sg62
(lp5036
S'wsgi.input'
p5037
asbag55
(g76
g57
NtRp5038
(dp5039
g60
(dp5040
g87
g88
ssg69
g5029
sg62
(lp5041
S':'
asbag55
(g76
g57
NtRp5042
(dp5043
g60
(dp5044
sg69
g5029
sg62
(lp5045
g55
(g56
g57
NtRp5046
(dp5047
g60
(dp5048
g68
I3
ssg69
g5042
sg62
(lp5049
S"<closed file '<fdopen>', mode 'w+b' at 0x0408B7B0>"
p5050
asbasbasbag55
(g71
g57
NtRp5051
(dp5052
g60
(dp5053
sg69
g4092
sg62
(lp5054
g55
(g76
g57
NtRp5055
(dp5056
g60
(dp5057
g80
g81
ssg69
g5051
sg62
(lp5058
S'wsgi.multiprocess'
p5059
asbag55
(g76
g57
NtRp5060
(dp5061
g60
(dp5062
g87
g88
ssg69
g5051
sg62
(lp5063
S':'
asbag55
(g76
g57
NtRp5064
(dp5065
g60
(dp5066
sg69
g5051
sg62
(lp5067
g55
(g56
g57
NtRp5068
(dp5069
g60
(dp5070
g68
I3
ssg69
g5064
sg62
(lp5071
g98
asbasbasbag55
(g71
g57
NtRp5072
(dp5073
g60
(dp5074
sg69
g4092
sg62
(lp5075
g55
(g76
g57
NtRp5076
(dp5077
g60
(dp5078
g80
g81
ssg69
g5072
sg62
(lp5079
S'wsgi.multithread'
p5080
asbag55
(g76
g57
NtRp5081
(dp5082
g60
(dp5083
g87
g88
ssg69
g5072
sg62
(lp5084
S':'
asbag55
(g76
g57
NtRp5085
(dp5086
g60
(dp5087
sg69
g5072
sg62
(lp5088
g55
(g56
g57
NtRp5089
(dp5090
g60
(dp5091
g68
I3
ssg69
g5085
sg62
(lp5092
g3386
asbasbasbag55
(g71
g57
NtRp5093
(dp5094
g60
(dp5095
sg69
g4092
sg62
(lp5096
g55
(g76
g57
NtRp5097
(dp5098
g60
(dp5099
g80
g81
ssg69
g5093
sg62
(lp5100
S'wsgi.run_once'
p5101
asbag55
(g76
g57
NtRp5102
(dp5103
g60
(dp5104
g87
g88
ssg69
g5093
sg62
(lp5105
S':'
asbag55
(g76
g57
NtRp5106
(dp5107
g60
(dp5108
sg69
g5093
sg62
(lp5109
g55
(g56
g57
NtRp5110
(dp5111
g60
(dp5112
g68
I3
ssg69
g5106
sg62
(lp5113
g98
asbasbasbag55
(g71
g57
NtRp5114
(dp5115
g60
(dp5116
sg69
g4092
sg62
(lp5117
g55
(g76
g57
NtRp5118
(dp5119
g60
(dp5120
g80
g81
ssg69
g5114
sg62
(lp5121
S'wsgi.url_scheme'
p5122
asbag55
(g76
g57
NtRp5123
(dp5124
g60
(dp5125
g87
g88
ssg69
g5114
sg62
(lp5126
S':'
asbag55
(g76
g57
NtRp5127
(dp5128
g60
(dp5129
sg69
g5114
sg62
(lp5130
g55
(g56
g57
NtRp5131
(dp5132
g60
(dp5133
g68
I3
ssg69
g5127
sg62
(lp5134
g3429
asbasbasbag55
(g71
g57
NtRp5135
(dp5136
g60
(dp5137
sg69
g4092
sg62
(lp5138
g55
(g76
g57
NtRp5139
(dp5140
g60
(dp5141
g80
g81
ssg69
g5135
sg62
(lp5142
S'wsgi.version'
p5143
asbag55
(g76
g57
NtRp5144
(dp5145
g60
(dp5146
g87
g88
ssg69
g5135
sg62
(lp5147
S':'
asbag55
(g76
g57
NtRp5148
(dp5149
g60
(dp5150
sg69
g5135
sg62
(lp5151
g55
(g56
g57
NtRp5152
(dp5153
g60
(dp5154
g68
I3
ssg69
g5148
sg62
(lp5155
S'1'
asbasbasbasbasbasbasbasbasbasbasbasbasbsS'frames'
p5156
(lp5157
(dp5158
S'file'
p5159
S'D:\\Workbench\\private\\web2py_src\\gluon\\main.py'
p5160
sS'dump'
p5161
(dp5162
S'global serve_controller'
p5163
S'<function serve_controller>'
p5164
sS'session'
p5165
S"<Storage {'_Session__hash': '\\xc8[\\xd5\\xc1#\\xd8e\\x10\\xe3\\x06\\x0ba\\xddT\\x92m'}>"
p5166
sS'request'
p5167
S"<Storage {'body': <closed file '<fdopen>', mode ...xe4!\\x0f\\xfd|\\xa7\\xf2j*&\\xdc\\xa5va#\\xff\\xd9')}>}>"
p5168
sS'response'
p5169
S"<Storage {'status': 200, 'body': <cStringIO.Stri...>, 'files': [], 'view': 'transform/upload.html'}>"
p5170
ssS'lnum'
p5171
I490
sS'lines'
p5172
(dp5173
I485
S''
sI486
S'                # ##################################################'
p5174
sI487
S'                # run controller'
p5175
sI488
S'                # ##################################################'
p5176
sI489
S''
sI490
S'                serve_controller(request, response, session)'
p5177
sI491
S''
sI492
S'            except HTTP, http_response:'
p5178
sI493
S'                if static_file:'
p5179
sI494
S'                    return http_response.to(responder)'
p5180
ssS'call'
p5181
S"(environ={'COMSPEC': r'C:\\Windows\\system32\\cmd.exe', 'CONTENT_LENGTH': '55788', 'CONTENT_TYPE': 'multipart/form-data; boundary=---------------------------7dc2af171803b4', 'DOCUMENT_ROOT': 'D:/Workbench/documentroot', 'GATEWAY_INTERFACE': 'CGI/1.1', 'HTTP_ACCEPT': 'text/html, application/xhtml+xml, */*', 'HTTP_ACCEPT_ENCODING': 'gzip, deflate', 'HTTP_ACCEPT_LANGUAGE': 'zh-CN', 'HTTP_CACHE_CONTROL': 'no-cache', 'HTTP_CONNECTION': 'Keep-Alive', ...}, responder=<built-in method start_response of mod_wsgi.Adapter object>)"
p5182
sS'func'
p5183
S'wsgibase'
p5184
sa(dp5185
g5159
S'D:\\Workbench\\private\\web2py_src\\gluon\\main.py'
p5186
sg5161
(dp5187
S'global run_controller_in'
p5188
S'<function run_controller_in>'
p5189
sS'request.controller'
p5190
S"'transform'"
p5191
sS'request'
p5192
S"<Storage {'body': <closed file '<fdopen>', mode ...xe4!\\x0f\\xfd|\\xa7\\xf2j*&\\xdc\\xa5va#\\xff\\xd9')}>}>"
p5193
sS'environment'
p5194
S"{'A': <class 'gluon.html.A'>, 'B': <class 'gluon.html.B'>, 'BEAUTIFY': <class 'gluon.html.BEAUTIFY'>, 'BODY': <class 'gluon.html.BODY'>, 'BR': <class 'gluon.html.BR'>, 'BUTTON': <class 'gluon.html.BUTTON'>, 'CAT': <class 'gluon.html.CAT'>, 'CENTER': <class 'gluon.html.CENTER'>, 'CLEANUP': <class 'gluon.validators.CLEANUP'>, 'CODE': <class 'gluon.html.CODE'>, ...}"
p5195
sS'request.function'
p5196
S"'upload'"
p5197
sS'page'
p5198
S'undefined'
p5199
ssg5171
I204
sg5172
(dp5200
I199
S'    # process models, controller and view (if required)'
p5201
sI200
S'    # ##################################################'
p5202
sI201
S''
sI202
S'    run_models_in(environment)'
p5203
sI203
S'    response._view_environment = copy.copy(environment)'
p5204
sI204
S'    page = run_controller_in(request.controller, request.function, environment)'
p5205
sI205
S'    if isinstance(page, dict):'
p5206
sI206
S'        response._vars = page'
p5207
sI207
S'        for key in page:'
p5208
sI208
S'            response._view_environment[key] = page[key]'
p5209
ssg5181
S"(request=<Storage {'body': <closed file '<fdopen>', mode ...xe4!\\x0f\\xfd|\\xa7\\xf2j*&\\xdc\\xa5va#\\xff\\xd9')}>}>, response=<Storage {'status': 200, 'body': <cStringIO.Stri...>, 'files': [], 'view': 'transform/upload.html'}>, session=<Storage {'_Session__hash': '\\xc8[\\xd5\\xc1#\\xd8e\\x10\\xe3\\x06\\x0ba\\xddT\\x92m'}>)"
p5210
sg5183
S'serve_controller'
p5211
sa(dp5212
g5159
S'D:\\Workbench\\private\\web2py_src\\gluon\\compileapp.py'
p5213
sg5161
(dp5214
S'vars.xml'
p5215
S'None'
p5216
sS'vars'
p5217
S"<Storage {'myfile': FieldStorage('myfile', '6628...?\\xe4!\\x0f\\xfd|\\xa7\\xf2j*&\\xdc\\xa5va#\\xff\\xd9')}>"
p5218
ssg5171
I461
sg5172
(dp5219
I456
S'        for p in response.postprocessing:'
p5220
sI457
S'            vars = p(vars)'
p5221
sI458
S'    if isinstance(vars,unicode):'
p5222
sI459
S"        vars = vars.encode('utf8')"
p5223
sI460
S"    if hasattr(vars,'xml'):"
p5224
sI461
S'        vars = vars.xml()'
p5225
sI462
S'    return vars'
p5226
sI463
S''
sI464
S'def run_view_in(environment):'
p5227
sI465
S'    """'
p5228
ssg5181
S"(controller='transform', function='upload', environment={'A': <class 'gluon.html.A'>, 'B': <class 'gluon.html.B'>, 'BEAUTIFY': <class 'gluon.html.BEAUTIFY'>, 'BODY': <class 'gluon.html.BODY'>, 'BR': <class 'gluon.html.BR'>, 'BUTTON': <class 'gluon.html.BUTTON'>, 'CAT': <class 'gluon.html.CAT'>, 'CENTER': <class 'gluon.html.CENTER'>, 'CLEANUP': <class 'gluon.validators.CLEANUP'>, 'CODE': <class 'gluon.html.CODE'>, ...})"
p5229
sg5183
S'run_controller_in'
p5230
sasS'pyver'
p5231
S'Python 2.7.2: C:\\Program Files\\Apache Software Foundation\\Apache2.2\\bin\\httpd.exe'
p5232
sS'session'
p5233
g55
(g56
g57
NtRp5234
(dp5235
g60
(dp5236
sg62
(lp5237
g55
(g64
g57
NtRp5238
(dp5239
g60
(dp5240
g68
I5
ssg69
Nsg62
(lp5241
sbasbsS'etype'
p5242
S"<type 'exceptions.TypeError'>"
p5243
sS'date'
p5244
S'Mon Mar 12 22:17:04 2012'
p5245
sS'response'
p5246
g55
(g56
g57
NtRp5247
(dp5248
g60
(dp5249
sg62
(lp5250
g55
(g64
g57
NtRp5251
(dp5252
g60
(dp5253
g68
I5
ssg69
Nsg62
(lp5254
g55
(g71
g57
NtRp5255
(dp5256
g60
(dp5257
sg69
g5251
sg62
(lp5258
g55
(g76
g57
NtRp5259
(dp5260
g60
(dp5261
g80
g81
ssg69
g5255
sg62
(lp5262
g153
asbag55
(g76
g57
NtRp5263
(dp5264
g60
(dp5265
g87
g88
ssg69
g5255
sg62
(lp5266
S':'
asbag55
(g76
g57
NtRp5267
(dp5268
g60
(dp5269
sg69
g5255
sg62
(lp5270
g55
(g56
g57
NtRp5271
(dp5272
g60
(dp5273
g68
I5
ssg69
g5267
sg62
(lp5274
S'<cStringIO.StringO object at 0x03E7B5E0>'
p5275
asbasbasbag55
(g71
g57
NtRp5276
(dp5277
g60
(dp5278
sg69
g5251
sg62
(lp5279
g55
(g76
g57
NtRp5280
(dp5281
g60
(dp5282
g80
g81
ssg69
g5276
sg62
(lp5283
g219
asbag55
(g76
g57
NtRp5284
(dp5285
g60
(dp5286
g87
g88
ssg69
g5276
sg62
(lp5287
S':'
asbag55
(g76
g57
NtRp5288
(dp5289
g60
(dp5290
sg69
g5276
sg62
(lp5291
g55
(g56
g57
NtRp5292
(dp5293
g60
(dp5294
g68
I5
ssg69
g5288
sg62
(lp5295
g55
(g64
g57
NtRp5296
(dp5297
g60
(dp5298
g68
I4
ssg69
Nsg62
(lp5299
g55
(g71
g57
NtRp5300
(dp5301
g60
(dp5302
sg69
g5296
sg62
(lp5303
g55
(g76
g57
NtRp5304
(dp5305
g60
(dp5306
g80
g81
ssg69
g5300
sg62
(lp5307
S'session_id_examples'
p5308
asbag55
(g76
g57
NtRp5309
(dp5310
g60
(dp5311
g87
g88
ssg69
g5300
sg62
(lp5312
S':'
asbag55
(g76
g57
NtRp5313
(dp5314
g60
(dp5315
sg69
g5300
sg62
(lp5316
g55
(g56
g57
NtRp5317
(dp5318
g60
(dp5319
g68
I4
ssg69
g5313
sg62
(lp5320
g55
(g64
g57
NtRp5321
(dp5322
g60
(dp5323
g68
I3
ssg69
Nsg62
(lp5324
g55
(g71
g57
NtRp5325
(dp5326
g60
(dp5327
sg69
g5321
sg62
(lp5328
g55
(g76
g57
NtRp5329
(dp5330
g60
(dp5331
g80
g81
ssg69
g5325
sg62
(lp5332
g269
asbag55
(g76
g57
NtRp5333
(dp5334
g60
(dp5335
g87
g88
ssg69
g5325
sg62
(lp5336
S':'
asbag55
(g76
g57
NtRp5337
(dp5338
g60
(dp5339
sg69
g5325
sg62
(lp5340
g55
(g56
g57
NtRp5341
(dp5342
g60
(dp5343
g68
I3
ssg69
g5337
sg62
(lp5344
S''
asbasbasbag55
(g71
g57
NtRp5345
(dp5346
g60
(dp5347
sg69
g5321
sg62
(lp5348
g55
(g76
g57
NtRp5349
(dp5350
g60
(dp5351
g80
g81
ssg69
g5345
sg62
(lp5352
g290
asbag55
(g76
g57
NtRp5353
(dp5354
g60
(dp5355
g87
g88
ssg69
g5345
sg62
(lp5356
S':'
asbag55
(g76
g57
NtRp5357
(dp5358
g60
(dp5359
sg69
g5345
sg62
(lp5360
g55
(g56
g57
NtRp5361
(dp5362
g60
(dp5363
g68
I3
ssg69
g5357
sg62
(lp5364
S''
asbasbasbag55
(g71
g57
NtRp5365
(dp5366
g60
(dp5367
sg69
g5321
sg62
(lp5368
g55
(g76
g57
NtRp5369
(dp5370
g60
(dp5371
g80
g81
ssg69
g5365
sg62
(lp5372
g311
asbag55
(g76
g57
NtRp5373
(dp5374
g60
(dp5375
g87
g88
ssg69
g5365
sg62
(lp5376
S':'
asbag55
(g76
g57
NtRp5377
(dp5378
g60
(dp5379
sg69
g5365
sg62
(lp5380
g55
(g56
g57
NtRp5381
(dp5382
g60
(dp5383
g68
I3
ssg69
g5377
sg62
(lp5384
S''
asbasbasbag55
(g71
g57
NtRp5385
(dp5386
g60
(dp5387
sg69
g5321
sg62
(lp5388
g55
(g76
g57
NtRp5389
(dp5390
g60
(dp5391
g80
g81
ssg69
g5385
sg62
(lp5392
g332
asbag55
(g76
g57
NtRp5393
(dp5394
g60
(dp5395
g87
g88
ssg69
g5385
sg62
(lp5396
S':'
asbag55
(g76
g57
NtRp5397
(dp5398
g60
(dp5399
sg69
g5385
sg62
(lp5400
g55
(g56
g57
NtRp5401
(dp5402
g60
(dp5403
g68
I3
ssg69
g5397
sg62
(lp5404
S''
asbasbasbag55
(g71
g57
NtRp5405
(dp5406
g60
(dp5407
sg69
g5321
sg62
(lp5408
g55
(g76
g57
NtRp5409
(dp5410
g60
(dp5411
g80
g81
ssg69
g5405
sg62
(lp5412
g353
asbag55
(g76
g57
NtRp5413
(dp5414
g60
(dp5415
g87
g88
ssg69
g5405
sg62
(lp5416
S':'
asbag55
(g76
g57
NtRp5417
(dp5418
g60
(dp5419
sg69
g5405
sg62
(lp5420
g55
(g56
g57
NtRp5421
(dp5422
g60
(dp5423
g68
I3
ssg69
g5417
sg62
(lp5424
S''
asbasbasbag55
(g71
g57
NtRp5425
(dp5426
g60
(dp5427
sg69
g5321
sg62
(lp5428
g55
(g76
g57
NtRp5429
(dp5430
g60
(dp5431
g80
g81
ssg69
g5425
sg62
(lp5432
g374
asbag55
(g76
g57
NtRp5433
(dp5434
g60
(dp5435
g87
g88
ssg69
g5425
sg62
(lp5436
S':'
asbag55
(g76
g57
NtRp5437
(dp5438
g60
(dp5439
sg69
g5425
sg62
(lp5440
g55
(g56
g57
NtRp5441
(dp5442
g60
(dp5443
g68
I3
ssg69
g5437
sg62
(lp5444
S'/'
asbasbasbag55
(g71
g57
NtRp5445
(dp5446
g60
(dp5447
sg69
g5321
sg62
(lp5448
g55
(g76
g57
NtRp5449
(dp5450
g60
(dp5451
g80
g81
ssg69
g5445
sg62
(lp5452
g395
asbag55
(g76
g57
NtRp5453
(dp5454
g60
(dp5455
g87
g88
ssg69
g5445
sg62
(lp5456
S':'
asbag55
(g76
g57
NtRp5457
(dp5458
g60
(dp5459
sg69
g5445
sg62
(lp5460
g55
(g56
g57
NtRp5461
(dp5462
g60
(dp5463
g68
I3
ssg69
g5457
sg62
(lp5464
S''
asbasbasbag55
(g71
g57
NtRp5465
(dp5466
g60
(dp5467
sg69
g5321
sg62
(lp5468
g55
(g76
g57
NtRp5469
(dp5470
g60
(dp5471
g80
g81
ssg69
g5465
sg62
(lp5472
g416
asbag55
(g76
g57
NtRp5473
(dp5474
g60
(dp5475
g87
g88
ssg69
g5465
sg62
(lp5476
S':'
asbag55
(g76
g57
NtRp5477
(dp5478
g60
(dp5479
sg69
g5465
sg62
(lp5480
g55
(g56
g57
NtRp5481
(dp5482
g60
(dp5483
g68
I3
ssg69
g5477
sg62
(lp5484
S''
asbasbasbasbasbasbasbasbasbasbasbag55
(g71
g57
NtRp5485
(dp5486
g60
(dp5487
sg69
g5251
sg62
(lp5488
g55
(g76
g57
NtRp5489
(dp5490
g60
(dp5491
g80
g81
ssg69
g5485
sg62
(lp5492
S'files'
p5493
asbag55
(g76
g57
NtRp5494
(dp5495
g60
(dp5496
g87
g88
ssg69
g5485
sg62
(lp5497
S':'
asbag55
(g76
g57
NtRp5498
(dp5499
g60
(dp5500
sg69
g5485
sg62
(lp5501
g55
(g56
g57
NtRp5502
(dp5503
g60
(dp5504
g68
I5
ssg69
g5498
sg62
(lp5505
g55
(g64
g57
NtRp5506
(dp5507
g60
(dp5508
g68
I4
ssg69
Nsg62
(lp5509
sbasbasbasbag55
(g71
g57
NtRp5510
(dp5511
g60
(dp5512
sg69
g5251
sg62
(lp5513
g55
(g76
g57
NtRp5514
(dp5515
g60
(dp5516
g80
g81
ssg69
g5510
sg62
(lp5517
S'flash'
p5518
asbag55
(g76
g57
NtRp5519
(dp5520
g60
(dp5521
g87
g88
ssg69
g5510
sg62
(lp5522
S':'
asbag55
(g76
g57
NtRp5523
(dp5524
g60
(dp5525
sg69
g5510
sg62
(lp5526
g55
(g56
g57
NtRp5527
(dp5528
g60
(dp5529
g68
I5
ssg69
g5523
sg62
(lp5530
S''
asbasbasbag55
(g71
g57
NtRp5531
(dp5532
g60
(dp5533
sg69
g5251
sg62
(lp5534
g55
(g76
g57
NtRp5535
(dp5536
g60
(dp5537
g80
g81
ssg69
g5531
sg62
(lp5538
S'generic_patterns'
p5539
asbag55
(g76
g57
NtRp5540
(dp5541
g60
(dp5542
g87
g88
ssg69
g5531
sg62
(lp5543
S':'
asbag55
(g76
g57
NtRp5544
(dp5545
g60
(dp5546
sg69
g5531
sg62
(lp5547
g55
(g56
g57
NtRp5548
(dp5549
g60
(dp5550
g68
I5
ssg69
g5544
sg62
(lp5551
g55
(g64
g57
NtRp5552
(dp5553
g60
(dp5554
g68
I4
ssg69
Nsg62
(lp5555
sbasbasbasbag55
(g71
g57
NtRp5556
(dp5557
g60
(dp5558
sg69
g5251
sg62
(lp5559
g55
(g76
g57
NtRp5560
(dp5561
g60
(dp5562
g80
g81
ssg69
g5556
sg62
(lp5563
S'headers'
p5564
asbag55
(g76
g57
NtRp5565
(dp5566
g60
(dp5567
g87
g88
ssg69
g5556
sg62
(lp5568
S':'
asbag55
(g76
g57
NtRp5569
(dp5570
g60
(dp5571
sg69
g5556
sg62
(lp5572
g55
(g56
g57
NtRp5573
(dp5574
g60
(dp5575
g68
I5
ssg69
g5569
sg62
(lp5576
g55
(g64
g57
NtRp5577
(dp5578
g60
(dp5579
g68
I4
ssg69
Nsg62
(lp5580
g55
(g71
g57
NtRp5581
(dp5582
g60
(dp5583
sg69
g5577
sg62
(lp5584
g55
(g76
g57
NtRp5585
(dp5586
g60
(dp5587
g80
g81
ssg69
g5581
sg62
(lp5588
S'Cache-Control'
p5589
asbag55
(g76
g57
NtRp5590
(dp5591
g60
(dp5592
g87
g88
ssg69
g5581
sg62
(lp5593
S':'
asbag55
(g76
g57
NtRp5594
(dp5595
g60
(dp5596
sg69
g5581
sg62
(lp5597
g55
(g56
g57
NtRp5598
(dp5599
g60
(dp5600
g68
I4
ssg69
g5594
sg62
(lp5601
S'no-store, no-cache, must-revalidate, post-check=0, pre-check=0'
p5602
asbasbasbag55
(g71
g57
NtRp5603
(dp5604
g60
(dp5605
sg69
g5577
sg62
(lp5606
g55
(g76
g57
NtRp5607
(dp5608
g60
(dp5609
g80
g81
ssg69
g5603
sg62
(lp5610
S'Content-Type'
p5611
asbag55
(g76
g57
NtRp5612
(dp5613
g60
(dp5614
g87
g88
ssg69
g5603
sg62
(lp5615
S':'
asbag55
(g76
g57
NtRp5616
(dp5617
g60
(dp5618
sg69
g5603
sg62
(lp5619
g55
(g56
g57
NtRp5620
(dp5621
g60
(dp5622
g68
I4
ssg69
g5616
sg62
(lp5623
S'text/html; charset=utf-8'
p5624
asbasbasbag55
(g71
g57
NtRp5625
(dp5626
g60
(dp5627
sg69
g5577
sg62
(lp5628
g55
(g76
g57
NtRp5629
(dp5630
g60
(dp5631
g80
g81
ssg69
g5625
sg62
(lp5632
S'Expires'
p5633
asbag55
(g76
g57
NtRp5634
(dp5635
g60
(dp5636
g87
g88
ssg69
g5625
sg62
(lp5637
S':'
asbag55
(g76
g57
NtRp5638
(dp5639
g60
(dp5640
sg69
g5625
sg62
(lp5641
g55
(g56
g57
NtRp5642
(dp5643
g60
(dp5644
g68
I4
ssg69
g5638
sg62
(lp5645
S'Mon, 12 Mar 2012 14:17:04 GMT'
p5646
asbasbasbag55
(g71
g57
NtRp5647
(dp5648
g60
(dp5649
sg69
g5577
sg62
(lp5650
g55
(g76
g57
NtRp5651
(dp5652
g60
(dp5653
g80
g81
ssg69
g5647
sg62
(lp5654
S'Pragma'
p5655
asbag55
(g76
g57
NtRp5656
(dp5657
g60
(dp5658
g87
g88
ssg69
g5647
sg62
(lp5659
S':'
asbag55
(g76
g57
NtRp5660
(dp5661
g60
(dp5662
sg69
g5647
sg62
(lp5663
g55
(g56
g57
NtRp5664
(dp5665
g60
(dp5666
g68
I4
ssg69
g5660
sg62
(lp5667
S'no-cache'
p5668
asbasbasbag55
(g71
g57
NtRp5669
(dp5670
g60
(dp5671
sg69
g5577
sg62
(lp5672
g55
(g76
g57
NtRp5673
(dp5674
g60
(dp5675
g80
g81
ssg69
g5669
sg62
(lp5676
S'X-Powered-By'
p5677
asbag55
(g76
g57
NtRp5678
(dp5679
g60
(dp5680
g87
g88
ssg69
g5669
sg62
(lp5681
S':'
asbag55
(g76
g57
NtRp5682
(dp5683
g60
(dp5684
sg69
g5669
sg62
(lp5685
g55
(g56
g57
NtRp5686
(dp5687
g60
(dp5688
g68
I4
ssg69
g5682
sg62
(lp5689
S'web2py'
p5690
asbasbasbasbasbasbasbag55
(g71
g57
NtRp5691
(dp5692
g60
(dp5693
sg69
g5251
sg62
(lp5694
g55
(g76
g57
NtRp5695
(dp5696
g60
(dp5697
g80
g81
ssg69
g5691
sg62
(lp5698
S'menu'
p5699
asbag55
(g76
g57
NtRp5700
(dp5701
g60
(dp5702
g87
g88
ssg69
g5691
sg62
(lp5703
S':'
asbag55
(g76
g57
NtRp5704
(dp5705
g60
(dp5706
sg69
g5691
sg62
(lp5707
g55
(g56
g57
NtRp5708
(dp5709
g60
(dp5710
g68
I5
ssg69
g5704
sg62
(lp5711
g55
(g64
g57
NtRp5712
(dp5713
g60
(dp5714
g68
I4
ssg69
Nsg62
(lp5715
sbasbasbasbag55
(g71
g57
NtRp5716
(dp5717
g60
(dp5718
sg69
g5251
sg62
(lp5719
g55
(g76
g57
NtRp5720
(dp5721
g60
(dp5722
g80
g81
ssg69
g5716
sg62
(lp5723
S'meta'
p5724
asbag55
(g76
g57
NtRp5725
(dp5726
g60
(dp5727
g87
g88
ssg69
g5716
sg62
(lp5728
S':'
asbag55
(g76
g57
NtRp5729
(dp5730
g60
(dp5731
sg69
g5716
sg62
(lp5732
g55
(g56
g57
NtRp5733
(dp5734
g60
(dp5735
g68
I5
ssg69
g5729
sg62
(lp5736
g55
(g64
g57
NtRp5737
(dp5738
g60
(dp5739
g68
I4
ssg69
Nsg62
(lp5740
sbasbasbasbag55
(g71
g57
NtRp5741
(dp5742
g60
(dp5743
sg69
g5251
sg62
(lp5744
g55
(g76
g57
NtRp5745
(dp5746
g60
(dp5747
g80
g81
ssg69
g5741
sg62
(lp5748
S'postprocessing'
p5749
asbag55
(g76
g57
NtRp5750
(dp5751
g60
(dp5752
g87
g88
ssg69
g5741
sg62
(lp5753
S':'
asbag55
(g76
g57
NtRp5754
(dp5755
g60
(dp5756
sg69
g5741
sg62
(lp5757
g55
(g56
g57
NtRp5758
(dp5759
g60
(dp5760
g68
I5
ssg69
g5754
sg62
(lp5761
g55
(g64
g57
NtRp5762
(dp5763
g60
(dp5764
g68
I4
ssg69
Nsg62
(lp5765
sbasbasbasbag55
(g71
g57
NtRp5766
(dp5767
g60
(dp5768
sg69
g5251
sg62
(lp5769
g55
(g76
g57
NtRp5770
(dp5771
g60
(dp5772
g80
g81
ssg69
g5766
sg62
(lp5773
S'session_filename'
p5774
asbag55
(g76
g57
NtRp5775
(dp5776
g60
(dp5777
g87
g88
ssg69
g5766
sg62
(lp5778
S':'
asbag55
(g76
g57
NtRp5779
(dp5780
g60
(dp5781
sg69
g5766
sg62
(lp5782
g55
(g56
g57
NtRp5783
(dp5784
g60
(dp5785
g68
I5
ssg69
g5779
sg62
(lp5786
S'D:\\Workbench\\private\\web2py_src\\applications\\examples\\sessions\\127.0.0.1-7cfa5569-4c05-48b2-824b-de480c052966'
p5787
asbasbasbag55
(g71
g57
NtRp5788
(dp5789
g60
(dp5790
sg69
g5251
sg62
(lp5791
g55
(g76
g57
NtRp5792
(dp5793
g60
(dp5794
g80
g81
ssg69
g5788
sg62
(lp5795
S'session_id'
p5796
asbag55
(g76
g57
NtRp5797
(dp5798
g60
(dp5799
g87
g88
ssg69
g5788
sg62
(lp5800
S':'
asbag55
(g76
g57
NtRp5801
(dp5802
g60
(dp5803
sg69
g5788
sg62
(lp5804
g55
(g56
g57
NtRp5805
(dp5806
g60
(dp5807
g68
I5
ssg69
g5801
sg62
(lp5808
S'127.0.0.1-7cfa5569-4c05-48b2-824b-de480c052966'
p5809
asbasbasbag55
(g71
g57
NtRp5810
(dp5811
g60
(dp5812
sg69
g5251
sg62
(lp5813
g55
(g76
g57
NtRp5814
(dp5815
g60
(dp5816
g80
g81
ssg69
g5810
sg62
(lp5817
S'session_id_name'
p5818
asbag55
(g76
g57
NtRp5819
(dp5820
g60
(dp5821
g87
g88
ssg69
g5810
sg62
(lp5822
S':'
asbag55
(g76
g57
NtRp5823
(dp5824
g60
(dp5825
sg69
g5810
sg62
(lp5826
g55
(g56
g57
NtRp5827
(dp5828
g60
(dp5829
g68
I5
ssg69
g5823
sg62
(lp5830
g5308
asbasbasbag55
(g71
g57
NtRp5831
(dp5832
g60
(dp5833
sg69
g5251
sg62
(lp5834
g55
(g76
g57
NtRp5835
(dp5836
g60
(dp5837
g80
g81
ssg69
g5831
sg62
(lp5838
S'session_new'
p5839
asbag55
(g76
g57
NtRp5840
(dp5841
g60
(dp5842
g87
g88
ssg69
g5831
sg62
(lp5843
S':'
asbag55
(g76
g57
NtRp5844
(dp5845
g60
(dp5846
sg69
g5831
sg62
(lp5847
g55
(g56
g57
NtRp5848
(dp5849
g60
(dp5850
g68
I5
ssg69
g5844
sg62
(lp5851
g3386
asbasbasbag55
(g71
g57
NtRp5852
(dp5853
g60
(dp5854
sg69
g5251
sg62
(lp5855
g55
(g76
g57
NtRp5856
(dp5857
g60
(dp5858
g80
g81
ssg69
g5852
sg62
(lp5859
S'status'
p5860
asbag55
(g76
g57
NtRp5861
(dp5862
g60
(dp5863
g87
g88
ssg69
g5852
sg62
(lp5864
S':'
asbag55
(g76
g57
NtRp5865
(dp5866
g60
(dp5867
sg69
g5852
sg62
(lp5868
g55
(g56
g57
NtRp5869
(dp5870
g60
(dp5871
g68
I5
ssg69
g5865
sg62
(lp5872
S'200'
p5873
asbasbasbag55
(g71
g57
NtRp5874
(dp5875
g60
(dp5876
sg69
g5251
sg62
(lp5877
g55
(g76
g57
NtRp5878
(dp5879
g60
(dp5880
g80
g81
ssg69
g5874
sg62
(lp5881
g3987
asbag55
(g76
g57
NtRp5882
(dp5883
g60
(dp5884
g87
g88
ssg69
g5874
sg62
(lp5885
S':'
asbag55
(g76
g57
NtRp5886
(dp5887
g60
(dp5888
sg69
g5874
sg62
(lp5889
g55
(g56
g57
NtRp5890
(dp5891
g60
(dp5892
g68
I5
ssg69
g5886
sg62
(lp5893
g4000
asbasbasbag55
(g71
g57
NtRp5894
(dp5895
g60
(dp5896
sg69
g5251
sg62
(lp5897
g55
(g76
g57
NtRp5898
(dp5899
g60
(dp5900
g80
g81
ssg69
g5894
sg62
(lp5901
S'view'
p5902
asbag55
(g76
g57
NtRp5903
(dp5904
g60
(dp5905
g87
g88
ssg69
g5894
sg62
(lp5906
S':'
asbag55
(g76
g57
NtRp5907
(dp5908
g60
(dp5909
sg69
g5894
sg62
(lp5910
g55
(g56
g57
NtRp5911
(dp5912
g60
(dp5913
g68
I5
ssg69
g5907
sg62
(lp5914
S'transform/upload.html'
p5915
asbasbasbasbasbsS'locals'
p5916
(dp5917
g3531
S"'upload'"
p5918
sg5
S"'import pprint\\n\\ndef index():\\n    return dict()\\n\\nd...se None\\n\\nresponse._vars=response._caller(upload)\\n'"
p5919
sg4009
S"<Storage {'myfile': FieldStorage('myfile', '6628...?\\xe4!\\x0f\\xfd|\\xa7\\xf2j*&\\xdc\\xa5va#\\xff\\xd9')}>"
p5920
sS'exposed'
p5921
S"['index', 'upload']"
p5922
sS'filename'
p5923
S"r'D:\\Workbench\\private\\web2py_src\\applications\\examples\\controllers/transform.py'"
p5924
sS'environment'
p5925
S"{'A': <class 'gluon.html.A'>, 'B': <class 'gluon.html.B'>, 'BEAUTIFY': <class 'gluon.html.BEAUTIFY'>, 'BODY': <class 'gluon.html.BODY'>, 'BR': <class 'gluon.html.BR'>, 'BUTTON': <class 'gluon.html.BUTTON'>, 'CAT': <class 'gluon.html.CAT'>, 'CENTER': <class 'gluon.html.CENTER'>, 'CLEANUP': <class 'gluon.validators.CLEANUP'>, 'CODE': <class 'gluon.html.CODE'>, ...}"
p5926
sS'badf'
p5927
S"'invalid function (transform/upload)'"
p5928
sg197
S"'transform'"
p5929
sS'badc'
p5930
S"'invalid controller (transform/upload)'"
p5931
sg374
S"r'D:\\Workbench\\private\\web2py_src\\applications\\examples\\compiled'"
p5932
sg3509
S"r'D:\\Workbench\\private\\web2py_src\\applications\\examples\\'"
p5933
sg5246
S"<Storage {'status': 200, 'body': <cStringIO.Stri...>, 'files': [], 'view': 'transform/upload.html'}>"
p5934
sssS'traceback'
p5935
S'Traceback (most recent call last):\n  File "D:\\Workbench\\private\\web2py_src\\gluon\\main.py", line 490, in wsgibase\n    serve_controller(request, response, session)\n  File "D:\\Workbench\\private\\web2py_src\\gluon\\main.py", line 204, in serve_controller\n    page = run_controller_in(request.controller, request.function, environment)\n  File "D:\\Workbench\\private\\web2py_src\\gluon\\compileapp.py", line 461, in run_controller_in\n    vars = vars.xml()\nTypeError: \'NoneType\' object is not callable\n'
p5936
s.