(dp1
S'output'
p2
S''
sS'layer'
p3
S'D:\\Workbench\\web2py_src\\applications\\admin\\models\\access.py'
p4
sS'code'
p5
S"import os, time\nfrom gluon import portalocker\nfrom gluon.admin import apath\nfrom gluon.fileutils import read_file\n# ###########################################################\n# ## make sure administrator is on localhost or https\n# ###########################################################\n\nhttp_host = request.env.http_host.split(':')[0]\n\nif request.env.web2py_runtime_gae:\n    session_db = DAL('gae')\n    session.connect(request, response, db=session_db)\n    hosts = (http_host, )\n\nif request.env.http_x_forwarded_for or request.is_https:\n    session.secure()\nelif not request.is_local and not DEMO_MODE:\n    raise HTTP(200, T('Admin is disabled because insecure channel'))\n\ntry:\n    _config = {}\n    port = int(request.env.server_port or 0)\n    restricted(read_file(apath('../parameters_%i.py' % port, request)), _config)\n\n    if not 'password' in _config or not _config['password']:\n        raise HTTP(200, T('admin disabled because no admin password'))\nexcept IOError:\n    import gluon.fileutils\n    if request.env.web2py_runtime_gae:\n        if gluon.fileutils.check_credentials(request):\n            session.authorized = True\n            session.last_time = time.time()\n        else:\n            raise HTTP(200,\n                       T('admin disabled because not supported on google app engine'))\n    else:\n        raise HTTP(200, T('admin disabled because unable to access password file'))\n\n\ndef verify_password(password):\n    session.pam_user = None\n    if DEMO_MODE:\n        return True\n    elif not 'password' in _config:\n        return False\n    elif _config['password'].startswith('pam_user:'):\n        session.pam_user = _config['password'][9:].strip()\n        import gluon.contrib.pam\n        return gluon.contrib.pam.authenticate(session.pam_user,password)\n    else:\n        return _config['password'] == CRYPT()(password)[0]\n\n\n# ###########################################################\n# ## handle brute-force login attacks\n# ###########################################################\n\ndeny_file = os.path.join(request.folder, 'private', 'hosts.deny')\nallowed_number_of_attempts = 5\nexpiration_failed_logins = 3600\n\ndef read_hosts_deny():\n    import datetime\n    hosts = {}\n    if os.path.exists(deny_file):\n        hosts = {}\n        f = open(deny_file, 'r')\n        portalocker.lock(f, portalocker.LOCK_SH)\n        for line in f.readlines():\n            if not line.strip() or line.startswith('#'):\n                continue\n            fields = line.strip().split()\n            if len(fields) > 2:\n                hosts[fields[0].strip()] = ( # ip\n                    int(fields[1].strip()),  # n attemps\n                    int(fields[2].strip())   # last attempts\n                    )\n        portalocker.unlock(f)\n        f.close()  \n    return hosts\n        \ndef write_hosts_deny(denied_hosts):\n    f = open(deny_file, 'w')\n    portalocker.lock(f, portalocker.LOCK_EX)\n    for key, val in denied_hosts.items():\n        if time.time()-val[1] < expiration_failed_logins:\n            line = '%s %s %s\\n' % (key, val[0], val[1])\n            f.write(line)\n    portalocker.unlock(f)\n    f.close()        \n\ndef login_record(success=True):\n    denied_hosts = read_hosts_deny()\n    val = (0,0)\n    if success and request.client in denied_hosts:\n        del denied_hosts[request.client]\n    elif not success and not request.is_local:\n        val = denied_hosts.get(request.client,(0,0))\n        if time.time()-val[1]<expiration_failed_logins \\\n            and val[0] >= allowed_number_of_attempts:\n            return val[0] # locked out\n        time.sleep(2**val[0])\n        val = (val[0]+1,int(time.time()))        \n        denied_hosts[request.client] = val\n    write_hosts_deny(denied_hosts)\n    return val[0]\n        \n\n# ###########################################################\n# ## session expiration\n# ###########################################################\n\nt0 = time.time()\nif session.authorized:\n\n    if session.last_time and session.last_time < t0 - EXPIRATION:\n        session.flash = T('session expired')\n        session.authorized = False\n    else:\n        session.last_time = t0\n\nif not session.authorized and not \\\n    (request.controller == 'default' and \\\n     request.function in ('index','user')):\n\n    if request.env.query_string:\n        query_string = '?' + request.env.query_string\n    else:\n        query_string = ''\n\n    if request.env.web2py_original_uri:\n        url = request.env.web2py_original_uri\n    else:\n        url = request.env.path_info + query_string\n    redirect(URL(request.application, 'default', 'index', vars=dict(send=url)))\nelif session.authorized and \\\n     request.controller == 'default' and \\\n     request.function == 'index':\n    redirect(URL(request.application, 'default', 'site'))\n\n\nif request.controller=='appadmin' and DEMO_MODE:\n    session.flash = 'Appadmin disabled in demo mode'\n    redirect(URL('default','sites'))\n\n"
p6
sS'snapshot'
p7
(dp8
S'exception'
p9
(dp10
S'__hash__'
p11
S"<method-wrapper '__hash__' of exceptions.ImportError object>"
p12
sS'__setattr__'
p13
S"<method-wrapper '__setattr__' of exceptions.ImportError object>"
p14
sS'__reduce_ex__'
p15
S'<built-in method __reduce_ex__ of exceptions.ImportError object>'
p16
sS'__getslice__'
p17
S"<method-wrapper '__getslice__' of exceptions.ImportError object>"
p18
sS'__getitem__'
p19
S"<method-wrapper '__getitem__' of exceptions.ImportError object>"
p20
sS'__setstate__'
p21
S'<built-in method __setstate__ of exceptions.ImportError object>'
p22
sS'__reduce__'
p23
S'<built-in method __reduce__ of exceptions.ImportError object>'
p24
sS'__str__'
p25
S"<method-wrapper '__str__' of exceptions.ImportError object>"
p26
sS'__format__'
p27
S'<built-in method __format__ of exceptions.ImportError object>'
p28
sS'__getattribute__'
p29
S"<method-wrapper '__getattribute__' of exceptions.ImportError object>"
p30
sS'__class__'
p31
S"<type 'exceptions.ImportError'>"
p32
sS'__unicode__'
p33
S'<built-in method __unicode__ of exceptions.ImportError object>'
p34
sS'__delattr__'
p35
S"<method-wrapper '__delattr__' of exceptions.ImportError object>"
p36
sS'__subclasshook__'
p37
S'<built-in method __subclasshook__ of type object>'
p38
sS'__repr__'
p39
S"<method-wrapper '__repr__' of exceptions.ImportError object>"
p40
sS'args'
p41
S"('cannot import name portalocker',)"
p42
sS'__dict__'
p43
S'{}'
p44
sS'__sizeof__'
p45
S'<built-in method __sizeof__ of exceptions.ImportError object>'
p46
sS'__doc__'
p47
S'"Import can\'t find module, or can\'t find name in module."'
p48
sS'__init__'
p49
S"<method-wrapper '__init__' of exceptions.ImportError object>"
p50
sS'__new__'
p51
S'<built-in method __new__ of type object>'
p52
ssS'evalue'
p53
S'cannot import name portalocker'
p54
sS'request'
p55
ccopy_reg
_reconstructor
p56
(cgluon.html
BEAUTIFY
p57
c__builtin__
object
p58
NtRp59
(dp60
S'attributes'
p61
(dp62
sS'components'
p63
(lp64
g56
(cgluon.html
TABLE
p65
g58
NtRp66
(dp67
g61
(dp68
S'level'
p69
I5
ssS'parent'
p70
Nsg63
(lp71
g56
(cgluon.html
TR
p72
g58
NtRp73
(dp74
g61
(dp75
sg70
g66
sg63
(lp76
g56
(cgluon.html
TD
p77
g58
NtRp78
(dp79
g61
(dp80
S'_style'
p81
S'font-weight:bold;'
p82
ssg70
g73
sg63
(lp83
S'ajax'
p84
asbag56
(g77
g58
NtRp85
(dp86
g61
(dp87
S'_valign'
p88
S'top'
p89
ssg70
g73
sg63
(lp90
S':'
asbag56
(g77
g58
NtRp91
(dp92
g61
(dp93
sg70
g73
sg63
(lp94
g56
(g57
g58
NtRp95
(dp96
g61
(dp97
g69
I5
ssg70
g91
sg63
(lp98
S'False'
p99
asbasbasbag56
(g72
g58
NtRp100
(dp101
g61
(dp102
sg70
g66
sg63
(lp103
g56
(g77
g58
NtRp104
(dp105
g61
(dp106
g81
g82
ssg70
g100
sg63
(lp107
S'application'
p108
asbag56
(g77
g58
NtRp109
(dp110
g61
(dp111
g88
g89
ssg70
g100
sg63
(lp112
S':'
asbag56
(g77
g58
NtRp113
(dp114
g61
(dp115
sg70
g100
sg63
(lp116
g56
(g57
g58
NtRp117
(dp118
g61
(dp119
g69
I5
ssg70
g113
sg63
(lp120
S'admin'
p121
asbasbasbag56
(g72
g58
NtRp122
(dp123
g61
(dp124
sg70
g66
sg63
(lp125
g56
(g77
g58
NtRp126
(dp127
g61
(dp128
g81
g82
ssg70
g122
sg63
(lp129
g41
asbag56
(g77
g58
NtRp130
(dp131
g61
(dp132
g88
g89
ssg70
g122
sg63
(lp133
S':'
asbag56
(g77
g58
NtRp134
(dp135
g61
(dp136
sg70
g122
sg63
(lp137
g56
(g57
g58
NtRp138
(dp139
g61
(dp140
g69
I5
ssg70
g134
sg63
(lp141
g56
(g65
g58
NtRp142
(dp143
g61
(dp144
g69
I4
ssg70
Nsg63
(lp145
g56
(g72
g58
NtRp146
(dp147
g61
(dp148
sg70
g142
sg63
(lp149
g56
(g77
g58
NtRp150
(dp151
g61
(dp152
sg70
g146
sg63
(lp153
g56
(g57
g58
NtRp154
(dp155
g61
(dp156
g69
I4
ssg70
g150
sg63
(lp157
S'tgtoolbox'
p158
asbasbasbag56
(g72
g58
NtRp159
(dp160
g61
(dp161
sg70
g142
sg63
(lp162
g56
(g77
g58
NtRp163
(dp164
g61
(dp165
sg70
g159
sg63
(lp166
g56
(g57
g58
NtRp167
(dp168
g61
(dp169
g69
I4
ssg70
g163
sg63
(lp170
S'127.0.0.1.2012-01-08.19-36-50.9fad4d4e-ffba-4fe6-a732-e6f1248cde23'
p171
asbasbasbasbasbasbasbag56
(g72
g58
NtRp172
(dp173
g61
(dp174
sg70
g66
sg63
(lp175
g56
(g77
g58
NtRp176
(dp177
g61
(dp178
g81
g82
ssg70
g172
sg63
(lp179
S'body'
p180
asbag56
(g77
g58
NtRp181
(dp182
g61
(dp183
g88
g89
ssg70
g172
sg63
(lp184
S':'
asbag56
(g77
g58
NtRp185
(dp186
g61
(dp187
sg70
g172
sg63
(lp188
g56
(g57
g58
NtRp189
(dp190
g61
(dp191
g69
I5
ssg70
g185
sg63
(lp192
S'<cStringIO.StringO object at 0x04417760>'
p193
asbasbasbag56
(g72
g58
NtRp194
(dp195
g61
(dp196
sg70
g66
sg63
(lp197
g56
(g77
g58
NtRp198
(dp199
g61
(dp200
g81
g82
ssg70
g194
sg63
(lp201
S'client'
p202
asbag56
(g77
g58
NtRp203
(dp204
g61
(dp205
g88
g89
ssg70
g194
sg63
(lp206
S':'
asbag56
(g77
g58
NtRp207
(dp208
g61
(dp209
sg70
g194
sg63
(lp210
g56
(g57
g58
NtRp211
(dp212
g61
(dp213
g69
I5
ssg70
g207
sg63
(lp214
S'127.0.0.1'
p215
asbasbasbag56
(g72
g58
NtRp216
(dp217
g61
(dp218
sg70
g66
sg63
(lp219
g56
(g77
g58
NtRp220
(dp221
g61
(dp222
g81
g82
ssg70
g216
sg63
(lp223
S'controller'
p224
asbag56
(g77
g58
NtRp225
(dp226
g61
(dp227
g88
g89
ssg70
g216
sg63
(lp228
S':'
asbag56
(g77
g58
NtRp229
(dp230
g61
(dp231
sg70
g216
sg63
(lp232
g56
(g57
g58
NtRp233
(dp234
g61
(dp235
g69
I5
ssg70
g229
sg63
(lp236
S'default'
p237
asbasbasbag56
(g72
g58
NtRp238
(dp239
g61
(dp240
sg70
g66
sg63
(lp241
g56
(g77
g58
NtRp242
(dp243
g61
(dp244
g81
g82
ssg70
g238
sg63
(lp245
S'cookies'
p246
asbag56
(g77
g58
NtRp247
(dp248
g61
(dp249
g88
g89
ssg70
g238
sg63
(lp250
S':'
asbag56
(g77
g58
NtRp251
(dp252
g61
(dp253
sg70
g238
sg63
(lp254
g56
(g57
g58
NtRp255
(dp256
g61
(dp257
g69
I5
ssg70
g251
sg63
(lp258
g56
(g65
g58
NtRp259
(dp260
g61
(dp261
g69
I4
ssg70
Nsg63
(lp262
g56
(g72
g58
NtRp263
(dp264
g61
(dp265
sg70
g259
sg63
(lp266
g56
(g77
g58
NtRp267
(dp268
g61
(dp269
g81
g82
ssg70
g263
sg63
(lp270
S'session_id_admin'
p271
asbag56
(g77
g58
NtRp272
(dp273
g61
(dp274
g88
g89
ssg70
g263
sg63
(lp275
S':'
asbag56
(g77
g58
NtRp276
(dp277
g61
(dp278
sg70
g263
sg63
(lp279
g56
(g57
g58
NtRp280
(dp281
g61
(dp282
g69
I4
ssg70
g276
sg63
(lp283
g56
(g65
g58
NtRp284
(dp285
g61
(dp286
g69
I3
ssg70
Nsg63
(lp287
g56
(g72
g58
NtRp288
(dp289
g61
(dp290
sg70
g284
sg63
(lp291
g56
(g77
g58
NtRp292
(dp293
g61
(dp294
g81
g82
ssg70
g288
sg63
(lp295
S'comment'
p296
asbag56
(g77
g58
NtRp297
(dp298
g61
(dp299
g88
g89
ssg70
g288
sg63
(lp300
S':'
asbag56
(g77
g58
NtRp301
(dp302
g61
(dp303
sg70
g288
sg63
(lp304
g56
(g57
g58
NtRp305
(dp306
g61
(dp307
g69
I3
ssg70
g301
sg63
(lp308
S''
asbasbasbag56
(g72
g58
NtRp309
(dp310
g61
(dp311
sg70
g284
sg63
(lp312
g56
(g77
g58
NtRp313
(dp314
g61
(dp315
g81
g82
ssg70
g309
sg63
(lp316
S'domain'
p317
asbag56
(g77
g58
NtRp318
(dp319
g61
(dp320
g88
g89
ssg70
g309
sg63
(lp321
S':'
asbag56
(g77
g58
NtRp322
(dp323
g61
(dp324
sg70
g309
sg63
(lp325
g56
(g57
g58
NtRp326
(dp327
g61
(dp328
g69
I3
ssg70
g322
sg63
(lp329
S''
asbasbasbag56
(g72
g58
NtRp330
(dp331
g61
(dp332
sg70
g284
sg63
(lp333
g56
(g77
g58
NtRp334
(dp335
g61
(dp336
g81
g82
ssg70
g330
sg63
(lp337
S'expires'
p338
asbag56
(g77
g58
NtRp339
(dp340
g61
(dp341
g88
g89
ssg70
g330
sg63
(lp342
S':'
asbag56
(g77
g58
NtRp343
(dp344
g61
(dp345
sg70
g330
sg63
(lp346
g56
(g57
g58
NtRp347
(dp348
g61
(dp349
g69
I3
ssg70
g343
sg63
(lp350
S''
asbasbasbag56
(g72
g58
NtRp351
(dp352
g61
(dp353
sg70
g284
sg63
(lp354
g56
(g77
g58
NtRp355
(dp356
g61
(dp357
g81
g82
ssg70
g351
sg63
(lp358
S'httponly'
p359
asbag56
(g77
g58
NtRp360
(dp361
g61
(dp362
g88
g89
ssg70
g351
sg63
(lp363
S':'
asbag56
(g77
g58
NtRp364
(dp365
g61
(dp366
sg70
g351
sg63
(lp367
g56
(g57
g58
NtRp368
(dp369
g61
(dp370
g69
I3
ssg70
g364
sg63
(lp371
S''
asbasbasbag56
(g72
g58
NtRp372
(dp373
g61
(dp374
sg70
g284
sg63
(lp375
g56
(g77
g58
NtRp376
(dp377
g61
(dp378
g81
g82
ssg70
g372
sg63
(lp379
S'max-age'
p380
asbag56
(g77
g58
NtRp381
(dp382
g61
(dp383
g88
g89
ssg70
g372
sg63
(lp384
S':'
asbag56
(g77
g58
NtRp385
(dp386
g61
(dp387
sg70
g372
sg63
(lp388
g56
(g57
g58
NtRp389
(dp390
g61
(dp391
g69
I3
ssg70
g385
sg63
(lp392
S''
asbasbasbag56
(g72
g58
NtRp393
(dp394
g61
(dp395
sg70
g284
sg63
(lp396
g56
(g77
g58
NtRp397
(dp398
g61
(dp399
g81
g82
ssg70
g393
sg63
(lp400
S'path'
p401
asbag56
(g77
g58
NtRp402
(dp403
g61
(dp404
g88
g89
ssg70
g393
sg63
(lp405
S':'
asbag56
(g77
g58
NtRp406
(dp407
g61
(dp408
sg70
g393
sg63
(lp409
g56
(g57
g58
NtRp410
(dp411
g61
(dp412
g69
I3
ssg70
g406
sg63
(lp413
S''
asbasbasbag56
(g72
g58
NtRp414
(dp415
g61
(dp416
sg70
g284
sg63
(lp417
g56
(g77
g58
NtRp418
(dp419
g61
(dp420
g81
g82
ssg70
g414
sg63
(lp421
S'secure'
p422
asbag56
(g77
g58
NtRp423
(dp424
g61
(dp425
g88
g89
ssg70
g414
sg63
(lp426
S':'
asbag56
(g77
g58
NtRp427
(dp428
g61
(dp429
sg70
g414
sg63
(lp430
g56
(g57
g58
NtRp431
(dp432
g61
(dp433
g69
I3
ssg70
g427
sg63
(lp434
S''
asbasbasbag56
(g72
g58
NtRp435
(dp436
g61
(dp437
sg70
g284
sg63
(lp438
g56
(g77
g58
NtRp439
(dp440
g61
(dp441
g81
g82
ssg70
g435
sg63
(lp442
S'version'
p443
asbag56
(g77
g58
NtRp444
(dp445
g61
(dp446
g88
g89
ssg70
g435
sg63
(lp447
S':'
asbag56
(g77
g58
NtRp448
(dp449
g61
(dp450
sg70
g435
sg63
(lp451
g56
(g57
g58
NtRp452
(dp453
g61
(dp454
g69
I3
ssg70
g448
sg63
(lp455
S''
asbasbasbasbasbasbasbag56
(g72
g58
NtRp456
(dp457
g61
(dp458
sg70
g259
sg63
(lp459
g56
(g77
g58
NtRp460
(dp461
g61
(dp462
g81
g82
ssg70
g456
sg63
(lp463
S'session_id_tgtoolbox'
p464
asbag56
(g77
g58
NtRp465
(dp466
g61
(dp467
g88
g89
ssg70
g456
sg63
(lp468
S':'
asbag56
(g77
g58
NtRp469
(dp470
g61
(dp471
sg70
g456
sg63
(lp472
g56
(g57
g58
NtRp473
(dp474
g61
(dp475
g69
I4
ssg70
g469
sg63
(lp476
g56
(g65
g58
NtRp477
(dp478
g61
(dp479
g69
I3
ssg70
Nsg63
(lp480
g56
(g72
g58
NtRp481
(dp482
g61
(dp483
sg70
g477
sg63
(lp484
g56
(g77
g58
NtRp485
(dp486
g61
(dp487
g81
g82
ssg70
g481
sg63
(lp488
g296
asbag56
(g77
g58
NtRp489
(dp490
g61
(dp491
g88
g89
ssg70
g481
sg63
(lp492
S':'
asbag56
(g77
g58
NtRp493
(dp494
g61
(dp495
sg70
g481
sg63
(lp496
g56
(g57
g58
NtRp497
(dp498
g61
(dp499
g69
I3
ssg70
g493
sg63
(lp500
S''
asbasbasbag56
(g72
g58
NtRp501
(dp502
g61
(dp503
sg70
g477
sg63
(lp504
g56
(g77
g58
NtRp505
(dp506
g61
(dp507
g81
g82
ssg70
g501
sg63
(lp508
g317
asbag56
(g77
g58
NtRp509
(dp510
g61
(dp511
g88
g89
ssg70
g501
sg63
(lp512
S':'
asbag56
(g77
g58
NtRp513
(dp514
g61
(dp515
sg70
g501
sg63
(lp516
g56
(g57
g58
NtRp517
(dp518
g61
(dp519
g69
I3
ssg70
g513
sg63
(lp520
S''
asbasbasbag56
(g72
g58
NtRp521
(dp522
g61
(dp523
sg70
g477
sg63
(lp524
g56
(g77
g58
NtRp525
(dp526
g61
(dp527
g81
g82
ssg70
g521
sg63
(lp528
g338
asbag56
(g77
g58
NtRp529
(dp530
g61
(dp531
g88
g89
ssg70
g521
sg63
(lp532
S':'
asbag56
(g77
g58
NtRp533
(dp534
g61
(dp535
sg70
g521
sg63
(lp536
g56
(g57
g58
NtRp537
(dp538
g61
(dp539
g69
I3
ssg70
g533
sg63
(lp540
S''
asbasbasbag56
(g72
g58
NtRp541
(dp542
g61
(dp543
sg70
g477
sg63
(lp544
g56
(g77
g58
NtRp545
(dp546
g61
(dp547
g81
g82
ssg70
g541
sg63
(lp548
g359
asbag56
(g77
g58
NtRp549
(dp550
g61
(dp551
g88
g89
ssg70
g541
sg63
(lp552
S':'
asbag56
(g77
g58
NtRp553
(dp554
g61
(dp555
sg70
g541
sg63
(lp556
g56
(g57
g58
NtRp557
(dp558
g61
(dp559
g69
I3
ssg70
g553
sg63
(lp560
S''
asbasbasbag56
(g72
g58
NtRp561
(dp562
g61
(dp563
sg70
g477
sg63
(lp564
g56
(g77
g58
NtRp565
(dp566
g61
(dp567
g81
g82
ssg70
g561
sg63
(lp568
g380
asbag56
(g77
g58
NtRp569
(dp570
g61
(dp571
g88
g89
ssg70
g561
sg63
(lp572
S':'
asbag56
(g77
g58
NtRp573
(dp574
g61
(dp575
sg70
g561
sg63
(lp576
g56
(g57
g58
NtRp577
(dp578
g61
(dp579
g69
I3
ssg70
g573
sg63
(lp580
S''
asbasbasbag56
(g72
g58
NtRp581
(dp582
g61
(dp583
sg70
g477
sg63
(lp584
g56
(g77
g58
NtRp585
(dp586
g61
(dp587
g81
g82
ssg70
g581
sg63
(lp588
g401
asbag56
(g77
g58
NtRp589
(dp590
g61
(dp591
g88
g89
ssg70
g581
sg63
(lp592
S':'
asbag56
(g77
g58
NtRp593
(dp594
g61
(dp595
sg70
g581
sg63
(lp596
g56
(g57
g58
NtRp597
(dp598
g61
(dp599
g69
I3
ssg70
g593
sg63
(lp600
S''
asbasbasbag56
(g72
g58
NtRp601
(dp602
g61
(dp603
sg70
g477
sg63
(lp604
g56
(g77
g58
NtRp605
(dp606
g61
(dp607
g81
g82
ssg70
g601
sg63
(lp608
g422
asbag56
(g77
g58
NtRp609
(dp610
g61
(dp611
g88
g89
ssg70
g601
sg63
(lp612
S':'
asbag56
(g77
g58
NtRp613
(dp614
g61
(dp615
sg70
g601
sg63
(lp616
g56
(g57
g58
NtRp617
(dp618
g61
(dp619
g69
I3
ssg70
g613
sg63
(lp620
S''
asbasbasbag56
(g72
g58
NtRp621
(dp622
g61
(dp623
sg70
g477
sg63
(lp624
g56
(g77
g58
NtRp625
(dp626
g61
(dp627
g81
g82
ssg70
g621
sg63
(lp628
g443
asbag56
(g77
g58
NtRp629
(dp630
g61
(dp631
g88
g89
ssg70
g621
sg63
(lp632
S':'
asbag56
(g77
g58
NtRp633
(dp634
g61
(dp635
sg70
g621
sg63
(lp636
g56
(g57
g58
NtRp637
(dp638
g61
(dp639
g69
I3
ssg70
g633
sg63
(lp640
S''
asbasbasbasbasbasbasbag56
(g72
g58
NtRp641
(dp642
g61
(dp643
sg70
g259
sg63
(lp644
g56
(g77
g58
NtRp645
(dp646
g61
(dp647
g81
g82
ssg70
g641
sg63
(lp648
S'session_id_welcome'
p649
asbag56
(g77
g58
NtRp650
(dp651
g61
(dp652
g88
g89
ssg70
g641
sg63
(lp653
S':'
asbag56
(g77
g58
NtRp654
(dp655
g61
(dp656
sg70
g641
sg63
(lp657
g56
(g57
g58
NtRp658
(dp659
g61
(dp660
g69
I4
ssg70
g654
sg63
(lp661
g56
(g65
g58
NtRp662
(dp663
g61
(dp664
g69
I3
ssg70
Nsg63
(lp665
g56
(g72
g58
NtRp666
(dp667
g61
(dp668
sg70
g662
sg63
(lp669
g56
(g77
g58
NtRp670
(dp671
g61
(dp672
g81
g82
ssg70
g666
sg63
(lp673
g296
asbag56
(g77
g58
NtRp674
(dp675
g61
(dp676
g88
g89
ssg70
g666
sg63
(lp677
S':'
asbag56
(g77
g58
NtRp678
(dp679
g61
(dp680
sg70
g666
sg63
(lp681
g56
(g57
g58
NtRp682
(dp683
g61
(dp684
g69
I3
ssg70
g678
sg63
(lp685
S''
asbasbasbag56
(g72
g58
NtRp686
(dp687
g61
(dp688
sg70
g662
sg63
(lp689
g56
(g77
g58
NtRp690
(dp691
g61
(dp692
g81
g82
ssg70
g686
sg63
(lp693
g317
asbag56
(g77
g58
NtRp694
(dp695
g61
(dp696
g88
g89
ssg70
g686
sg63
(lp697
S':'
asbag56
(g77
g58
NtRp698
(dp699
g61
(dp700
sg70
g686
sg63
(lp701
g56
(g57
g58
NtRp702
(dp703
g61
(dp704
g69
I3
ssg70
g698
sg63
(lp705
S''
asbasbasbag56
(g72
g58
NtRp706
(dp707
g61
(dp708
sg70
g662
sg63
(lp709
g56
(g77
g58
NtRp710
(dp711
g61
(dp712
g81
g82
ssg70
g706
sg63
(lp713
g338
asbag56
(g77
g58
NtRp714
(dp715
g61
(dp716
g88
g89
ssg70
g706
sg63
(lp717
S':'
asbag56
(g77
g58
NtRp718
(dp719
g61
(dp720
sg70
g706
sg63
(lp721
g56
(g57
g58
NtRp722
(dp723
g61
(dp724
g69
I3
ssg70
g718
sg63
(lp725
S''
asbasbasbag56
(g72
g58
NtRp726
(dp727
g61
(dp728
sg70
g662
sg63
(lp729
g56
(g77
g58
NtRp730
(dp731
g61
(dp732
g81
g82
ssg70
g726
sg63
(lp733
g359
asbag56
(g77
g58
NtRp734
(dp735
g61
(dp736
g88
g89
ssg70
g726
sg63
(lp737
S':'
asbag56
(g77
g58
NtRp738
(dp739
g61
(dp740
sg70
g726
sg63
(lp741
g56
(g57
g58
NtRp742
(dp743
g61
(dp744
g69
I3
ssg70
g738
sg63
(lp745
S''
asbasbasbag56
(g72
g58
NtRp746
(dp747
g61
(dp748
sg70
g662
sg63
(lp749
g56
(g77
g58
NtRp750
(dp751
g61
(dp752
g81
g82
ssg70
g746
sg63
(lp753
g380
asbag56
(g77
g58
NtRp754
(dp755
g61
(dp756
g88
g89
ssg70
g746
sg63
(lp757
S':'
asbag56
(g77
g58
NtRp758
(dp759
g61
(dp760
sg70
g746
sg63
(lp761
g56
(g57
g58
NtRp762
(dp763
g61
(dp764
g69
I3
ssg70
g758
sg63
(lp765
S''
asbasbasbag56
(g72
g58
NtRp766
(dp767
g61
(dp768
sg70
g662
sg63
(lp769
g56
(g77
g58
NtRp770
(dp771
g61
(dp772
g81
g82
ssg70
g766
sg63
(lp773
g401
asbag56
(g77
g58
NtRp774
(dp775
g61
(dp776
g88
g89
ssg70
g766
sg63
(lp777
S':'
asbag56
(g77
g58
NtRp778
(dp779
g61
(dp780
sg70
g766
sg63
(lp781
g56
(g57
g58
NtRp782
(dp783
g61
(dp784
g69
I3
ssg70
g778
sg63
(lp785
S''
asbasbasbag56
(g72
g58
NtRp786
(dp787
g61
(dp788
sg70
g662
sg63
(lp789
g56
(g77
g58
NtRp790
(dp791
g61
(dp792
g81
g82
ssg70
g786
sg63
(lp793
g422
asbag56
(g77
g58
NtRp794
(dp795
g61
(dp796
g88
g89
ssg70
g786
sg63
(lp797
S':'
asbag56
(g77
g58
NtRp798
(dp799
g61
(dp800
sg70
g786
sg63
(lp801
g56
(g57
g58
NtRp802
(dp803
g61
(dp804
g69
I3
ssg70
g798
sg63
(lp805
S''
asbasbasbag56
(g72
g58
NtRp806
(dp807
g61
(dp808
sg70
g662
sg63
(lp809
g56
(g77
g58
NtRp810
(dp811
g61
(dp812
g81
g82
ssg70
g806
sg63
(lp813
g443
asbag56
(g77
g58
NtRp814
(dp815
g61
(dp816
g88
g89
ssg70
g806
sg63
(lp817
S':'
asbag56
(g77
g58
NtRp818
(dp819
g61
(dp820
sg70
g806
sg63
(lp821
g56
(g57
g58
NtRp822
(dp823
g61
(dp824
g69
I3
ssg70
g818
sg63
(lp825
S''
asbasbasbasbasbasbasbasbasbasbasbag56
(g72
g58
NtRp826
(dp827
g61
(dp828
sg70
g66
sg63
(lp829
g56
(g77
g58
NtRp830
(dp831
g61
(dp832
g81
g82
ssg70
g826
sg63
(lp833
S'env'
p834
asbag56
(g77
g58
NtRp835
(dp836
g61
(dp837
g88
g89
ssg70
g826
sg63
(lp838
S':'
asbag56
(g77
g58
NtRp839
(dp840
g61
(dp841
sg70
g826
sg63
(lp842
g56
(g57
g58
NtRp843
(dp844
g61
(dp845
g69
I5
ssg70
g839
sg63
(lp846
g56
(g65
g58
NtRp847
(dp848
g61
(dp849
g69
I4
ssg70
Nsg63
(lp850
g56
(g72
g58
NtRp851
(dp852
g61
(dp853
sg70
g847
sg63
(lp854
g56
(g77
g58
NtRp855
(dp856
g61
(dp857
g81
g82
ssg70
g851
sg63
(lp858
S'app_folders'
p859
asbag56
(g77
g58
NtRp860
(dp861
g61
(dp862
g88
g89
ssg70
g851
sg63
(lp863
S':'
asbag56
(g77
g58
NtRp864
(dp865
g61
(dp866
sg70
g851
sg63
(lp867
g56
(g57
g58
NtRp868
(dp869
g61
(dp870
g69
I4
ssg70
g864
sg63
(lp871
S"set(['D:\\\\Workbench\\\\web2py_src\\\\applications\\\\tgtoolbox\\\\', 'D:\\\\Workbench\\\\web2py_src\\\\applications\\\\admin\\\\'])"
p872
asbasbasbag56
(g72
g58
NtRp873
(dp874
g61
(dp875
sg70
g847
sg63
(lp876
g56
(g77
g58
NtRp877
(dp878
g61
(dp879
g81
g82
ssg70
g873
sg63
(lp880
S'applications_parent'
p881
asbag56
(g77
g58
NtRp882
(dp883
g61
(dp884
g88
g89
ssg70
g873
sg63
(lp885
S':'
asbag56
(g77
g58
NtRp886
(dp887
g61
(dp888
sg70
g873
sg63
(lp889
g56
(g57
g58
NtRp890
(dp891
g61
(dp892
g69
I4
ssg70
g886
sg63
(lp893
S'D:\\Workbench\\web2py_src'
p894
asbasbasbag56
(g72
g58
NtRp895
(dp896
g61
(dp897
sg70
g847
sg63
(lp898
g56
(g77
g58
NtRp899
(dp900
g61
(dp901
g81
g82
ssg70
g895
sg63
(lp902
S'comspec'
p903
asbag56
(g77
g58
NtRp904
(dp905
g61
(dp906
g88
g89
ssg70
g895
sg63
(lp907
S':'
asbag56
(g77
g58
NtRp908
(dp909
g61
(dp910
sg70
g895
sg63
(lp911
g56
(g57
g58
NtRp912
(dp913
g61
(dp914
g69
I4
ssg70
g908
sg63
(lp915
S'C:\\Windows\\system32\\cmd.exe'
p916
asbasbasbag56
(g72
g58
NtRp917
(dp918
g61
(dp919
sg70
g847
sg63
(lp920
g56
(g77
g58
NtRp921
(dp922
g61
(dp923
g81
g82
ssg70
g917
sg63
(lp924
S'db_sessions'
p925
asbag56
(g77
g58
NtRp926
(dp927
g61
(dp928
g88
g89
ssg70
g917
sg63
(lp929
S':'
asbag56
(g77
g58
NtRp930
(dp931
g61
(dp932
sg70
g917
sg63
(lp933
g56
(g57
g58
NtRp934
(dp935
g61
(dp936
g69
I4
ssg70
g930
sg63
(lp937
S'set([])'
p938
asbasbasbag56
(g72
g58
NtRp939
(dp940
g61
(dp941
sg70
g847
sg63
(lp942
g56
(g77
g58
NtRp943
(dp944
g61
(dp945
g81
g82
ssg70
g939
sg63
(lp946
S'debugging'
p947
asbag56
(g77
g58
NtRp948
(dp949
g61
(dp950
g88
g89
ssg70
g939
sg63
(lp951
S':'
asbag56
(g77
g58
NtRp952
(dp953
g61
(dp954
sg70
g939
sg63
(lp955
g56
(g57
g58
NtRp956
(dp957
g61
(dp958
g69
I4
ssg70
g952
sg63
(lp959
g99
asbasbasbag56
(g72
g58
NtRp960
(dp961
g61
(dp962
sg70
g847
sg63
(lp963
g56
(g77
g58
NtRp964
(dp965
g61
(dp966
g81
g82
ssg70
g960
sg63
(lp967
S'document_root'
p968
asbag56
(g77
g58
NtRp969
(dp970
g61
(dp971
g88
g89
ssg70
g960
sg63
(lp972
S':'
asbag56
(g77
g58
NtRp973
(dp974
g61
(dp975
sg70
g960
sg63
(lp976
g56
(g57
g58
NtRp977
(dp978
g61
(dp979
g69
I4
ssg70
g973
sg63
(lp980
S'D:/Workbench/documentroot'
p981
asbasbasbag56
(g72
g58
NtRp982
(dp983
g61
(dp984
sg70
g847
sg63
(lp985
g56
(g77
g58
NtRp986
(dp987
g61
(dp988
g81
g82
ssg70
g982
sg63
(lp989
S'gateway_interface'
p990
asbag56
(g77
g58
NtRp991
(dp992
g61
(dp993
g88
g89
ssg70
g982
sg63
(lp994
S':'
asbag56
(g77
g58
NtRp995
(dp996
g61
(dp997
sg70
g982
sg63
(lp998
g56
(g57
g58
NtRp999
(dp1000
g61
(dp1001
g69
I4
ssg70
g995
sg63
(lp1002
S'CGI/1.1'
p1003
asbasbasbag56
(g72
g58
NtRp1004
(dp1005
g61
(dp1006
sg70
g847
sg63
(lp1007
g56
(g77
g58
NtRp1008
(dp1009
g61
(dp1010
g81
g82
ssg70
g1004
sg63
(lp1011
S'gluon_parent'
p1012
asbag56
(g77
g58
NtRp1013
(dp1014
g61
(dp1015
g88
g89
ssg70
g1004
sg63
(lp1016
S':'
asbag56
(g77
g58
NtRp1017
(dp1018
g61
(dp1019
sg70
g1004
sg63
(lp1020
g56
(g57
g58
NtRp1021
(dp1022
g61
(dp1023
g69
I4
ssg70
g1017
sg63
(lp1024
g894
asbasbasbag56
(g72
g58
NtRp1025
(dp1026
g61
(dp1027
sg70
g847
sg63
(lp1028
g56
(g77
g58
NtRp1029
(dp1030
g61
(dp1031
g81
g82
ssg70
g1025
sg63
(lp1032
S'http_accept'
p1033
asbag56
(g77
g58
NtRp1034
(dp1035
g61
(dp1036
g88
g89
ssg70
g1025
sg63
(lp1037
S':'
asbag56
(g77
g58
NtRp1038
(dp1039
g61
(dp1040
sg70
g1025
sg63
(lp1041
g56
(g57
g58
NtRp1042
(dp1043
g61
(dp1044
g69
I4
ssg70
g1038
sg63
(lp1045
S'text/html,application/xhtml+xml,application/xml;q=0.9,*/*;q=0.8'
p1046
asbasbasbag56
(g72
g58
NtRp1047
(dp1048
g61
(dp1049
sg70
g847
sg63
(lp1050
g56
(g77
g58
NtRp1051
(dp1052
g61
(dp1053
g81
g82
ssg70
g1047
sg63
(lp1054
S'http_accept_charset'
p1055
asbag56
(g77
g58
NtRp1056
(dp1057
g61
(dp1058
g88
g89
ssg70
g1047
sg63
(lp1059
S':'
asbag56
(g77
g58
NtRp1060
(dp1061
g61
(dp1062
sg70
g1047
sg63
(lp1063
g56
(g57
g58
NtRp1064
(dp1065
g61
(dp1066
g69
I4
ssg70
g1060
sg63
(lp1067
S'GBK,utf-8;q=0.7,*;q=0.3'
p1068
asbasbasbag56
(g72
g58
NtRp1069
(dp1070
g61
(dp1071
sg70
g847
sg63
(lp1072
g56
(g77
g58
NtRp1073
(dp1074
g61
(dp1075
g81
g82
ssg70
g1069
sg63
(lp1076
S'http_accept_encoding'
p1077
asbag56
(g77
g58
NtRp1078
(dp1079
g61
(dp1080
g88
g89
ssg70
g1069
sg63
(lp1081
S':'
asbag56
(g77
g58
NtRp1082
(dp1083
g61
(dp1084
sg70
g1069
sg63
(lp1085
g56
(g57
g58
NtRp1086
(dp1087
g61
(dp1088
g69
I4
ssg70
g1082
sg63
(lp1089
S'gzip,deflate,sdch'
p1090
asbasbasbag56
(g72
g58
NtRp1091
(dp1092
g61
(dp1093
sg70
g847
sg63
(lp1094
g56
(g77
g58
NtRp1095
(dp1096
g61
(dp1097
g81
g82
ssg70
g1091
sg63
(lp1098
S'http_accept_language'
p1099
asbag56
(g77
g58
NtRp1100
(dp1101
g61
(dp1102
g88
g89
ssg70
g1091
sg63
(lp1103
S':'
asbag56
(g77
g58
NtRp1104
(dp1105
g61
(dp1106
sg70
g1091
sg63
(lp1107
g56
(g57
g58
NtRp1108
(dp1109
g61
(dp1110
g69
I4
ssg70
g1104
sg63
(lp1111
S'zh-CN,zh;q=0.8'
p1112
asbasbasbag56
(g72
g58
NtRp1113
(dp1114
g61
(dp1115
sg70
g847
sg63
(lp1116
g56
(g77
g58
NtRp1117
(dp1118
g61
(dp1119
g81
g82
ssg70
g1113
sg63
(lp1120
S'http_cache_control'
p1121
asbag56
(g77
g58
NtRp1122
(dp1123
g61
(dp1124
g88
g89
ssg70
g1113
sg63
(lp1125
S':'
asbag56
(g77
g58
NtRp1126
(dp1127
g61
(dp1128
sg70
g1113
sg63
(lp1129
g56
(g57
g58
NtRp1130
(dp1131
g61
(dp1132
g69
I4
ssg70
g1126
sg63
(lp1133
S'max-age=0'
p1134
asbasbasbag56
(g72
g58
NtRp1135
(dp1136
g61
(dp1137
sg70
g847
sg63
(lp1138
g56
(g77
g58
NtRp1139
(dp1140
g61
(dp1141
g81
g82
ssg70
g1135
sg63
(lp1142
S'http_connection'
p1143
asbag56
(g77
g58
NtRp1144
(dp1145
g61
(dp1146
g88
g89
ssg70
g1135
sg63
(lp1147
S':'
asbag56
(g77
g58
NtRp1148
(dp1149
g61
(dp1150
sg70
g1135
sg63
(lp1151
g56
(g57
g58
NtRp1152
(dp1153
g61
(dp1154
g69
I4
ssg70
g1148
sg63
(lp1155
S'keep-alive'
p1156
asbasbasbag56
(g72
g58
NtRp1157
(dp1158
g61
(dp1159
sg70
g847
sg63
(lp1160
g56
(g77
g58
NtRp1161
(dp1162
g61
(dp1163
g81
g82
ssg70
g1157
sg63
(lp1164
S'http_cookie'
p1165
asbag56
(g77
g58
NtRp1166
(dp1167
g61
(dp1168
g88
g89
ssg70
g1157
sg63
(lp1169
S':'
asbag56
(g77
g58
NtRp1170
(dp1171
g61
(dp1172
sg70
g1157
sg63
(lp1173
g56
(g57
g58
NtRp1174
(dp1175
g61
(dp1176
g69
I4
ssg70
g1170
sg63
(lp1177
S'session_id_welcome=127.0.0.1-9f5ba5e1-fcac-4ea1-a558-fa895e87614d; session_id_tgtoolbox=127.0.0.1-e7d60a3d-b41b-498d-85dc-9c2bc5a304a1; session_id_admin=127.0.0.1-1aec4a0c-943f-4e5e-8f75-13d106ec6506'
p1178
asbasbasbag56
(g72
g58
NtRp1179
(dp1180
g61
(dp1181
sg70
g847
sg63
(lp1182
g56
(g77
g58
NtRp1183
(dp1184
g61
(dp1185
g81
g82
ssg70
g1179
sg63
(lp1186
S'http_host'
p1187
asbag56
(g77
g58
NtRp1188
(dp1189
g61
(dp1190
g88
g89
ssg70
g1179
sg63
(lp1191
S':'
asbag56
(g77
g58
NtRp1192
(dp1193
g61
(dp1194
sg70
g1179
sg63
(lp1195
g56
(g57
g58
NtRp1196
(dp1197
g61
(dp1198
g69
I4
ssg70
g1192
sg63
(lp1199
S'localhost'
p1200
asbasbasbag56
(g72
g58
NtRp1201
(dp1202
g61
(dp1203
sg70
g847
sg63
(lp1204
g56
(g77
g58
NtRp1205
(dp1206
g61
(dp1207
g81
g82
ssg70
g1201
sg63
(lp1208
S'http_referer'
p1209
asbag56
(g77
g58
NtRp1210
(dp1211
g61
(dp1212
g88
g89
ssg70
g1201
sg63
(lp1213
S':'
asbag56
(g77
g58
NtRp1214
(dp1215
g61
(dp1216
sg70
g1201
sg63
(lp1217
g56
(g57
g58
NtRp1218
(dp1219
g61
(dp1220
g69
I4
ssg70
g1214
sg63
(lp1221
S'http://localhost/tgtoolbox/api/getCommonGroupon'
p1222
asbasbasbag56
(g72
g58
NtRp1223
(dp1224
g61
(dp1225
sg70
g847
sg63
(lp1226
g56
(g77
g58
NtRp1227
(dp1228
g61
(dp1229
g81
g82
ssg70
g1223
sg63
(lp1230
S'http_user_agent'
p1231
asbag56
(g77
g58
NtRp1232
(dp1233
g61
(dp1234
g88
g89
ssg70
g1223
sg63
(lp1235
S':'
asbag56
(g77
g58
NtRp1236
(dp1237
g61
(dp1238
sg70
g1223
sg63
(lp1239
g56
(g57
g58
NtRp1240
(dp1241
g61
(dp1242
g69
I4
ssg70
g1236
sg63
(lp1243
S'Mozilla/5.0 (Windows NT 6.1) AppleWebKit/535.7 (KHTML, like Gecko) Chrome/16.0.912.75 Safari/535.7'
p1244
asbasbasbag56
(g72
g58
NtRp1245
(dp1246
g61
(dp1247
sg70
g847
sg63
(lp1248
g56
(g77
g58
NtRp1249
(dp1250
g61
(dp1251
g81
g82
ssg70
g1245
sg63
(lp1252
S'is_jython'
p1253
asbag56
(g77
g58
NtRp1254
(dp1255
g61
(dp1256
g88
g89
ssg70
g1245
sg63
(lp1257
S':'
asbag56
(g77
g58
NtRp1258
(dp1259
g61
(dp1260
sg70
g1245
sg63
(lp1261
g56
(g57
g58
NtRp1262
(dp1263
g61
(dp1264
g69
I4
ssg70
g1258
sg63
(lp1265
g99
asbasbasbag56
(g72
g58
NtRp1266
(dp1267
g61
(dp1268
sg70
g847
sg63
(lp1269
g56
(g77
g58
NtRp1270
(dp1271
g61
(dp1272
g81
g82
ssg70
g1266
sg63
(lp1273
S'mod_wsgi_application_group'
p1274
asbag56
(g77
g58
NtRp1275
(dp1276
g61
(dp1277
g88
g89
ssg70
g1266
sg63
(lp1278
S':'
asbag56
(g77
g58
NtRp1279
(dp1280
g61
(dp1281
sg70
g1266
sg63
(lp1282
g56
(g57
g58
NtRp1283
(dp1284
g61
(dp1285
g69
I4
ssg70
g1279
sg63
(lp1286
S'XIAOFTANG-NB.tencent.com|'
p1287
asbasbasbag56
(g72
g58
NtRp1288
(dp1289
g61
(dp1290
sg70
g847
sg63
(lp1291
g56
(g77
g58
NtRp1292
(dp1293
g61
(dp1294
g81
g82
ssg70
g1288
sg63
(lp1295
S'mod_wsgi_callable_object'
p1296
asbag56
(g77
g58
NtRp1297
(dp1298
g61
(dp1299
g88
g89
ssg70
g1288
sg63
(lp1300
S':'
asbag56
(g77
g58
NtRp1301
(dp1302
g61
(dp1303
sg70
g1288
sg63
(lp1304
g56
(g57
g58
NtRp1305
(dp1306
g61
(dp1307
g69
I4
ssg70
g1301
sg63
(lp1308
S'application'
p1309
asbasbasbag56
(g72
g58
NtRp1310
(dp1311
g61
(dp1312
sg70
g847
sg63
(lp1313
g56
(g77
g58
NtRp1314
(dp1315
g61
(dp1316
g81
g82
ssg70
g1310
sg63
(lp1317
S'mod_wsgi_handler_script'
p1318
asbag56
(g77
g58
NtRp1319
(dp1320
g61
(dp1321
g88
g89
ssg70
g1310
sg63
(lp1322
S':'
asbag56
(g77
g58
NtRp1323
(dp1324
g61
(dp1325
sg70
g1310
sg63
(lp1326
g56
(g57
g58
NtRp1327
(dp1328
g61
(dp1329
g69
I4
ssg70
g1323
sg63
(lp1330
S''
asbasbasbag56
(g72
g58
NtRp1331
(dp1332
g61
(dp1333
sg70
g847
sg63
(lp1334
g56
(g77
g58
NtRp1335
(dp1336
g61
(dp1337
g81
g82
ssg70
g1331
sg63
(lp1338
S'mod_wsgi_input_chunked'
p1339
asbag56
(g77
g58
NtRp1340
(dp1341
g61
(dp1342
g88
g89
ssg70
g1331
sg63
(lp1343
S':'
asbag56
(g77
g58
NtRp1344
(dp1345
g61
(dp1346
sg70
g1331
sg63
(lp1347
g56
(g57
g58
NtRp1348
(dp1349
g61
(dp1350
g69
I4
ssg70
g1344
sg63
(lp1351
S'0'
asbasbasbag56
(g72
g58
NtRp1352
(dp1353
g61
(dp1354
sg70
g847
sg63
(lp1355
g56
(g77
g58
NtRp1356
(dp1357
g61
(dp1358
g81
g82
ssg70
g1352
sg63
(lp1359
S'mod_wsgi_process_group'
p1360
asbag56
(g77
g58
NtRp1361
(dp1362
g61
(dp1363
g88
g89
ssg70
g1352
sg63
(lp1364
S':'
asbag56
(g77
g58
NtRp1365
(dp1366
g61
(dp1367
sg70
g1352
sg63
(lp1368
g56
(g57
g58
NtRp1369
(dp1370
g61
(dp1371
g69
I4
ssg70
g1365
sg63
(lp1372
S''
asbasbasbag56
(g72
g58
NtRp1373
(dp1374
g61
(dp1375
sg70
g847
sg63
(lp1376
g56
(g77
g58
NtRp1377
(dp1378
g61
(dp1379
g81
g82
ssg70
g1373
sg63
(lp1380
S'mod_wsgi_request_handler'
p1381
asbag56
(g77
g58
NtRp1382
(dp1383
g61
(dp1384
g88
g89
ssg70
g1373
sg63
(lp1385
S':'
asbag56
(g77
g58
NtRp1386
(dp1387
g61
(dp1388
sg70
g1373
sg63
(lp1389
g56
(g57
g58
NtRp1390
(dp1391
g61
(dp1392
g69
I4
ssg70
g1386
sg63
(lp1393
S'wsgi-script'
p1394
asbasbasbag56
(g72
g58
NtRp1395
(dp1396
g61
(dp1397
sg70
g847
sg63
(lp1398
g56
(g77
g58
NtRp1399
(dp1400
g61
(dp1401
g81
g82
ssg70
g1395
sg63
(lp1402
S'mod_wsgi_script_reloading'
p1403
asbag56
(g77
g58
NtRp1404
(dp1405
g61
(dp1406
g88
g89
ssg70
g1395
sg63
(lp1407
S':'
asbag56
(g77
g58
NtRp1408
(dp1409
g61
(dp1410
sg70
g1395
sg63
(lp1411
g56
(g57
g58
NtRp1412
(dp1413
g61
(dp1414
g69
I4
ssg70
g1408
sg63
(lp1415
S'1'
asbasbasbag56
(g72
g58
NtRp1416
(dp1417
g61
(dp1418
sg70
g847
sg63
(lp1419
g56
(g77
g58
NtRp1420
(dp1421
g61
(dp1422
g81
g82
ssg70
g1416
sg63
(lp1423
S'mod_wsgi_version'
p1424
asbag56
(g77
g58
NtRp1425
(dp1426
g61
(dp1427
g88
g89
ssg70
g1416
sg63
(lp1428
S':'
asbag56
(g77
g58
NtRp1429
(dp1430
g61
(dp1431
sg70
g1416
sg63
(lp1432
g56
(g57
g58
NtRp1433
(dp1434
g61
(dp1435
g69
I4
ssg70
g1429
sg63
(lp1436
g56
(g65
g58
NtRp1437
(dp1438
g61
(dp1439
g69
I3
ssg70
Nsg63
(lp1440
g56
(g72
g58
NtRp1441
(dp1442
g61
(dp1443
sg70
g1437
sg63
(lp1444
g56
(g77
g58
NtRp1445
(dp1446
g61
(dp1447
sg70
g1441
sg63
(lp1448
g56
(g57
g58
NtRp1449
(dp1450
g61
(dp1451
g69
I3
ssg70
g1445
sg63
(lp1452
S'3'
asbasbasbag56
(g72
g58
NtRp1453
(dp1454
g61
(dp1455
sg70
g1437
sg63
(lp1456
g56
(g77
g58
NtRp1457
(dp1458
g61
(dp1459
sg70
g1453
sg63
(lp1460
g56
(g57
g58
NtRp1461
(dp1462
g61
(dp1463
g69
I3
ssg70
g1457
sg63
(lp1464
S'3'
asbasbasbasbasbasbasbag56
(g72
g58
NtRp1465
(dp1466
g61
(dp1467
sg70
g847
sg63
(lp1468
g56
(g77
g58
NtRp1469
(dp1470
g61
(dp1471
g81
g82
ssg70
g1465
sg63
(lp1472
S'path_info'
p1473
asbag56
(g77
g58
NtRp1474
(dp1475
g61
(dp1476
g88
g89
ssg70
g1465
sg63
(lp1477
S':'
asbag56
(g77
g58
NtRp1478
(dp1479
g61
(dp1480
sg70
g1465
sg63
(lp1481
g56
(g57
g58
NtRp1482
(dp1483
g61
(dp1484
g69
I4
ssg70
g1478
sg63
(lp1485
S'/admin/default/ticket/tgtoolbox/127.0.0.1.2012-01-08.19-36-50.9fad4d4e-ffba-4fe6-a732-e6f1248cde23'
p1486
asbasbasbag56
(g72
g58
NtRp1487
(dp1488
g61
(dp1489
sg70
g847
sg63
(lp1490
g56
(g77
g58
NtRp1491
(dp1492
g61
(dp1493
g81
g82
ssg70
g1487
sg63
(lp1494
S'path_translated'
p1495
asbag56
(g77
g58
NtRp1496
(dp1497
g61
(dp1498
g88
g89
ssg70
g1487
sg63
(lp1499
S':'
asbag56
(g77
g58
NtRp1500
(dp1501
g61
(dp1502
sg70
g1487
sg63
(lp1503
g56
(g57
g58
NtRp1504
(dp1505
g61
(dp1506
g69
I4
ssg70
g1500
sg63
(lp1507
S'D:\\Workbench\\web2py_src\\wsgihandler.py\\admin\\default\\ticket\\tgtoolbox\\127.0.0.1.2012-01-08.19-36-50.9fad4d4e-ffba-4fe6-a732-e6f1248cde23'
p1508
asbasbasbag56
(g72
g58
NtRp1509
(dp1510
g61
(dp1511
sg70
g847
sg63
(lp1512
g56
(g77
g58
NtRp1513
(dp1514
g61
(dp1515
g81
g82
ssg70
g1509
sg63
(lp1516
S'pathext'
p1517
asbag56
(g77
g58
NtRp1518
(dp1519
g61
(dp1520
g88
g89
ssg70
g1509
sg63
(lp1521
S':'
asbag56
(g77
g58
NtRp1522
(dp1523
g61
(dp1524
sg70
g1509
sg63
(lp1525
g56
(g57
g58
NtRp1526
(dp1527
g61
(dp1528
g69
I4
ssg70
g1522
sg63
(lp1529
S'.COM;.EXE;.BAT;.CMD;.VBS;.VBE;.JS;.JSE;.WSF;.WSH;.MSC;.py;.pyw'
p1530
asbasbasbag56
(g72
g58
NtRp1531
(dp1532
g61
(dp1533
sg70
g847
sg63
(lp1534
g56
(g77
g58
NtRp1535
(dp1536
g61
(dp1537
g81
g82
ssg70
g1531
sg63
(lp1538
S'query_string'
p1539
asbag56
(g77
g58
NtRp1540
(dp1541
g61
(dp1542
g88
g89
ssg70
g1531
sg63
(lp1543
S':'
asbag56
(g77
g58
NtRp1544
(dp1545
g61
(dp1546
sg70
g1531
sg63
(lp1547
g56
(g57
g58
NtRp1548
(dp1549
g61
(dp1550
g69
I4
ssg70
g1544
sg63
(lp1551
S''
asbasbasbag56
(g72
g58
NtRp1552
(dp1553
g61
(dp1554
sg70
g847
sg63
(lp1555
g56
(g77
g58
NtRp1556
(dp1557
g61
(dp1558
g81
g82
ssg70
g1552
sg63
(lp1559
S'remote_addr'
p1560
asbag56
(g77
g58
NtRp1561
(dp1562
g61
(dp1563
g88
g89
ssg70
g1552
sg63
(lp1564
S':'
asbag56
(g77
g58
NtRp1565
(dp1566
g61
(dp1567
sg70
g1552
sg63
(lp1568
g56
(g57
g58
NtRp1569
(dp1570
g61
(dp1571
g69
I4
ssg70
g1565
sg63
(lp1572
g215
asbasbasbag56
(g72
g58
NtRp1573
(dp1574
g61
(dp1575
sg70
g847
sg63
(lp1576
g56
(g77
g58
NtRp1577
(dp1578
g61
(dp1579
g81
g82
ssg70
g1573
sg63
(lp1580
S'remote_port'
p1581
asbag56
(g77
g58
NtRp1582
(dp1583
g61
(dp1584
g88
g89
ssg70
g1573
sg63
(lp1585
S':'
asbag56
(g77
g58
NtRp1586
(dp1587
g61
(dp1588
sg70
g1573
sg63
(lp1589
g56
(g57
g58
NtRp1590
(dp1591
g61
(dp1592
g69
I4
ssg70
g1586
sg63
(lp1593
S'4063'
p1594
asbasbasbag56
(g72
g58
NtRp1595
(dp1596
g61
(dp1597
sg70
g847
sg63
(lp1598
g56
(g77
g58
NtRp1599
(dp1600
g61
(dp1601
g81
g82
ssg70
g1595
sg63
(lp1602
S'request_method'
p1603
asbag56
(g77
g58
NtRp1604
(dp1605
g61
(dp1606
g88
g89
ssg70
g1595
sg63
(lp1607
S':'
asbag56
(g77
g58
NtRp1608
(dp1609
g61
(dp1610
sg70
g1595
sg63
(lp1611
g56
(g57
g58
NtRp1612
(dp1613
g61
(dp1614
g69
I4
ssg70
g1608
sg63
(lp1615
S'GET'
p1616
asbasbasbag56
(g72
g58
NtRp1617
(dp1618
g61
(dp1619
sg70
g847
sg63
(lp1620
g56
(g77
g58
NtRp1621
(dp1622
g61
(dp1623
g81
g82
ssg70
g1617
sg63
(lp1624
S'request_uri'
p1625
asbag56
(g77
g58
NtRp1626
(dp1627
g61
(dp1628
g88
g89
ssg70
g1617
sg63
(lp1629
S':'
asbag56
(g77
g58
NtRp1630
(dp1631
g61
(dp1632
sg70
g1617
sg63
(lp1633
g56
(g57
g58
NtRp1634
(dp1635
g61
(dp1636
g69
I4
ssg70
g1630
sg63
(lp1637
S'/admin/default/ticket/tgtoolbox/127.0.0.1.2012-01-08.19-36-50.9fad4d4e-ffba-4fe6-a732-e6f1248cde23'
p1638
asbasbasbag56
(g72
g58
NtRp1639
(dp1640
g61
(dp1641
sg70
g847
sg63
(lp1642
g56
(g77
g58
NtRp1643
(dp1644
g61
(dp1645
g81
g82
ssg70
g1639
sg63
(lp1646
S'script_filename'
p1647
asbag56
(g77
g58
NtRp1648
(dp1649
g61
(dp1650
g88
g89
ssg70
g1639
sg63
(lp1651
S':'
asbag56
(g77
g58
NtRp1652
(dp1653
g61
(dp1654
sg70
g1639
sg63
(lp1655
g56
(g57
g58
NtRp1656
(dp1657
g61
(dp1658
g69
I4
ssg70
g1652
sg63
(lp1659
S'D:/Workbench/web2py_src/wsgihandler.py'
p1660
asbasbasbag56
(g72
g58
NtRp1661
(dp1662
g61
(dp1663
sg70
g847
sg63
(lp1664
g56
(g77
g58
NtRp1665
(dp1666
g61
(dp1667
g81
g82
ssg70
g1661
sg63
(lp1668
S'script_name'
p1669
asbag56
(g77
g58
NtRp1670
(dp1671
g61
(dp1672
g88
g89
ssg70
g1661
sg63
(lp1673
S':'
asbag56
(g77
g58
NtRp1674
(dp1675
g61
(dp1676
sg70
g1661
sg63
(lp1677
g56
(g57
g58
NtRp1678
(dp1679
g61
(dp1680
g69
I4
ssg70
g1674
sg63
(lp1681
S''
asbasbasbag56
(g72
g58
NtRp1682
(dp1683
g61
(dp1684
sg70
g847
sg63
(lp1685
g56
(g77
g58
NtRp1686
(dp1687
g61
(dp1688
g81
g82
ssg70
g1682
sg63
(lp1689
S'server_addr'
p1690
asbag56
(g77
g58
NtRp1691
(dp1692
g61
(dp1693
g88
g89
ssg70
g1682
sg63
(lp1694
S':'
asbag56
(g77
g58
NtRp1695
(dp1696
g61
(dp1697
sg70
g1682
sg63
(lp1698
g56
(g57
g58
NtRp1699
(dp1700
g61
(dp1701
g69
I4
ssg70
g1695
sg63
(lp1702
S'127.0.0.1'
p1703
asbasbasbag56
(g72
g58
NtRp1704
(dp1705
g61
(dp1706
sg70
g847
sg63
(lp1707
g56
(g77
g58
NtRp1708
(dp1709
g61
(dp1710
g81
g82
ssg70
g1704
sg63
(lp1711
S'server_admin'
p1712
asbag56
(g77
g58
NtRp1713
(dp1714
g61
(dp1715
g88
g89
ssg70
g1704
sg63
(lp1716
S':'
asbag56
(g77
g58
NtRp1717
(dp1718
g61
(dp1719
sg70
g1704
sg63
(lp1720
g56
(g57
g58
NtRp1721
(dp1722
g61
(dp1723
g69
I4
ssg70
g1717
sg63
(lp1724
S'admin@tencent.com'
p1725
asbasbasbag56
(g72
g58
NtRp1726
(dp1727
g61
(dp1728
sg70
g847
sg63
(lp1729
g56
(g77
g58
NtRp1730
(dp1731
g61
(dp1732
g81
g82
ssg70
g1726
sg63
(lp1733
S'server_name'
p1734
asbag56
(g77
g58
NtRp1735
(dp1736
g61
(dp1737
g88
g89
ssg70
g1726
sg63
(lp1738
S':'
asbag56
(g77
g58
NtRp1739
(dp1740
g61
(dp1741
sg70
g1726
sg63
(lp1742
g56
(g57
g58
NtRp1743
(dp1744
g61
(dp1745
g69
I4
ssg70
g1739
sg63
(lp1746
S'localhost'
p1747
asbasbasbag56
(g72
g58
NtRp1748
(dp1749
g61
(dp1750
sg70
g847
sg63
(lp1751
g56
(g77
g58
NtRp1752
(dp1753
g61
(dp1754
g81
g82
ssg70
g1748
sg63
(lp1755
S'server_port'
p1756
asbag56
(g77
g58
NtRp1757
(dp1758
g61
(dp1759
g88
g89
ssg70
g1748
sg63
(lp1760
S':'
asbag56
(g77
g58
NtRp1761
(dp1762
g61
(dp1763
sg70
g1748
sg63
(lp1764
g56
(g57
g58
NtRp1765
(dp1766
g61
(dp1767
g69
I4
ssg70
g1761
sg63
(lp1768
S'80'
p1769
asbasbasbag56
(g72
g58
NtRp1770
(dp1771
g61
(dp1772
sg70
g847
sg63
(lp1773
g56
(g77
g58
NtRp1774
(dp1775
g61
(dp1776
g81
g82
ssg70
g1770
sg63
(lp1777
S'server_protocol'
p1778
asbag56
(g77
g58
NtRp1779
(dp1780
g61
(dp1781
g88
g89
ssg70
g1770
sg63
(lp1782
S':'
asbag56
(g77
g58
NtRp1783
(dp1784
g61
(dp1785
sg70
g1770
sg63
(lp1786
g56
(g57
g58
NtRp1787
(dp1788
g61
(dp1789
g69
I4
ssg70
g1783
sg63
(lp1790
S'HTTP/1.1'
p1791
asbasbasbag56
(g72
g58
NtRp1792
(dp1793
g61
(dp1794
sg70
g847
sg63
(lp1795
g56
(g77
g58
NtRp1796
(dp1797
g61
(dp1798
g81
g82
ssg70
g1792
sg63
(lp1799
S'server_signature'
p1800
asbag56
(g77
g58
NtRp1801
(dp1802
g61
(dp1803
g88
g89
ssg70
g1792
sg63
(lp1804
S':'
asbag56
(g77
g58
NtRp1805
(dp1806
g61
(dp1807
sg70
g1792
sg63
(lp1808
g56
(g57
g58
NtRp1809
(dp1810
g61
(dp1811
g69
I4
ssg70
g1805
sg63
(lp1812
S''
asbasbasbag56
(g72
g58
NtRp1813
(dp1814
g61
(dp1815
sg70
g847
sg63
(lp1816
g56
(g77
g58
NtRp1817
(dp1818
g61
(dp1819
g81
g82
ssg70
g1813
sg63
(lp1820
S'server_software'
p1821
asbag56
(g77
g58
NtRp1822
(dp1823
g61
(dp1824
g88
g89
ssg70
g1813
sg63
(lp1825
S':'
asbag56
(g77
g58
NtRp1826
(dp1827
g61
(dp1828
sg70
g1813
sg63
(lp1829
g56
(g57
g58
NtRp1830
(dp1831
g61
(dp1832
g69
I4
ssg70
g1826
sg63
(lp1833
S'Apache/2.2.21 (Win32) PHP/5.2.17 mod_wsgi/3.3 Python/2.7.2'
p1834
asbasbasbag56
(g72
g58
NtRp1835
(dp1836
g61
(dp1837
sg70
g847
sg63
(lp1838
g56
(g77
g58
NtRp1839
(dp1840
g61
(dp1841
g81
g82
ssg70
g1835
sg63
(lp1842
S'systemroot'
p1843
asbag56
(g77
g58
NtRp1844
(dp1845
g61
(dp1846
g88
g89
ssg70
g1835
sg63
(lp1847
S':'
asbag56
(g77
g58
NtRp1848
(dp1849
g61
(dp1850
sg70
g1835
sg63
(lp1851
g56
(g57
g58
NtRp1852
(dp1853
g61
(dp1854
g69
I4
ssg70
g1848
sg63
(lp1855
S'C:\\Windows'
p1856
asbasbasbag56
(g72
g58
NtRp1857
(dp1858
g61
(dp1859
sg70
g847
sg63
(lp1860
g56
(g77
g58
NtRp1861
(dp1862
g61
(dp1863
g81
g82
ssg70
g1857
sg63
(lp1864
S'web2py_path'
p1865
asbag56
(g77
g58
NtRp1866
(dp1867
g61
(dp1868
g88
g89
ssg70
g1857
sg63
(lp1869
S':'
asbag56
(g77
g58
NtRp1870
(dp1871
g61
(dp1872
sg70
g1857
sg63
(lp1873
g56
(g57
g58
NtRp1874
(dp1875
g61
(dp1876
g69
I4
ssg70
g1870
sg63
(lp1877
g894
asbasbasbag56
(g72
g58
NtRp1878
(dp1879
g61
(dp1880
sg70
g847
sg63
(lp1881
g56
(g77
g58
NtRp1882
(dp1883
g61
(dp1884
g81
g82
ssg70
g1878
sg63
(lp1885
S'web2py_version'
p1886
asbag56
(g77
g58
NtRp1887
(dp1888
g61
(dp1889
g88
g89
ssg70
g1878
sg63
(lp1890
S':'
asbag56
(g77
g58
NtRp1891
(dp1892
g61
(dp1893
sg70
g1878
sg63
(lp1894
g56
(g57
g58
NtRp1895
(dp1896
g61
(dp1897
g69
I4
ssg70
g1891
sg63
(lp1898
g56
(g65
g58
NtRp1899
(dp1900
g61
(dp1901
g69
I3
ssg70
Nsg63
(lp1902
g56
(g72
g58
NtRp1903
(dp1904
g61
(dp1905
sg70
g1899
sg63
(lp1906
g56
(g77
g58
NtRp1907
(dp1908
g61
(dp1909
sg70
g1903
sg63
(lp1910
g56
(g57
g58
NtRp1911
(dp1912
g61
(dp1913
g69
I3
ssg70
g1907
sg63
(lp1914
S'1'
asbasbasbag56
(g72
g58
NtRp1915
(dp1916
g61
(dp1917
sg70
g1899
sg63
(lp1918
g56
(g77
g58
NtRp1919
(dp1920
g61
(dp1921
sg70
g1915
sg63
(lp1922
g56
(g57
g58
NtRp1923
(dp1924
g61
(dp1925
g69
I3
ssg70
g1919
sg63
(lp1926
S'99'
p1927
asbasbasbag56
(g72
g58
NtRp1928
(dp1929
g61
(dp1930
sg70
g1899
sg63
(lp1931
g56
(g77
g58
NtRp1932
(dp1933
g61
(dp1934
sg70
g1928
sg63
(lp1935
g56
(g57
g58
NtRp1936
(dp1937
g61
(dp1938
g69
I3
ssg70
g1932
sg63
(lp1939
S'2'
asbasbasbag56
(g72
g58
NtRp1940
(dp1941
g61
(dp1942
sg70
g1899
sg63
(lp1943
g56
(g77
g58
NtRp1944
(dp1945
g61
(dp1946
sg70
g1940
sg63
(lp1947
g56
(g57
g58
NtRp1948
(dp1949
g61
(dp1950
g69
I3
ssg70
g1944
sg63
(lp1951
S'datetime.datetime(2011, 9, 26, 6, 55, 33)'
p1952
asbasbasbag56
(g72
g58
NtRp1953
(dp1954
g61
(dp1955
sg70
g1899
sg63
(lp1956
g56
(g77
g58
NtRp1957
(dp1958
g61
(dp1959
sg70
g1953
sg63
(lp1960
g56
(g57
g58
NtRp1961
(dp1962
g61
(dp1963
g69
I3
ssg70
g1957
sg63
(lp1964
S'stable'
p1965
asbasbasbasbasbasbasbag56
(g72
g58
NtRp1966
(dp1967
g61
(dp1968
sg70
g847
sg63
(lp1969
g56
(g77
g58
NtRp1970
(dp1971
g61
(dp1972
g81
g82
ssg70
g1966
sg63
(lp1973
S'windir'
p1974
asbag56
(g77
g58
NtRp1975
(dp1976
g61
(dp1977
g88
g89
ssg70
g1966
sg63
(lp1978
S':'
asbag56
(g77
g58
NtRp1979
(dp1980
g61
(dp1981
sg70
g1966
sg63
(lp1982
g56
(g57
g58
NtRp1983
(dp1984
g61
(dp1985
g69
I4
ssg70
g1979
sg63
(lp1986
S'C:\\Windows'
p1987
asbasbasbag56
(g72
g58
NtRp1988
(dp1989
g61
(dp1990
sg70
g847
sg63
(lp1991
g56
(g77
g58
NtRp1992
(dp1993
g61
(dp1994
g81
g82
ssg70
g1988
sg63
(lp1995
S'wsgi_errors'
p1996
asbag56
(g77
g58
NtRp1997
(dp1998
g61
(dp1999
g88
g89
ssg70
g1988
sg63
(lp2000
S':'
asbag56
(g77
g58
NtRp2001
(dp2002
g61
(dp2003
sg70
g1988
sg63
(lp2004
g56
(g57
g58
NtRp2005
(dp2006
g61
(dp2007
g69
I4
ssg70
g2001
sg63
(lp2008
S'<mod_wsgi.Log object at 0x03DE04A8>'
p2009
asbasbasbag56
(g72
g58
NtRp2010
(dp2011
g61
(dp2012
sg70
g847
sg63
(lp2013
g56
(g77
g58
NtRp2014
(dp2015
g61
(dp2016
g81
g82
ssg70
g2010
sg63
(lp2017
S'wsgi_file_wrapper'
p2018
asbag56
(g77
g58
NtRp2019
(dp2020
g61
(dp2021
g88
g89
ssg70
g2010
sg63
(lp2022
S':'
asbag56
(g77
g58
NtRp2023
(dp2024
g61
(dp2025
sg70
g2010
sg63
(lp2026
g56
(g57
g58
NtRp2027
(dp2028
g61
(dp2029
g69
I4
ssg70
g2023
sg63
(lp2030
S'<built-in method file_wrapper of mod_wsgi.Adapter object at 0x03C889B0>'
p2031
asbasbasbag56
(g72
g58
NtRp2032
(dp2033
g61
(dp2034
sg70
g847
sg63
(lp2035
g56
(g77
g58
NtRp2036
(dp2037
g61
(dp2038
g81
g82
ssg70
g2032
sg63
(lp2039
S'wsgi_input'
p2040
asbag56
(g77
g58
NtRp2041
(dp2042
g61
(dp2043
g88
g89
ssg70
g2032
sg63
(lp2044
S':'
asbag56
(g77
g58
NtRp2045
(dp2046
g61
(dp2047
sg70
g2032
sg63
(lp2048
g56
(g57
g58
NtRp2049
(dp2050
g61
(dp2051
g69
I4
ssg70
g2045
sg63
(lp2052
S'<mod_wsgi.Input object at 0x03C595C0>'
p2053
asbasbasbag56
(g72
g58
NtRp2054
(dp2055
g61
(dp2056
sg70
g847
sg63
(lp2057
g56
(g77
g58
NtRp2058
(dp2059
g61
(dp2060
g81
g82
ssg70
g2054
sg63
(lp2061
S'wsgi_multiprocess'
p2062
asbag56
(g77
g58
NtRp2063
(dp2064
g61
(dp2065
g88
g89
ssg70
g2054
sg63
(lp2066
S':'
asbag56
(g77
g58
NtRp2067
(dp2068
g61
(dp2069
sg70
g2054
sg63
(lp2070
g56
(g57
g58
NtRp2071
(dp2072
g61
(dp2073
g69
I4
ssg70
g2067
sg63
(lp2074
g99
asbasbasbag56
(g72
g58
NtRp2075
(dp2076
g61
(dp2077
sg70
g847
sg63
(lp2078
g56
(g77
g58
NtRp2079
(dp2080
g61
(dp2081
g81
g82
ssg70
g2075
sg63
(lp2082
S'wsgi_multithread'
p2083
asbag56
(g77
g58
NtRp2084
(dp2085
g61
(dp2086
g88
g89
ssg70
g2075
sg63
(lp2087
S':'
asbag56
(g77
g58
NtRp2088
(dp2089
g61
(dp2090
sg70
g2075
sg63
(lp2091
g56
(g57
g58
NtRp2092
(dp2093
g61
(dp2094
g69
I4
ssg70
g2088
sg63
(lp2095
S'True'
p2096
asbasbasbag56
(g72
g58
NtRp2097
(dp2098
g61
(dp2099
sg70
g847
sg63
(lp2100
g56
(g77
g58
NtRp2101
(dp2102
g61
(dp2103
g81
g82
ssg70
g2097
sg63
(lp2104
S'wsgi_run_once'
p2105
asbag56
(g77
g58
NtRp2106
(dp2107
g61
(dp2108
g88
g89
ssg70
g2097
sg63
(lp2109
S':'
asbag56
(g77
g58
NtRp2110
(dp2111
g61
(dp2112
sg70
g2097
sg63
(lp2113
g56
(g57
g58
NtRp2114
(dp2115
g61
(dp2116
g69
I4
ssg70
g2110
sg63
(lp2117
g99
asbasbasbag56
(g72
g58
NtRp2118
(dp2119
g61
(dp2120
sg70
g847
sg63
(lp2121
g56
(g77
g58
NtRp2122
(dp2123
g61
(dp2124
g81
g82
ssg70
g2118
sg63
(lp2125
S'wsgi_url_scheme'
p2126
asbag56
(g77
g58
NtRp2127
(dp2128
g61
(dp2129
g88
g89
ssg70
g2118
sg63
(lp2130
S':'
asbag56
(g77
g58
NtRp2131
(dp2132
g61
(dp2133
sg70
g2118
sg63
(lp2134
g56
(g57
g58
NtRp2135
(dp2136
g61
(dp2137
g69
I4
ssg70
g2131
sg63
(lp2138
S'http'
p2139
asbasbasbag56
(g72
g58
NtRp2140
(dp2141
g61
(dp2142
sg70
g847
sg63
(lp2143
g56
(g77
g58
NtRp2144
(dp2145
g61
(dp2146
g81
g82
ssg70
g2140
sg63
(lp2147
S'wsgi_version'
p2148
asbag56
(g77
g58
NtRp2149
(dp2150
g61
(dp2151
g88
g89
ssg70
g2140
sg63
(lp2152
S':'
asbag56
(g77
g58
NtRp2153
(dp2154
g61
(dp2155
sg70
g2140
sg63
(lp2156
g56
(g57
g58
NtRp2157
(dp2158
g61
(dp2159
g69
I4
ssg70
g2153
sg63
(lp2160
g56
(g65
g58
NtRp2161
(dp2162
g61
(dp2163
g69
I3
ssg70
Nsg63
(lp2164
g56
(g72
g58
NtRp2165
(dp2166
g61
(dp2167
sg70
g2161
sg63
(lp2168
g56
(g77
g58
NtRp2169
(dp2170
g61
(dp2171
sg70
g2165
sg63
(lp2172
g56
(g57
g58
NtRp2173
(dp2174
g61
(dp2175
g69
I3
ssg70
g2169
sg63
(lp2176
S'1'
asbasbasbag56
(g72
g58
NtRp2177
(dp2178
g61
(dp2179
sg70
g2161
sg63
(lp2180
g56
(g77
g58
NtRp2181
(dp2182
g61
(dp2183
sg70
g2177
sg63
(lp2184
g56
(g57
g58
NtRp2185
(dp2186
g61
(dp2187
g69
I3
ssg70
g2181
sg63
(lp2188
S'1'
asbasbasbasbasbasbasbasbasbasbasbag56
(g72
g58
NtRp2189
(dp2190
g61
(dp2191
sg70
g66
sg63
(lp2192
g56
(g77
g58
NtRp2193
(dp2194
g61
(dp2195
g81
g82
ssg70
g2189
sg63
(lp2196
S'extension'
p2197
asbag56
(g77
g58
NtRp2198
(dp2199
g61
(dp2200
g88
g89
ssg70
g2189
sg63
(lp2201
S':'
asbag56
(g77
g58
NtRp2202
(dp2203
g61
(dp2204
sg70
g2189
sg63
(lp2205
g56
(g57
g58
NtRp2206
(dp2207
g61
(dp2208
g69
I5
ssg70
g2202
sg63
(lp2209
S'html'
p2210
asbasbasbag56
(g72
g58
NtRp2211
(dp2212
g61
(dp2213
sg70
g66
sg63
(lp2214
g56
(g77
g58
NtRp2215
(dp2216
g61
(dp2217
g81
g82
ssg70
g2211
sg63
(lp2218
S'folder'
p2219
asbag56
(g77
g58
NtRp2220
(dp2221
g61
(dp2222
g88
g89
ssg70
g2211
sg63
(lp2223
S':'
asbag56
(g77
g58
NtRp2224
(dp2225
g61
(dp2226
sg70
g2211
sg63
(lp2227
g56
(g57
g58
NtRp2228
(dp2229
g61
(dp2230
g69
I5
ssg70
g2224
sg63
(lp2231
S'D:\\Workbench\\web2py_src\\applications\\admin\\'
p2232
asbasbasbag56
(g72
g58
NtRp2233
(dp2234
g61
(dp2235
sg70
g66
sg63
(lp2236
g56
(g77
g58
NtRp2237
(dp2238
g61
(dp2239
g81
g82
ssg70
g2233
sg63
(lp2240
S'function'
p2241
asbag56
(g77
g58
NtRp2242
(dp2243
g61
(dp2244
g88
g89
ssg70
g2233
sg63
(lp2245
S':'
asbag56
(g77
g58
NtRp2246
(dp2247
g61
(dp2248
sg70
g2233
sg63
(lp2249
g56
(g57
g58
NtRp2250
(dp2251
g61
(dp2252
g69
I5
ssg70
g2246
sg63
(lp2253
S'ticket'
p2254
asbasbasbag56
(g72
g58
NtRp2255
(dp2256
g61
(dp2257
sg70
g66
sg63
(lp2258
g56
(g77
g58
NtRp2259
(dp2260
g61
(dp2261
g81
g82
ssg70
g2255
sg63
(lp2262
S'get_vars'
p2263
asbag56
(g77
g58
NtRp2264
(dp2265
g61
(dp2266
g88
g89
ssg70
g2255
sg63
(lp2267
S':'
asbag56
(g77
g58
NtRp2268
(dp2269
g61
(dp2270
sg70
g2255
sg63
(lp2271
g56
(g57
g58
NtRp2272
(dp2273
g61
(dp2274
g69
I5
ssg70
g2268
sg63
(lp2275
g56
(g65
g58
NtRp2276
(dp2277
g61
(dp2278
g69
I4
ssg70
Nsg63
(lp2279
sbasbasbasbag56
(g72
g58
NtRp2280
(dp2281
g61
(dp2282
sg70
g66
sg63
(lp2283
g56
(g77
g58
NtRp2284
(dp2285
g61
(dp2286
g81
g82
ssg70
g2280
sg63
(lp2287
S'global_settings'
p2288
asbag56
(g77
g58
NtRp2289
(dp2290
g61
(dp2291
g88
g89
ssg70
g2280
sg63
(lp2292
S':'
asbag56
(g77
g58
NtRp2293
(dp2294
g61
(dp2295
sg70
g2280
sg63
(lp2296
g56
(g57
g58
NtRp2297
(dp2298
g61
(dp2299
g69
I5
ssg70
g2293
sg63
(lp2300
g56
(g65
g58
NtRp2301
(dp2302
g61
(dp2303
g69
I4
ssg70
Nsg63
(lp2304
g56
(g72
g58
NtRp2305
(dp2306
g61
(dp2307
sg70
g2301
sg63
(lp2308
g56
(g77
g58
NtRp2309
(dp2310
g61
(dp2311
g81
g82
ssg70
g2305
sg63
(lp2312
g859
asbag56
(g77
g58
NtRp2313
(dp2314
g61
(dp2315
g88
g89
ssg70
g2305
sg63
(lp2316
S':'
asbag56
(g77
g58
NtRp2317
(dp2318
g61
(dp2319
sg70
g2305
sg63
(lp2320
g56
(g57
g58
NtRp2321
(dp2322
g61
(dp2323
g69
I4
ssg70
g2317
sg63
(lp2324
S"set(['D:\\\\Workbench\\\\web2py_src\\\\applications\\\\tgtoolbox\\\\', 'D:\\\\Workbench\\\\web2py_src\\\\applications\\\\admin\\\\'])"
p2325
asbasbasbag56
(g72
g58
NtRp2326
(dp2327
g61
(dp2328
sg70
g2301
sg63
(lp2329
g56
(g77
g58
NtRp2330
(dp2331
g61
(dp2332
g81
g82
ssg70
g2326
sg63
(lp2333
g881
asbag56
(g77
g58
NtRp2334
(dp2335
g61
(dp2336
g88
g89
ssg70
g2326
sg63
(lp2337
S':'
asbag56
(g77
g58
NtRp2338
(dp2339
g61
(dp2340
sg70
g2326
sg63
(lp2341
g56
(g57
g58
NtRp2342
(dp2343
g61
(dp2344
g69
I4
ssg70
g2338
sg63
(lp2345
g894
asbasbasbag56
(g72
g58
NtRp2346
(dp2347
g61
(dp2348
sg70
g2301
sg63
(lp2349
g56
(g77
g58
NtRp2350
(dp2351
g61
(dp2352
g81
g82
ssg70
g2346
sg63
(lp2353
g925
asbag56
(g77
g58
NtRp2354
(dp2355
g61
(dp2356
g88
g89
ssg70
g2346
sg63
(lp2357
S':'
asbag56
(g77
g58
NtRp2358
(dp2359
g61
(dp2360
sg70
g2346
sg63
(lp2361
g56
(g57
g58
NtRp2362
(dp2363
g61
(dp2364
g69
I4
ssg70
g2358
sg63
(lp2365
S'set([])'
p2366
asbasbasbag56
(g72
g58
NtRp2367
(dp2368
g61
(dp2369
sg70
g2301
sg63
(lp2370
g56
(g77
g58
NtRp2371
(dp2372
g61
(dp2373
g81
g82
ssg70
g2367
sg63
(lp2374
g947
asbag56
(g77
g58
NtRp2375
(dp2376
g61
(dp2377
g88
g89
ssg70
g2367
sg63
(lp2378
S':'
asbag56
(g77
g58
NtRp2379
(dp2380
g61
(dp2381
sg70
g2367
sg63
(lp2382
g56
(g57
g58
NtRp2383
(dp2384
g61
(dp2385
g69
I4
ssg70
g2379
sg63
(lp2386
g99
asbasbasbag56
(g72
g58
NtRp2387
(dp2388
g61
(dp2389
sg70
g2301
sg63
(lp2390
g56
(g77
g58
NtRp2391
(dp2392
g61
(dp2393
g81
g82
ssg70
g2387
sg63
(lp2394
g1012
asbag56
(g77
g58
NtRp2395
(dp2396
g61
(dp2397
g88
g89
ssg70
g2387
sg63
(lp2398
S':'
asbag56
(g77
g58
NtRp2399
(dp2400
g61
(dp2401
sg70
g2387
sg63
(lp2402
g56
(g57
g58
NtRp2403
(dp2404
g61
(dp2405
g69
I4
ssg70
g2399
sg63
(lp2406
g894
asbasbasbag56
(g72
g58
NtRp2407
(dp2408
g61
(dp2409
sg70
g2301
sg63
(lp2410
g56
(g77
g58
NtRp2411
(dp2412
g61
(dp2413
g81
g82
ssg70
g2407
sg63
(lp2414
g1253
asbag56
(g77
g58
NtRp2415
(dp2416
g61
(dp2417
g88
g89
ssg70
g2407
sg63
(lp2418
S':'
asbag56
(g77
g58
NtRp2419
(dp2420
g61
(dp2421
sg70
g2407
sg63
(lp2422
g56
(g57
g58
NtRp2423
(dp2424
g61
(dp2425
g69
I4
ssg70
g2419
sg63
(lp2426
g99
asbasbasbag56
(g72
g58
NtRp2427
(dp2428
g61
(dp2429
sg70
g2301
sg63
(lp2430
g56
(g77
g58
NtRp2431
(dp2432
g61
(dp2433
g81
g82
ssg70
g2427
sg63
(lp2434
g1886
asbag56
(g77
g58
NtRp2435
(dp2436
g61
(dp2437
g88
g89
ssg70
g2427
sg63
(lp2438
S':'
asbag56
(g77
g58
NtRp2439
(dp2440
g61
(dp2441
sg70
g2427
sg63
(lp2442
g56
(g57
g58
NtRp2443
(dp2444
g61
(dp2445
g69
I4
ssg70
g2439
sg63
(lp2446
g56
(g65
g58
NtRp2447
(dp2448
g61
(dp2449
g69
I3
ssg70
Nsg63
(lp2450
g56
(g72
g58
NtRp2451
(dp2452
g61
(dp2453
sg70
g2447
sg63
(lp2454
g56
(g77
g58
NtRp2455
(dp2456
g61
(dp2457
sg70
g2451
sg63
(lp2458
g56
(g57
g58
NtRp2459
(dp2460
g61
(dp2461
g69
I3
ssg70
g2455
sg63
(lp2462
S'1'
asbasbasbag56
(g72
g58
NtRp2463
(dp2464
g61
(dp2465
sg70
g2447
sg63
(lp2466
g56
(g77
g58
NtRp2467
(dp2468
g61
(dp2469
sg70
g2463
sg63
(lp2470
g56
(g57
g58
NtRp2471
(dp2472
g61
(dp2473
g69
I3
ssg70
g2467
sg63
(lp2474
S'99'
p2475
asbasbasbag56
(g72
g58
NtRp2476
(dp2477
g61
(dp2478
sg70
g2447
sg63
(lp2479
g56
(g77
g58
NtRp2480
(dp2481
g61
(dp2482
sg70
g2476
sg63
(lp2483
g56
(g57
g58
NtRp2484
(dp2485
g61
(dp2486
g69
I3
ssg70
g2480
sg63
(lp2487
S'2'
asbasbasbag56
(g72
g58
NtRp2488
(dp2489
g61
(dp2490
sg70
g2447
sg63
(lp2491
g56
(g77
g58
NtRp2492
(dp2493
g61
(dp2494
sg70
g2488
sg63
(lp2495
g56
(g57
g58
NtRp2496
(dp2497
g61
(dp2498
g69
I3
ssg70
g2492
sg63
(lp2499
S'datetime.datetime(2011, 9, 26, 6, 55, 33)'
p2500
asbasbasbag56
(g72
g58
NtRp2501
(dp2502
g61
(dp2503
sg70
g2447
sg63
(lp2504
g56
(g77
g58
NtRp2505
(dp2506
g61
(dp2507
sg70
g2501
sg63
(lp2508
g56
(g57
g58
NtRp2509
(dp2510
g61
(dp2511
g69
I3
ssg70
g2505
sg63
(lp2512
g1965
asbasbasbasbasbasbasbasbasbasbasbag56
(g72
g58
NtRp2513
(dp2514
g61
(dp2515
sg70
g66
sg63
(lp2516
g56
(g77
g58
NtRp2517
(dp2518
g61
(dp2519
g81
g82
ssg70
g2513
sg63
(lp2520
S'is_https'
p2521
asbag56
(g77
g58
NtRp2522
(dp2523
g61
(dp2524
g88
g89
ssg70
g2513
sg63
(lp2525
S':'
asbag56
(g77
g58
NtRp2526
(dp2527
g61
(dp2528
sg70
g2513
sg63
(lp2529
g56
(g57
g58
NtRp2530
(dp2531
g61
(dp2532
g69
I5
ssg70
g2526
sg63
(lp2533
g99
asbasbasbag56
(g72
g58
NtRp2534
(dp2535
g61
(dp2536
sg70
g66
sg63
(lp2537
g56
(g77
g58
NtRp2538
(dp2539
g61
(dp2540
g81
g82
ssg70
g2534
sg63
(lp2541
S'is_local'
p2542
asbag56
(g77
g58
NtRp2543
(dp2544
g61
(dp2545
g88
g89
ssg70
g2534
sg63
(lp2546
S':'
asbag56
(g77
g58
NtRp2547
(dp2548
g61
(dp2549
sg70
g2534
sg63
(lp2550
g56
(g57
g58
NtRp2551
(dp2552
g61
(dp2553
g69
I5
ssg70
g2547
sg63
(lp2554
g2096
asbasbasbag56
(g72
g58
NtRp2555
(dp2556
g61
(dp2557
sg70
g66
sg63
(lp2558
g56
(g77
g58
NtRp2559
(dp2560
g61
(dp2561
g81
g82
ssg70
g2555
sg63
(lp2562
S'is_restful'
p2563
asbag56
(g77
g58
NtRp2564
(dp2565
g61
(dp2566
g88
g89
ssg70
g2555
sg63
(lp2567
S':'
asbag56
(g77
g58
NtRp2568
(dp2569
g61
(dp2570
sg70
g2555
sg63
(lp2571
g56
(g57
g58
NtRp2572
(dp2573
g61
(dp2574
g69
I5
ssg70
g2568
sg63
(lp2575
g99
asbasbasbag56
(g72
g58
NtRp2576
(dp2577
g61
(dp2578
sg70
g66
sg63
(lp2579
g56
(g77
g58
NtRp2580
(dp2581
g61
(dp2582
g81
g82
ssg70
g2576
sg63
(lp2583
S'now'
p2584
asbag56
(g77
g58
NtRp2585
(dp2586
g61
(dp2587
g88
g89
ssg70
g2576
sg63
(lp2588
S':'
asbag56
(g77
g58
NtRp2589
(dp2590
g61
(dp2591
sg70
g2576
sg63
(lp2592
g56
(g57
g58
NtRp2593
(dp2594
g61
(dp2595
g69
I5
ssg70
g2589
sg63
(lp2596
S'datetime.datetime(2012, 1, 8, 19, 38, 9, 259000)'
p2597
asbasbasbag56
(g72
g58
NtRp2598
(dp2599
g61
(dp2600
sg70
g66
sg63
(lp2601
g56
(g77
g58
NtRp2602
(dp2603
g61
(dp2604
g81
g82
ssg70
g2598
sg63
(lp2605
S'post_vars'
p2606
asbag56
(g77
g58
NtRp2607
(dp2608
g61
(dp2609
g88
g89
ssg70
g2598
sg63
(lp2610
S':'
asbag56
(g77
g58
NtRp2611
(dp2612
g61
(dp2613
sg70
g2598
sg63
(lp2614
g56
(g57
g58
NtRp2615
(dp2616
g61
(dp2617
g69
I5
ssg70
g2611
sg63
(lp2618
g56
(g65
g58
NtRp2619
(dp2620
g61
(dp2621
g69
I4
ssg70
Nsg63
(lp2622
sbasbasbasbag56
(g72
g58
NtRp2623
(dp2624
g61
(dp2625
sg70
g66
sg63
(lp2626
g56
(g77
g58
NtRp2627
(dp2628
g61
(dp2629
g81
g82
ssg70
g2623
sg63
(lp2630
S'raw_args'
p2631
asbag56
(g77
g58
NtRp2632
(dp2633
g61
(dp2634
g88
g89
ssg70
g2623
sg63
(lp2635
S':'
asbag56
(g77
g58
NtRp2636
(dp2637
g61
(dp2638
sg70
g2623
sg63
(lp2639
g56
(g57
g58
NtRp2640
(dp2641
g61
(dp2642
g69
I5
ssg70
g2636
sg63
(lp2643
S'tgtoolbox/127.0.0.1.2012-01-08.19-36-50.9fad4d4e-ffba-4fe6-a732-e6f1248cde23'
p2644
asbasbasbag56
(g72
g58
NtRp2645
(dp2646
g61
(dp2647
sg70
g66
sg63
(lp2648
g56
(g77
g58
NtRp2649
(dp2650
g61
(dp2651
g81
g82
ssg70
g2645
sg63
(lp2652
S'url'
p2653
asbag56
(g77
g58
NtRp2654
(dp2655
g61
(dp2656
g88
g89
ssg70
g2645
sg63
(lp2657
S':'
asbag56
(g77
g58
NtRp2658
(dp2659
g61
(dp2660
sg70
g2645
sg63
(lp2661
g56
(g57
g58
NtRp2662
(dp2663
g61
(dp2664
g69
I5
ssg70
g2658
sg63
(lp2665
S'/admin/default/ticket/tgtoolbox/127.0.0.1.2012-01-08.19-36-50.9fad4d4e-ffba-4fe6-a732-e6f1248cde23'
p2666
asbasbasbag56
(g72
g58
NtRp2667
(dp2668
g61
(dp2669
sg70
g66
sg63
(lp2670
g56
(g77
g58
NtRp2671
(dp2672
g61
(dp2673
g81
g82
ssg70
g2667
sg63
(lp2674
S'utcnow'
p2675
asbag56
(g77
g58
NtRp2676
(dp2677
g61
(dp2678
g88
g89
ssg70
g2667
sg63
(lp2679
S':'
asbag56
(g77
g58
NtRp2680
(dp2681
g61
(dp2682
sg70
g2667
sg63
(lp2683
g56
(g57
g58
NtRp2684
(dp2685
g61
(dp2686
g69
I5
ssg70
g2680
sg63
(lp2687
S'datetime.datetime(2012, 1, 8, 11, 38, 9, 259000)'
p2688
asbasbasbag56
(g72
g58
NtRp2689
(dp2690
g61
(dp2691
sg70
g66
sg63
(lp2692
g56
(g77
g58
NtRp2693
(dp2694
g61
(dp2695
g81
g82
ssg70
g2689
sg63
(lp2696
S'uuid'
p2697
asbag56
(g77
g58
NtRp2698
(dp2699
g61
(dp2700
g88
g89
ssg70
g2689
sg63
(lp2701
S':'
asbag56
(g77
g58
NtRp2702
(dp2703
g61
(dp2704
sg70
g2689
sg63
(lp2705
g56
(g57
g58
NtRp2706
(dp2707
g61
(dp2708
g69
I5
ssg70
g2702
sg63
(lp2709
S'admin/127.0.0.1.2012-01-08.19-38-09.5ac9fda4-05d9-4c97-b3dd-bc95643c66ff'
p2710
asbasbasbag56
(g72
g58
NtRp2711
(dp2712
g61
(dp2713
sg70
g66
sg63
(lp2714
g56
(g77
g58
NtRp2715
(dp2716
g61
(dp2717
g81
g82
ssg70
g2711
sg63
(lp2718
S'vars'
p2719
asbag56
(g77
g58
NtRp2720
(dp2721
g61
(dp2722
g88
g89
ssg70
g2711
sg63
(lp2723
S':'
asbag56
(g77
g58
NtRp2724
(dp2725
g61
(dp2726
sg70
g2711
sg63
(lp2727
g56
(g57
g58
NtRp2728
(dp2729
g61
(dp2730
g69
I5
ssg70
g2724
sg63
(lp2731
g56
(g65
g58
NtRp2732
(dp2733
g61
(dp2734
g69
I4
ssg70
Nsg63
(lp2735
sbasbasbasbag56
(g72
g58
NtRp2736
(dp2737
g61
(dp2738
sg70
g66
sg63
(lp2739
g56
(g77
g58
NtRp2740
(dp2741
g61
(dp2742
g81
g82
ssg70
g2736
sg63
(lp2743
S'wsgi'
p2744
asbag56
(g77
g58
NtRp2745
(dp2746
g61
(dp2747
g88
g89
ssg70
g2736
sg63
(lp2748
S':'
asbag56
(g77
g58
NtRp2749
(dp2750
g61
(dp2751
sg70
g2736
sg63
(lp2752
g56
(g57
g58
NtRp2753
(dp2754
g61
(dp2755
g69
I5
ssg70
g2749
sg63
(lp2756
g56
(g65
g58
NtRp2757
(dp2758
g61
(dp2759
g69
I4
ssg70
Nsg63
(lp2760
g56
(g72
g58
NtRp2761
(dp2762
g61
(dp2763
sg70
g2757
sg63
(lp2764
g56
(g77
g58
NtRp2765
(dp2766
g61
(dp2767
g81
g82
ssg70
g2761
sg63
(lp2768
S'environ'
p2769
asbag56
(g77
g58
NtRp2770
(dp2771
g61
(dp2772
g88
g89
ssg70
g2761
sg63
(lp2773
S':'
asbag56
(g77
g58
NtRp2774
(dp2775
g61
(dp2776
sg70
g2761
sg63
(lp2777
g56
(g57
g58
NtRp2778
(dp2779
g61
(dp2780
g69
I4
ssg70
g2774
sg63
(lp2781
g56
(g65
g58
NtRp2782
(dp2783
g61
(dp2784
g69
I3
ssg70
Nsg63
(lp2785
g56
(g72
g58
NtRp2786
(dp2787
g61
(dp2788
sg70
g2782
sg63
(lp2789
g56
(g77
g58
NtRp2790
(dp2791
g61
(dp2792
g81
g82
ssg70
g2786
sg63
(lp2793
S'COMSPEC'
p2794
asbag56
(g77
g58
NtRp2795
(dp2796
g61
(dp2797
g88
g89
ssg70
g2786
sg63
(lp2798
S':'
asbag56
(g77
g58
NtRp2799
(dp2800
g61
(dp2801
sg70
g2786
sg63
(lp2802
g56
(g57
g58
NtRp2803
(dp2804
g61
(dp2805
g69
I3
ssg70
g2799
sg63
(lp2806
g916
asbasbasbag56
(g72
g58
NtRp2807
(dp2808
g61
(dp2809
sg70
g2782
sg63
(lp2810
g56
(g77
g58
NtRp2811
(dp2812
g61
(dp2813
g81
g82
ssg70
g2807
sg63
(lp2814
S'DOCUMENT_ROOT'
p2815
asbag56
(g77
g58
NtRp2816
(dp2817
g61
(dp2818
g88
g89
ssg70
g2807
sg63
(lp2819
S':'
asbag56
(g77
g58
NtRp2820
(dp2821
g61
(dp2822
sg70
g2807
sg63
(lp2823
g56
(g57
g58
NtRp2824
(dp2825
g61
(dp2826
g69
I3
ssg70
g2820
sg63
(lp2827
g981
asbasbasbag56
(g72
g58
NtRp2828
(dp2829
g61
(dp2830
sg70
g2782
sg63
(lp2831
g56
(g77
g58
NtRp2832
(dp2833
g61
(dp2834
g81
g82
ssg70
g2828
sg63
(lp2835
S'GATEWAY_INTERFACE'
p2836
asbag56
(g77
g58
NtRp2837
(dp2838
g61
(dp2839
g88
g89
ssg70
g2828
sg63
(lp2840
S':'
asbag56
(g77
g58
NtRp2841
(dp2842
g61
(dp2843
sg70
g2828
sg63
(lp2844
g56
(g57
g58
NtRp2845
(dp2846
g61
(dp2847
g69
I3
ssg70
g2841
sg63
(lp2848
g1003
asbasbasbag56
(g72
g58
NtRp2849
(dp2850
g61
(dp2851
sg70
g2782
sg63
(lp2852
g56
(g77
g58
NtRp2853
(dp2854
g61
(dp2855
g81
g82
ssg70
g2849
sg63
(lp2856
S'HTTP_ACCEPT'
p2857
asbag56
(g77
g58
NtRp2858
(dp2859
g61
(dp2860
g88
g89
ssg70
g2849
sg63
(lp2861
S':'
asbag56
(g77
g58
NtRp2862
(dp2863
g61
(dp2864
sg70
g2849
sg63
(lp2865
g56
(g57
g58
NtRp2866
(dp2867
g61
(dp2868
g69
I3
ssg70
g2862
sg63
(lp2869
g1046
asbasbasbag56
(g72
g58
NtRp2870
(dp2871
g61
(dp2872
sg70
g2782
sg63
(lp2873
g56
(g77
g58
NtRp2874
(dp2875
g61
(dp2876
g81
g82
ssg70
g2870
sg63
(lp2877
S'HTTP_ACCEPT_CHARSET'
p2878
asbag56
(g77
g58
NtRp2879
(dp2880
g61
(dp2881
g88
g89
ssg70
g2870
sg63
(lp2882
S':'
asbag56
(g77
g58
NtRp2883
(dp2884
g61
(dp2885
sg70
g2870
sg63
(lp2886
g56
(g57
g58
NtRp2887
(dp2888
g61
(dp2889
g69
I3
ssg70
g2883
sg63
(lp2890
g1068
asbasbasbag56
(g72
g58
NtRp2891
(dp2892
g61
(dp2893
sg70
g2782
sg63
(lp2894
g56
(g77
g58
NtRp2895
(dp2896
g61
(dp2897
g81
g82
ssg70
g2891
sg63
(lp2898
S'HTTP_ACCEPT_ENCODING'
p2899
asbag56
(g77
g58
NtRp2900
(dp2901
g61
(dp2902
g88
g89
ssg70
g2891
sg63
(lp2903
S':'
asbag56
(g77
g58
NtRp2904
(dp2905
g61
(dp2906
sg70
g2891
sg63
(lp2907
g56
(g57
g58
NtRp2908
(dp2909
g61
(dp2910
g69
I3
ssg70
g2904
sg63
(lp2911
g1090
asbasbasbag56
(g72
g58
NtRp2912
(dp2913
g61
(dp2914
sg70
g2782
sg63
(lp2915
g56
(g77
g58
NtRp2916
(dp2917
g61
(dp2918
g81
g82
ssg70
g2912
sg63
(lp2919
S'HTTP_ACCEPT_LANGUAGE'
p2920
asbag56
(g77
g58
NtRp2921
(dp2922
g61
(dp2923
g88
g89
ssg70
g2912
sg63
(lp2924
S':'
asbag56
(g77
g58
NtRp2925
(dp2926
g61
(dp2927
sg70
g2912
sg63
(lp2928
g56
(g57
g58
NtRp2929
(dp2930
g61
(dp2931
g69
I3
ssg70
g2925
sg63
(lp2932
g1112
asbasbasbag56
(g72
g58
NtRp2933
(dp2934
g61
(dp2935
sg70
g2782
sg63
(lp2936
g56
(g77
g58
NtRp2937
(dp2938
g61
(dp2939
g81
g82
ssg70
g2933
sg63
(lp2940
S'HTTP_CACHE_CONTROL'
p2941
asbag56
(g77
g58
NtRp2942
(dp2943
g61
(dp2944
g88
g89
ssg70
g2933
sg63
(lp2945
S':'
asbag56
(g77
g58
NtRp2946
(dp2947
g61
(dp2948
sg70
g2933
sg63
(lp2949
g56
(g57
g58
NtRp2950
(dp2951
g61
(dp2952
g69
I3
ssg70
g2946
sg63
(lp2953
g1134
asbasbasbag56
(g72
g58
NtRp2954
(dp2955
g61
(dp2956
sg70
g2782
sg63
(lp2957
g56
(g77
g58
NtRp2958
(dp2959
g61
(dp2960
g81
g82
ssg70
g2954
sg63
(lp2961
S'HTTP_CONNECTION'
p2962
asbag56
(g77
g58
NtRp2963
(dp2964
g61
(dp2965
g88
g89
ssg70
g2954
sg63
(lp2966
S':'
asbag56
(g77
g58
NtRp2967
(dp2968
g61
(dp2969
sg70
g2954
sg63
(lp2970
g56
(g57
g58
NtRp2971
(dp2972
g61
(dp2973
g69
I3
ssg70
g2967
sg63
(lp2974
g1156
asbasbasbag56
(g72
g58
NtRp2975
(dp2976
g61
(dp2977
sg70
g2782
sg63
(lp2978
g56
(g77
g58
NtRp2979
(dp2980
g61
(dp2981
g81
g82
ssg70
g2975
sg63
(lp2982
S'HTTP_COOKIE'
p2983
asbag56
(g77
g58
NtRp2984
(dp2985
g61
(dp2986
g88
g89
ssg70
g2975
sg63
(lp2987
S':'
asbag56
(g77
g58
NtRp2988
(dp2989
g61
(dp2990
sg70
g2975
sg63
(lp2991
g56
(g57
g58
NtRp2992
(dp2993
g61
(dp2994
g69
I3
ssg70
g2988
sg63
(lp2995
g1178
asbasbasbag56
(g72
g58
NtRp2996
(dp2997
g61
(dp2998
sg70
g2782
sg63
(lp2999
g56
(g77
g58
NtRp3000
(dp3001
g61
(dp3002
g81
g82
ssg70
g2996
sg63
(lp3003
S'HTTP_HOST'
p3004
asbag56
(g77
g58
NtRp3005
(dp3006
g61
(dp3007
g88
g89
ssg70
g2996
sg63
(lp3008
S':'
asbag56
(g77
g58
NtRp3009
(dp3010
g61
(dp3011
sg70
g2996
sg63
(lp3012
g56
(g57
g58
NtRp3013
(dp3014
g61
(dp3015
g69
I3
ssg70
g3009
sg63
(lp3016
g1200
asbasbasbag56
(g72
g58
NtRp3017
(dp3018
g61
(dp3019
sg70
g2782
sg63
(lp3020
g56
(g77
g58
NtRp3021
(dp3022
g61
(dp3023
g81
g82
ssg70
g3017
sg63
(lp3024
S'HTTP_REFERER'
p3025
asbag56
(g77
g58
NtRp3026
(dp3027
g61
(dp3028
g88
g89
ssg70
g3017
sg63
(lp3029
S':'
asbag56
(g77
g58
NtRp3030
(dp3031
g61
(dp3032
sg70
g3017
sg63
(lp3033
g56
(g57
g58
NtRp3034
(dp3035
g61
(dp3036
g69
I3
ssg70
g3030
sg63
(lp3037
g1222
asbasbasbag56
(g72
g58
NtRp3038
(dp3039
g61
(dp3040
sg70
g2782
sg63
(lp3041
g56
(g77
g58
NtRp3042
(dp3043
g61
(dp3044
g81
g82
ssg70
g3038
sg63
(lp3045
S'HTTP_USER_AGENT'
p3046
asbag56
(g77
g58
NtRp3047
(dp3048
g61
(dp3049
g88
g89
ssg70
g3038
sg63
(lp3050
S':'
asbag56
(g77
g58
NtRp3051
(dp3052
g61
(dp3053
sg70
g3038
sg63
(lp3054
g56
(g57
g58
NtRp3055
(dp3056
g61
(dp3057
g69
I3
ssg70
g3051
sg63
(lp3058
g1244
asbasbasbag56
(g72
g58
NtRp3059
(dp3060
g61
(dp3061
sg70
g2782
sg63
(lp3062
g56
(g77
g58
NtRp3063
(dp3064
g61
(dp3065
g81
g82
ssg70
g3059
sg63
(lp3066
S'PATHEXT'
p3067
asbag56
(g77
g58
NtRp3068
(dp3069
g61
(dp3070
g88
g89
ssg70
g3059
sg63
(lp3071
S':'
asbag56
(g77
g58
NtRp3072
(dp3073
g61
(dp3074
sg70
g3059
sg63
(lp3075
g56
(g57
g58
NtRp3076
(dp3077
g61
(dp3078
g69
I3
ssg70
g3072
sg63
(lp3079
g1530
asbasbasbag56
(g72
g58
NtRp3080
(dp3081
g61
(dp3082
sg70
g2782
sg63
(lp3083
g56
(g77
g58
NtRp3084
(dp3085
g61
(dp3086
g81
g82
ssg70
g3080
sg63
(lp3087
S'PATH_INFO'
p3088
asbag56
(g77
g58
NtRp3089
(dp3090
g61
(dp3091
g88
g89
ssg70
g3080
sg63
(lp3092
S':'
asbag56
(g77
g58
NtRp3093
(dp3094
g61
(dp3095
sg70
g3080
sg63
(lp3096
g56
(g57
g58
NtRp3097
(dp3098
g61
(dp3099
g69
I3
ssg70
g3093
sg63
(lp3100
g1486
asbasbasbag56
(g72
g58
NtRp3101
(dp3102
g61
(dp3103
sg70
g2782
sg63
(lp3104
g56
(g77
g58
NtRp3105
(dp3106
g61
(dp3107
g81
g82
ssg70
g3101
sg63
(lp3108
S'PATH_TRANSLATED'
p3109
asbag56
(g77
g58
NtRp3110
(dp3111
g61
(dp3112
g88
g89
ssg70
g3101
sg63
(lp3113
S':'
asbag56
(g77
g58
NtRp3114
(dp3115
g61
(dp3116
sg70
g3101
sg63
(lp3117
g56
(g57
g58
NtRp3118
(dp3119
g61
(dp3120
g69
I3
ssg70
g3114
sg63
(lp3121
g1508
asbasbasbag56
(g72
g58
NtRp3122
(dp3123
g61
(dp3124
sg70
g2782
sg63
(lp3125
g56
(g77
g58
NtRp3126
(dp3127
g61
(dp3128
g81
g82
ssg70
g3122
sg63
(lp3129
S'QUERY_STRING'
p3130
asbag56
(g77
g58
NtRp3131
(dp3132
g61
(dp3133
g88
g89
ssg70
g3122
sg63
(lp3134
S':'
asbag56
(g77
g58
NtRp3135
(dp3136
g61
(dp3137
sg70
g3122
sg63
(lp3138
g56
(g57
g58
NtRp3139
(dp3140
g61
(dp3141
g69
I3
ssg70
g3135
sg63
(lp3142
S''
asbasbasbag56
(g72
g58
NtRp3143
(dp3144
g61
(dp3145
sg70
g2782
sg63
(lp3146
g56
(g77
g58
NtRp3147
(dp3148
g61
(dp3149
g81
g82
ssg70
g3143
sg63
(lp3150
S'REMOTE_ADDR'
p3151
asbag56
(g77
g58
NtRp3152
(dp3153
g61
(dp3154
g88
g89
ssg70
g3143
sg63
(lp3155
S':'
asbag56
(g77
g58
NtRp3156
(dp3157
g61
(dp3158
sg70
g3143
sg63
(lp3159
g56
(g57
g58
NtRp3160
(dp3161
g61
(dp3162
g69
I3
ssg70
g3156
sg63
(lp3163
g215
asbasbasbag56
(g72
g58
NtRp3164
(dp3165
g61
(dp3166
sg70
g2782
sg63
(lp3167
g56
(g77
g58
NtRp3168
(dp3169
g61
(dp3170
g81
g82
ssg70
g3164
sg63
(lp3171
S'REMOTE_PORT'
p3172
asbag56
(g77
g58
NtRp3173
(dp3174
g61
(dp3175
g88
g89
ssg70
g3164
sg63
(lp3176
S':'
asbag56
(g77
g58
NtRp3177
(dp3178
g61
(dp3179
sg70
g3164
sg63
(lp3180
g56
(g57
g58
NtRp3181
(dp3182
g61
(dp3183
g69
I3
ssg70
g3177
sg63
(lp3184
g1594
asbasbasbag56
(g72
g58
NtRp3185
(dp3186
g61
(dp3187
sg70
g2782
sg63
(lp3188
g56
(g77
g58
NtRp3189
(dp3190
g61
(dp3191
g81
g82
ssg70
g3185
sg63
(lp3192
S'REQUEST_METHOD'
p3193
asbag56
(g77
g58
NtRp3194
(dp3195
g61
(dp3196
g88
g89
ssg70
g3185
sg63
(lp3197
S':'
asbag56
(g77
g58
NtRp3198
(dp3199
g61
(dp3200
sg70
g3185
sg63
(lp3201
g56
(g57
g58
NtRp3202
(dp3203
g61
(dp3204
g69
I3
ssg70
g3198
sg63
(lp3205
g1616
asbasbasbag56
(g72
g58
NtRp3206
(dp3207
g61
(dp3208
sg70
g2782
sg63
(lp3209
g56
(g77
g58
NtRp3210
(dp3211
g61
(dp3212
g81
g82
ssg70
g3206
sg63
(lp3213
S'REQUEST_URI'
p3214
asbag56
(g77
g58
NtRp3215
(dp3216
g61
(dp3217
g88
g89
ssg70
g3206
sg63
(lp3218
S':'
asbag56
(g77
g58
NtRp3219
(dp3220
g61
(dp3221
sg70
g3206
sg63
(lp3222
g56
(g57
g58
NtRp3223
(dp3224
g61
(dp3225
g69
I3
ssg70
g3219
sg63
(lp3226
g1638
asbasbasbag56
(g72
g58
NtRp3227
(dp3228
g61
(dp3229
sg70
g2782
sg63
(lp3230
g56
(g77
g58
NtRp3231
(dp3232
g61
(dp3233
g81
g82
ssg70
g3227
sg63
(lp3234
S'SCRIPT_FILENAME'
p3235
asbag56
(g77
g58
NtRp3236
(dp3237
g61
(dp3238
g88
g89
ssg70
g3227
sg63
(lp3239
S':'
asbag56
(g77
g58
NtRp3240
(dp3241
g61
(dp3242
sg70
g3227
sg63
(lp3243
g56
(g57
g58
NtRp3244
(dp3245
g61
(dp3246
g69
I3
ssg70
g3240
sg63
(lp3247
g1660
asbasbasbag56
(g72
g58
NtRp3248
(dp3249
g61
(dp3250
sg70
g2782
sg63
(lp3251
g56
(g77
g58
NtRp3252
(dp3253
g61
(dp3254
g81
g82
ssg70
g3248
sg63
(lp3255
S'SCRIPT_NAME'
p3256
asbag56
(g77
g58
NtRp3257
(dp3258
g61
(dp3259
g88
g89
ssg70
g3248
sg63
(lp3260
S':'
asbag56
(g77
g58
NtRp3261
(dp3262
g61
(dp3263
sg70
g3248
sg63
(lp3264
g56
(g57
g58
NtRp3265
(dp3266
g61
(dp3267
g69
I3
ssg70
g3261
sg63
(lp3268
S''
asbasbasbag56
(g72
g58
NtRp3269
(dp3270
g61
(dp3271
sg70
g2782
sg63
(lp3272
g56
(g77
g58
NtRp3273
(dp3274
g61
(dp3275
g81
g82
ssg70
g3269
sg63
(lp3276
S'SERVER_ADDR'
p3277
asbag56
(g77
g58
NtRp3278
(dp3279
g61
(dp3280
g88
g89
ssg70
g3269
sg63
(lp3281
S':'
asbag56
(g77
g58
NtRp3282
(dp3283
g61
(dp3284
sg70
g3269
sg63
(lp3285
g56
(g57
g58
NtRp3286
(dp3287
g61
(dp3288
g69
I3
ssg70
g3282
sg63
(lp3289
g1703
asbasbasbag56
(g72
g58
NtRp3290
(dp3291
g61
(dp3292
sg70
g2782
sg63
(lp3293
g56
(g77
g58
NtRp3294
(dp3295
g61
(dp3296
g81
g82
ssg70
g3290
sg63
(lp3297
S'SERVER_ADMIN'
p3298
asbag56
(g77
g58
NtRp3299
(dp3300
g61
(dp3301
g88
g89
ssg70
g3290
sg63
(lp3302
S':'
asbag56
(g77
g58
NtRp3303
(dp3304
g61
(dp3305
sg70
g3290
sg63
(lp3306
g56
(g57
g58
NtRp3307
(dp3308
g61
(dp3309
g69
I3
ssg70
g3303
sg63
(lp3310
g1725
asbasbasbag56
(g72
g58
NtRp3311
(dp3312
g61
(dp3313
sg70
g2782
sg63
(lp3314
g56
(g77
g58
NtRp3315
(dp3316
g61
(dp3317
g81
g82
ssg70
g3311
sg63
(lp3318
S'SERVER_NAME'
p3319
asbag56
(g77
g58
NtRp3320
(dp3321
g61
(dp3322
g88
g89
ssg70
g3311
sg63
(lp3323
S':'
asbag56
(g77
g58
NtRp3324
(dp3325
g61
(dp3326
sg70
g3311
sg63
(lp3327
g56
(g57
g58
NtRp3328
(dp3329
g61
(dp3330
g69
I3
ssg70
g3324
sg63
(lp3331
g1747
asbasbasbag56
(g72
g58
NtRp3332
(dp3333
g61
(dp3334
sg70
g2782
sg63
(lp3335
g56
(g77
g58
NtRp3336
(dp3337
g61
(dp3338
g81
g82
ssg70
g3332
sg63
(lp3339
S'SERVER_PORT'
p3340
asbag56
(g77
g58
NtRp3341
(dp3342
g61
(dp3343
g88
g89
ssg70
g3332
sg63
(lp3344
S':'
asbag56
(g77
g58
NtRp3345
(dp3346
g61
(dp3347
sg70
g3332
sg63
(lp3348
g56
(g57
g58
NtRp3349
(dp3350
g61
(dp3351
g69
I3
ssg70
g3345
sg63
(lp3352
g1769
asbasbasbag56
(g72
g58
NtRp3353
(dp3354
g61
(dp3355
sg70
g2782
sg63
(lp3356
g56
(g77
g58
NtRp3357
(dp3358
g61
(dp3359
g81
g82
ssg70
g3353
sg63
(lp3360
S'SERVER_PROTOCOL'
p3361
asbag56
(g77
g58
NtRp3362
(dp3363
g61
(dp3364
g88
g89
ssg70
g3353
sg63
(lp3365
S':'
asbag56
(g77
g58
NtRp3366
(dp3367
g61
(dp3368
sg70
g3353
sg63
(lp3369
g56
(g57
g58
NtRp3370
(dp3371
g61
(dp3372
g69
I3
ssg70
g3366
sg63
(lp3373
g1791
asbasbasbag56
(g72
g58
NtRp3374
(dp3375
g61
(dp3376
sg70
g2782
sg63
(lp3377
g56
(g77
g58
NtRp3378
(dp3379
g61
(dp3380
g81
g82
ssg70
g3374
sg63
(lp3381
S'SERVER_SIGNATURE'
p3382
asbag56
(g77
g58
NtRp3383
(dp3384
g61
(dp3385
g88
g89
ssg70
g3374
sg63
(lp3386
S':'
asbag56
(g77
g58
NtRp3387
(dp3388
g61
(dp3389
sg70
g3374
sg63
(lp3390
g56
(g57
g58
NtRp3391
(dp3392
g61
(dp3393
g69
I3
ssg70
g3387
sg63
(lp3394
S''
asbasbasbag56
(g72
g58
NtRp3395
(dp3396
g61
(dp3397
sg70
g2782
sg63
(lp3398
g56
(g77
g58
NtRp3399
(dp3400
g61
(dp3401
g81
g82
ssg70
g3395
sg63
(lp3402
S'SERVER_SOFTWARE'
p3403
asbag56
(g77
g58
NtRp3404
(dp3405
g61
(dp3406
g88
g89
ssg70
g3395
sg63
(lp3407
S':'
asbag56
(g77
g58
NtRp3408
(dp3409
g61
(dp3410
sg70
g3395
sg63
(lp3411
g56
(g57
g58
NtRp3412
(dp3413
g61
(dp3414
g69
I3
ssg70
g3408
sg63
(lp3415
g1834
asbasbasbag56
(g72
g58
NtRp3416
(dp3417
g61
(dp3418
sg70
g2782
sg63
(lp3419
g56
(g77
g58
NtRp3420
(dp3421
g61
(dp3422
g81
g82
ssg70
g3416
sg63
(lp3423
S'SystemRoot'
p3424
asbag56
(g77
g58
NtRp3425
(dp3426
g61
(dp3427
g88
g89
ssg70
g3416
sg63
(lp3428
S':'
asbag56
(g77
g58
NtRp3429
(dp3430
g61
(dp3431
sg70
g3416
sg63
(lp3432
g56
(g57
g58
NtRp3433
(dp3434
g61
(dp3435
g69
I3
ssg70
g3429
sg63
(lp3436
g1856
asbasbasbag56
(g72
g58
NtRp3437
(dp3438
g61
(dp3439
sg70
g2782
sg63
(lp3440
g56
(g77
g58
NtRp3441
(dp3442
g61
(dp3443
g81
g82
ssg70
g3437
sg63
(lp3444
S'WINDIR'
p3445
asbag56
(g77
g58
NtRp3446
(dp3447
g61
(dp3448
g88
g89
ssg70
g3437
sg63
(lp3449
S':'
asbag56
(g77
g58
NtRp3450
(dp3451
g61
(dp3452
sg70
g3437
sg63
(lp3453
g56
(g57
g58
NtRp3454
(dp3455
g61
(dp3456
g69
I3
ssg70
g3450
sg63
(lp3457
g1987
asbasbasbag56
(g72
g58
NtRp3458
(dp3459
g61
(dp3460
sg70
g2782
sg63
(lp3461
g56
(g77
g58
NtRp3462
(dp3463
g61
(dp3464
g81
g82
ssg70
g3458
sg63
(lp3465
S'mod_wsgi.application_group'
p3466
asbag56
(g77
g58
NtRp3467
(dp3468
g61
(dp3469
g88
g89
ssg70
g3458
sg63
(lp3470
S':'
asbag56
(g77
g58
NtRp3471
(dp3472
g61
(dp3473
sg70
g3458
sg63
(lp3474
g56
(g57
g58
NtRp3475
(dp3476
g61
(dp3477
g69
I3
ssg70
g3471
sg63
(lp3478
g1287
asbasbasbag56
(g72
g58
NtRp3479
(dp3480
g61
(dp3481
sg70
g2782
sg63
(lp3482
g56
(g77
g58
NtRp3483
(dp3484
g61
(dp3485
g81
g82
ssg70
g3479
sg63
(lp3486
S'mod_wsgi.callable_object'
p3487
asbag56
(g77
g58
NtRp3488
(dp3489
g61
(dp3490
g88
g89
ssg70
g3479
sg63
(lp3491
S':'
asbag56
(g77
g58
NtRp3492
(dp3493
g61
(dp3494
sg70
g3479
sg63
(lp3495
g56
(g57
g58
NtRp3496
(dp3497
g61
(dp3498
g69
I3
ssg70
g3492
sg63
(lp3499
g1309
asbasbasbag56
(g72
g58
NtRp3500
(dp3501
g61
(dp3502
sg70
g2782
sg63
(lp3503
g56
(g77
g58
NtRp3504
(dp3505
g61
(dp3506
g81
g82
ssg70
g3500
sg63
(lp3507
S'mod_wsgi.handler_script'
p3508
asbag56
(g77
g58
NtRp3509
(dp3510
g61
(dp3511
g88
g89
ssg70
g3500
sg63
(lp3512
S':'
asbag56
(g77
g58
NtRp3513
(dp3514
g61
(dp3515
sg70
g3500
sg63
(lp3516
g56
(g57
g58
NtRp3517
(dp3518
g61
(dp3519
g69
I3
ssg70
g3513
sg63
(lp3520
S''
asbasbasbag56
(g72
g58
NtRp3521
(dp3522
g61
(dp3523
sg70
g2782
sg63
(lp3524
g56
(g77
g58
NtRp3525
(dp3526
g61
(dp3527
g81
g82
ssg70
g3521
sg63
(lp3528
S'mod_wsgi.input_chunked'
p3529
asbag56
(g77
g58
NtRp3530
(dp3531
g61
(dp3532
g88
g89
ssg70
g3521
sg63
(lp3533
S':'
asbag56
(g77
g58
NtRp3534
(dp3535
g61
(dp3536
sg70
g3521
sg63
(lp3537
g56
(g57
g58
NtRp3538
(dp3539
g61
(dp3540
g69
I3
ssg70
g3534
sg63
(lp3541
S'0'
asbasbasbag56
(g72
g58
NtRp3542
(dp3543
g61
(dp3544
sg70
g2782
sg63
(lp3545
g56
(g77
g58
NtRp3546
(dp3547
g61
(dp3548
g81
g82
ssg70
g3542
sg63
(lp3549
S'mod_wsgi.process_group'
p3550
asbag56
(g77
g58
NtRp3551
(dp3552
g61
(dp3553
g88
g89
ssg70
g3542
sg63
(lp3554
S':'
asbag56
(g77
g58
NtRp3555
(dp3556
g61
(dp3557
sg70
g3542
sg63
(lp3558
g56
(g57
g58
NtRp3559
(dp3560
g61
(dp3561
g69
I3
ssg70
g3555
sg63
(lp3562
S''
asbasbasbag56
(g72
g58
NtRp3563
(dp3564
g61
(dp3565
sg70
g2782
sg63
(lp3566
g56
(g77
g58
NtRp3567
(dp3568
g61
(dp3569
g81
g82
ssg70
g3563
sg63
(lp3570
S'mod_wsgi.request_handler'
p3571
asbag56
(g77
g58
NtRp3572
(dp3573
g61
(dp3574
g88
g89
ssg70
g3563
sg63
(lp3575
S':'
asbag56
(g77
g58
NtRp3576
(dp3577
g61
(dp3578
sg70
g3563
sg63
(lp3579
g56
(g57
g58
NtRp3580
(dp3581
g61
(dp3582
g69
I3
ssg70
g3576
sg63
(lp3583
g1394
asbasbasbag56
(g72
g58
NtRp3584
(dp3585
g61
(dp3586
sg70
g2782
sg63
(lp3587
g56
(g77
g58
NtRp3588
(dp3589
g61
(dp3590
g81
g82
ssg70
g3584
sg63
(lp3591
S'mod_wsgi.script_reloading'
p3592
asbag56
(g77
g58
NtRp3593
(dp3594
g61
(dp3595
g88
g89
ssg70
g3584
sg63
(lp3596
S':'
asbag56
(g77
g58
NtRp3597
(dp3598
g61
(dp3599
sg70
g3584
sg63
(lp3600
g56
(g57
g58
NtRp3601
(dp3602
g61
(dp3603
g69
I3
ssg70
g3597
sg63
(lp3604
S'1'
asbasbasbag56
(g72
g58
NtRp3605
(dp3606
g61
(dp3607
sg70
g2782
sg63
(lp3608
g56
(g77
g58
NtRp3609
(dp3610
g61
(dp3611
g81
g82
ssg70
g3605
sg63
(lp3612
S'mod_wsgi.version'
p3613
asbag56
(g77
g58
NtRp3614
(dp3615
g61
(dp3616
g88
g89
ssg70
g3605
sg63
(lp3617
S':'
asbag56
(g77
g58
NtRp3618
(dp3619
g61
(dp3620
sg70
g3605
sg63
(lp3621
g56
(g57
g58
NtRp3622
(dp3623
g61
(dp3624
g69
I3
ssg70
g3618
sg63
(lp3625
g56
(g65
g58
NtRp3626
(dp3627
g61
(dp3628
g69
I2
ssg70
Nsg63
(lp3629
g56
(g72
g58
NtRp3630
(dp3631
g61
(dp3632
sg70
g3626
sg63
(lp3633
g56
(g77
g58
NtRp3634
(dp3635
g61
(dp3636
sg70
g3630
sg63
(lp3637
g56
(g57
g58
NtRp3638
(dp3639
g61
(dp3640
g69
I2
ssg70
g3634
sg63
(lp3641
S'3'
asbasbasbag56
(g72
g58
NtRp3642
(dp3643
g61
(dp3644
sg70
g3626
sg63
(lp3645
g56
(g77
g58
NtRp3646
(dp3647
g61
(dp3648
sg70
g3642
sg63
(lp3649
g56
(g57
g58
NtRp3650
(dp3651
g61
(dp3652
g69
I2
ssg70
g3646
sg63
(lp3653
S'3'
asbasbasbasbasbasbasbag56
(g72
g58
NtRp3654
(dp3655
g61
(dp3656
sg70
g2782
sg63
(lp3657
g56
(g77
g58
NtRp3658
(dp3659
g61
(dp3660
g81
g82
ssg70
g3654
sg63
(lp3661
S'wsgi.errors'
p3662
asbag56
(g77
g58
NtRp3663
(dp3664
g61
(dp3665
g88
g89
ssg70
g3654
sg63
(lp3666
S':'
asbag56
(g77
g58
NtRp3667
(dp3668
g61
(dp3669
sg70
g3654
sg63
(lp3670
g56
(g57
g58
NtRp3671
(dp3672
g61
(dp3673
g69
I3
ssg70
g3667
sg63
(lp3674
S'<mod_wsgi.Log object at 0x03DE04A8>'
p3675
asbasbasbag56
(g72
g58
NtRp3676
(dp3677
g61
(dp3678
sg70
g2782
sg63
(lp3679
g56
(g77
g58
NtRp3680
(dp3681
g61
(dp3682
g81
g82
ssg70
g3676
sg63
(lp3683
S'wsgi.file_wrapper'
p3684
asbag56
(g77
g58
NtRp3685
(dp3686
g61
(dp3687
g88
g89
ssg70
g3676
sg63
(lp3688
S':'
asbag56
(g77
g58
NtRp3689
(dp3690
g61
(dp3691
sg70
g3676
sg63
(lp3692
g56
(g57
g58
NtRp3693
(dp3694
g61
(dp3695
g69
I3
ssg70
g3689
sg63
(lp3696
S'<built-in method file_wrapper of mod_wsgi.Adapter object at 0x03C889B0>'
p3697
asbasbasbag56
(g72
g58
NtRp3698
(dp3699
g61
(dp3700
sg70
g2782
sg63
(lp3701
g56
(g77
g58
NtRp3702
(dp3703
g61
(dp3704
g81
g82
ssg70
g3698
sg63
(lp3705
S'wsgi.input'
p3706
asbag56
(g77
g58
NtRp3707
(dp3708
g61
(dp3709
g88
g89
ssg70
g3698
sg63
(lp3710
S':'
asbag56
(g77
g58
NtRp3711
(dp3712
g61
(dp3713
sg70
g3698
sg63
(lp3714
g56
(g57
g58
NtRp3715
(dp3716
g61
(dp3717
g69
I3
ssg70
g3711
sg63
(lp3718
S'<cStringIO.StringO object at 0x04417760>'
p3719
asbasbasbag56
(g72
g58
NtRp3720
(dp3721
g61
(dp3722
sg70
g2782
sg63
(lp3723
g56
(g77
g58
NtRp3724
(dp3725
g61
(dp3726
g81
g82
ssg70
g3720
sg63
(lp3727
S'wsgi.multiprocess'
p3728
asbag56
(g77
g58
NtRp3729
(dp3730
g61
(dp3731
g88
g89
ssg70
g3720
sg63
(lp3732
S':'
asbag56
(g77
g58
NtRp3733
(dp3734
g61
(dp3735
sg70
g3720
sg63
(lp3736
g56
(g57
g58
NtRp3737
(dp3738
g61
(dp3739
g69
I3
ssg70
g3733
sg63
(lp3740
g99
asbasbasbag56
(g72
g58
NtRp3741
(dp3742
g61
(dp3743
sg70
g2782
sg63
(lp3744
g56
(g77
g58
NtRp3745
(dp3746
g61
(dp3747
g81
g82
ssg70
g3741
sg63
(lp3748
S'wsgi.multithread'
p3749
asbag56
(g77
g58
NtRp3750
(dp3751
g61
(dp3752
g88
g89
ssg70
g3741
sg63
(lp3753
S':'
asbag56
(g77
g58
NtRp3754
(dp3755
g61
(dp3756
sg70
g3741
sg63
(lp3757
g56
(g57
g58
NtRp3758
(dp3759
g61
(dp3760
g69
I3
ssg70
g3754
sg63
(lp3761
g2096
asbasbasbag56
(g72
g58
NtRp3762
(dp3763
g61
(dp3764
sg70
g2782
sg63
(lp3765
g56
(g77
g58
NtRp3766
(dp3767
g61
(dp3768
g81
g82
ssg70
g3762
sg63
(lp3769
S'wsgi.run_once'
p3770
asbag56
(g77
g58
NtRp3771
(dp3772
g61
(dp3773
g88
g89
ssg70
g3762
sg63
(lp3774
S':'
asbag56
(g77
g58
NtRp3775
(dp3776
g61
(dp3777
sg70
g3762
sg63
(lp3778
g56
(g57
g58
NtRp3779
(dp3780
g61
(dp3781
g69
I3
ssg70
g3775
sg63
(lp3782
g99
asbasbasbag56
(g72
g58
NtRp3783
(dp3784
g61
(dp3785
sg70
g2782
sg63
(lp3786
g56
(g77
g58
NtRp3787
(dp3788
g61
(dp3789
g81
g82
ssg70
g3783
sg63
(lp3790
S'wsgi.url_scheme'
p3791
asbag56
(g77
g58
NtRp3792
(dp3793
g61
(dp3794
g88
g89
ssg70
g3783
sg63
(lp3795
S':'
asbag56
(g77
g58
NtRp3796
(dp3797
g61
(dp3798
sg70
g3783
sg63
(lp3799
g56
(g57
g58
NtRp3800
(dp3801
g61
(dp3802
g69
I3
ssg70
g3796
sg63
(lp3803
g2139
asbasbasbag56
(g72
g58
NtRp3804
(dp3805
g61
(dp3806
sg70
g2782
sg63
(lp3807
g56
(g77
g58
NtRp3808
(dp3809
g61
(dp3810
g81
g82
ssg70
g3804
sg63
(lp3811
S'wsgi.version'
p3812
asbag56
(g77
g58
NtRp3813
(dp3814
g61
(dp3815
g88
g89
ssg70
g3804
sg63
(lp3816
S':'
asbag56
(g77
g58
NtRp3817
(dp3818
g61
(dp3819
sg70
g3804
sg63
(lp3820
g56
(g57
g58
NtRp3821
(dp3822
g61
(dp3823
g69
I3
ssg70
g3817
sg63
(lp3824
S'1'
asbasbasbasbasbasbasbasbasbasbasbasbasbsS'frames'
p3825
(lp3826
(dp3827
S'file'
p3828
S'D:\\Workbench\\web2py_src\\gluon\\restricted.py'
p3829
sS'dump'
p3830
(dp3831
S'environment'
p3832
S"{'A': <class 'gluon.html.A'>, 'ALLOW_TOGGLE': 'true', 'B': <class 'gluon.html.B'>, 'BEAUTIFY': <class 'gluon.html.BEAUTIFY'>, 'BODY': <class 'gluon.html.BODY'>, 'BR': <class 'gluon.html.BR'>, 'BUTTON': <class 'gluon.html.BUTTON'>, 'CAT': <class 'gluon.html.CAT'>, 'CENTER': <class 'gluon.html.CENTER'>, 'CHECK_VERSION': True, ...}"
p3833
sS'ccode'
p3834
S'<code object <module> at 03AD6140, file "D:\\Work...src\\applications\\admin\\models\\access.py", line 1>'
p3835
ssS'lnum'
p3836
I194
sS'lines'
p3837
(dp3838
I192
S'        else:'
p3839
sI193
S'            ccode = compile2(code,layer)'
p3840
sI194
S'        exec ccode in environment'
p3841
sI195
S'    except HTTP:'
p3842
sI196
S'        raise'
p3843
sI197
S'    except Exception, error:'
p3844
sI198
S'        # XXX Show exception in Wing IDE if running in debugger'
p3845
sI189
S'    try:'
p3846
sI190
S'        if type(code) == types.CodeType:'
p3847
sI191
S'            ccode = code'
p3848
ssS'call'
p3849
S'(code="import os, time\\nfrom gluon import portalocker\\nfr...demo mode\'\\n    redirect(URL(\'default\',\'sites\'))\\n\\n", environment={\'A\': <class \'gluon.html.A\'>, \'ALLOW_TOGGLE\': \'true\', \'B\': <class \'gluon.html.B\'>, \'BEAUTIFY\': <class \'gluon.html.BEAUTIFY\'>, \'BODY\': <class \'gluon.html.BODY\'>, \'BR\': <class \'gluon.html.BR\'>, \'BUTTON\': <class \'gluon.html.BUTTON\'>, \'CAT\': <class \'gluon.html.CAT\'>, \'CENTER\': <class \'gluon.html.CENTER\'>, \'CHECK_VERSION\': True, ...}, layer=r\'D:\\Workbench\\web2py_src\\applications\\admin\\models\\access.py\')'
p3850
sS'func'
p3851
S'restricted'
p3852
sa(dp3853
g3828
S'D:\\Workbench\\web2py_src\\applications\\admin\\models\\access.py'
p3854
sg3830
(dp3855
S'gluon'
p3856
S'undefined'
p3857
sS'portalocker'
p3858
g3857
ssg3836
I2
sg3837
(dp3859
I2
S'from gluon import portalocker'
p3860
sI3
S'from gluon.admin import apath'
p3861
sI4
S'from gluon.fileutils import read_file'
p3862
sI5
S'# ###########################################################'
p3863
sI6
S'# ## make sure administrator is on localhost or https'
p3864
sI7
S'# ###########################################################'
p3865
sI8
S''
sI9
S"http_host = request.env.http_host.split(':')[0]"
p3866
sI10
S''
sI11
S'if request.env.web2py_runtime_gae:'
p3867
ssg3849
S'()'
p3868
sg3851
S'<module>'
p3869
sasS'pyver'
p3870
S'Python 2.7.2: C:\\Program Files\\Apache Software Foundation\\Apache2.2\\bin\\httpd.exe'
p3871
sS'session'
p3872
g56
(g57
g58
NtRp3873
(dp3874
g61
(dp3875
sg63
(lp3876
g56
(g65
g58
NtRp3877
(dp3878
g61
(dp3879
g69
I5
ssg70
Nsg63
(lp3880
g56
(g72
g58
NtRp3881
(dp3882
g61
(dp3883
sg70
g3877
sg63
(lp3884
g56
(g77
g58
NtRp3885
(dp3886
g61
(dp3887
g81
g82
ssg70
g3881
sg63
(lp3888
S'app'
p3889
asbag56
(g77
g58
NtRp3890
(dp3891
g61
(dp3892
g88
g89
ssg70
g3881
sg63
(lp3893
S':'
asbag56
(g77
g58
NtRp3894
(dp3895
g61
(dp3896
sg70
g3881
sg63
(lp3897
g56
(g57
g58
NtRp3898
(dp3899
g61
(dp3900
g69
I5
ssg70
g3894
sg63
(lp3901
g56
(g65
g58
NtRp3902
(dp3903
g61
(dp3904
g69
I4
ssg70
Nsg63
(lp3905
g56
(g72
g58
NtRp3906
(dp3907
g61
(dp3908
sg70
g3902
sg63
(lp3909
g56
(g77
g58
NtRp3910
(dp3911
g61
(dp3912
g81
g82
ssg70
g3906
sg63
(lp3913
S'name'
p3914
asbag56
(g77
g58
NtRp3915
(dp3916
g61
(dp3917
g88
g89
ssg70
g3906
sg63
(lp3918
S':'
asbag56
(g77
g58
NtRp3919
(dp3920
g61
(dp3921
sg70
g3906
sg63
(lp3922
g56
(g57
g58
NtRp3923
(dp3924
g61
(dp3925
g69
I4
ssg70
g3919
sg63
(lp3926
S''
asbasbasbag56
(g72
g58
NtRp3927
(dp3928
g61
(dp3929
sg70
g3902
sg63
(lp3930
g56
(g77
g58
NtRp3931
(dp3932
g61
(dp3933
g81
g82
ssg70
g3927
sg63
(lp3934
S'page_error'
p3935
asbag56
(g77
g58
NtRp3936
(dp3937
g61
(dp3938
g88
g89
ssg70
g3927
sg63
(lp3939
S':'
asbag56
(g77
g58
NtRp3940
(dp3941
g61
(dp3942
sg70
g3927
sg63
(lp3943
g56
(g57
g58
NtRp3944
(dp3945
g61
(dp3946
g69
I4
ssg70
g3940
sg63
(lp3947
S'# Error: the document does not exist'
p3948
asbasbasbag56
(g72
g58
NtRp3949
(dp3950
g61
(dp3951
sg70
g3902
sg63
(lp3952
g56
(g77
g58
NtRp3953
(dp3954
g61
(dp3955
g81
g82
ssg70
g3949
sg63
(lp3956
S'page_index'
p3957
asbag56
(g77
g58
NtRp3958
(dp3959
g61
(dp3960
g88
g89
ssg70
g3949
sg63
(lp3961
S':'
asbag56
(g77
g58
NtRp3962
(dp3963
g61
(dp3964
sg70
g3949
sg63
(lp3965
g56
(g57
g58
NtRp3966
(dp3967
g61
(dp3968
g69
I4
ssg70
g3962
sg63
(lp3969
S'# Welcome to my new app'
p3970
asbasbasbag56
(g72
g58
NtRp3971
(dp3972
g61
(dp3973
sg70
g3902
sg63
(lp3974
g56
(g77
g58
NtRp3975
(dp3976
g61
(dp3977
g81
g82
ssg70
g3971
sg63
(lp3978
S'pages'
p3979
asbag56
(g77
g58
NtRp3980
(dp3981
g61
(dp3982
g88
g89
ssg70
g3971
sg63
(lp3983
S':'
asbag56
(g77
g58
NtRp3984
(dp3985
g61
(dp3986
sg70
g3971
sg63
(lp3987
g56
(g57
g58
NtRp3988
(dp3989
g61
(dp3990
g69
I4
ssg70
g3984
sg63
(lp3991
g56
(g65
g58
NtRp3992
(dp3993
g61
(dp3994
g69
I3
ssg70
Nsg63
(lp3995
g56
(g72
g58
NtRp3996
(dp3997
g61
(dp3998
sg70
g3992
sg63
(lp3999
g56
(g77
g58
NtRp4000
(dp4001
g61
(dp4002
sg70
g3996
sg63
(lp4003
g56
(g57
g58
NtRp4004
(dp4005
g61
(dp4006
g69
I3
ssg70
g4000
sg63
(lp4007
S'index'
p4008
asbasbasbag56
(g72
g58
NtRp4009
(dp4010
g61
(dp4011
sg70
g3992
sg63
(lp4012
g56
(g77
g58
NtRp4013
(dp4014
g61
(dp4015
sg70
g4009
sg63
(lp4016
g56
(g57
g58
NtRp4017
(dp4018
g61
(dp4019
g69
I3
ssg70
g4013
sg63
(lp4020
S'error'
p4021
asbasbasbasbasbasbasbag56
(g72
g58
NtRp4022
(dp4023
g61
(dp4024
sg70
g3902
sg63
(lp4025
g56
(g77
g58
NtRp4026
(dp4027
g61
(dp4028
g81
g82
ssg70
g4022
sg63
(lp4029
S'params'
p4030
asbag56
(g77
g58
NtRp4031
(dp4032
g61
(dp4033
g88
g89
ssg70
g4022
sg63
(lp4034
S':'
asbag56
(g77
g58
NtRp4035
(dp4036
g61
(dp4037
sg70
g4022
sg63
(lp4038
g56
(g57
g58
NtRp4039
(dp4040
g61
(dp4041
g69
I4
ssg70
g4035
sg63
(lp4042
g56
(g65
g58
NtRp4043
(dp4044
g61
(dp4045
g69
I3
ssg70
Nsg63
(lp4046
g56
(g72
g58
NtRp4047
(dp4048
g61
(dp4049
sg70
g4043
sg63
(lp4050
g56
(g77
g58
NtRp4051
(dp4052
g61
(dp4053
sg70
g4047
sg63
(lp4054
g56
(g57
g58
NtRp4055
(dp4056
g61
(dp4057
g69
I3
ssg70
g4051
sg63
(lp4058
g56
(g65
g58
NtRp4059
(dp4060
g61
(dp4061
g69
I2
ssg70
Nsg63
(lp4062
g56
(g72
g58
NtRp4063
(dp4064
g61
(dp4065
sg70
g4059
sg63
(lp4066
g56
(g77
g58
NtRp4067
(dp4068
g61
(dp4069
sg70
g4063
sg63
(lp4070
g56
(g57
g58
NtRp4071
(dp4072
g61
(dp4073
g69
I2
ssg70
g4067
sg63
(lp4074
S'title'
p4075
asbasbasbag56
(g72
g58
NtRp4076
(dp4077
g61
(dp4078
sg70
g4059
sg63
(lp4079
g56
(g77
g58
NtRp4080
(dp4081
g61
(dp4082
sg70
g4076
sg63
(lp4083
g56
(g57
g58
NtRp4084
(dp4085
g61
(dp4086
g69
I2
ssg70
g4080
sg63
(lp4087
S'My New App'
p4088
asbasbasbasbasbasbasbag56
(g72
g58
NtRp4089
(dp4090
g61
(dp4091
sg70
g4043
sg63
(lp4092
g56
(g77
g58
NtRp4093
(dp4094
g61
(dp4095
sg70
g4089
sg63
(lp4096
g56
(g57
g58
NtRp4097
(dp4098
g61
(dp4099
g69
I3
ssg70
g4093
sg63
(lp4100
g56
(g65
g58
NtRp4101
(dp4102
g61
(dp4103
g69
I2
ssg70
Nsg63
(lp4104
g56
(g72
g58
NtRp4105
(dp4106
g61
(dp4107
sg70
g4101
sg63
(lp4108
g56
(g77
g58
NtRp4109
(dp4110
g61
(dp4111
sg70
g4105
sg63
(lp4112
g56
(g57
g58
NtRp4113
(dp4114
g61
(dp4115
g69
I2
ssg70
g4109
sg63
(lp4116
S'subtitle'
p4117
asbasbasbag56
(g72
g58
NtRp4118
(dp4119
g61
(dp4120
sg70
g4101
sg63
(lp4121
g56
(g77
g58
NtRp4122
(dp4123
g61
(dp4124
sg70
g4118
sg63
(lp4125
g56
(g57
g58
NtRp4126
(dp4127
g61
(dp4128
g69
I2
ssg70
g4122
sg63
(lp4129
S'powered by web2py'
p4130
asbasbasbasbasbasbasbag56
(g72
g58
NtRp4131
(dp4132
g61
(dp4133
sg70
g4043
sg63
(lp4134
g56
(g77
g58
NtRp4135
(dp4136
g61
(dp4137
sg70
g4131
sg63
(lp4138
g56
(g57
g58
NtRp4139
(dp4140
g61
(dp4141
g69
I3
ssg70
g4135
sg63
(lp4142
g56
(g65
g58
NtRp4143
(dp4144
g61
(dp4145
g69
I2
ssg70
Nsg63
(lp4146
g56
(g72
g58
NtRp4147
(dp4148
g61
(dp4149
sg70
g4143
sg63
(lp4150
g56
(g77
g58
NtRp4151
(dp4152
g61
(dp4153
sg70
g4147
sg63
(lp4154
g56
(g57
g58
NtRp4155
(dp4156
g61
(dp4157
g69
I2
ssg70
g4151
sg63
(lp4158
S'author'
p4159
asbasbasbag56
(g72
g58
NtRp4160
(dp4161
g61
(dp4162
sg70
g4143
sg63
(lp4163
g56
(g77
g58
NtRp4164
(dp4165
g61
(dp4166
sg70
g4160
sg63
(lp4167
g56
(g57
g58
NtRp4168
(dp4169
g61
(dp4170
g69
I2
ssg70
g4164
sg63
(lp4171
S'you'
p4172
asbasbasbasbasbasbasbag56
(g72
g58
NtRp4173
(dp4174
g61
(dp4175
sg70
g4043
sg63
(lp4176
g56
(g77
g58
NtRp4177
(dp4178
g61
(dp4179
sg70
g4173
sg63
(lp4180
g56
(g57
g58
NtRp4181
(dp4182
g61
(dp4183
g69
I3
ssg70
g4177
sg63
(lp4184
g56
(g65
g58
NtRp4185
(dp4186
g61
(dp4187
g69
I2
ssg70
Nsg63
(lp4188
g56
(g72
g58
NtRp4189
(dp4190
g61
(dp4191
sg70
g4185
sg63
(lp4192
g56
(g77
g58
NtRp4193
(dp4194
g61
(dp4195
sg70
g4189
sg63
(lp4196
g56
(g57
g58
NtRp4197
(dp4198
g61
(dp4199
g69
I2
ssg70
g4193
sg63
(lp4200
S'author_email'
p4201
asbasbasbag56
(g72
g58
NtRp4202
(dp4203
g61
(dp4204
sg70
g4185
sg63
(lp4205
g56
(g77
g58
NtRp4206
(dp4207
g61
(dp4208
sg70
g4202
sg63
(lp4209
g56
(g57
g58
NtRp4210
(dp4211
g61
(dp4212
g69
I2
ssg70
g4206
sg63
(lp4213
S'you@example.com'
p4214
asbasbasbasbasbasbasbag56
(g72
g58
NtRp4215
(dp4216
g61
(dp4217
sg70
g4043
sg63
(lp4218
g56
(g77
g58
NtRp4219
(dp4220
g61
(dp4221
sg70
g4215
sg63
(lp4222
g56
(g57
g58
NtRp4223
(dp4224
g61
(dp4225
g69
I3
ssg70
g4219
sg63
(lp4226
g56
(g65
g58
NtRp4227
(dp4228
g61
(dp4229
g69
I2
ssg70
Nsg63
(lp4230
g56
(g72
g58
NtRp4231
(dp4232
g61
(dp4233
sg70
g4227
sg63
(lp4234
g56
(g77
g58
NtRp4235
(dp4236
g61
(dp4237
sg70
g4231
sg63
(lp4238
g56
(g57
g58
NtRp4239
(dp4240
g61
(dp4241
g69
I2
ssg70
g4235
sg63
(lp4242
S'keywords'
p4243
asbasbasbag56
(g72
g58
NtRp4244
(dp4245
g61
(dp4246
sg70
g4227
sg63
(lp4247
g56
(g77
g58
NtRp4248
(dp4249
g61
(dp4250
sg70
g4244
sg63
(lp4251
g56
(g57
g58
NtRp4252
(dp4253
g61
(dp4254
g69
I2
ssg70
g4248
sg63
(lp4255
S''
asbasbasbasbasbasbasbag56
(g72
g58
NtRp4256
(dp4257
g61
(dp4258
sg70
g4043
sg63
(lp4259
g56
(g77
g58
NtRp4260
(dp4261
g61
(dp4262
sg70
g4256
sg63
(lp4263
g56
(g57
g58
NtRp4264
(dp4265
g61
(dp4266
g69
I3
ssg70
g4260
sg63
(lp4267
g56
(g65
g58
NtRp4268
(dp4269
g61
(dp4270
g69
I2
ssg70
Nsg63
(lp4271
g56
(g72
g58
NtRp4272
(dp4273
g61
(dp4274
sg70
g4268
sg63
(lp4275
g56
(g77
g58
NtRp4276
(dp4277
g61
(dp4278
sg70
g4272
sg63
(lp4279
g56
(g57
g58
NtRp4280
(dp4281
g61
(dp4282
g69
I2
ssg70
g4276
sg63
(lp4283
S'description'
p4284
asbasbasbag56
(g72
g58
NtRp4285
(dp4286
g61
(dp4287
sg70
g4268
sg63
(lp4288
g56
(g77
g58
NtRp4289
(dp4290
g61
(dp4291
sg70
g4285
sg63
(lp4292
g56
(g57
g58
NtRp4293
(dp4294
g61
(dp4295
g69
I2
ssg70
g4289
sg63
(lp4296
S''
asbasbasbasbasbasbasbag56
(g72
g58
NtRp4297
(dp4298
g61
(dp4299
sg70
g4043
sg63
(lp4300
g56
(g77
g58
NtRp4301
(dp4302
g61
(dp4303
sg70
g4297
sg63
(lp4304
g56
(g57
g58
NtRp4305
(dp4306
g61
(dp4307
g69
I3
ssg70
g4301
sg63
(lp4308
g56
(g65
g58
NtRp4309
(dp4310
g61
(dp4311
g69
I2
ssg70
Nsg63
(lp4312
g56
(g72
g58
NtRp4313
(dp4314
g61
(dp4315
sg70
g4309
sg63
(lp4316
g56
(g77
g58
NtRp4317
(dp4318
g61
(dp4319
sg70
g4313
sg63
(lp4320
g56
(g57
g58
NtRp4321
(dp4322
g61
(dp4323
g69
I2
ssg70
g4317
sg63
(lp4324
S'layout_theme'
p4325
asbasbasbag56
(g72
g58
NtRp4326
(dp4327
g61
(dp4328
sg70
g4309
sg63
(lp4329
g56
(g77
g58
NtRp4330
(dp4331
g61
(dp4332
sg70
g4326
sg63
(lp4333
g56
(g57
g58
NtRp4334
(dp4335
g61
(dp4336
g69
I2
ssg70
g4330
sg63
(lp4337
S'Default'
p4338
asbasbasbasbasbasbasbag56
(g72
g58
NtRp4339
(dp4340
g61
(dp4341
sg70
g4043
sg63
(lp4342
g56
(g77
g58
NtRp4343
(dp4344
g61
(dp4345
sg70
g4339
sg63
(lp4346
g56
(g57
g58
NtRp4347
(dp4348
g61
(dp4349
g69
I3
ssg70
g4343
sg63
(lp4350
g56
(g65
g58
NtRp4351
(dp4352
g61
(dp4353
g69
I2
ssg70
Nsg63
(lp4354
g56
(g72
g58
NtRp4355
(dp4356
g61
(dp4357
sg70
g4351
sg63
(lp4358
g56
(g77
g58
NtRp4359
(dp4360
g61
(dp4361
sg70
g4355
sg63
(lp4362
g56
(g57
g58
NtRp4363
(dp4364
g61
(dp4365
g69
I2
ssg70
g4359
sg63
(lp4366
S'database_uri'
p4367
asbasbasbag56
(g72
g58
NtRp4368
(dp4369
g61
(dp4370
sg70
g4351
sg63
(lp4371
g56
(g77
g58
NtRp4372
(dp4373
g61
(dp4374
sg70
g4368
sg63
(lp4375
g56
(g57
g58
NtRp4376
(dp4377
g61
(dp4378
g69
I2
ssg70
g4372
sg63
(lp4379
S'sqlite://storage.sqlite'
p4380
asbasbasbasbasbasbasbag56
(g72
g58
NtRp4381
(dp4382
g61
(dp4383
sg70
g4043
sg63
(lp4384
g56
(g77
g58
NtRp4385
(dp4386
g61
(dp4387
sg70
g4381
sg63
(lp4388
g56
(g57
g58
NtRp4389
(dp4390
g61
(dp4391
g69
I3
ssg70
g4385
sg63
(lp4392
g56
(g65
g58
NtRp4393
(dp4394
g61
(dp4395
g69
I2
ssg70
Nsg63
(lp4396
g56
(g72
g58
NtRp4397
(dp4398
g61
(dp4399
sg70
g4393
sg63
(lp4400
g56
(g77
g58
NtRp4401
(dp4402
g61
(dp4403
sg70
g4397
sg63
(lp4404
g56
(g57
g58
NtRp4405
(dp4406
g61
(dp4407
g69
I2
ssg70
g4401
sg63
(lp4408
S'security_key'
p4409
asbasbasbag56
(g72
g58
NtRp4410
(dp4411
g61
(dp4412
sg70
g4393
sg63
(lp4413
g56
(g77
g58
NtRp4414
(dp4415
g61
(dp4416
sg70
g4410
sg63
(lp4417
g56
(g57
g58
NtRp4418
(dp4419
g61
(dp4420
g69
I2
ssg70
g4414
sg63
(lp4421
S'0bb44441-365a-4591-8e45-bbaa78837974'
p4422
asbasbasbasbasbasbasbag56
(g72
g58
NtRp4423
(dp4424
g61
(dp4425
sg70
g4043
sg63
(lp4426
g56
(g77
g58
NtRp4427
(dp4428
g61
(dp4429
sg70
g4423
sg63
(lp4430
g56
(g57
g58
NtRp4431
(dp4432
g61
(dp4433
g69
I3
ssg70
g4427
sg63
(lp4434
g56
(g65
g58
NtRp4435
(dp4436
g61
(dp4437
g69
I2
ssg70
Nsg63
(lp4438
g56
(g72
g58
NtRp4439
(dp4440
g61
(dp4441
sg70
g4435
sg63
(lp4442
g56
(g77
g58
NtRp4443
(dp4444
g61
(dp4445
sg70
g4439
sg63
(lp4446
g56
(g57
g58
NtRp4447
(dp4448
g61
(dp4449
g69
I2
ssg70
g4443
sg63
(lp4450
S'email_server'
p4451
asbasbasbag56
(g72
g58
NtRp4452
(dp4453
g61
(dp4454
sg70
g4435
sg63
(lp4455
g56
(g77
g58
NtRp4456
(dp4457
g61
(dp4458
sg70
g4452
sg63
(lp4459
g56
(g57
g58
NtRp4460
(dp4461
g61
(dp4462
g69
I2
ssg70
g4456
sg63
(lp4463
S'localhost'
p4464
asbasbasbasbasbasbasbag56
(g72
g58
NtRp4465
(dp4466
g61
(dp4467
sg70
g4043
sg63
(lp4468
g56
(g77
g58
NtRp4469
(dp4470
g61
(dp4471
sg70
g4465
sg63
(lp4472
g56
(g57
g58
NtRp4473
(dp4474
g61
(dp4475
g69
I3
ssg70
g4469
sg63
(lp4476
g56
(g65
g58
NtRp4477
(dp4478
g61
(dp4479
g69
I2
ssg70
Nsg63
(lp4480
g56
(g72
g58
NtRp4481
(dp4482
g61
(dp4483
sg70
g4477
sg63
(lp4484
g56
(g77
g58
NtRp4485
(dp4486
g61
(dp4487
sg70
g4481
sg63
(lp4488
g56
(g57
g58
NtRp4489
(dp4490
g61
(dp4491
g69
I2
ssg70
g4485
sg63
(lp4492
S'email_sender'
p4493
asbasbasbag56
(g72
g58
NtRp4494
(dp4495
g61
(dp4496
sg70
g4477
sg63
(lp4497
g56
(g77
g58
NtRp4498
(dp4499
g61
(dp4500
sg70
g4494
sg63
(lp4501
g56
(g57
g58
NtRp4502
(dp4503
g61
(dp4504
g69
I2
ssg70
g4498
sg63
(lp4505
g4214
asbasbasbasbasbasbasbag56
(g72
g58
NtRp4506
(dp4507
g61
(dp4508
sg70
g4043
sg63
(lp4509
g56
(g77
g58
NtRp4510
(dp4511
g61
(dp4512
sg70
g4506
sg63
(lp4513
g56
(g57
g58
NtRp4514
(dp4515
g61
(dp4516
g69
I3
ssg70
g4510
sg63
(lp4517
g56
(g65
g58
NtRp4518
(dp4519
g61
(dp4520
g69
I2
ssg70
Nsg63
(lp4521
g56
(g72
g58
NtRp4522
(dp4523
g61
(dp4524
sg70
g4518
sg63
(lp4525
g56
(g77
g58
NtRp4526
(dp4527
g61
(dp4528
sg70
g4522
sg63
(lp4529
g56
(g57
g58
NtRp4530
(dp4531
g61
(dp4532
g69
I2
ssg70
g4526
sg63
(lp4533
S'email_login'
p4534
asbasbasbag56
(g72
g58
NtRp4535
(dp4536
g61
(dp4537
sg70
g4518
sg63
(lp4538
g56
(g77
g58
NtRp4539
(dp4540
g61
(dp4541
sg70
g4535
sg63
(lp4542
g56
(g57
g58
NtRp4543
(dp4544
g61
(dp4545
g69
I2
ssg70
g4539
sg63
(lp4546
S''
asbasbasbasbasbasbasbag56
(g72
g58
NtRp4547
(dp4548
g61
(dp4549
sg70
g4043
sg63
(lp4550
g56
(g77
g58
NtRp4551
(dp4552
g61
(dp4553
sg70
g4547
sg63
(lp4554
g56
(g57
g58
NtRp4555
(dp4556
g61
(dp4557
g69
I3
ssg70
g4551
sg63
(lp4558
g56
(g65
g58
NtRp4559
(dp4560
g61
(dp4561
g69
I2
ssg70
Nsg63
(lp4562
g56
(g72
g58
NtRp4563
(dp4564
g61
(dp4565
sg70
g4559
sg63
(lp4566
g56
(g77
g58
NtRp4567
(dp4568
g61
(dp4569
sg70
g4563
sg63
(lp4570
g56
(g57
g58
NtRp4571
(dp4572
g61
(dp4573
g69
I2
ssg70
g4567
sg63
(lp4574
S'login_method'
p4575
asbasbasbag56
(g72
g58
NtRp4576
(dp4577
g61
(dp4578
sg70
g4559
sg63
(lp4579
g56
(g77
g58
NtRp4580
(dp4581
g61
(dp4582
sg70
g4576
sg63
(lp4583
g56
(g57
g58
NtRp4584
(dp4585
g61
(dp4586
g69
I2
ssg70
g4580
sg63
(lp4587
S'local'
p4588
asbasbasbasbasbasbasbag56
(g72
g58
NtRp4589
(dp4590
g61
(dp4591
sg70
g4043
sg63
(lp4592
g56
(g77
g58
NtRp4593
(dp4594
g61
(dp4595
sg70
g4589
sg63
(lp4596
g56
(g57
g58
NtRp4597
(dp4598
g61
(dp4599
g69
I3
ssg70
g4593
sg63
(lp4600
g56
(g65
g58
NtRp4601
(dp4602
g61
(dp4603
g69
I2
ssg70
Nsg63
(lp4604
g56
(g72
g58
NtRp4605
(dp4606
g61
(dp4607
sg70
g4601
sg63
(lp4608
g56
(g77
g58
NtRp4609
(dp4610
g61
(dp4611
sg70
g4605
sg63
(lp4612
g56
(g57
g58
NtRp4613
(dp4614
g61
(dp4615
g69
I2
ssg70
g4609
sg63
(lp4616
S'login_config'
p4617
asbasbasbag56
(g72
g58
NtRp4618
(dp4619
g61
(dp4620
sg70
g4601
sg63
(lp4621
g56
(g77
g58
NtRp4622
(dp4623
g61
(dp4624
sg70
g4618
sg63
(lp4625
g56
(g57
g58
NtRp4626
(dp4627
g61
(dp4628
g69
I2
ssg70
g4622
sg63
(lp4629
S''
asbasbasbasbasbasbasbag56
(g72
g58
NtRp4630
(dp4631
g61
(dp4632
sg70
g4043
sg63
(lp4633
g56
(g77
g58
NtRp4634
(dp4635
g61
(dp4636
sg70
g4630
sg63
(lp4637
g56
(g57
g58
NtRp4638
(dp4639
g61
(dp4640
g69
I3
ssg70
g4634
sg63
(lp4641
g56
(g65
g58
NtRp4642
(dp4643
g61
(dp4644
g69
I2
ssg70
Nsg63
(lp4645
g56
(g72
g58
NtRp4646
(dp4647
g61
(dp4648
sg70
g4642
sg63
(lp4649
g56
(g77
g58
NtRp4650
(dp4651
g61
(dp4652
sg70
g4646
sg63
(lp4653
g56
(g57
g58
NtRp4654
(dp4655
g61
(dp4656
g69
I2
ssg70
g4650
sg63
(lp4657
S'plugins'
p4658
asbasbasbag56
(g72
g58
NtRp4659
(dp4660
g61
(dp4661
sg70
g4642
sg63
(lp4662
g56
(g77
g58
NtRp4663
(dp4664
g61
(dp4665
sg70
g4659
sg63
(lp4666
g56
(g57
g58
NtRp4667
(dp4668
g61
(dp4669
g69
I2
ssg70
g4663
sg63
(lp4670
g56
(g65
g58
NtRp4671
(dp4672
g61
(dp4673
g69
I1
ssg70
Nsg63
(lp4674
sbasbasbasbasbasbasbasbasbasbasbasbag56
(g72
g58
NtRp4675
(dp4676
g61
(dp4677
sg70
g3902
sg63
(lp4678
g56
(g77
g58
NtRp4679
(dp4680
g61
(dp4681
g81
g82
ssg70
g4675
sg63
(lp4682
S'table_auth_user'
p4683
asbag56
(g77
g58
NtRp4684
(dp4685
g61
(dp4686
g88
g89
ssg70
g4675
sg63
(lp4687
S':'
asbag56
(g77
g58
NtRp4688
(dp4689
g61
(dp4690
sg70
g4675
sg63
(lp4691
g56
(g57
g58
NtRp4692
(dp4693
g61
(dp4694
g69
I4
ssg70
g4688
sg63
(lp4695
g56
(g65
g58
NtRp4696
(dp4697
g61
(dp4698
g69
I3
ssg70
Nsg63
(lp4699
g56
(g72
g58
NtRp4700
(dp4701
g61
(dp4702
sg70
g4696
sg63
(lp4703
g56
(g77
g58
NtRp4704
(dp4705
g61
(dp4706
sg70
g4700
sg63
(lp4707
g56
(g57
g58
NtRp4708
(dp4709
g61
(dp4710
g69
I3
ssg70
g4704
sg63
(lp4711
S'username'
p4712
asbasbasbag56
(g72
g58
NtRp4713
(dp4714
g61
(dp4715
sg70
g4696
sg63
(lp4716
g56
(g77
g58
NtRp4717
(dp4718
g61
(dp4719
sg70
g4713
sg63
(lp4720
g56
(g57
g58
NtRp4721
(dp4722
g61
(dp4723
g69
I3
ssg70
g4717
sg63
(lp4724
S'first_name'
p4725
asbasbasbag56
(g72
g58
NtRp4726
(dp4727
g61
(dp4728
sg70
g4696
sg63
(lp4729
g56
(g77
g58
NtRp4730
(dp4731
g61
(dp4732
sg70
g4726
sg63
(lp4733
g56
(g57
g58
NtRp4734
(dp4735
g61
(dp4736
g69
I3
ssg70
g4730
sg63
(lp4737
S'last_name'
p4738
asbasbasbag56
(g72
g58
NtRp4739
(dp4740
g61
(dp4741
sg70
g4696
sg63
(lp4742
g56
(g77
g58
NtRp4743
(dp4744
g61
(dp4745
sg70
g4739
sg63
(lp4746
g56
(g57
g58
NtRp4747
(dp4748
g61
(dp4749
g69
I3
ssg70
g4743
sg63
(lp4750
S'email'
p4751
asbasbasbag56
(g72
g58
NtRp4752
(dp4753
g61
(dp4754
sg70
g4696
sg63
(lp4755
g56
(g77
g58
NtRp4756
(dp4757
g61
(dp4758
sg70
g4752
sg63
(lp4759
g56
(g57
g58
NtRp4760
(dp4761
g61
(dp4762
g69
I3
ssg70
g4756
sg63
(lp4763
S'password'
p4764
asbasbasbasbasbasbasbag56
(g72
g58
NtRp4765
(dp4766
g61
(dp4767
sg70
g3902
sg63
(lp4768
g56
(g77
g58
NtRp4769
(dp4770
g61
(dp4771
g81
g82
ssg70
g4765
sg63
(lp4772
S'tables'
p4773
asbag56
(g77
g58
NtRp4774
(dp4775
g61
(dp4776
g88
g89
ssg70
g4765
sg63
(lp4777
S':'
asbag56
(g77
g58
NtRp4778
(dp4779
g61
(dp4780
sg70
g4765
sg63
(lp4781
g56
(g57
g58
NtRp4782
(dp4783
g61
(dp4784
g69
I4
ssg70
g4778
sg63
(lp4785
g56
(g65
g58
NtRp4786
(dp4787
g61
(dp4788
g69
I3
ssg70
Nsg63
(lp4789
g56
(g72
g58
NtRp4790
(dp4791
g61
(dp4792
sg70
g4786
sg63
(lp4793
g56
(g77
g58
NtRp4794
(dp4795
g61
(dp4796
sg70
g4790
sg63
(lp4797
g56
(g57
g58
NtRp4798
(dp4799
g61
(dp4800
g69
I3
ssg70
g4794
sg63
(lp4801
S'auth_user'
p4802
asbasbasbasbasbasbasbasbasbasbasbag56
(g72
g58
NtRp4803
(dp4804
g61
(dp4805
sg70
g3877
sg63
(lp4806
g56
(g77
g58
NtRp4807
(dp4808
g61
(dp4809
g81
g82
ssg70
g4803
sg63
(lp4810
S'authorized'
p4811
asbag56
(g77
g58
NtRp4812
(dp4813
g61
(dp4814
g88
g89
ssg70
g4803
sg63
(lp4815
S':'
asbag56
(g77
g58
NtRp4816
(dp4817
g61
(dp4818
sg70
g4803
sg63
(lp4819
g56
(g57
g58
NtRp4820
(dp4821
g61
(dp4822
g69
I5
ssg70
g4816
sg63
(lp4823
g2096
asbasbasbag56
(g72
g58
NtRp4824
(dp4825
g61
(dp4826
sg70
g3877
sg63
(lp4827
g56
(g77
g58
NtRp4828
(dp4829
g61
(dp4830
g81
g82
ssg70
g4824
sg63
(lp4831
S'check_version'
p4832
asbag56
(g77
g58
NtRp4833
(dp4834
g61
(dp4835
g88
g89
ssg70
g4824
sg63
(lp4836
S':'
asbag56
(g77
g58
NtRp4837
(dp4838
g61
(dp4839
sg70
g4824
sg63
(lp4840
g56
(g57
g58
NtRp4841
(dp4842
g61
(dp4843
g69
I5
ssg70
g4837
sg63
(lp4844
g2096
asbasbasbag56
(g72
g58
NtRp4845
(dp4846
g61
(dp4847
sg70
g3877
sg63
(lp4848
g56
(g77
g58
NtRp4849
(dp4850
g61
(dp4851
g81
g82
ssg70
g4845
sg63
(lp4852
S'last_time'
p4853
asbag56
(g77
g58
NtRp4854
(dp4855
g61
(dp4856
g88
g89
ssg70
g4845
sg63
(lp4857
S':'
asbag56
(g77
g58
NtRp4858
(dp4859
g61
(dp4860
sg70
g4845
sg63
(lp4861
g56
(g57
g58
NtRp4862
(dp4863
g61
(dp4864
g69
I5
ssg70
g4858
sg63
(lp4865
S'1326021896.666'
p4866
asbasbasbag56
(g72
g58
NtRp4867
(dp4868
g61
(dp4869
sg70
g3877
sg63
(lp4870
g56
(g77
g58
NtRp4871
(dp4872
g61
(dp4873
g81
g82
ssg70
g4867
sg63
(lp4874
S'plugins'
p4875
asbag56
(g77
g58
NtRp4876
(dp4877
g61
(dp4878
g88
g89
ssg70
g4867
sg63
(lp4879
S':'
asbag56
(g77
g58
NtRp4880
(dp4881
g61
(dp4882
sg70
g4867
sg63
(lp4883
g56
(g57
g58
NtRp4884
(dp4885
g61
(dp4886
g69
I5
ssg70
g4880
sg63
(lp4887
g56
(g65
g58
NtRp4888
(dp4889
g61
(dp4890
g69
I4
ssg70
Nsg63
(lp4891
g56
(g72
g58
NtRp4892
(dp4893
g61
(dp4894
sg70
g4888
sg63
(lp4895
g56
(g77
g58
NtRp4896
(dp4897
g61
(dp4898
sg70
g4892
sg63
(lp4899
g56
(g57
g58
NtRp4900
(dp4901
g61
(dp4902
g69
I4
ssg70
g4896
sg63
(lp4903
S'web2py.plugin.translate.w2p'
p4904
asbasbasbag56
(g72
g58
NtRp4905
(dp4906
g61
(dp4907
sg70
g4888
sg63
(lp4908
g56
(g77
g58
NtRp4909
(dp4910
g61
(dp4911
sg70
g4905
sg63
(lp4912
g56
(g57
g58
NtRp4913
(dp4914
g61
(dp4915
g69
I4
ssg70
g4909
sg63
(lp4916
S'web2py.plugin.sortable.w2p'
p4917
asbasbasbag56
(g72
g58
NtRp4918
(dp4919
g61
(dp4920
sg70
g4888
sg63
(lp4921
g56
(g77
g58
NtRp4922
(dp4923
g61
(dp4924
sg70
g4918
sg63
(lp4925
g56
(g57
g58
NtRp4926
(dp4927
g61
(dp4928
g69
I4
ssg70
g4922
sg63
(lp4929
S'web2py.plugin.comments.w2p'
p4930
asbasbasbag56
(g72
g58
NtRp4931
(dp4932
g61
(dp4933
sg70
g4888
sg63
(lp4934
g56
(g77
g58
NtRp4935
(dp4936
g61
(dp4937
sg70
g4931
sg63
(lp4938
g56
(g57
g58
NtRp4939
(dp4940
g61
(dp4941
g69
I4
ssg70
g4935
sg63
(lp4942
S'web2py.plugin.jqgrid.w2p'
p4943
asbasbasbag56
(g72
g58
NtRp4944
(dp4945
g61
(dp4946
sg70
g4888
sg63
(lp4947
g56
(g77
g58
NtRp4948
(dp4949
g61
(dp4950
sg70
g4944
sg63
(lp4951
g56
(g57
g58
NtRp4952
(dp4953
g61
(dp4954
g69
I4
ssg70
g4948
sg63
(lp4955
S'web2py.plugin.datatable.w2p'
p4956
asbasbasbag56
(g72
g58
NtRp4957
(dp4958
g61
(dp4959
sg70
g4888
sg63
(lp4960
g56
(g77
g58
NtRp4961
(dp4962
g61
(dp4963
sg70
g4957
sg63
(lp4964
g56
(g57
g58
NtRp4965
(dp4966
g61
(dp4967
g69
I4
ssg70
g4961
sg63
(lp4968
S'web2py.plugin.mediaplayer.w2p'
p4969
asbasbasbag56
(g72
g58
NtRp4970
(dp4971
g61
(dp4972
sg70
g4888
sg63
(lp4973
g56
(g77
g58
NtRp4974
(dp4975
g61
(dp4976
sg70
g4970
sg63
(lp4977
g56
(g57
g58
NtRp4978
(dp4979
g61
(dp4980
g69
I4
ssg70
g4974
sg63
(lp4981
S'web2py.plugin.latex.w2p'
p4982
asbasbasbag56
(g72
g58
NtRp4983
(dp4984
g61
(dp4985
sg70
g4888
sg63
(lp4986
g56
(g77
g58
NtRp4987
(dp4988
g61
(dp4989
sg70
g4983
sg63
(lp4990
g56
(g57
g58
NtRp4991
(dp4992
g61
(dp4993
g69
I4
ssg70
g4987
sg63
(lp4994
S'web2py.plugin.utils.w2p'
p4995
asbasbasbag56
(g72
g58
NtRp4996
(dp4997
g61
(dp4998
sg70
g4888
sg63
(lp4999
g56
(g77
g58
NtRp5000
(dp5001
g61
(dp5002
sg70
g4996
sg63
(lp5003
g56
(g57
g58
NtRp5004
(dp5005
g61
(dp5006
g69
I4
ssg70
g5000
sg63
(lp5007
S'web2py.plugin.wiki.w2p'
p5008
asbasbasbag56
(g72
g58
NtRp5009
(dp5010
g61
(dp5011
sg70
g4888
sg63
(lp5012
g56
(g77
g58
NtRp5013
(dp5014
g61
(dp5015
sg70
g5009
sg63
(lp5016
g56
(g57
g58
NtRp5017
(dp5018
g61
(dp5019
g69
I4
ssg70
g5013
sg63
(lp5020
S'web2py.plugin.multiselect.w2p'
p5021
asbasbasbag56
(g72
g58
NtRp5022
(dp5023
g61
(dp5024
sg70
g4888
sg63
(lp5025
g56
(g77
g58
NtRp5026
(dp5027
g61
(dp5028
sg70
g5022
sg63
(lp5029
g56
(g57
g58
NtRp5030
(dp5031
g61
(dp5032
g69
I4
ssg70
g5026
sg63
(lp5033
S'web2py.plugin.gmap.w2p'
p5034
asbasbasbag56
(g72
g58
NtRp5035
(dp5036
g61
(dp5037
sg70
g4888
sg63
(lp5038
g56
(g77
g58
NtRp5039
(dp5040
g61
(dp5041
sg70
g5035
sg63
(lp5042
g56
(g57
g58
NtRp5043
(dp5044
g61
(dp5045
g69
I4
ssg70
g5039
sg63
(lp5046
S'web2py.plugin.mmodal.w2p'
p5047
asbasbasbag56
(g72
g58
NtRp5048
(dp5049
g61
(dp5050
sg70
g4888
sg63
(lp5051
g56
(g77
g58
NtRp5052
(dp5053
g61
(dp5054
sg70
g5048
sg63
(lp5055
g56
(g57
g58
NtRp5056
(dp5057
g61
(dp5058
g69
I4
ssg70
g5052
sg63
(lp5059
S'web2py.plugin.attachments.w2p'
p5060
asbasbasbag56
(g72
g58
NtRp5061
(dp5062
g61
(dp5063
sg70
g4888
sg63
(lp5064
g56
(g77
g58
NtRp5065
(dp5066
g61
(dp5067
sg70
g5061
sg63
(lp5068
g56
(g57
g58
NtRp5069
(dp5070
g61
(dp5071
g69
I4
ssg70
g5065
sg63
(lp5072
S'web2py.plugin.google_checkout.w2p'
p5073
asbasbasbag56
(g72
g58
NtRp5074
(dp5075
g61
(dp5076
sg70
g4888
sg63
(lp5077
g56
(g77
g58
NtRp5078
(dp5079
g61
(dp5080
sg70
g5074
sg63
(lp5081
g56
(g57
g58
NtRp5082
(dp5083
g61
(dp5084
g69
I4
ssg70
g5078
sg63
(lp5085
S'web2py.plugin.clickatell.w2p'
p5086
asbasbasbag56
(g72
g58
NtRp5087
(dp5088
g61
(dp5089
sg70
g4888
sg63
(lp5090
g56
(g77
g58
NtRp5091
(dp5092
g61
(dp5093
sg70
g5087
sg63
(lp5094
g56
(g57
g58
NtRp5095
(dp5096
g61
(dp5097
g69
I4
ssg70
g5091
sg63
(lp5098
S'web2py.plugin.jqmobile.w2p'
p5099
asbasbasbag56
(g72
g58
NtRp5100
(dp5101
g61
(dp5102
sg70
g4888
sg63
(lp5103
g56
(g77
g58
NtRp5104
(dp5105
g61
(dp5106
sg70
g5100
sg63
(lp5107
g56
(g57
g58
NtRp5108
(dp5109
g61
(dp5110
g69
I4
ssg70
g5104
sg63
(lp5111
S'web2py.plugin.dropdown.w2p'
p5112
asbasbasbag56
(g72
g58
NtRp5113
(dp5114
g61
(dp5115
sg70
g4888
sg63
(lp5116
g56
(g77
g58
NtRp5117
(dp5118
g61
(dp5119
sg70
g5113
sg63
(lp5120
g56
(g57
g58
NtRp5121
(dp5122
g61
(dp5123
g69
I4
ssg70
g5117
sg63
(lp5124
S'web2py.plugin.markitup.w2p'
p5125
asbasbasbag56
(g72
g58
NtRp5126
(dp5127
g61
(dp5128
sg70
g4888
sg63
(lp5129
g56
(g77
g58
NtRp5130
(dp5131
g61
(dp5132
sg70
g5126
sg63
(lp5133
g56
(g57
g58
NtRp5134
(dp5135
g61
(dp5136
g69
I4
ssg70
g5130
sg63
(lp5137
S'web2py.plugin.matplotlib.w2p'
p5138
asbasbasbag56
(g72
g58
NtRp5139
(dp5140
g61
(dp5141
sg70
g4888
sg63
(lp5142
g56
(g77
g58
NtRp5143
(dp5144
g61
(dp5145
sg70
g5139
sg63
(lp5146
g56
(g57
g58
NtRp5147
(dp5148
g61
(dp5149
g69
I4
ssg70
g5143
sg63
(lp5150
S'web2py.plugin.tagging.w2p'
p5151
asbasbasbag56
(g72
g58
NtRp5152
(dp5153
g61
(dp5154
sg70
g4888
sg63
(lp5155
g56
(g77
g58
NtRp5156
(dp5157
g61
(dp5158
sg70
g5152
sg63
(lp5159
g56
(g57
g58
NtRp5160
(dp5161
g61
(dp5162
g69
I4
ssg70
g5156
sg63
(lp5163
S'web2py.plugin.rating.w2p'
p5164
asbasbasbag56
(g72
g58
NtRp5165
(dp5166
g61
(dp5167
sg70
g4888
sg63
(lp5168
g56
(g77
g58
NtRp5169
(dp5170
g61
(dp5171
sg70
g5165
sg63
(lp5172
g56
(g57
g58
NtRp5173
(dp5174
g61
(dp5175
g69
I4
ssg70
g5169
sg63
(lp5176
S'web2py.plugin.locking.w2p'
p5177
asbasbasbag56
(g72
g58
NtRp5178
(dp5179
g61
(dp5180
sg70
g4888
sg63
(lp5181
g56
(g77
g58
NtRp5182
(dp5183
g61
(dp5184
sg70
g5178
sg63
(lp5185
g56
(g57
g58
NtRp5186
(dp5187
g61
(dp5188
g69
I4
ssg70
g5182
sg63
(lp5189
S'web2py.plugin.simple_comments.w2p'
p5190
asbasbasbasbasbasbasbag56
(g72
g58
NtRp5191
(dp5192
g61
(dp5193
sg70
g3877
sg63
(lp5194
g56
(g77
g58
NtRp5195
(dp5196
g61
(dp5197
g81
g82
ssg70
g5191
sg63
(lp5198
S'themes'
p5199
asbag56
(g77
g58
NtRp5200
(dp5201
g61
(dp5202
g88
g89
ssg70
g5191
sg63
(lp5203
S':'
asbag56
(g77
g58
NtRp5204
(dp5205
g61
(dp5206
sg70
g5191
sg63
(lp5207
g56
(g57
g58
NtRp5208
(dp5209
g61
(dp5210
g69
I5
ssg70
g5204
sg63
(lp5211
g56
(g65
g58
NtRp5212
(dp5213
g61
(dp5214
g69
I4
ssg70
Nsg63
(lp5215
g56
(g72
g58
NtRp5216
(dp5217
g61
(dp5218
sg70
g5212
sg63
(lp5219
g56
(g77
g58
NtRp5220
(dp5221
g61
(dp5222
sg70
g5216
sg63
(lp5223
g56
(g57
g58
NtRp5224
(dp5225
g61
(dp5226
g69
I4
ssg70
g5220
sg63
(lp5227
S'Default'
p5228
asbasbasbag56
(g72
g58
NtRp5229
(dp5230
g61
(dp5231
sg70
g5212
sg63
(lp5232
g56
(g77
g58
NtRp5233
(dp5234
g61
(dp5235
sg70
g5229
sg63
(lp5236
g56
(g57
g58
NtRp5237
(dp5238
g61
(dp5239
g69
I4
ssg70
g5233
sg63
(lp5240
S'External'
p5241
asbasbasbag56
(g72
g58
NtRp5242
(dp5243
g61
(dp5244
sg70
g5212
sg63
(lp5245
g56
(g77
g58
NtRp5246
(dp5247
g61
(dp5248
sg70
g5242
sg63
(lp5249
g56
(g57
g58
NtRp5250
(dp5251
g61
(dp5252
g69
I4
ssg70
g5246
sg63
(lp5253
S'solutionorange'
p5254
asbasbasbag56
(g72
g58
NtRp5255
(dp5256
g61
(dp5257
sg70
g5212
sg63
(lp5258
g56
(g77
g58
NtRp5259
(dp5260
g61
(dp5261
sg70
g5255
sg63
(lp5262
g56
(g57
g58
NtRp5263
(dp5264
g61
(dp5265
g69
I4
ssg70
g5259
sg63
(lp5266
S'Commission'
p5267
asbasbasbag56
(g72
g58
NtRp5268
(dp5269
g61
(dp5270
sg70
g5212
sg63
(lp5271
g56
(g77
g58
NtRp5272
(dp5273
g61
(dp5274
sg70
g5268
sg63
(lp5275
g56
(g57
g58
NtRp5276
(dp5277
g61
(dp5278
g69
I4
ssg70
g5272
sg63
(lp5279
S'FlashyWeb'
p5280
asbasbasbag56
(g72
g58
NtRp5281
(dp5282
g61
(dp5283
sg70
g5212
sg63
(lp5284
g56
(g77
g58
NtRp5285
(dp5286
g61
(dp5287
sg70
g5281
sg63
(lp5288
g56
(g57
g58
NtRp5289
(dp5290
g61
(dp5291
g69
I4
ssg70
g5285
sg63
(lp5292
S'Optimism'
p5293
asbasbasbag56
(g72
g58
NtRp5294
(dp5295
g61
(dp5296
sg70
g5212
sg63
(lp5297
g56
(g77
g58
NtRp5298
(dp5299
g61
(dp5300
sg70
g5294
sg63
(lp5301
g56
(g57
g58
NtRp5302
(dp5303
g61
(dp5304
g69
I4
ssg70
g5298
sg63
(lp5305
S'Uncomplicated'
p5306
asbasbasbag56
(g72
g58
NtRp5307
(dp5308
g61
(dp5309
sg70
g5212
sg63
(lp5310
g56
(g77
g58
NtRp5311
(dp5312
g61
(dp5313
sg70
g5307
sg63
(lp5314
g56
(g57
g58
NtRp5315
(dp5316
g61
(dp5317
g69
I4
ssg70
g5311
sg63
(lp5318
S'Instant'
p5319
asbasbasbag56
(g72
g58
NtRp5320
(dp5321
g61
(dp5322
sg70
g5212
sg63
(lp5323
g56
(g77
g58
NtRp5324
(dp5325
g61
(dp5326
sg70
g5320
sg63
(lp5327
g56
(g57
g58
NtRp5328
(dp5329
g61
(dp5330
g69
I4
ssg70
g5324
sg63
(lp5331
S'Incorporated'
p5332
asbasbasbag56
(g72
g58
NtRp5333
(dp5334
g61
(dp5335
sg70
g5212
sg63
(lp5336
g56
(g77
g58
NtRp5337
(dp5338
g61
(dp5339
sg70
g5333
sg63
(lp5340
g56
(g57
g58
NtRp5341
(dp5342
g61
(dp5343
g69
I4
ssg70
g5337
sg63
(lp5344
S'Rambling'
p5345
asbasbasbag56
(g72
g58
NtRp5346
(dp5347
g61
(dp5348
sg70
g5212
sg63
(lp5349
g56
(g77
g58
NtRp5350
(dp5351
g61
(dp5352
sg70
g5346
sg63
(lp5353
g56
(g57
g58
NtRp5354
(dp5355
g61
(dp5356
g69
I4
ssg70
g5350
sg63
(lp5357
S'Embouteillage'
p5358
asbasbasbag56
(g72
g58
NtRp5359
(dp5360
g61
(dp5361
sg70
g5212
sg63
(lp5362
g56
(g77
g58
NtRp5363
(dp5364
g61
(dp5365
sg70
g5359
sg63
(lp5366
g56
(g57
g58
NtRp5367
(dp5368
g61
(dp5369
g69
I4
ssg70
g5363
sg63
(lp5370
S'Abrasive'
p5371
asbasbasbag56
(g72
g58
NtRp5372
(dp5373
g61
(dp5374
sg70
g5212
sg63
(lp5375
g56
(g77
g58
NtRp5376
(dp5377
g61
(dp5378
sg70
g5372
sg63
(lp5379
g56
(g57
g58
NtRp5380
(dp5381
g61
(dp5382
g69
I4
ssg70
g5376
sg63
(lp5383
S'Customize'
p5384
asbasbasbag56
(g72
g58
NtRp5385
(dp5386
g61
(dp5387
sg70
g5212
sg63
(lp5388
g56
(g77
g58
NtRp5389
(dp5390
g61
(dp5391
sg70
g5385
sg63
(lp5392
g56
(g57
g58
NtRp5393
(dp5394
g61
(dp5395
g69
I4
ssg70
g5389
sg63
(lp5396
S'Experience'
p5397
asbasbasbag56
(g72
g58
NtRp5398
(dp5399
g61
(dp5400
sg70
g5212
sg63
(lp5401
g56
(g77
g58
NtRp5402
(dp5403
g61
(dp5404
sg70
g5398
sg63
(lp5405
g56
(g57
g58
NtRp5406
(dp5407
g61
(dp5408
g69
I4
ssg70
g5402
sg63
(lp5409
S'FCTHarvest'
p5410
asbasbasbag56
(g72
g58
NtRp5411
(dp5412
g61
(dp5413
sg70
g5212
sg63
(lp5414
g56
(g77
g58
NtRp5415
(dp5416
g61
(dp5417
sg70
g5411
sg63
(lp5418
g56
(g57
g58
NtRp5419
(dp5420
g61
(dp5421
g69
I4
ssg70
g5415
sg63
(lp5422
S'sliced'
p5423
asbasbasbag56
(g72
g58
NtRp5424
(dp5425
g61
(dp5426
sg70
g5212
sg63
(lp5427
g56
(g77
g58
NtRp5428
(dp5429
g61
(dp5430
sg70
g5424
sg63
(lp5431
g56
(g57
g58
NtRp5432
(dp5433
g61
(dp5434
g69
I4
ssg70
g5428
sg63
(lp5435
S'PremiumSeries'
p5436
asbasbasbag56
(g72
g58
NtRp5437
(dp5438
g61
(dp5439
sg70
g5212
sg63
(lp5440
g56
(g77
g58
NtRp5441
(dp5442
g61
(dp5443
sg70
g5437
sg63
(lp5444
g56
(g57
g58
NtRp5445
(dp5446
g61
(dp5447
g69
I4
ssg70
g5441
sg63
(lp5448
S'EfflorescencePurple'
p5449
asbasbasbag56
(g72
g58
NtRp5450
(dp5451
g61
(dp5452
sg70
g5212
sg63
(lp5453
g56
(g77
g58
NtRp5454
(dp5455
g61
(dp5456
sg70
g5450
sg63
(lp5457
g56
(g57
g58
NtRp5458
(dp5459
g61
(dp5460
g69
I4
ssg70
g5454
sg63
(lp5461
S'Pluralism'
p5462
asbasbasbag56
(g72
g58
NtRp5463
(dp5464
g61
(dp5465
sg70
g5212
sg63
(lp5466
g56
(g77
g58
NtRp5467
(dp5468
g61
(dp5469
sg70
g5463
sg63
(lp5470
g56
(g57
g58
NtRp5471
(dp5472
g61
(dp5473
g69
I4
ssg70
g5467
sg63
(lp5474
S'Sampling'
p5475
asbasbasbag56
(g72
g58
NtRp5476
(dp5477
g61
(dp5478
sg70
g5212
sg63
(lp5479
g56
(g77
g58
NtRp5480
(dp5481
g61
(dp5482
sg70
g5476
sg63
(lp5483
g56
(g57
g58
NtRp5484
(dp5485
g61
(dp5486
g69
I4
ssg70
g5480
sg63
(lp5487
S'NewsFlash'
p5488
asbasbasbag56
(g72
g58
NtRp5489
(dp5490
g61
(dp5491
sg70
g5212
sg63
(lp5492
g56
(g77
g58
NtRp5493
(dp5494
g61
(dp5495
sg70
g5489
sg63
(lp5496
g56
(g57
g58
NtRp5497
(dp5498
g61
(dp5499
g69
I4
ssg70
g5493
sg63
(lp5500
S'Flourish'
p5501
asbasbasbag56
(g72
g58
NtRp5502
(dp5503
g61
(dp5504
sg70
g5212
sg63
(lp5505
g56
(g77
g58
NtRp5506
(dp5507
g61
(dp5508
sg70
g5502
sg63
(lp5509
g56
(g57
g58
NtRp5510
(dp5511
g61
(dp5512
g69
I4
ssg70
g5506
sg63
(lp5513
S'Simpletex'
p5514
asbasbasbag56
(g72
g58
NtRp5515
(dp5516
g61
(dp5517
sg70
g5212
sg63
(lp5518
g56
(g77
g58
NtRp5519
(dp5520
g61
(dp5521
sg70
g5515
sg63
(lp5522
g56
(g57
g58
NtRp5523
(dp5524
g61
(dp5525
g69
I4
ssg70
g5519
sg63
(lp5526
S'Blogging'
p5527
asbasbasbag56
(g72
g58
NtRp5528
(dp5529
g61
(dp5530
sg70
g5212
sg63
(lp5531
g56
(g77
g58
NtRp5532
(dp5533
g61
(dp5534
sg70
g5528
sg63
(lp5535
g56
(g57
g58
NtRp5536
(dp5537
g61
(dp5538
g69
I4
ssg70
g5532
sg63
(lp5539
S'FunRide'
p5540
asbasbasbag56
(g72
g58
NtRp5541
(dp5542
g61
(dp5543
sg70
g5212
sg63
(lp5544
g56
(g77
g58
NtRp5545
(dp5546
g61
(dp5547
sg70
g5541
sg63
(lp5548
g56
(g57
g58
NtRp5549
(dp5550
g61
(dp5551
g69
I4
ssg70
g5545
sg63
(lp5552
S'Papira'
p5553
asbasbasbag56
(g72
g58
NtRp5554
(dp5555
g61
(dp5556
sg70
g5212
sg63
(lp5557
g56
(g77
g58
NtRp5558
(dp5559
g61
(dp5560
sg70
g5554
sg63
(lp5561
g56
(g57
g58
NtRp5562
(dp5563
g61
(dp5564
g69
I4
ssg70
g5558
sg63
(lp5565
S'solutionblue'
p5566
asbasbasbag56
(g72
g58
NtRp5567
(dp5568
g61
(dp5569
sg70
g5212
sg63
(lp5570
g56
(g77
g58
NtRp5571
(dp5572
g61
(dp5573
sg70
g5567
sg63
(lp5574
g56
(g57
g58
NtRp5575
(dp5576
g61
(dp5577
g69
I4
ssg70
g5571
sg63
(lp5578
S'Oxidation'
p5579
asbasbasbag56
(g72
g58
NtRp5580
(dp5581
g61
(dp5582
sg70
g5212
sg63
(lp5583
g56
(g77
g58
NtRp5584
(dp5585
g61
(dp5586
sg70
g5580
sg63
(lp5587
g56
(g57
g58
NtRp5588
(dp5589
g61
(dp5590
g69
I4
ssg70
g5584
sg63
(lp5591
S'Branches'
p5592
asbasbasbag56
(g72
g58
NtRp5593
(dp5594
g61
(dp5595
sg70
g5212
sg63
(lp5596
g56
(g77
g58
NtRp5597
(dp5598
g61
(dp5599
sg70
g5593
sg63
(lp5600
g56
(g57
g58
NtRp5601
(dp5602
g61
(dp5603
g69
I4
ssg70
g5597
sg63
(lp5604
S'PetCharms'
p5605
asbasbasbag56
(g72
g58
NtRp5606
(dp5607
g61
(dp5608
sg70
g5212
sg63
(lp5609
g56
(g77
g58
NtRp5610
(dp5611
g61
(dp5612
sg70
g5606
sg63
(lp5613
g56
(g57
g58
NtRp5614
(dp5615
g61
(dp5616
g69
I4
ssg70
g5610
sg63
(lp5617
S'StickyBud'
p5618
asbasbasbag56
(g72
g58
NtRp5619
(dp5620
g61
(dp5621
sg70
g5212
sg63
(lp5622
g56
(g77
g58
NtRp5623
(dp5624
g61
(dp5625
sg70
g5619
sg63
(lp5626
g56
(g57
g58
NtRp5627
(dp5628
g61
(dp5629
g69
I4
ssg70
g5623
sg63
(lp5630
S'EfflorescenceOrange'
p5631
asbasbasbag56
(g72
g58
NtRp5632
(dp5633
g61
(dp5634
sg70
g5212
sg63
(lp5635
g56
(g77
g58
NtRp5636
(dp5637
g61
(dp5638
sg70
g5632
sg63
(lp5639
g56
(g57
g58
NtRp5640
(dp5641
g61
(dp5642
g69
I4
ssg70
g5636
sg63
(lp5643
S'Excess'
p5644
asbasbasbag56
(g72
g58
NtRp5645
(dp5646
g61
(dp5647
sg70
g5212
sg63
(lp5648
g56
(g77
g58
NtRp5649
(dp5650
g61
(dp5651
sg70
g5645
sg63
(lp5652
g56
(g57
g58
NtRp5653
(dp5654
g61
(dp5655
g69
I4
ssg70
g5649
sg63
(lp5656
S'VioletRay'
p5657
asbasbasbag56
(g72
g58
NtRp5658
(dp5659
g61
(dp5660
sg70
g5212
sg63
(lp5661
g56
(g77
g58
NtRp5662
(dp5663
g61
(dp5664
sg70
g5658
sg63
(lp5665
g56
(g57
g58
NtRp5666
(dp5667
g61
(dp5668
g69
I4
ssg70
g5662
sg63
(lp5669
S'orangeflower'
p5670
asbasbasbag56
(g72
g58
NtRp5671
(dp5672
g61
(dp5673
sg70
g5212
sg63
(lp5674
g56
(g77
g58
NtRp5675
(dp5676
g61
(dp5677
sg70
g5671
sg63
(lp5678
g56
(g57
g58
NtRp5679
(dp5680
g61
(dp5681
g69
I4
ssg70
g5675
sg63
(lp5682
S'BackgroundGreen'
p5683
asbasbasbag56
(g72
g58
NtRp5684
(dp5685
g61
(dp5686
sg70
g5212
sg63
(lp5687
g56
(g77
g58
NtRp5688
(dp5689
g61
(dp5690
sg70
g5684
sg63
(lp5691
g56
(g57
g58
NtRp5692
(dp5693
g61
(dp5694
g69
I4
ssg70
g5688
sg63
(lp5695
S'LongBeach'
p5696
asbasbasbag56
(g72
g58
NtRp5697
(dp5698
g61
(dp5699
sg70
g5212
sg63
(lp5700
g56
(g77
g58
NtRp5701
(dp5702
g61
(dp5703
sg70
g5697
sg63
(lp5704
g56
(g57
g58
NtRp5705
(dp5706
g61
(dp5707
g69
I4
ssg70
g5701
sg63
(lp5708
S'Glazed'
p5709
asbasbasbag56
(g72
g58
NtRp5710
(dp5711
g61
(dp5712
sg70
g5212
sg63
(lp5713
g56
(g77
g58
NtRp5714
(dp5715
g61
(dp5716
sg70
g5710
sg63
(lp5717
g56
(g57
g58
NtRp5718
(dp5719
g61
(dp5720
g69
I4
ssg70
g5714
sg63
(lp5721
S'EfflorescenceBlue'
p5722
asbasbasbag56
(g72
g58
NtRp5723
(dp5724
g61
(dp5725
sg70
g5212
sg63
(lp5726
g56
(g77
g58
NtRp5727
(dp5728
g61
(dp5729
sg70
g5723
sg63
(lp5730
g56
(g57
g58
NtRp5731
(dp5732
g61
(dp5733
g69
I4
ssg70
g5727
sg63
(lp5734
S'CupofCoffee'
p5735
asbasbasbag56
(g72
g58
NtRp5736
(dp5737
g61
(dp5738
sg70
g5212
sg63
(lp5739
g56
(g77
g58
NtRp5740
(dp5741
g61
(dp5742
sg70
g5736
sg63
(lp5743
g56
(g57
g58
NtRp5744
(dp5745
g61
(dp5746
g69
I4
ssg70
g5740
sg63
(lp5747
S'BlogSmith'
p5748
asbasbasbag56
(g72
g58
NtRp5749
(dp5750
g61
(dp5751
sg70
g5212
sg63
(lp5752
g56
(g77
g58
NtRp5753
(dp5754
g61
(dp5755
sg70
g5749
sg63
(lp5756
g56
(g57
g58
NtRp5757
(dp5758
g61
(dp5759
g69
I4
ssg70
g5753
sg63
(lp5760
S'Boorish'
p5761
asbasbasbag56
(g72
g58
NtRp5762
(dp5763
g61
(dp5764
sg70
g5212
sg63
(lp5765
g56
(g77
g58
NtRp5766
(dp5767
g61
(dp5768
sg70
g5762
sg63
(lp5769
g56
(g57
g58
NtRp5770
(dp5771
g61
(dp5772
g69
I4
ssg70
g5766
sg63
(lp5773
S'hexahedron'
p5774
asbasbasbag56
(g72
g58
NtRp5775
(dp5776
g61
(dp5777
sg70
g5212
sg63
(lp5778
g56
(g77
g58
NtRp5779
(dp5780
g61
(dp5781
sg70
g5775
sg63
(lp5782
g56
(g57
g58
NtRp5783
(dp5784
g61
(dp5785
g69
I4
ssg70
g5779
sg63
(lp5786
S'Voyage'
p5787
asbasbasbag56
(g72
g58
NtRp5788
(dp5789
g61
(dp5790
sg70
g5212
sg63
(lp5791
g56
(g77
g58
NtRp5792
(dp5793
g61
(dp5794
sg70
g5788
sg63
(lp5795
g56
(g57
g58
NtRp5796
(dp5797
g61
(dp5798
g69
I4
ssg70
g5792
sg63
(lp5799
S'TheIsland'
p5800
asbasbasbag56
(g72
g58
NtRp5801
(dp5802
g61
(dp5803
sg70
g5212
sg63
(lp5804
g56
(g77
g58
NtRp5805
(dp5806
g61
(dp5807
sg70
g5801
sg63
(lp5808
g56
(g57
g58
NtRp5809
(dp5810
g61
(dp5811
g69
I4
ssg70
g5805
sg63
(lp5812
S'PinkFloat'
p5813
asbasbasbag56
(g72
g58
NtRp5814
(dp5815
g61
(dp5816
sg70
g5212
sg63
(lp5817
g56
(g77
g58
NtRp5818
(dp5819
g61
(dp5820
sg70
g5814
sg63
(lp5821
g56
(g57
g58
NtRp5822
(dp5823
g61
(dp5824
g69
I4
ssg70
g5818
sg63
(lp5825
S'FCTInnovation'
p5826
asbasbasbag56
(g72
g58
NtRp5827
(dp5828
g61
(dp5829
sg70
g5212
sg63
(lp5830
g56
(g77
g58
NtRp5831
(dp5832
g61
(dp5833
sg70
g5827
sg63
(lp5834
g56
(g57
g58
NtRp5835
(dp5836
g61
(dp5837
g69
I4
ssg70
g5831
sg63
(lp5838
S'solutiongreen'
p5839
asbasbasbag56
(g72
g58
NtRp5840
(dp5841
g61
(dp5842
sg70
g5212
sg63
(lp5843
g56
(g77
g58
NtRp5844
(dp5845
g61
(dp5846
sg70
g5840
sg63
(lp5847
g56
(g57
g58
NtRp5848
(dp5849
g61
(dp5850
g69
I4
ssg70
g5844
sg63
(lp5851
S'Colorus'
p5852
asbasbasbag56
(g72
g58
NtRp5853
(dp5854
g61
(dp5855
sg70
g5212
sg63
(lp5856
g56
(g77
g58
NtRp5857
(dp5858
g61
(dp5859
sg70
g5853
sg63
(lp5860
g56
(g57
g58
NtRp5861
(dp5862
g61
(dp5863
g69
I4
ssg70
g5857
sg63
(lp5864
S'Chasmogamous'
p5865
asbasbasbag56
(g72
g58
NtRp5866
(dp5867
g61
(dp5868
sg70
g5212
sg63
(lp5869
g56
(g77
g58
NtRp5870
(dp5871
g61
(dp5872
sg70
g5866
sg63
(lp5873
g56
(g57
g58
NtRp5874
(dp5875
g61
(dp5876
g69
I4
ssg70
g5870
sg63
(lp5877
S'Astroturfd'
p5878
asbasbasbag56
(g72
g58
NtRp5879
(dp5880
g61
(dp5881
sg70
g5212
sg63
(lp5882
g56
(g77
g58
NtRp5883
(dp5884
g61
(dp5885
sg70
g5879
sg63
(lp5886
g56
(g57
g58
NtRp5887
(dp5888
g61
(dp5889
g69
I4
ssg70
g5883
sg63
(lp5890
S'RoundHouse'
p5891
asbasbasbag56
(g72
g58
NtRp5892
(dp5893
g61
(dp5894
sg70
g5212
sg63
(lp5895
g56
(g77
g58
NtRp5896
(dp5897
g61
(dp5898
sg70
g5892
sg63
(lp5899
g56
(g57
g58
NtRp5900
(dp5901
g61
(dp5902
g69
I4
ssg70
g5896
sg63
(lp5903
S'FCTPuzzled'
p5904
asbasbasbag56
(g72
g58
NtRp5905
(dp5906
g61
(dp5907
sg70
g5212
sg63
(lp5908
g56
(g77
g58
NtRp5909
(dp5910
g61
(dp5911
sg70
g5905
sg63
(lp5912
g56
(g57
g58
NtRp5913
(dp5914
g61
(dp5915
g69
I4
ssg70
g5909
sg63
(lp5916
S'Tastelessly'
p5917
asbasbasbag56
(g72
g58
NtRp5918
(dp5919
g61
(dp5920
sg70
g5212
sg63
(lp5921
g56
(g77
g58
NtRp5922
(dp5923
g61
(dp5924
sg70
g5918
sg63
(lp5925
g56
(g57
g58
NtRp5926
(dp5927
g61
(dp5928
g69
I4
ssg70
g5922
sg63
(lp5929
S'Settings'
p5930
asbasbasbag56
(g72
g58
NtRp5931
(dp5932
g61
(dp5933
sg70
g5212
sg63
(lp5934
g56
(g77
g58
NtRp5935
(dp5936
g61
(dp5937
sg70
g5931
sg63
(lp5938
g56
(g57
g58
NtRp5939
(dp5940
g61
(dp5941
g69
I4
ssg70
g5935
sg63
(lp5942
S'RedCity'
p5943
asbasbasbag56
(g72
g58
NtRp5944
(dp5945
g61
(dp5946
sg70
g5212
sg63
(lp5947
g56
(g77
g58
NtRp5948
(dp5949
g61
(dp5950
sg70
g5944
sg63
(lp5951
g56
(g57
g58
NtRp5952
(dp5953
g61
(dp5954
g69
I4
ssg70
g5948
sg63
(lp5955
S'EfflorescenceGreen'
p5956
asbasbasbag56
(g72
g58
NtRp5957
(dp5958
g61
(dp5959
sg70
g5212
sg63
(lp5960
g56
(g77
g58
NtRp5961
(dp5962
g61
(dp5963
sg70
g5957
sg63
(lp5964
g56
(g57
g58
NtRp5965
(dp5966
g61
(dp5967
g69
I4
ssg70
g5961
sg63
(lp5968
S'Compromise'
p5969
asbasbasbag56
(g72
g58
NtRp5970
(dp5971
g61
(dp5972
sg70
g5212
sg63
(lp5973
g56
(g77
g58
NtRp5974
(dp5975
g61
(dp5976
sg70
g5970
sg63
(lp5977
g56
(g57
g58
NtRp5978
(dp5979
g61
(dp5980
g69
I4
ssg70
g5974
sg63
(lp5981
S'FreshLight'
p5982
asbasbasbag56
(g72
g58
NtRp5983
(dp5984
g61
(dp5985
sg70
g5212
sg63
(lp5986
g56
(g77
g58
NtRp5987
(dp5988
g61
(dp5989
sg70
g5983
sg63
(lp5990
g56
(g57
g58
NtRp5991
(dp5992
g61
(dp5993
g69
I4
ssg70
g5987
sg63
(lp5994
S'Emporium'
p5995
asbasbasbag56
(g72
g58
NtRp5996
(dp5997
g61
(dp5998
sg70
g5212
sg63
(lp5999
g56
(g77
g58
NtRp6000
(dp6001
g61
(dp6002
sg70
g5996
sg63
(lp6003
g56
(g57
g58
NtRp6004
(dp6005
g61
(dp6006
g69
I4
ssg70
g6000
sg63
(lp6007
S'ConcreteV2'
p6008
asbasbasbag56
(g72
g58
NtRp6009
(dp6010
g61
(dp6011
sg70
g5212
sg63
(lp6012
g56
(g77
g58
NtRp6013
(dp6014
g61
(dp6015
sg70
g6009
sg63
(lp6016
g56
(g57
g58
NtRp6017
(dp6018
g61
(dp6019
g69
I4
ssg70
g6013
sg63
(lp6020
S'BackgroundBlue'
p6021
asbasbasbag56
(g72
g58
NtRp6022
(dp6023
g61
(dp6024
sg70
g5212
sg63
(lp6025
g56
(g77
g58
NtRp6026
(dp6027
g61
(dp6028
sg70
g6022
sg63
(lp6029
g56
(g57
g58
NtRp6030
(dp6031
g61
(dp6032
g69
I4
ssg70
g6026
sg63
(lp6033
S'Spaced'
p6034
asbasbasbag56
(g72
g58
NtRp6035
(dp6036
g61
(dp6037
sg70
g5212
sg63
(lp6038
g56
(g77
g58
NtRp6039
(dp6040
g61
(dp6041
sg70
g6035
sg63
(lp6042
g56
(g57
g58
NtRp6043
(dp6044
g61
(dp6045
g69
I4
ssg70
g6039
sg63
(lp6046
S'Unqualified'
p6047
asbasbasbag56
(g72
g58
NtRp6048
(dp6049
g61
(dp6050
sg70
g5212
sg63
(lp6051
g56
(g77
g58
NtRp6052
(dp6053
g61
(dp6054
sg70
g6048
sg63
(lp6055
g56
(g57
g58
NtRp6056
(dp6057
g61
(dp6058
g69
I4
ssg70
g6052
sg63
(lp6059
S'CorporateOffice'
p6060
asbasbasbag56
(g72
g58
NtRp6061
(dp6062
g61
(dp6063
sg70
g5212
sg63
(lp6064
g56
(g77
g58
NtRp6065
(dp6066
g61
(dp6067
sg70
g6061
sg63
(lp6068
g56
(g57
g58
NtRp6069
(dp6070
g61
(dp6071
g69
I4
ssg70
g6065
sg63
(lp6072
S'SnowCrystals'
p6073
asbasbasbag56
(g72
g58
NtRp6074
(dp6075
g61
(dp6076
sg70
g5212
sg63
(lp6077
g56
(g77
g58
NtRp6078
(dp6079
g61
(dp6080
sg70
g6074
sg63
(lp6081
g56
(g57
g58
NtRp6082
(dp6083
g61
(dp6084
g69
I4
ssg70
g6078
sg63
(lp6085
S'BlueStatic'
p6086
asbasbasbag56
(g72
g58
NtRp6087
(dp6088
g61
(dp6089
sg70
g5212
sg63
(lp6090
g56
(g77
g58
NtRp6091
(dp6092
g61
(dp6093
sg70
g6087
sg63
(lp6094
g56
(g57
g58
NtRp6095
(dp6096
g61
(dp6097
g69
I4
ssg70
g6091
sg63
(lp6098
S'Reference'
p6099
asbasbasbag56
(g72
g58
NtRp6100
(dp6101
g61
(dp6102
sg70
g5212
sg63
(lp6103
g56
(g77
g58
NtRp6104
(dp6105
g61
(dp6106
sg70
g6100
sg63
(lp6107
g56
(g57
g58
NtRp6108
(dp6109
g61
(dp6110
g69
I4
ssg70
g6104
sg63
(lp6111
S'Balanced'
p6112
asbasbasbag56
(g72
g58
NtRp6113
(dp6114
g61
(dp6115
sg70
g5212
sg63
(lp6116
g56
(g77
g58
NtRp6117
(dp6118
g61
(dp6119
sg70
g6113
sg63
(lp6120
g56
(g57
g58
NtRp6121
(dp6122
g61
(dp6123
g69
I4
ssg70
g6117
sg63
(lp6124
S'Clicker'
p6125
asbasbasbag56
(g72
g58
NtRp6126
(dp6127
g61
(dp6128
sg70
g5212
sg63
(lp6129
g56
(g77
g58
NtRp6130
(dp6131
g61
(dp6132
sg70
g6126
sg63
(lp6133
g56
(g57
g58
NtRp6134
(dp6135
g61
(dp6136
g69
I4
ssg70
g6130
sg63
(lp6137
S'Blend'
p6138
asbasbasbag56
(g72
g58
NtRp6139
(dp6140
g61
(dp6141
sg70
g5212
sg63
(lp6142
g56
(g77
g58
NtRp6143
(dp6144
g61
(dp6145
sg70
g6139
sg63
(lp6146
g56
(g57
g58
NtRp6147
(dp6148
g61
(dp6149
g69
I4
ssg70
g6143
sg63
(lp6150
S'HotAirBalloons'
p6151
asbasbasbag56
(g72
g58
NtRp6152
(dp6153
g61
(dp6154
sg70
g5212
sg63
(lp6155
g56
(g77
g58
NtRp6156
(dp6157
g61
(dp6158
sg70
g6152
sg63
(lp6159
g56
(g57
g58
NtRp6160
(dp6161
g61
(dp6162
g69
I4
ssg70
g6156
sg63
(lp6163
S'Frozenage'
p6164
asbasbasbag56
(g72
g58
NtRp6165
(dp6166
g61
(dp6167
sg70
g5212
sg63
(lp6168
g56
(g77
g58
NtRp6169
(dp6170
g61
(dp6171
sg70
g6165
sg63
(lp6172
g56
(g57
g58
NtRp6173
(dp6174
g61
(dp6175
g69
I4
ssg70
g6169
sg63
(lp6176
S'Squarely'
p6177
asbasbasbag56
(g72
g58
NtRp6178
(dp6179
g61
(dp6180
sg70
g5212
sg63
(lp6181
g56
(g77
g58
NtRp6182
(dp6183
g61
(dp6184
sg70
g6178
sg63
(lp6185
g56
(g57
g58
NtRp6186
(dp6187
g61
(dp6188
g69
I4
ssg70
g6182
sg63
(lp6189
S'Stardust'
p6190
asbasbasbag56
(g72
g58
NtRp6191
(dp6192
g61
(dp6193
sg70
g5212
sg63
(lp6194
g56
(g77
g58
NtRp6195
(dp6196
g61
(dp6197
sg70
g6191
sg63
(lp6198
g56
(g57
g58
NtRp6199
(dp6200
g61
(dp6201
g69
I4
ssg70
g6195
sg63
(lp6202
S'Whitelight'
p6203
asbasbasbag56
(g72
g58
NtRp6204
(dp6205
g61
(dp6206
sg70
g5212
sg63
(lp6207
g56
(g77
g58
NtRp6208
(dp6209
g61
(dp6210
sg70
g6204
sg63
(lp6211
g56
(g57
g58
NtRp6212
(dp6213
g61
(dp6214
g69
I4
ssg70
g6208
sg63
(lp6215
S'Efflorescence'
p6216
asbasbasbag56
(g72
g58
NtRp6217
(dp6218
g61
(dp6219
sg70
g5212
sg63
(lp6220
g56
(g77
g58
NtRp6221
(dp6222
g61
(dp6223
sg70
g6217
sg63
(lp6224
g56
(g57
g58
NtRp6225
(dp6226
g61
(dp6227
g69
I4
ssg70
g6221
sg63
(lp6228
S'TheMissingPiece'
p6229
asbasbasbag56
(g72
g58
NtRp6230
(dp6231
g61
(dp6232
sg70
g5212
sg63
(lp6233
g56
(g77
g58
NtRp6234
(dp6235
g61
(dp6236
sg70
g6230
sg63
(lp6237
g56
(g57
g58
NtRp6238
(dp6239
g61
(dp6240
g69
I4
ssg70
g6234
sg63
(lp6241
S'Extracts'
p6242
asbasbasbag56
(g72
g58
NtRp6243
(dp6244
g61
(dp6245
sg70
g5212
sg63
(lp6246
g56
(g77
g58
NtRp6247
(dp6248
g61
(dp6249
sg70
g6243
sg63
(lp6250
g56
(g57
g58
NtRp6251
(dp6252
g61
(dp6253
g69
I4
ssg70
g6247
sg63
(lp6254
S'Neutral'
p6255
asbasbasbag56
(g72
g58
NtRp6256
(dp6257
g61
(dp6258
sg70
g5212
sg63
(lp6259
g56
(g77
g58
NtRp6260
(dp6261
g61
(dp6262
sg70
g6256
sg63
(lp6263
g56
(g57
g58
NtRp6264
(dp6265
g61
(dp6266
g69
I4
ssg70
g6260
sg63
(lp6267
S'OldArchitecture'
p6268
asbasbasbag56
(g72
g58
NtRp6269
(dp6270
g61
(dp6271
sg70
g5212
sg63
(lp6272
g56
(g77
g58
NtRp6273
(dp6274
g61
(dp6275
sg70
g6269
sg63
(lp6276
g56
(g57
g58
NtRp6277
(dp6278
g61
(dp6279
g69
I4
ssg70
g6273
sg63
(lp6280
S'Miscellaneous'
p6281
asbasbasbag56
(g72
g58
NtRp6282
(dp6283
g61
(dp6284
sg70
g5212
sg63
(lp6285
g56
(g77
g58
NtRp6286
(dp6287
g61
(dp6288
sg70
g6282
sg63
(lp6289
g56
(g57
g58
NtRp6290
(dp6291
g61
(dp6292
g69
I4
ssg70
g6286
sg63
(lp6293
S'TinyBlue'
p6294
asbasbasbag56
(g72
g58
NtRp6295
(dp6296
g61
(dp6297
sg70
g5212
sg63
(lp6298
g56
(g77
g58
NtRp6299
(dp6300
g61
(dp6301
sg70
g6295
sg63
(lp6302
g56
(g57
g58
NtRp6303
(dp6304
g61
(dp6305
g69
I4
ssg70
g6299
sg63
(lp6306
S'Bounderies'
p6307
asbasbasbag56
(g72
g58
NtRp6308
(dp6309
g61
(dp6310
sg70
g5212
sg63
(lp6311
g56
(g77
g58
NtRp6312
(dp6313
g61
(dp6314
sg70
g6308
sg63
(lp6315
g56
(g57
g58
NtRp6316
(dp6317
g61
(dp6318
g69
I4
ssg70
g6312
sg63
(lp6319
S'Replenish'
p6320
asbasbasbag56
(g72
g58
NtRp6321
(dp6322
g61
(dp6323
sg70
g5212
sg63
(lp6324
g56
(g77
g58
NtRp6325
(dp6326
g61
(dp6327
sg70
g6321
sg63
(lp6328
g56
(g57
g58
NtRp6329
(dp6330
g61
(dp6331
g69
I4
ssg70
g6325
sg63
(lp6332
S'Hibiscus'
p6333
asbasbasbag56
(g72
g58
NtRp6334
(dp6335
g61
(dp6336
sg70
g5212
sg63
(lp6337
g56
(g77
g58
NtRp6338
(dp6339
g61
(dp6340
sg70
g6334
sg63
(lp6341
g56
(g57
g58
NtRp6342
(dp6343
g61
(dp6344
g69
I4
ssg70
g6338
sg63
(lp6345
S'Transient'
p6346
asbasbasbag56
(g72
g58
NtRp6347
(dp6348
g61
(dp6349
sg70
g5212
sg63
(lp6350
g56
(g77
g58
NtRp6351
(dp6352
g61
(dp6353
sg70
g6347
sg63
(lp6354
g56
(g57
g58
NtRp6355
(dp6356
g61
(dp6357
g69
I4
ssg70
g6351
sg63
(lp6358
S'Pressurized'
p6359
asbasbasbag56
(g72
g58
NtRp6360
(dp6361
g61
(dp6362
sg70
g5212
sg63
(lp6363
g56
(g77
g58
NtRp6364
(dp6365
g61
(dp6366
sg70
g6360
sg63
(lp6367
g56
(g57
g58
NtRp6368
(dp6369
g61
(dp6370
g69
I4
ssg70
g6364
sg63
(lp6371
S'OrangeandBlack'
p6372
asbasbasbag56
(g72
g58
NtRp6373
(dp6374
g61
(dp6375
sg70
g5212
sg63
(lp6376
g56
(g77
g58
NtRp6377
(dp6378
g61
(dp6379
sg70
g6373
sg63
(lp6380
g56
(g57
g58
NtRp6381
(dp6382
g61
(dp6383
g69
I4
ssg70
g6377
sg63
(lp6384
S'GreenandPlain'
p6385
asbasbasbag56
(g72
g58
NtRp6386
(dp6387
g61
(dp6388
sg70
g5212
sg63
(lp6389
g56
(g77
g58
NtRp6390
(dp6391
g61
(dp6392
sg70
g6386
sg63
(lp6393
g56
(g57
g58
NtRp6394
(dp6395
g61
(dp6396
g69
I4
ssg70
g6390
sg63
(lp6397
S'Industrial'
p6398
asbasbasbag56
(g72
g58
NtRp6399
(dp6400
g61
(dp6401
sg70
g5212
sg63
(lp6402
g56
(g77
g58
NtRp6403
(dp6404
g61
(dp6405
sg70
g6399
sg63
(lp6406
g56
(g57
g58
NtRp6407
(dp6408
g61
(dp6409
g69
I4
ssg70
g6403
sg63
(lp6410
S'Subordinate'
p6411
asbasbasbag56
(g72
g58
NtRp6412
(dp6413
g61
(dp6414
sg70
g5212
sg63
(lp6415
g56
(g77
g58
NtRp6416
(dp6417
g61
(dp6418
sg70
g6412
sg63
(lp6419
g56
(g57
g58
NtRp6420
(dp6421
g61
(dp6422
g69
I4
ssg70
g6416
sg63
(lp6423
S'CityLights'
p6424
asbasbasbag56
(g72
g58
NtRp6425
(dp6426
g61
(dp6427
sg70
g5212
sg63
(lp6428
g56
(g77
g58
NtRp6429
(dp6430
g61
(dp6431
sg70
g6425
sg63
(lp6432
g56
(g57
g58
NtRp6433
(dp6434
g61
(dp6435
g69
I4
ssg70
g6429
sg63
(lp6436
S'KeepitSimple'
p6437
asbasbasbag56
(g72
g58
NtRp6438
(dp6439
g61
(dp6440
sg70
g5212
sg63
(lp6441
g56
(g77
g58
NtRp6442
(dp6443
g61
(dp6444
sg70
g6438
sg63
(lp6445
g56
(g57
g58
NtRp6446
(dp6447
g61
(dp6448
g69
I4
ssg70
g6442
sg63
(lp6449
S'Interlude'
p6450
asbasbasbag56
(g72
g58
NtRp6451
(dp6452
g61
(dp6453
sg70
g5212
sg63
(lp6454
g56
(g77
g58
NtRp6455
(dp6456
g61
(dp6457
sg70
g6451
sg63
(lp6458
g56
(g57
g58
NtRp6459
(dp6460
g61
(dp6461
g69
I4
ssg70
g6455
sg63
(lp6462
S'Thingreenline'
p6463
asbasbasbasbasbasbasbasbasbsS'etype'
p6464
S"<type 'exceptions.ImportError'>"
p6465
sS'date'
p6466
S'Sun Jan 08 19:38:09 2012'
p6467
sS'response'
p6468
g56
(g57
g58
NtRp6469
(dp6470
g61
(dp6471
sg63
(lp6472
g56
(g65
g58
NtRp6473
(dp6474
g61
(dp6475
g69
I5
ssg70
Nsg63
(lp6476
g56
(g72
g58
NtRp6477
(dp6478
g61
(dp6479
sg70
g6473
sg63
(lp6480
g56
(g77
g58
NtRp6481
(dp6482
g61
(dp6483
g81
g82
ssg70
g6477
sg63
(lp6484
g180
asbag56
(g77
g58
NtRp6485
(dp6486
g61
(dp6487
g88
g89
ssg70
g6477
sg63
(lp6488
S':'
asbag56
(g77
g58
NtRp6489
(dp6490
g61
(dp6491
sg70
g6477
sg63
(lp6492
g56
(g57
g58
NtRp6493
(dp6494
g61
(dp6495
g69
I5
ssg70
g6489
sg63
(lp6496
S'<cStringIO.StringO object at 0x03E579C0>'
p6497
asbasbasbag56
(g72
g58
NtRp6498
(dp6499
g61
(dp6500
sg70
g6473
sg63
(lp6501
g56
(g77
g58
NtRp6502
(dp6503
g61
(dp6504
g81
g82
ssg70
g6498
sg63
(lp6505
g246
asbag56
(g77
g58
NtRp6506
(dp6507
g61
(dp6508
g88
g89
ssg70
g6498
sg63
(lp6509
S':'
asbag56
(g77
g58
NtRp6510
(dp6511
g61
(dp6512
sg70
g6498
sg63
(lp6513
g56
(g57
g58
NtRp6514
(dp6515
g61
(dp6516
g69
I5
ssg70
g6510
sg63
(lp6517
g56
(g65
g58
NtRp6518
(dp6519
g61
(dp6520
g69
I4
ssg70
Nsg63
(lp6521
g56
(g72
g58
NtRp6522
(dp6523
g61
(dp6524
sg70
g6518
sg63
(lp6525
g56
(g77
g58
NtRp6526
(dp6527
g61
(dp6528
g81
g82
ssg70
g6522
sg63
(lp6529
S'session_id_admin'
p6530
asbag56
(g77
g58
NtRp6531
(dp6532
g61
(dp6533
g88
g89
ssg70
g6522
sg63
(lp6534
S':'
asbag56
(g77
g58
NtRp6535
(dp6536
g61
(dp6537
sg70
g6522
sg63
(lp6538
g56
(g57
g58
NtRp6539
(dp6540
g61
(dp6541
g69
I4
ssg70
g6535
sg63
(lp6542
g56
(g65
g58
NtRp6543
(dp6544
g61
(dp6545
g69
I3
ssg70
Nsg63
(lp6546
g56
(g72
g58
NtRp6547
(dp6548
g61
(dp6549
sg70
g6543
sg63
(lp6550
g56
(g77
g58
NtRp6551
(dp6552
g61
(dp6553
g81
g82
ssg70
g6547
sg63
(lp6554
g296
asbag56
(g77
g58
NtRp6555
(dp6556
g61
(dp6557
g88
g89
ssg70
g6547
sg63
(lp6558
S':'
asbag56
(g77
g58
NtRp6559
(dp6560
g61
(dp6561
sg70
g6547
sg63
(lp6562
g56
(g57
g58
NtRp6563
(dp6564
g61
(dp6565
g69
I3
ssg70
g6559
sg63
(lp6566
S''
asbasbasbag56
(g72
g58
NtRp6567
(dp6568
g61
(dp6569
sg70
g6543
sg63
(lp6570
g56
(g77
g58
NtRp6571
(dp6572
g61
(dp6573
g81
g82
ssg70
g6567
sg63
(lp6574
g317
asbag56
(g77
g58
NtRp6575
(dp6576
g61
(dp6577
g88
g89
ssg70
g6567
sg63
(lp6578
S':'
asbag56
(g77
g58
NtRp6579
(dp6580
g61
(dp6581
sg70
g6567
sg63
(lp6582
g56
(g57
g58
NtRp6583
(dp6584
g61
(dp6585
g69
I3
ssg70
g6579
sg63
(lp6586
S''
asbasbasbag56
(g72
g58
NtRp6587
(dp6588
g61
(dp6589
sg70
g6543
sg63
(lp6590
g56
(g77
g58
NtRp6591
(dp6592
g61
(dp6593
g81
g82
ssg70
g6587
sg63
(lp6594
g338
asbag56
(g77
g58
NtRp6595
(dp6596
g61
(dp6597
g88
g89
ssg70
g6587
sg63
(lp6598
S':'
asbag56
(g77
g58
NtRp6599
(dp6600
g61
(dp6601
sg70
g6587
sg63
(lp6602
g56
(g57
g58
NtRp6603
(dp6604
g61
(dp6605
g69
I3
ssg70
g6599
sg63
(lp6606
S''
asbasbasbag56
(g72
g58
NtRp6607
(dp6608
g61
(dp6609
sg70
g6543
sg63
(lp6610
g56
(g77
g58
NtRp6611
(dp6612
g61
(dp6613
g81
g82
ssg70
g6607
sg63
(lp6614
g359
asbag56
(g77
g58
NtRp6615
(dp6616
g61
(dp6617
g88
g89
ssg70
g6607
sg63
(lp6618
S':'
asbag56
(g77
g58
NtRp6619
(dp6620
g61
(dp6621
sg70
g6607
sg63
(lp6622
g56
(g57
g58
NtRp6623
(dp6624
g61
(dp6625
g69
I3
ssg70
g6619
sg63
(lp6626
S''
asbasbasbag56
(g72
g58
NtRp6627
(dp6628
g61
(dp6629
sg70
g6543
sg63
(lp6630
g56
(g77
g58
NtRp6631
(dp6632
g61
(dp6633
g81
g82
ssg70
g6627
sg63
(lp6634
g380
asbag56
(g77
g58
NtRp6635
(dp6636
g61
(dp6637
g88
g89
ssg70
g6627
sg63
(lp6638
S':'
asbag56
(g77
g58
NtRp6639
(dp6640
g61
(dp6641
sg70
g6627
sg63
(lp6642
g56
(g57
g58
NtRp6643
(dp6644
g61
(dp6645
g69
I3
ssg70
g6639
sg63
(lp6646
S''
asbasbasbag56
(g72
g58
NtRp6647
(dp6648
g61
(dp6649
sg70
g6543
sg63
(lp6650
g56
(g77
g58
NtRp6651
(dp6652
g61
(dp6653
g81
g82
ssg70
g6647
sg63
(lp6654
g401
asbag56
(g77
g58
NtRp6655
(dp6656
g61
(dp6657
g88
g89
ssg70
g6647
sg63
(lp6658
S':'
asbag56
(g77
g58
NtRp6659
(dp6660
g61
(dp6661
sg70
g6647
sg63
(lp6662
g56
(g57
g58
NtRp6663
(dp6664
g61
(dp6665
g69
I3
ssg70
g6659
sg63
(lp6666
S'/'
asbasbasbag56
(g72
g58
NtRp6667
(dp6668
g61
(dp6669
sg70
g6543
sg63
(lp6670
g56
(g77
g58
NtRp6671
(dp6672
g61
(dp6673
g81
g82
ssg70
g6667
sg63
(lp6674
g422
asbag56
(g77
g58
NtRp6675
(dp6676
g61
(dp6677
g88
g89
ssg70
g6667
sg63
(lp6678
S':'
asbag56
(g77
g58
NtRp6679
(dp6680
g61
(dp6681
sg70
g6667
sg63
(lp6682
g56
(g57
g58
NtRp6683
(dp6684
g61
(dp6685
g69
I3
ssg70
g6679
sg63
(lp6686
S''
asbasbasbag56
(g72
g58
NtRp6687
(dp6688
g61
(dp6689
sg70
g6543
sg63
(lp6690
g56
(g77
g58
NtRp6691
(dp6692
g61
(dp6693
g81
g82
ssg70
g6687
sg63
(lp6694
g443
asbag56
(g77
g58
NtRp6695
(dp6696
g61
(dp6697
g88
g89
ssg70
g6687
sg63
(lp6698
S':'
asbag56
(g77
g58
NtRp6699
(dp6700
g61
(dp6701
sg70
g6687
sg63
(lp6702
g56
(g57
g58
NtRp6703
(dp6704
g61
(dp6705
g69
I3
ssg70
g6699
sg63
(lp6706
S''
asbasbasbasbasbasbasbasbasbasbasbag56
(g72
g58
NtRp6707
(dp6708
g61
(dp6709
sg70
g6473
sg63
(lp6710
g56
(g77
g58
NtRp6711
(dp6712
g61
(dp6713
g81
g82
ssg70
g6707
sg63
(lp6714
S'files'
p6715
asbag56
(g77
g58
NtRp6716
(dp6717
g61
(dp6718
g88
g89
ssg70
g6707
sg63
(lp6719
S':'
asbag56
(g77
g58
NtRp6720
(dp6721
g61
(dp6722
sg70
g6707
sg63
(lp6723
g56
(g57
g58
NtRp6724
(dp6725
g61
(dp6726
g69
I5
ssg70
g6720
sg63
(lp6727
g56
(g65
g58
NtRp6728
(dp6729
g61
(dp6730
g69
I4
ssg70
Nsg63
(lp6731
sbasbasbasbag56
(g72
g58
NtRp6732
(dp6733
g61
(dp6734
sg70
g6473
sg63
(lp6735
g56
(g77
g58
NtRp6736
(dp6737
g61
(dp6738
g81
g82
ssg70
g6732
sg63
(lp6739
S'flash'
p6740
asbag56
(g77
g58
NtRp6741
(dp6742
g61
(dp6743
g88
g89
ssg70
g6732
sg63
(lp6744
S':'
asbag56
(g77
g58
NtRp6745
(dp6746
g61
(dp6747
sg70
g6732
sg63
(lp6748
g56
(g57
g58
NtRp6749
(dp6750
g61
(dp6751
g69
I5
ssg70
g6745
sg63
(lp6752
S''
asbasbasbag56
(g72
g58
NtRp6753
(dp6754
g61
(dp6755
sg70
g6473
sg63
(lp6756
g56
(g77
g58
NtRp6757
(dp6758
g61
(dp6759
g81
g82
ssg70
g6753
sg63
(lp6760
S'generic_patterns'
p6761
asbag56
(g77
g58
NtRp6762
(dp6763
g61
(dp6764
g88
g89
ssg70
g6753
sg63
(lp6765
S':'
asbag56
(g77
g58
NtRp6766
(dp6767
g61
(dp6768
sg70
g6753
sg63
(lp6769
g56
(g57
g58
NtRp6770
(dp6771
g61
(dp6772
g69
I5
ssg70
g6766
sg63
(lp6773
g56
(g65
g58
NtRp6774
(dp6775
g61
(dp6776
g69
I4
ssg70
Nsg63
(lp6777
sbasbasbasbag56
(g72
g58
NtRp6778
(dp6779
g61
(dp6780
sg70
g6473
sg63
(lp6781
g56
(g77
g58
NtRp6782
(dp6783
g61
(dp6784
g81
g82
ssg70
g6778
sg63
(lp6785
S'headers'
p6786
asbag56
(g77
g58
NtRp6787
(dp6788
g61
(dp6789
g88
g89
ssg70
g6778
sg63
(lp6790
S':'
asbag56
(g77
g58
NtRp6791
(dp6792
g61
(dp6793
sg70
g6778
sg63
(lp6794
g56
(g57
g58
NtRp6795
(dp6796
g61
(dp6797
g69
I5
ssg70
g6791
sg63
(lp6798
g56
(g65
g58
NtRp6799
(dp6800
g61
(dp6801
g69
I4
ssg70
Nsg63
(lp6802
g56
(g72
g58
NtRp6803
(dp6804
g61
(dp6805
sg70
g6799
sg63
(lp6806
g56
(g77
g58
NtRp6807
(dp6808
g61
(dp6809
g81
g82
ssg70
g6803
sg63
(lp6810
S'Cache-Control'
p6811
asbag56
(g77
g58
NtRp6812
(dp6813
g61
(dp6814
g88
g89
ssg70
g6803
sg63
(lp6815
S':'
asbag56
(g77
g58
NtRp6816
(dp6817
g61
(dp6818
sg70
g6803
sg63
(lp6819
g56
(g57
g58
NtRp6820
(dp6821
g61
(dp6822
g69
I4
ssg70
g6816
sg63
(lp6823
S'no-store, no-cache, must-revalidate, post-check=0, pre-check=0'
p6824
asbasbasbag56
(g72
g58
NtRp6825
(dp6826
g61
(dp6827
sg70
g6799
sg63
(lp6828
g56
(g77
g58
NtRp6829
(dp6830
g61
(dp6831
g81
g82
ssg70
g6825
sg63
(lp6832
S'Content-Type'
p6833
asbag56
(g77
g58
NtRp6834
(dp6835
g61
(dp6836
g88
g89
ssg70
g6825
sg63
(lp6837
S':'
asbag56
(g77
g58
NtRp6838
(dp6839
g61
(dp6840
sg70
g6825
sg63
(lp6841
g56
(g57
g58
NtRp6842
(dp6843
g61
(dp6844
g69
I4
ssg70
g6838
sg63
(lp6845
S'text/html; charset=utf-8'
p6846
asbasbasbag56
(g72
g58
NtRp6847
(dp6848
g61
(dp6849
sg70
g6799
sg63
(lp6850
g56
(g77
g58
NtRp6851
(dp6852
g61
(dp6853
g81
g82
ssg70
g6847
sg63
(lp6854
S'Expires'
p6855
asbag56
(g77
g58
NtRp6856
(dp6857
g61
(dp6858
g88
g89
ssg70
g6847
sg63
(lp6859
S':'
asbag56
(g77
g58
NtRp6860
(dp6861
g61
(dp6862
sg70
g6847
sg63
(lp6863
g56
(g57
g58
NtRp6864
(dp6865
g61
(dp6866
g69
I4
ssg70
g6860
sg63
(lp6867
S'Sun, 08 Jan 2012 11:38:09 GMT'
p6868
asbasbasbag56
(g72
g58
NtRp6869
(dp6870
g61
(dp6871
sg70
g6799
sg63
(lp6872
g56
(g77
g58
NtRp6873
(dp6874
g61
(dp6875
g81
g82
ssg70
g6869
sg63
(lp6876
S'Pragma'
p6877
asbag56
(g77
g58
NtRp6878
(dp6879
g61
(dp6880
g88
g89
ssg70
g6869
sg63
(lp6881
S':'
asbag56
(g77
g58
NtRp6882
(dp6883
g61
(dp6884
sg70
g6869
sg63
(lp6885
g56
(g57
g58
NtRp6886
(dp6887
g61
(dp6888
g69
I4
ssg70
g6882
sg63
(lp6889
S'no-cache'
p6890
asbasbasbag56
(g72
g58
NtRp6891
(dp6892
g61
(dp6893
sg70
g6799
sg63
(lp6894
g56
(g77
g58
NtRp6895
(dp6896
g61
(dp6897
g81
g82
ssg70
g6891
sg63
(lp6898
S'X-Powered-By'
p6899
asbag56
(g77
g58
NtRp6900
(dp6901
g61
(dp6902
g88
g89
ssg70
g6891
sg63
(lp6903
S':'
asbag56
(g77
g58
NtRp6904
(dp6905
g61
(dp6906
sg70
g6891
sg63
(lp6907
g56
(g57
g58
NtRp6908
(dp6909
g61
(dp6910
g69
I4
ssg70
g6904
sg63
(lp6911
S'web2py'
p6912
asbasbasbasbasbasbasbag56
(g72
g58
NtRp6913
(dp6914
g61
(dp6915
sg70
g6473
sg63
(lp6916
g56
(g77
g58
NtRp6917
(dp6918
g61
(dp6919
g81
g82
ssg70
g6913
sg63
(lp6920
S'menu'
p6921
asbag56
(g77
g58
NtRp6922
(dp6923
g61
(dp6924
g88
g89
ssg70
g6913
sg63
(lp6925
S':'
asbag56
(g77
g58
NtRp6926
(dp6927
g61
(dp6928
sg70
g6913
sg63
(lp6929
g56
(g57
g58
NtRp6930
(dp6931
g61
(dp6932
g69
I5
ssg70
g6926
sg63
(lp6933
g56
(g65
g58
NtRp6934
(dp6935
g61
(dp6936
g69
I4
ssg70
Nsg63
(lp6937
sbasbasbasbag56
(g72
g58
NtRp6938
(dp6939
g61
(dp6940
sg70
g6473
sg63
(lp6941
g56
(g77
g58
NtRp6942
(dp6943
g61
(dp6944
g81
g82
ssg70
g6938
sg63
(lp6945
S'meta'
p6946
asbag56
(g77
g58
NtRp6947
(dp6948
g61
(dp6949
g88
g89
ssg70
g6938
sg63
(lp6950
S':'
asbag56
(g77
g58
NtRp6951
(dp6952
g61
(dp6953
sg70
g6938
sg63
(lp6954
g56
(g57
g58
NtRp6955
(dp6956
g61
(dp6957
g69
I5
ssg70
g6951
sg63
(lp6958
g56
(g65
g58
NtRp6959
(dp6960
g61
(dp6961
g69
I4
ssg70
Nsg63
(lp6962
sbasbasbasbag56
(g72
g58
NtRp6963
(dp6964
g61
(dp6965
sg70
g6473
sg63
(lp6966
g56
(g77
g58
NtRp6967
(dp6968
g61
(dp6969
g81
g82
ssg70
g6963
sg63
(lp6970
S'postprocessing'
p6971
asbag56
(g77
g58
NtRp6972
(dp6973
g61
(dp6974
g88
g89
ssg70
g6963
sg63
(lp6975
S':'
asbag56
(g77
g58
NtRp6976
(dp6977
g61
(dp6978
sg70
g6963
sg63
(lp6979
g56
(g57
g58
NtRp6980
(dp6981
g61
(dp6982
g69
I5
ssg70
g6976
sg63
(lp6983
g56
(g65
g58
NtRp6984
(dp6985
g61
(dp6986
g69
I4
ssg70
Nsg63
(lp6987
sbasbasbasbag56
(g72
g58
NtRp6988
(dp6989
g61
(dp6990
sg70
g6473
sg63
(lp6991
g56
(g77
g58
NtRp6992
(dp6993
g61
(dp6994
g81
g82
ssg70
g6988
sg63
(lp6995
S'session_file'
p6996
asbag56
(g77
g58
NtRp6997
(dp6998
g61
(dp6999
g88
g89
ssg70
g6988
sg63
(lp7000
S':'
asbag56
(g77
g58
NtRp7001
(dp7002
g61
(dp7003
sg70
g6988
sg63
(lp7004
g56
(g57
g58
NtRp7005
(dp7006
g61
(dp7007
g69
I5
ssg70
g7001
sg63
(lp7008
S"<open file 'D:\\Workbench\\web2py_src\\applications\\admin\\sessions\\127.0.0.1-1aec4a0c-943f-4e5e-8f75-13d106ec6506', mode 'rb+' at 0x03C8A758>"
p7009
asbasbasbag56
(g72
g58
NtRp7010
(dp7011
g61
(dp7012
sg70
g6473
sg63
(lp7013
g56
(g77
g58
NtRp7014
(dp7015
g61
(dp7016
g81
g82
ssg70
g7010
sg63
(lp7017
S'session_filename'
p7018
asbag56
(g77
g58
NtRp7019
(dp7020
g61
(dp7021
g88
g89
ssg70
g7010
sg63
(lp7022
S':'
asbag56
(g77
g58
NtRp7023
(dp7024
g61
(dp7025
sg70
g7010
sg63
(lp7026
g56
(g57
g58
NtRp7027
(dp7028
g61
(dp7029
g69
I5
ssg70
g7023
sg63
(lp7030
S'D:\\Workbench\\web2py_src\\applications\\admin\\sessions\\127.0.0.1-1aec4a0c-943f-4e5e-8f75-13d106ec6506'
p7031
asbasbasbag56
(g72
g58
NtRp7032
(dp7033
g61
(dp7034
sg70
g6473
sg63
(lp7035
g56
(g77
g58
NtRp7036
(dp7037
g61
(dp7038
g81
g82
ssg70
g7032
sg63
(lp7039
S'session_id'
p7040
asbag56
(g77
g58
NtRp7041
(dp7042
g61
(dp7043
g88
g89
ssg70
g7032
sg63
(lp7044
S':'
asbag56
(g77
g58
NtRp7045
(dp7046
g61
(dp7047
sg70
g7032
sg63
(lp7048
g56
(g57
g58
NtRp7049
(dp7050
g61
(dp7051
g69
I5
ssg70
g7045
sg63
(lp7052
S'127.0.0.1-1aec4a0c-943f-4e5e-8f75-13d106ec6506'
p7053
asbasbasbag56
(g72
g58
NtRp7054
(dp7055
g61
(dp7056
sg70
g6473
sg63
(lp7057
g56
(g77
g58
NtRp7058
(dp7059
g61
(dp7060
g81
g82
ssg70
g7054
sg63
(lp7061
S'session_id_name'
p7062
asbag56
(g77
g58
NtRp7063
(dp7064
g61
(dp7065
g88
g89
ssg70
g7054
sg63
(lp7066
S':'
asbag56
(g77
g58
NtRp7067
(dp7068
g61
(dp7069
sg70
g7054
sg63
(lp7070
g56
(g57
g58
NtRp7071
(dp7072
g61
(dp7073
g69
I5
ssg70
g7067
sg63
(lp7074
g6530
asbasbasbag56
(g72
g58
NtRp7075
(dp7076
g61
(dp7077
sg70
g6473
sg63
(lp7078
g56
(g77
g58
NtRp7079
(dp7080
g61
(dp7081
g81
g82
ssg70
g7075
sg63
(lp7082
S'session_locked'
p7083
asbag56
(g77
g58
NtRp7084
(dp7085
g61
(dp7086
g88
g89
ssg70
g7075
sg63
(lp7087
S':'
asbag56
(g77
g58
NtRp7088
(dp7089
g61
(dp7090
sg70
g7075
sg63
(lp7091
g56
(g57
g58
NtRp7092
(dp7093
g61
(dp7094
g69
I5
ssg70
g7088
sg63
(lp7095
g2096
asbasbasbag56
(g72
g58
NtRp7096
(dp7097
g61
(dp7098
sg70
g6473
sg63
(lp7099
g56
(g77
g58
NtRp7100
(dp7101
g61
(dp7102
g81
g82
ssg70
g7096
sg63
(lp7103
S'session_new'
p7104
asbag56
(g77
g58
NtRp7105
(dp7106
g61
(dp7107
g88
g89
ssg70
g7096
sg63
(lp7108
S':'
asbag56
(g77
g58
NtRp7109
(dp7110
g61
(dp7111
sg70
g7096
sg63
(lp7112
g56
(g57
g58
NtRp7113
(dp7114
g61
(dp7115
g69
I5
ssg70
g7109
sg63
(lp7116
g99
asbasbasbag56
(g72
g58
NtRp7117
(dp7118
g61
(dp7119
sg70
g6473
sg63
(lp7120
g56
(g77
g58
NtRp7121
(dp7122
g61
(dp7123
g81
g82
ssg70
g7117
sg63
(lp7124
S'status'
p7125
asbag56
(g77
g58
NtRp7126
(dp7127
g61
(dp7128
g88
g89
ssg70
g7117
sg63
(lp7129
S':'
asbag56
(g77
g58
NtRp7130
(dp7131
g61
(dp7132
sg70
g7117
sg63
(lp7133
g56
(g57
g58
NtRp7134
(dp7135
g61
(dp7136
g69
I5
ssg70
g7130
sg63
(lp7137
S'200'
p7138
asbasbasbag56
(g72
g58
NtRp7139
(dp7140
g61
(dp7141
sg70
g6473
sg63
(lp7142
g56
(g77
g58
NtRp7143
(dp7144
g61
(dp7145
g81
g82
ssg70
g7139
sg63
(lp7146
g2697
asbag56
(g77
g58
NtRp7147
(dp7148
g61
(dp7149
g88
g89
ssg70
g7139
sg63
(lp7150
S':'
asbag56
(g77
g58
NtRp7151
(dp7152
g61
(dp7153
sg70
g7139
sg63
(lp7154
g56
(g57
g58
NtRp7155
(dp7156
g61
(dp7157
g69
I5
ssg70
g7151
sg63
(lp7158
g2710
asbasbasbag56
(g72
g58
NtRp7159
(dp7160
g61
(dp7161
sg70
g6473
sg63
(lp7162
g56
(g77
g58
NtRp7163
(dp7164
g61
(dp7165
g81
g82
ssg70
g7159
sg63
(lp7166
S'view'
p7167
asbag56
(g77
g58
NtRp7168
(dp7169
g61
(dp7170
g88
g89
ssg70
g7159
sg63
(lp7171
S':'
asbag56
(g77
g58
NtRp7172
(dp7173
g61
(dp7174
sg70
g7159
sg63
(lp7175
g56
(g57
g58
NtRp7176
(dp7177
g61
(dp7178
g69
I5
ssg70
g7172
sg63
(lp7179
S'default/ticket.html'
p7180
asbasbasbasbasbsS'locals'
p7181
(dp7182
S'OBJECT'
p7183
S"<class 'gluon.html.OBJECT'>"
p7184
sS'SQLDB'
p7185
S"<class 'gluon.dal.DAL'>"
p7186
sg3872
S"<Storage {'check_version': True, 'themes': ['Def...: 'c;\\xe1p\\xbb\\x07S\\xd3\\xbeP\\x96\\x962\\xb5{\\xe1'}>"
p7187
sS'LINK'
p7188
S"<class 'gluon.html.LINK'>"
p7189
sS'BR'
p7190
S"<class 'gluon.html.BR'>"
p7191
sS'local_import'
p7192
S'<function <lambda>>'
p7193
sS'OPTGROUP'
p7194
S"<class 'gluon.html.OPTGROUP'>"
p7195
sS'compile2'
p7196
S'<function compile2>'
p7197
sS'PRE'
p7198
S"<class 'gluon.html.PRE'>"
p7199
sS'IS_INT_IN_RANGE'
p7200
S"<class 'gluon.validators.IS_INT_IN_RANGE'>"
p7201
sS'IS_LOWER'
p7202
S"<class 'gluon.validators.IS_LOWER'>"
p7203
sS'IS_STRONG'
p7204
S"<class 'gluon.validators.IS_STRONG'>"
p7205
sS'cache'
p7206
S'<gluon.cache.Cache object>'
p7207
sS'IS_IN_DB'
p7208
S"<class 'gluon.validators.IS_IN_DB'>"
p7209
sS'TAG'
p7210
S'<gluon.html.__TAG__ object>'
p7211
sS'WEB2PY_VERSION_URL'
p7212
S"'http://web2py.com/examples/default/version'"
p7213
sS'SQLField'
p7214
S"<class 'gluon.dal.Field'>"
p7215
sS'BODY'
p7216
S"<class 'gluon.html.BODY'>"
p7217
sS'IS_DATE_IN_RANGE'
p7218
S"<class 'gluon.validators.IS_DATE_IN_RANGE'>"
p7219
sS'IFRAME'
p7220
S"<class 'gluon.html.IFRAME'>"
p7221
sS'regex_include'
p7222
S'<_sre.SRE_Pattern object>'
p7223
sS'URL'
p7224
S'<function URL>'
p7225
sS'__file__'
p7226
S"r'D:\\Workbench\\web2py_src\\applications\\admin\\models\\access.py'"
p7227
sS'P'
S"<class 'gluon.html.P'>"
p7228
sS'TFOOT'
p7229
S"<class 'gluon.html.TFOOT'>"
p7230
sS'XHTML'
p7231
S"<class 'gluon.html.XHTML'>"
p7232
sS'TD'
p7233
S"<class 'gluon.html.TD'>"
p7234
sS'ON'
p7235
g2096
sS'TicketStorage'
p7236
S"<class 'gluon.restricted.TicketStorage'>"
p7237
sS'OL'
p7238
S"<class 'gluon.html.OL'>"
p7239
sS'TEXTAREA'
p7240
S"<class 'gluon.html.TEXTAREA'>"
p7241
sS'MENU'
p7242
S"<class 'gluon.html.MENU'>"
p7243
sS'STYLE'
p7244
S"<class 'gluon.html.STYLE'>"
p7245
sS'WEB2PY_URL'
p7246
S"'http://web2py.com'"
p7247
sS'LOAD'
p7248
S'<gluon.compileapp.LoadFactory object>'
p7249
sS'CODE'
p7250
S"<class 'gluon.html.CODE'>"
p7251
sS'HTTP'
p7252
S"<class 'gluon.http.HTTP'>"
p7253
sS'HR'
p7254
S"<class 'gluon.html.HR'>"
p7255
sS'IS_DATETIME'
p7256
S"<class 'gluon.validators.IS_DATETIME'>"
p7257
sS'stat'
p7258
S"<module 'stat' from 'C:\\Python27\\Lib\\stat.pyc'>"
p7259
sS'LABEL'
p7260
S"<class 'gluon.html.LABEL'>"
p7261
sS'META'
p7262
S"<class 'gluon.html.META'>"
p7263
sS'A'
S"<class 'gluon.html.A'>"
p7264
sS'SELECT'
p7265
S"<class 'gluon.html.SELECT'>"
p7266
sS'DEMO_MODE'
p7267
g99
sS'LAYOUTS_APP'
p7268
S"'http://web2py.com/layouts'"
p7269
sS'FONT_SIZE'
p7270
S'10'
p7271
sS'CENTER'
p7272
S"<class 'gluon.html.CENTER'>"
p7273
sg3852
S'<function restricted>'
p7274
sS'urllib'
p7275
S"<module 'urllib' from 'C:\\Python27\\Lib\\urllib.pyc'>"
p7276
sS'COL'
p7277
S"<class 'gluon.html.COL'>"
p7278
sS'__builtins__'
p7279
S"{'ArithmeticError': <type 'exceptions.ArithmeticError'>, 'AssertionError': <type 'exceptions.AssertionError'>, 'AttributeError': <type 'exceptions.AttributeError'>, 'BaseException': <type 'exceptions.BaseException'>, 'BufferError': <type 'exceptions.BufferError'>, 'BytesWarning': <type 'exceptions.BytesWarning'>, 'DeprecationWarning': <type 'exceptions.DeprecationWarning'>, 'EOFError': <type 'exceptions.EOFError'>, 'Ellipsis': Ellipsis, 'EnvironmentError': <type 'exceptions.EnvironmentError'>, ...}"
p7280
sS'HTML'
p7281
S"<class 'gluon.html.HTML'>"
p7282
sS'SQLFORM'
p7283
S"<class 'gluon.sqlhtml.SQLFORM'>"
p7284
sS'tar_compiled'
p7285
S'<function tar_compiled>'
p7286
sS'cgi'
p7287
S"<module 'cgi' from 'C:\\Python27\\Lib\\cgi.pyc'>"
p7288
sS'redirect'
p7289
S'<function redirect>'
p7290
sS'FIELDSET'
p7291
S"<class 'gluon.html.FIELDSET'>"
p7292
sS'IS_EQUAL_TO'
p7293
S"<class 'gluon.validators.IS_EQUAL_TO'>"
p7294
sS'FILTER_APPS'
p7295
S'[]'
p7296
sS'embed64'
p7297
S'<function embed64>'
p7298
sS'IS_LIST_OF'
p7299
S"<class 'gluon.validators.IS_LIST_OF'>"
p7300
sS'INPUT'
p7301
S"<class 'gluon.html.INPUT'>"
p7302
sS'EMBED'
p7303
S"<class 'gluon.html.EMBED'>"
p7304
sS'FORM'
p7305
S"<class 'gluon.html.FORM'>"
p7306
sS'CLEANUP'
p7307
S"<class 'gluon.validators.CLEANUP'>"
p7308
sS'socket'
p7309
S"<module 'socket' from 'C:\\Python27\\Lib\\socket.pyc'>"
p7310
sS'H2'
p7311
S"<class 'gluon.html.H2'>"
p7312
sS'H3'
p7313
S"<class 'gluon.html.H3'>"
p7314
sS'BUTTON'
p7315
S"<class 'gluon.html.BUTTON'>"
p7316
sS'H1'
p7317
S"<class 'gluon.html.H1'>"
p7318
sS'H6'
p7319
S"<class 'gluon.html.H6'>"
p7320
sS'H4'
p7321
S"<class 'gluon.html.H4'>"
p7322
sS'H5'
p7323
S"<class 'gluon.html.H5'>"
p7324
sS'UL'
p7325
S"<class 'gluon.html.UL'>"
p7326
sS'IS_UPPER'
p7327
S"<class 'gluon.validators.IS_UPPER'>"
p7328
sS'xmlescape'
p7329
S'<function xmlescape>'
p7330
sS'IS_TIME'
p7331
S"<class 'gluon.validators.IS_TIME'>"
p7332
sS'os'
p7333
S"<module 'os' from 'C:\\Python27\\Lib\\os.pyc'>"
p7334
sS'compile_application'
p7335
S'<function compile_application>'
p7336
sS'RestrictedError'
p7337
S"<class 'gluon.restricted.RestrictedError'>"
p7338
sS'OPTION'
p7339
S"<class 'gluon.html.OPTION'>"
p7340
sS'TITLE'
p7341
S"<class 'gluon.html.TITLE'>"
p7342
sS'CRYPT'
p7343
S"<class 'gluon.validators.CRYPT'>"
p7344
sS'IS_EMPTY_OR'
p7345
S"<class 'gluon.validators.IS_EMPTY_OR'>"
p7346
sS'MARKMIN'
p7347
S"<class 'gluon.html.MARKMIN'>"
p7348
sS'sys'
p7349
S"<module 'sys' (built-in)>"
p7350
sS'MULTI_USER_MODE'
p7351
g99
sS'regex_tables'
p7352
S'<_sre.SRE_Pattern object>'
p7353
sS'EM'
p7354
S"<class 'gluon.html.EM'>"
p7355
sS'DISPLAY'
p7356
S"'onload'"
p7357
sS'SCRIPT'
p7358
S"<class 'gluon.html.SCRIPT'>"
p7359
sS'have_mercurial'
p7360
g99
sS'EXPIRATION'
p7361
S'3600'
p7362
sS'findT'
p7363
S'<function findT>'
p7364
sS'TABLE'
p7365
S"<class 'gluon.html.TABLE'>"
p7366
sS'IS_EXPR'
p7367
S"<class 'gluon.validators.IS_EXPR'>"
p7368
sS'IS_IPV4'
p7369
S"<class 'gluon.validators.IS_IPV4'>"
p7370
sS'IS_LENGTH'
p7371
S"<class 'gluon.validators.IS_LENGTH'>"
p7372
sS'XML'
p7373
S"<class 'gluon.html.XML'>"
p7374
sS'B'
S"<class 'gluon.html.B'>"
p7375
sS'IMG'
p7376
S"<class 'gluon.html.IMG'>"
p7377
sS'SQLTABLE'
p7378
S"<class 'gluon.sqlhtml.SQLTABLE'>"
p7379
sS'IS_MATCH'
p7380
S"<class 'gluon.validators.IS_MATCH'>"
p7381
sS'untar'
p7382
S'<function untar>'
p7383
sS'IS_ALPHANUMERIC'
p7384
S"<class 'gluon.validators.IS_ALPHANUMERIC'>"
p7385
sS'cleanpath'
p7386
S'<function cleanpath>'
p7387
sS'SPAN'
p7388
S"<class 'gluon.html.SPAN'>"
p7389
sS'PLUGINS_APP'
p7390
S"'http://web2py.com/plugins'"
p7391
sS'IS_SLUG'
p7392
S"<class 'gluon.validators.IS_SLUG'>"
p7393
sS'CHECK_VERSION'
p7394
g2096
sS'REPLACE_TAB_BY_SPACES'
p7395
S'4'
sS'md5_hash'
p7396
S'<function md5_hash>'
p7397
sS'update_all_languages'
p7398
S'<function update_all_languages>'
p7399
sS'TEXT_EDITOR'
p7400
S"'edit_area'"
p7401
sS'IS_DATE'
p7402
S"<class 'gluon.validators.IS_DATE'>"
p7403
sS'IS_EMAIL'
p7404
S"<class 'gluon.validators.IS_EMAIL'>"
p7405
sS'tar'
p7406
S'<function tar>'
p7407
sS'up'
p7408
S'<function up>'
p7409
sS'IS_NOT_EMPTY'
p7410
S"<class 'gluon.validators.IS_NOT_EMPTY'>"
p7411
sS'IS_FLOAT_IN_RANGE'
p7412
S"<class 'gluon.validators.IS_FLOAT_IN_RANGE'>"
p7413
sS'BEAUTIFY'
p7414
S"<class 'gluon.html.BEAUTIFY'>"
p7415
sS'TBODY'
p7416
S"<class 'gluon.html.TBODY'>"
p7417
sS'CAT'
p7418
S"<class 'gluon.html.CAT'>"
p7419
sS'Field'
p7420
S"<class 'gluon.dal.Field'>"
p7421
sS'DIV'
p7422
S"<class 'gluon.html.DIV'>"
p7423
sS'shutil'
p7424
S"<module 'shutil' from 'C:\\Python27\\Lib\\shutil.pyc'>"
p7425
sS'LEGEND'
p7426
S"<class 'gluon.html.LEGEND'>"
p7427
sS'COLGROUP'
p7428
S"<class 'gluon.html.COLGROUP'>"
p7429
sS'DAL'
p7430
S"<class 'gluon.dal.DAL'>"
p7431
sS'TT'
p7432
S"<class 'gluon.html.TT'>"
p7433
sS'TR'
p7434
S"<class 'gluon.html.TR'>"
p7435
sS'FULL_SCREEN'
p7436
S"'false'"
p7437
sS'LI'
p7438
S"<class 'gluon.html.LI'>"
p7439
sS'listdir'
p7440
S'<function listdir>'
p7441
sS'TH'
p7442
S"<class 'gluon.html.TH'>"
p7443
sS'remove_compiled_application'
p7444
S'<function remove_compiled_application>'
p7445
sS'IS_URL'
p7446
S"<class 'gluon.validators.IS_URL'>"
p7447
sS'dedent'
p7448
S'<function dedent>'
p7449
sS'HEAD'
p7450
S"<class 'gluon.html.HEAD'>"
p7451
sS'IS_DATETIME_IN_RANGE'
p7452
S"<class 'gluon.validators.IS_DATETIME_IN_RANGE'>"
p7453
sS'IS_IMAGE'
p7454
S"<class 'gluon.validators.IS_IMAGE'>"
p7455
sS'I'
S"<class 'gluon.html.I'>"
p7456
sS'regex_expose'
p7457
S'<_sre.SRE_Pattern object>'
p7458
sS'IS_NOT_IN_DB'
p7459
S"<class 'gluon.validators.IS_NOT_IN_DB'>"
p7460
sS'ALLOW_TOGGLE'
p7461
S"'true'"
p7462
sg6468
S"<Storage {'status': 200, 'body': <cStringIO.Stri...F0>, 'files': [], 'view': 'default/ticket.html'}>"
p7463
sS'THEAD'
p7464
S"<class 'gluon.html.THEAD'>"
p7465
sS'IS_NULL_OR'
p7466
S"<class 'gluon.validators.IS_EMPTY_OR'>"
p7467
sS'fix_newlines'
p7468
S'<function fix_newlines>'
p7469
sS'GAE_APPCFG'
p7470
S"r'D:\\usr\\local\\bin\\appcfg.py'"
p7471
sg55
S"<Storage {'body': <cStringIO.StringO object at 0..._vars': <Storage {}>, 'post_vars': <Storage {}>}>"
p7472
sS'difflib'
p7473
S"<module 'difflib' from 'C:\\Python27\\Lib\\difflib.pyc'>"
p7474
sS'IS_IN_SET'
p7475
S"<class 'gluon.validators.IS_IN_SET'>"
p7476
sS'TWITTER_HASH'
p7477
S"'web2py'"
p7478
sS'IS_UPLOAD_FILENAME'
p7479
S"<class 'gluon.validators.IS_UPLOAD_FILENAME'>"
p7480
sS'time'
p7481
S"<module 'time' (built-in)>"
p7482
sS'IS_DECIMAL_IN_RANGE'
p7483
S"<class 'gluon.validators.IS_DECIMAL_IN_RANGE'>"
p7484
sS'regex_extend'
p7485
S'<_sre.SRE_Pattern object>'
p7486
sS're'
p7487
S"<module 're' from 'C:\\Python27\\Lib\\re.pyc'>"
p7488
sS'T'
S'<gluon.languages.translator object>'
p7489
sssS'traceback'
p7490
S'Traceback (most recent call last):\n  File "D:\\Workbench\\web2py_src\\gluon\\restricted.py", line 194, in restricted\n    exec ccode in environment\n  File "D:\\Workbench\\web2py_src\\applications\\admin\\models\\access.py", line 2, in <module>\n    from gluon import portalocker\nImportError: cannot import name portalocker\n'
p7491
s.