(dp1
S'output'
p2
S''
sS'layer'
p3
S'D:\\Workbench\\web2py_src\\applications\\admin\\controllers/default.py'
p4
sS'code'
p5
S'# coding: utf8\n\nfrom gluon.admin import *\nfrom gluon.fileutils import abspath, read_file, write_file\nfrom glob import glob\nimport shutil\nimport platform\n\nif DEMO_MODE and request.function in [\'change_password\',\'pack\',\'pack_plugin\',\'upgrade_web2py\',\'uninstall\',\'cleanup\',\'compile_app\',\'remove_compiled_app\',\'delete\',\'delete_plugin\',\'create_file\',\'upload_file\',\'update_languages\',\'reload_routes\']:\n    session.flash = T(\'disabled in demo mode\')\n    redirect(URL(\'site\'))\n\nif not is_manager() and request.function in [\'change_password\',\'upgrade_web2py\']:\n    session.flash = T(\'disabled in multi user mode\')\n    redirect(URL(\'site\'))\n\nif FILTER_APPS and request.args(0) and not request.args(0) in FILTER_APPS:\n    session.flash = T(\'disabled in demo mode\')\n    redirect(URL(\'site\'))\n\ndef safe_open(a,b):\n    if DEMO_MODE and \'w\' in b:\n        class tmp:\n            def write(self,data): pass\n        return tmp()\n    return open(a,b)\n\ndef safe_read(a, b=\'r\'):\n    safe_file = safe_open(a, b)\n    try:\n        return safe_file.read()\n    finally:\n        safe_file.close()\n\ndef safe_write(a, value, b=\'w\'):\n    safe_file = safe_open(a, b)\n    try:\n        safe_file.write(value)\n    finally:\n        safe_file.close()\n\ndef get_app(name=None):\n    app = name or request.args(0)\n    if app and (not MULTI_USER_MODE or db(db.app.name==app)(db.app.owner==auth.user.id).count()):\n        return app\n    session.flash = \'App does not exist or your are not authorized\'\n    redirect(URL(\'site\'))\n\ndef index():\n    """ Index handler """\n\n    send = request.vars.send\n    if DEMO_MODE:\n        session.authorized = True\n        session.last_time = t0\n    if not send:\n        send = URL(\'site\')\n    if session.authorized:\n        redirect(send)\n    elif request.vars.password:\n        if verify_password(request.vars.password):\n            session.authorized = True\n            login_record(True)\n\n            if CHECK_VERSION:\n                session.check_version = True\n            else:\n                session.check_version = False\n\n            session.last_time = t0\n            if isinstance(send, list):  # ## why does this happen?\n                send = str(send[0])\n\n            redirect(send)\n        else:\n            times_denied = login_record(False)\n            if times_denied >= allowed_number_of_attempts:\n                response.flash = \\\n                    T(\'admin disabled because too many invalid login attempts\')\n            elif times_denied == allowed_number_of_attempts - 1:\n                response.flash = \\\n                    T(\'You have one more login attempt before you are locked out\')\n            else:\n                response.flash = T(\'invalid password.\')\n    return dict(send=send)\n\n\ndef check_version():\n    """ Checks if web2py is up to date """\n\n    session.forget()\n    session._unlock(response)\n\n    new_version, version_number = check_new_version(request.env.web2py_version,\n                                    WEB2PY_VERSION_URL)\n\n    if new_version == -1:\n        return A(T(\'Unable to check for upgrades\'), _href=WEB2PY_URL)\n    elif new_version != True:\n        return A(T(\'web2py is up to date\'), _href=WEB2PY_URL)\n    elif platform.system().lower() in (\'windows\',\'win32\',\'win64\') and os.path.exists("web2py.exe"):\n        return SPAN(\'You should upgrade to version %s\' % version_number)\n    else:\n        return sp_button(URL(\'upgrade_web2py\'), T(\'upgrade now\')) \\\n          + XML(\' <strong class="upgrade_version">%s</strong>\' % version_number)\n\n\ndef logout():\n    """ Logout handler """\n    session.authorized = None\n    if MULTI_USER_MODE:\n        redirect(URL(\'user/logout\'))\n    redirect(URL(\'index\'))\n\n\ndef change_password():\n\n    if session.pam_user:\n        session.flash = T(\'PAM authenticated user, cannot change password here\')\n        redirect(URL(\'site\'))\n    form=SQLFORM.factory(Field(\'current_admin_password\',\'password\'),\n                         Field(\'new_admin_password\',\'password\',requires=IS_STRONG()),\n                         Field(\'new_admin_password_again\',\'password\'))\n    if form.accepts(request.vars):\n        if not verify_password(request.vars.current_admin_password):\n            form.errors.current_admin_password = T(\'invalid password\')\n        elif form.vars.new_admin_password != form.vars.new_admin_password_again:\n            form.errors.new_admin_password_again = T(\'no match\')\n        else:\n            path = abspath(\'parameters_%s.py\' % request.env.server_port)\n            safe_write(path, \'password="%s"\' % CRYPT()(request.vars.new_admin_password)[0])\n            session.flash = T(\'password changed\')\n            redirect(URL(\'site\'))\n    return dict(form=form)\n\ndef site():\n    """ Site handler """\n\n    myversion = request.env.web2py_version\n\n    # Shortcut to make the elif statements more legible\n    file_or_appurl = \'file\' in request.vars or \'appurl\' in request.vars\n\n    if DEMO_MODE:\n        pass\n\n    elif request.vars.filename and not \'file\' in request.vars:\n        # create a new application\n        appname = cleanpath(request.vars.filename).replace(\'.\', \'_\')\n        if app_create(appname, request):\n            if MULTI_USER_MODE:\n                db.app.insert(name=appname,owner=auth.user.id)\n            session.flash = T(\'new application "%s" created\', appname)\n            redirect(URL(\'design\',args=appname))\n        else:\n            session.flash = \\\n                T(\'unable to create application "%s" (it may exist already)\', request.vars.filename)\n        redirect(URL(r=request))\n\n    elif file_or_appurl and not request.vars.filename:\n        # can\'t do anything without an app name\n        msg = \'you must specify a name for the uploaded application\'\n        response.flash = T(msg)\n\n    elif file_or_appurl and request.vars.filename:\n        # fetch an application via URL or file upload\n        f = None\n        if request.vars.appurl is not \'\':\n            try:\n                f = urllib.urlopen(request.vars.appurl)\n            except Exception, e:\n                session.flash = DIV(T(\'Unable to download app because:\'),PRE(str(e)))\n                redirect(URL(r=request))\n            fname = request.vars.appurl\n        elif request.vars.file is not \'\':\n            f = request.vars.file.file\n            fname = request.vars.file.filename\n\n        if f:\n            appname = cleanpath(request.vars.filename).replace(\'.\', \'_\')\n            installed = app_install(appname, f, request, fname,\n                                    overwrite=request.vars.overwrite_check)\n        if f and installed:\n            msg = \'application %(appname)s installed with md5sum: %(digest)s\'\n            session.flash = T(msg, dict(appname=appname,\n                                        digest=md5_hash(installed)))\n        elif f and request.vars.overwrite_check:\n            msg = \'unable to install application "%(appname)s"\'\n            session.flash = T(msg, dict(appname=request.vars.filename))\n\n        else:\n            msg = \'unable to install application "%(appname)s"\'\n            session.flash = T(msg, dict(appname=request.vars.filename))\n\n        redirect(URL(r=request))\n\n    regex = re.compile(\'^\\w+$\')\n\n    if is_manager():\n        apps = [f for f in os.listdir(apath(r=request)) if regex.match(f)]\n    else:\n        apps = [f.name for f in db(db.app.owner==auth.user_id).select()]\n\n    if FILTER_APPS:\n        apps = [f for f in apps if f in FILTER_APPS]\n\n    apps = sorted(apps,lambda a,b:cmp(a.upper(),b.upper()))\n\n    return dict(app=None, apps=apps, myversion=myversion)\n\n\ndef pack():\n    app = get_app()\n\n    if len(request.args) == 1:\n        fname = \'web2py.app.%s.w2p\' % app\n        filename = app_pack(app, request)\n    else:\n        fname = \'web2py.app.%s.compiled.w2p\' % app\n        filename = app_pack_compiled(app, request)\n\n    if filename:\n        response.headers[\'Content-Type\'] = \'application/w2p\'\n        disposition = \'attachment; filename=%s\' % fname\n        response.headers[\'Content-Disposition\'] = disposition\n        return safe_read(filename, \'rb\')\n    else:\n        session.flash = T(\'internal error\')\n        redirect(URL(\'site\'))\n\ndef pack_plugin():\n    app = get_app()\n    if len(request.args) == 2:\n        fname = \'web2py.plugin.%s.w2p\' % request.args[1]\n        filename = plugin_pack(app, request.args[1], request)\n    if filename:\n        response.headers[\'Content-Type\'] = \'application/w2p\'\n        disposition = \'attachment; filename=%s\' % fname\n        response.headers[\'Content-Disposition\'] = disposition\n        return safe_read(filename, \'rb\')\n    else:\n        session.flash = T(\'internal error\')\n        redirect(URL(\'plugin\',args=request.args))\n\ndef upgrade_web2py():\n    if \'upgrade\' in request.vars:\n        (success, error) = upgrade(request)\n        if success:\n            session.flash = T(\'web2py upgraded; please restart it\')\n        else:\n            session.flash = T(\'unable to upgrade because "%s"\', error)\n        redirect(URL(\'site\'))\n    elif \'noupgrade\' in request.vars:\n        redirect(URL(\'site\'))\n    return dict()\n\ndef uninstall():\n    app = get_app()\n    if \'delete\' in request.vars:\n        if MULTI_USER_MODE:\n            if is_manager() and db(db.app.name==app).delete():\n                pass\n            elif db(db.app.name==app)(db.app.owner==auth.user.id).delete():\n                pass\n            else:\n                session.flash = T(\'no permission to uninstall "%s"\', app)\n                redirect(URL(\'site\'))\n        if app_uninstall(app, request):            \n            session.flash = T(\'application "%s" uninstalled\', app)\n        else:\n            session.flash = T(\'unable to uninstall "%s"\', app)\n        redirect(URL(\'site\'))\n    elif \'nodelete\' in request.vars:\n        redirect(URL(\'site\'))\n    return dict(app=app)\n\n\ndef cleanup():\n    app = get_app()\n    clean = app_cleanup(app, request)\n    if not clean:\n        session.flash = T("some files could not be removed")\n    else:\n        session.flash = T(\'cache, errors and sessions cleaned\')\n\n    redirect(URL(\'site\'))\n\n\ndef compile_app():\n    app = get_app()\n    c = app_compile(app, request)\n    if not c:\n        session.flash = T(\'application compiled\')\n    else:\n        session.flash = DIV(T(\'Cannot compile: there are errors in your app:\'),\n                              CODE(c))\n    redirect(URL(\'site\'))\n\n\ndef remove_compiled_app():\n    """ Remove the compiled application """\n    app = get_app()\n    remove_compiled_application(apath(app, r=request))\n    session.flash = T(\'compiled application removed\')\n    redirect(URL(\'site\'))\n\ndef delete():\n    """ Object delete handler """\n    app = get_app()\n    filename = \'/\'.join(request.args)\n    sender = request.vars.sender\n\n    if isinstance(sender, list):  # ## fix a problem with Vista\n        sender = sender[0]\n\n    if \'nodelete\' in request.vars:\n        redirect(URL(sender))\n    elif \'delete\' in request.vars:\n        try:\n            os.unlink(apath(filename, r=request))\n            session.flash = T(\'file "%(filename)s" deleted\',\n                              dict(filename=filename))\n        except Exception:\n            session.flash = T(\'unable to delete file "%(filename)s"\',\n                              dict(filename=filename))\n        redirect(URL(sender))\n    return dict(filename=filename, sender=sender)\n\ndef peek():\n    """ Visualize object code """\n    app = get_app()\n    filename = \'/\'.join(request.args)\n    try:\n        data = safe_read(apath(filename, r=request)).replace(\'\\r\',\'\')\n    except IOError:\n        session.flash = T(\'file does not exist\')\n        redirect(URL(\'site\'))\n\n    extension = filename[filename.rfind(\'.\') + 1:].lower()\n\n    return dict(app=request.args[0],\n                filename=filename,\n                data=data,\n                extension=extension)\n\n\ndef test():\n    """ Execute controller tests """\n    app = get_app()\n    if len(request.args) > 1:\n        file = request.args[1]\n    else:\n        file = \'.*\\.py\'\n\n    controllers = listdir(apath(\'%s/controllers/\' % app, r=request), file + \'$\')\n\n    return dict(app=app, controllers=controllers)\n\ndef keepalive():\n    return \'\'\n\ndef search():\n    keywords=request.vars.keywords or \'\'\n    app = get_app()\n    def match(filename,keywords):\n        filename=os.path.join(apath(app, r=request),filename)\n        if keywords in read_file(filename,\'rb\'):\n            return True\n        return False\n    path = apath(request.args[0], r=request)\n    files1 = glob(os.path.join(path,\'*/*.py\'))\n    files2 = glob(os.path.join(path,\'*/*.html\'))\n    files3 = glob(os.path.join(path,\'*/*/*.html\'))\n    files=[x[len(path)+1:].replace(\'\\\\\',\'/\') for x in files1+files2+files3 if match(x,keywords)]\n    return response.json({\'files\':files})\n\ndef edit():\n    """ File edit handler """\n    # Load json only if it is ajax edited...\n    app = get_app()\n    filename = \'/\'.join(request.args)\n    # Try to discover the file type\n    if filename[-3:] == \'.py\':\n        filetype = \'python\'\n    elif filename[-5:] == \'.html\':\n        filetype = \'html\'\n    elif filename[-5:] == \'.load\':\n        filetype = \'html\'\n    elif filename[-4:] == \'.css\':\n        filetype = \'css\'\n    elif filename[-3:] == \'.js\':\n        filetype = \'js\'\n    else:\n        filetype = \'html\'\n\n    # ## check if file is not there\n\n    path = apath(filename, r=request)\n\n    if request.vars.revert and os.path.exists(path + \'.bak\'):\n        try:\n            data = safe_read(path + \'.bak\')\n            data1 = safe_read(path)\n        except IOError:\n            session.flash = T(\'Invalid action\')\n            if \'from_ajax\' in request.vars:\n                 return response.json({\'error\': str(T(\'Invalid action\'))})\n            else:\n                redirect(URL(\'site\'))\n\n        safe_write(path, data)\n        file_hash = md5_hash(data)\n        saved_on = time.ctime(os.stat(path)[stat.ST_MTIME])\n        safe_write(path + \'.bak\', data1)\n        response.flash = T(\'file "%s" of %s restored\', (filename, saved_on))\n    else:\n        try:\n            data = safe_read(path)\n        except IOError:\n            session.flash = T(\'Invalid action\')\n            if \'from_ajax\' in request.vars:\n                return response.json({\'error\': str(T(\'Invalid action\'))})\n            else:\n                redirect(URL(\'site\'))\n\n        file_hash = md5_hash(data)\n        saved_on = time.ctime(os.stat(path)[stat.ST_MTIME])\n\n        if request.vars.file_hash and request.vars.file_hash != file_hash:\n            session.flash = T(\'file changed on disk\')\n            data = request.vars.data.replace(\'\\r\\n\', \'\\n\').strip() + \'\\n\'\n            safe_write(path + \'.1\', data)\n            if \'from_ajax\' in request.vars:\n                return response.json({\'error\': str(T(\'file changed on disk\')),\n                                      \'redirect\': URL(\'resolve\',\n                                                      args=request.args)})\n            else:\n                redirect(URL(\'resolve\', args=request.args))\n        elif request.vars.data:\n            safe_write(path + \'.bak\', data)\n            data = request.vars.data.replace(\'\\r\\n\', \'\\n\').strip() + \'\\n\'\n            safe_write(path, data)\n            file_hash = md5_hash(data)\n            saved_on = time.ctime(os.stat(path)[stat.ST_MTIME])\n            response.flash = T(\'file saved on %s\', saved_on)\n\n    data_or_revert = (request.vars.data or request.vars.revert)\n\n    # Check compile errors\n    highlight = None\n    if filetype == \'python\' and request.vars.data:\n        import _ast\n        try:\n            code = request.vars.data.rstrip().replace(\'\\r\\n\',\'\\n\')+\'\\n\'\n            compile(code, path, "exec", _ast.PyCF_ONLY_AST)\n        except Exception, e:\n            start = sum([len(line)+1 for l, line\n                            in enumerate(request.vars.data.split("\\n"))\n                            if l < e.lineno-1])\n            if e.text and e.offset:\n                offset = e.offset - (len(e.text) - len(e.text.splitlines()[-1]))\n            else:\n                offset = 0\n            highlight = {\'start\': start, \'end\': start + offset + 1}\n            try:\n                ex_name = e.__class__.__name__\n            except:\n                ex_name = \'unknown exception!\'\n            response.flash = DIV(T(\'failed to compile file because:\'), BR(),\n                                 B(ex_name), T(\' at line %s\') % e.lineno,\n                                 offset and T(\' at char %s\') % offset or \'\',\n                                 PRE(str(e)))\n\n    if data_or_revert and request.args[1] == \'modules\':\n        # Lets try to reload the modules\n        try:\n            mopath = \'.\'.join(request.args[2:])[:-3]\n            exec \'import applications.%s.modules.%s\' % (request.args[0], mopath)\n            reload(sys.modules[\'applications.%s.modules.%s\'\n                    % (request.args[0], mopath)])\n        except Exception, e:\n            response.flash = DIV(T(\'failed to reload module because:\'),PRE(str(e)))\n\n    edit_controller = None\n    editviewlinks = None\n    view_link = None\n    if filetype == \'html\' and len(request.args) >= 3:\n        cfilename = os.path.join(request.args[0], \'controllers\',\n                                 request.args[2] + \'.py\')\n        if os.path.exists(apath(cfilename, r=request)):\n            edit_controller = URL(\'edit\', args=[cfilename])\n            view = request.args[3].replace(\'.html\',\'\')\n            view_link = URL(request.args[0],request.args[2],view)\n    elif filetype == \'python\' and request.args[1] == \'controllers\':\n        ## it\'s a controller file.\n        ## Create links to all of the associated view files.\n        app = get_app()\n        viewname = os.path.splitext(request.args[2])[0]\n        viewpath = os.path.join(app,\'views\',viewname)\n        aviewpath = apath(viewpath, r=request)\n        viewlist = []\n        if os.path.exists(aviewpath):\n            if os.path.isdir(aviewpath):\n                viewlist = glob(os.path.join(aviewpath,\'*.html\'))\n        elif os.path.exists(aviewpath+\'.html\'):\n            viewlist.append(aviewpath+\'.html\')\n        if len(viewlist):\n            editviewlinks = []\n            for v in viewlist:\n                vf = os.path.split(v)[-1]\n                vargs = "/".join([viewpath.replace(os.sep,"/"),vf])\n                editviewlinks.append(A(T(vf.split(".")[0]),\\\n                    _href=URL(\'edit\',args=[vargs])))\n\n    if len(request.args) > 2 and request.args[1] == \'controllers\':\n        controller = (request.args[2])[:-3]\n        functions = regex_expose.findall(data)\n    else:\n        (controller, functions) = (None, None)\n\n    if \'from_ajax\' in request.vars:\n        return response.json({\'file_hash\': file_hash, \'saved_on\': saved_on, \'functions\':functions, \'controller\': controller, \'application\': request.args[0], \'highlight\': highlight })\n    else:\n\n        editarea_preferences = {}\n        editarea_preferences[\'FONT_SIZE\'] = \'10\'\n        editarea_preferences[\'FULL_SCREEN\'] = \'false\'\n        editarea_preferences[\'ALLOW_TOGGLE\'] = \'true\'\n        editarea_preferences[\'REPLACE_TAB_BY_SPACES\'] = \'4\'\n        editarea_preferences[\'DISPLAY\'] = \'onload\'\n        for key in editarea_preferences:\n            if globals().has_key(key):\n                editarea_preferences[key]=globals()[key]\n        return dict(app=request.args[0],\n                    filename=filename,\n                    filetype=filetype,\n                    data=data,\n                    edit_controller=edit_controller,\n                    file_hash=file_hash,\n                    saved_on=saved_on,\n                    controller=controller,\n                    functions=functions,\n                    view_link=view_link,\n                    editarea_preferences=editarea_preferences,\n                    editviewlinks=editviewlinks)\n\ndef resolve():\n    """\n    """\n\n    filename = \'/\'.join(request.args)\n    # ## check if file is not there\n    path = apath(filename, r=request)\n    a = safe_read(path).split(\'\\n\')\n    try:\n        b = safe_read(path + \'.1\').split(\'\\n\')\n    except IOError:\n        session.flash = \'Other file, no longer there\'\n        redirect(URL(\'edit\', args=request.args))\n\n    d = difflib.ndiff(a, b)\n\n    def leading(line):\n        """  """\n\n        # TODO: we really need to comment this\n        z = \'\'\n        for (k, c) in enumerate(line):\n            if c == \' \':\n                z += \'&nbsp;\'\n            elif c == \' \\t\':\n                z += \'&nbsp;\'\n            elif k == 0 and c == \'?\':\n                pass\n            else:\n                break\n\n        return XML(z)\n\n    def getclass(item):\n        """ Determine item class """\n\n        if item[0] == \' \':\n            return \'normal\'\n        if item[0] == \'+\':\n            return \'plus\'\n        if item[0] == \'-\':\n            return \'minus\'\n\n    if request.vars:\n        c = \'\\n\'.join([item[2:].rstrip() for (i, item) in enumerate(d) if item[0] \\\n                           == \' \' or \'line%i\' % i in request.vars])\n        safe_write(path, c)\n        session.flash = \'files merged\'\n        redirect(URL(\'edit\', args=request.args))\n    else:\n        # Making the short circuit compatible with <= python2.4\n        gen_data = lambda index,item: not item[:1] in [\'+\',\'-\'] and "" \\\n                   or INPUT(_type=\'checkbox\',\n                            _name=\'line%i\' % index,\n                            value=item[0] == \'+\')\n\n        diff = TABLE(*[TR(TD(gen_data(i,item)),\n                          TD(item[0]),\n                          TD(leading(item[2:]),\n                          TT(item[2:].rstrip())), _class=getclass(item))\n                       for (i, item) in enumerate(d) if item[0] != \'?\'])\n\n    return dict(diff=diff, filename=filename)\n\n\ndef edit_language():\n    """ Edit language file """\n    app = get_app()\n    filename = \'/\'.join(request.args)\n    from gluon.languages import read_dict, write_dict\n    strings = read_dict(apath(filename, r=request))\n    keys = sorted(strings.keys(),lambda x,y: cmp(x.lower(), y.lower()))\n    rows = []\n    rows.append(H2(T(\'Original/Translation\')))\n\n    for key in keys:\n        name = md5_hash(key)\n        if key==strings[key]:\n            _class=\'untranslated\'\n        else:\n            _class=\'translated\'\n        if len(key) <= 40:\n            elem = INPUT(_type=\'text\', _name=name,value=strings[key],\n                         _size=70,_class=_class)\n        else:\n            elem = TEXTAREA(_name=name, value=strings[key], _cols=70,\n                            _rows=5, _class=_class)\n\n        # Making the short circuit compatible with <= python2.4\n        k = (strings[key] != key) and key or B(key)\n\n        rows.append(P(k, BR(), elem, TAG.BUTTON(T(\'delete\'),\n                            _onclick=\'return delkey("%s")\' % name), _id=name))\n\n    rows.append(INPUT(_type=\'submit\', _value=T(\'update\')))\n    form = FORM(*rows)\n    if form.accepts(request.vars, keepvalues=True):\n        strs = dict()\n        for key in keys:\n            name = md5_hash(key)\n            if form.vars[name]==chr(127): continue\n            strs[key] = form.vars[name]\n        write_dict(apath(filename, r=request), strs)\n        session.flash = T(\'file saved on %(time)s\', dict(time=time.ctime()))\n        redirect(URL(r=request,args=request.args))\n    return dict(app=request.args[0], filename=filename, form=form)\n\n\ndef about():\n    """ Read about info """\n    app = get_app()\n    # ## check if file is not there\n    about = safe_read(apath(\'%s/ABOUT\' % app, r=request))\n    license = safe_read(apath(\'%s/LICENSE\' % app, r=request))\n    return dict(app=app, about=MARKMIN(about), license=MARKMIN(license))\n\n\ndef design():\n    """ Application design handler """\n    app = get_app()\n\n    if not response.flash and app == request.application:\n        msg = T(\'ATTENTION: you cannot edit the running application!\')\n        response.flash = msg\n\n    if request.vars.pluginfile!=None and not isinstance(request.vars.pluginfile,str):\n        filename=os.path.basename(request.vars.pluginfile.filename)\n        if plugin_install(app, request.vars.pluginfile.file,\n                          request, filename):\n            session.flash = T(\'new plugin installed\')\n            redirect(URL(\'design\',args=app))\n        else:\n            session.flash = \\\n                T(\'unable to create application "%s"\', request.vars.filename)\n        redirect(URL(r=request))\n    elif isinstance(request.vars.pluginfile,str):\n        session.flash = T(\'plugin not specified\')\n        redirect(URL(r=request))\n\n\n    # If we have only pyc files it means that\n    # we cannot design\n    if os.path.exists(apath(\'%s/compiled\' % app, r=request)):\n        session.flash = \\\n            T(\'application is compiled and cannot be designed\')\n        redirect(URL(\'site\'))\n\n    # Get all models\n    models = listdir(apath(\'%s/models/\' % app, r=request), \'.*\\.py$\')\n    models=[x.replace(\'\\\\\',\'/\') for x in models]\n    defines = {}\n    for m in models:\n        data = safe_read(apath(\'%s/models/%s\' % (app, m), r=request))\n        defines[m] = regex_tables.findall(data)\n        defines[m].sort()\n\n    # Get all controllers\n    controllers = sorted(listdir(apath(\'%s/controllers/\' % app, r=request), \'.*\\.py$\'))\n    controllers = [x.replace(\'\\\\\',\'/\') for x in controllers]\n    functions = {}\n    for c in controllers:\n        data = safe_read(apath(\'%s/controllers/%s\' % (app, c), r=request))\n        items = regex_expose.findall(data)\n        functions[c] = items\n\n    # Get all views\n    views = sorted(listdir(apath(\'%s/views/\' % app, r=request), \'[\\w/\\-]+(\\.\\w+)+$\'))\n    views = [x.replace(\'\\\\\',\'/\') for x in views if not x.endswith(\'.bak\')]\n    extend = {}\n    include = {}\n    for c in views:\n        data = safe_read(apath(\'%s/views/%s\' % (app, c), r=request))\n        items = regex_extend.findall(data)\n\n        if items:\n            extend[c] = items[0][1]\n\n        items = regex_include.findall(data)\n        include[c] = [i[1] for i in items]\n\n    # Get all modules\n    modules = listdir(apath(\'%s/modules/\' % app, r=request), \'.*\\.py$\')\n    modules = modules=[x.replace(\'\\\\\',\'/\') for x in modules]\n    modules.sort()\n\n    # Get all static files\n    statics = listdir(apath(\'%s/static/\' % app, r=request), \'[^\\.#].*\')\n    statics = [x.replace(\'\\\\\',\'/\') for x in statics]\n    statics.sort()\n\n    # Get all languages\n    languages = listdir(apath(\'%s/languages/\' % app, r=request), \'[\\w-]*\\.py\')\n\n    #Get crontab\n    cronfolder = apath(\'%s/cron\' % app, r=request)\n    if not os.path.exists(cronfolder): os.mkdir(cronfolder)\n    crontab = apath(\'%s/cron/crontab\' % app, r=request)\n    if not os.path.exists(crontab):\n        safe_write(crontab, \'#crontab\')\n\n    plugins=[]\n    def filter_plugins(items,plugins):\n        plugins+=[item[7:].split(\'/\')[0].split(\'.\')[0] for item in items if item.startswith(\'plugin_\')]\n        plugins[:]=list(set(plugins))\n        plugins.sort()\n        return [item for item in items if not item.startswith(\'plugin_\')]\n\n    return dict(app=app,\n                models=filter_plugins(models,plugins),\n                defines=defines,\n                controllers=filter_plugins(controllers,plugins),\n                functions=functions,\n                views=filter_plugins(views,plugins),\n                modules=filter_plugins(modules,plugins),\n                extend=extend,\n                include=include,\n                statics=filter_plugins(statics,plugins),\n                languages=languages,\n                crontab=crontab,\n                plugins=plugins)\n\ndef delete_plugin():\n    """ Object delete handler """\n    app=request.args(0)\n    plugin = request.args(1)\n    plugin_name=\'plugin_\'+plugin\n    if \'nodelete\' in request.vars:\n        redirect(URL(\'design\',args=app))\n    elif \'delete\' in request.vars:\n        try:\n            for folder in [\'models\',\'views\',\'controllers\',\'static\',\'modules\']:\n                path=os.path.join(apath(app,r=request),folder)\n                for item in os.listdir(path):\n                    if item.startswith(plugin_name):\n                        filename=os.path.join(path,item)\n                        if os.path.isdir(filename):\n                            shutil.rmtree(filename)\n                        else:\n                            os.unlink(filename)\n            session.flash = T(\'plugin "%(plugin)s" deleted\',\n                              dict(plugin=plugin))\n        except Exception:\n            session.flash = T(\'unable to delete file plugin "%(plugin)s"\',\n                              dict(plugin=plugin))\n        redirect(URL(\'design\',args=request.args(0)))\n    return dict(plugin=plugin)\n\ndef plugin():\n    """ Application design handler """\n    app = get_app()\n    plugin = request.args(1)\n\n    if not response.flash and app == request.application:\n        msg = T(\'ATTENTION: you cannot edit the running application!\')\n        response.flash = msg\n\n    # If we have only pyc files it means that\n    # we cannot design\n    if os.path.exists(apath(\'%s/compiled\' % app, r=request)):\n        session.flash = \\\n            T(\'application is compiled and cannot be designed\')\n        redirect(URL(\'site\'))\n\n    # Get all models\n    models = listdir(apath(\'%s/models/\' % app, r=request), \'.*\\.py$\')\n    models=[x.replace(\'\\\\\',\'/\') for x in models]\n    defines = {}\n    for m in models:\n        data = safe_read(apath(\'%s/models/%s\' % (app, m), r=request))\n        defines[m] = regex_tables.findall(data)\n        defines[m].sort()\n\n    # Get all controllers\n    controllers = sorted(listdir(apath(\'%s/controllers/\' % app, r=request), \'.*\\.py$\'))\n    controllers = [x.replace(\'\\\\\',\'/\') for x in controllers]\n    functions = {}\n    for c in controllers:\n        data = safe_read(apath(\'%s/controllers/%s\' % (app, c), r=request))\n        items = regex_expose.findall(data)\n        functions[c] = items\n\n    # Get all views\n    views = sorted(listdir(apath(\'%s/views/\' % app, r=request), \'[\\w/\\-]+\\.\\w+$\'))\n    views = [x.replace(\'\\\\\',\'/\') for x in views]\n    extend = {}\n    include = {}\n    for c in views:\n        data = safe_read(apath(\'%s/views/%s\' % (app, c), r=request))\n        items = regex_extend.findall(data)\n        if items:\n            extend[c] = items[0][1]\n\n        items = regex_include.findall(data)\n        include[c] = [i[1] for i in items]\n\n    # Get all modules\n    modules = listdir(apath(\'%s/modules/\' % app, r=request), \'.*\\.py$\')\n    modules = modules=[x.replace(\'\\\\\',\'/\') for x in modules]\n    modules.sort()\n\n    # Get all static files\n    statics = listdir(apath(\'%s/static/\' % app, r=request), \'[^\\.#].*\')\n    statics = [x.replace(\'\\\\\',\'/\') for x in statics]\n    statics.sort()\n\n    # Get all languages\n    languages = listdir(apath(\'%s/languages/\' % app, r=request), \'[\\w-]*\\.py\')\n\n    #Get crontab\n    crontab = apath(\'%s/cron/crontab\' % app, r=request)\n    if not os.path.exists(crontab):\n        safe_write(crontab, \'#crontab\')\n\n    def filter_plugins(items):\n        regex=re.compile(\'^plugin_\'+plugin+\'(/.*|\\..*)?$\')\n        return [item for item in items if regex.match(item)]\n\n    return dict(app=app,\n                models=filter_plugins(models),\n                defines=defines,\n                controllers=filter_plugins(controllers),\n                functions=functions,\n                views=filter_plugins(views),\n                modules=filter_plugins(modules),\n                extend=extend,\n                include=include,\n                statics=filter_plugins(statics),\n                languages=languages,\n                crontab=crontab)\n\n\ndef create_file():\n    """ Create files handler """\n    try:\n        app = get_app(name=request.vars.location.split(\'/\')[0])\n        path = apath(request.vars.location, r=request)\n        filename = re.sub(\'[^\\w./-]+\', \'_\', request.vars.filename)\n\n        if path[-11:] == \'/languages/\':\n            # Handle language files\n            if len(filename) == 0:\n                raise SyntaxError\n            if not filename[-3:] == \'.py\':\n                filename += \'.py\'\n            app = path.split(\'/\')[-3]\n            path=os.path.join(apath(app, r=request),\'languages\',filename)\n            if not os.path.exists(path):\n                safe_write(path, \'\')\n            findT(apath(app, r=request), filename[:-3])\n            session.flash = T(\'language file "%(filename)s" created/updated\',\n                              dict(filename=filename))\n            redirect(request.vars.sender)\n\n        elif path[-8:] == \'/models/\':\n            # Handle python models\n            if not filename[-3:] == \'.py\':\n                filename += \'.py\'\n\n            if len(filename) == 3:\n                raise SyntaxError\n\n            text = \'# coding: utf8\\n\'\n\n        elif path[-13:] == \'/controllers/\':\n            # Handle python controllers\n            if not filename[-3:] == \'.py\':\n                filename += \'.py\'\n\n            if len(filename) == 3:\n                raise SyntaxError\n\n            text = \'# coding: utf8\\n# %s\\ndef index(): return dict(message="hello from %s")\'\n            text = text % (T(\'try something like\'), filename)\n\n        elif path[-7:] == \'/views/\':\n            if request.vars.plugin and not filename.startswith(\'plugin_%s/\' % request.vars.plugin):\n                filename = \'plugin_%s/%s\' % (request.vars.plugin, filename)\n            # Handle template (html) views\n            if filename.find(\'.\')<0:\n                filename += \'.html\'\n            extension = filename.split(\'.\')[-1].lower()\n\n            if len(filename) == 5:\n                raise SyntaxError\n\n            msg = T(\'This is the %(filename)s template\',\n                    dict(filename=filename))            \n            if extension == \'html\':\n                text = dedent("""\n                   {{extend \'layout.html\'}}\n                   <h1>%s</h1>\n                   {{=BEAUTIFY(response._vars)}}""" % msg)\n            else:\n                generic = os.path.join(path,\'generic.\'+extension)\n                if os.path.exists(generic):\n                    text = read_file(generic)\n                else:\n                    text = \'\'\n                \n        elif path[-9:] == \'/modules/\':\n            if request.vars.plugin and not filename.startswith(\'plugin_%s/\' % request.vars.plugin):\n                filename = \'plugin_%s/%s\' % (request.vars.plugin, filename)\n            # Handle python module files\n            if not filename[-3:] == \'.py\':\n                filename += \'.py\'\n\n            if len(filename) == 3:\n                raise SyntaxError\n\n            text = dedent("""\n                   #!/usr/bin/env python\n                   # coding: utf8\n                   from gluon import *\\n""")\n\n        elif path[-8:] == \'/static/\':\n            if request.vars.plugin and not filename.startswith(\'plugin_%s/\' % request.vars.plugin):\n                filename = \'plugin_%s/%s\' % (request.vars.plugin, filename)\n            text = \'\'\n        else:\n            redirect(request.vars.sender)\n\n        full_filename = os.path.join(path, filename)\n        dirpath = os.path.dirname(full_filename)\n\n        if not os.path.exists(dirpath):\n            os.makedirs(dirpath)\n\n        if os.path.exists(full_filename):\n            raise SyntaxError\n\n        safe_write(full_filename, text)\n        session.flash = T(\'file "%(filename)s" created\',\n                          dict(filename=full_filename[len(path):]))\n        redirect(URL(\'edit\',\n                 args=[os.path.join(request.vars.location, filename)]))\n    except Exception, e:\n        if not isinstance(e,HTTP):\n            session.flash = T(\'cannot create file\')\n\n    redirect(request.vars.sender)\n\n\ndef upload_file():\n    """ File uploading handler """\n\n    try:\n        filename = None\n        app = get_app(name=request.vars.location.split(\'/\')[0])\n        path = apath(request.vars.location, r=request)\n\n        if request.vars.filename:\n            filename = re.sub(\'[^\\w\\./]+\', \'_\', request.vars.filename)\n        else:\n            filename = os.path.split(request.vars.file.filename)[-1]\n\n        if path[-8:] == \'/models/\' and not filename[-3:] == \'.py\':\n            filename += \'.py\'\n\n        if path[-9:] == \'/modules/\' and not filename[-3:] == \'.py\':\n            filename += \'.py\'\n\n        if path[-13:] == \'/controllers/\' and not filename[-3:] == \'.py\':\n            filename += \'.py\'\n\n        if path[-7:] == \'/views/\' and not filename[-5:] == \'.html\':\n            filename += \'.html\'\n\n        if path[-11:] == \'/languages/\' and not filename[-3:] == \'.py\':\n            filename += \'.py\'\n\n        filename = os.path.join(path, filename)\n        dirpath = os.path.dirname(filename)\n\n        if not os.path.exists(dirpath):\n            os.makedirs(dirpath)\n\n        safe_write(filename, request.vars.file.file.read(), \'wb\')\n        session.flash = T(\'file "%(filename)s" uploaded\',\n                          dict(filename=filename[len(path):]))\n    except Exception:\n        if filename:\n            d = dict(filename = filename[len(path):])\n        else:\n            d = dict(filename = \'unkown\')\n        session.flash = T(\'cannot upload file "%(filename)s"\', d)\n\n    redirect(request.vars.sender)\n\n\ndef errors():\n    """ Error handler """\n    import operator\n    import os\n    import pickle\n    import hashlib\n\n    app = get_app()\n\n    method = request.args(1) or \'new\'\n\n\n    if method == \'new\':\n        errors_path = apath(\'%s/errors\' % app, r=request)\n\n        delete_hashes = []\n        for item in request.vars:\n            if item[:7] == \'delete_\':\n                delete_hashes.append(item[7:])\n\n        hash2error = dict()\n\n        for fn in listdir(errors_path, \'^\\w.*\'):\n            fullpath = os.path.join(errors_path, fn)\n            if not os.path.isfile(fullpath): continue\n            try:\n                fullpath_file = open(fullpath, \'r\')\n                try:\n                    error = pickle.load(fullpath_file)\n                finally:\n                    fullpath_file.close()\n            except IOError:\n                continue\n\n            hash = hashlib.md5(error[\'traceback\']).hexdigest()\n\n            if hash in delete_hashes:\n                os.unlink(fullpath)\n            else:\n                try:\n                    hash2error[hash][\'count\'] += 1\n                except KeyError:\n                    error_lines = error[\'traceback\'].split("\\n")\n                    last_line = error_lines[-2]\n                    error_causer = os.path.split(error[\'layer\'])[1]\n                    hash2error[hash] = dict(count=1, pickel=error,\n                                            causer=error_causer,\n                                            last_line=last_line,\n                                            hash=hash,ticket=fn)\n\n        decorated = [(x[\'count\'], x) for x in hash2error.values()]\n        decorated.sort(key=operator.itemgetter(0), reverse=True)\n\n        return dict(errors = [x[1] for x in decorated], app=app, method=method)\n    else:\n        for item in request.vars:\n            if item[:7] == \'delete_\':\n                os.unlink(apath(\'%s/errors/%s\' % (app, item[7:]), r=request))\n        func = lambda p: os.stat(apath(\'%s/errors/%s\' % \\\n                                           (app, p), r=request)).st_mtime\n        tickets = sorted(listdir(apath(\'%s/errors/\' % app, r=request), \'^\\w.*\'),\n                         key=func,\n                         reverse=True)\n\n        return dict(app=app, tickets=tickets, method=method)\n\n\ndef make_link(path):\n    """ Create a link from a path """\n    tryFile = path.replace(\'\\\\\', \'/\')\n\n    if os.path.isabs(tryFile) and os.path.isfile(tryFile):\n        (folder, filename) = os.path.split(tryFile)\n        (base, ext) = os.path.splitext(filename)\n        app = get_app()\n\n        editable = {\'controllers\': \'.py\', \'models\': \'.py\', \'views\': \'.html\'}\n        for key in editable.keys():\n            check_extension = folder.endswith("%s/%s" % (app,key))\n            if ext.lower() == editable[key] and check_extension:\n                return A(\'"\' + tryFile + \'"\',\n                         _href=URL(r=request,\n                         f=\'edit/%s/%s/%s\' % (app, key, filename))).xml()\n    return \'\'\n\n\ndef make_links(traceback):\n    """ Make links using the given traceback """\n\n    lwords = traceback.split(\'"\')\n\n    # Making the short circuit compatible with <= python2.4\n    result = (len(lwords) != 0) and lwords[0] or \'\'\n\n    i = 1\n\n    while i < len(lwords):\n        link = make_link(lwords[i])\n\n        if link == \'\':\n            result += \'"\' + lwords[i]\n        else:\n            result += link\n\n            if i + 1 < len(lwords):\n                result += lwords[i + 1]\n                i = i + 1\n\n        i = i + 1\n\n    return result\n\n\nclass TRACEBACK(object):\n    """ Generate the traceback """\n\n    def __init__(self, text):\n        """ TRACEBACK constructor """\n\n        self.s = make_links(CODE(text).xml())\n\n    def xml(self):\n        """ Returns the xml """\n\n        return self.s\n\n\ndef ticket():\n    """ Ticket handler """\n\n    if len(request.args) != 2:\n        session.flash = T(\'invalid ticket\')\n        redirect(URL(\'site\'))\n\n    app = get_app()\n    myversion = request.env.web2py_version\n    ticket = request.args[1]\n    e = RestrictedError()\n    e.load(request, app, ticket)\n\n    return dict(app=app,\n                ticket=ticket,\n                output=e.output,\n                traceback=(e.traceback and TRACEBACK(e.traceback)),\n                snapshot=e.snapshot,\n                code=e.code,\n                layer=e.layer,\n                myversion=myversion)\n\ndef error():\n    """ Generate a ticket (for testing) """\n    raise RuntimeError(\'admin ticket generator at your service\')\n\ndef update_languages():\n    """ Update available languages """\n\n    app = get_app()\n    update_all_languages(apath(app, r=request))\n    session.flash = T(\'Language files (static strings) updated\')\n    redirect(URL(\'design\',args=app,anchor=\'languages\'))\n\ndef twitter():\n    session.forget()\n    session._unlock(response)\n    import gluon.tools\n    import gluon.contrib.simplejson as sj\n    try:\n        if TWITTER_HASH:\n            page = gluon.tools.fetch(\'http://twitter.com/%s?format=json\'%TWITTER_HASH)\n            return sj.loads(page)[\'#timeline\']\n        else:\n            return \'disabled\'\n    except Exception, e:\n        return DIV(T(\'Unable to download because:\'),BR(),str(e))\n\ndef user():\n    if MULTI_USER_MODE:\n        if not db(db.auth_user).count():\n            auth.settings.registration_requires_approval = False            \n        return dict(form=auth())\n    else:\n        return dict(form=T("Disabled"))\n\ndef reload_routes():\n    """ Reload routes.py """\n    import gluon.rewrite\n    gluon.rewrite.load()\n    redirect(URL(\'site\'))\n\nresponse._vars=response._caller(check_version)\n'
p6
sS'snapshot'
p7
(dp8
S'exception'
p9
(dp10
S'__hash__'
p11
S"<method-wrapper '__hash__' of exceptions.TypeError object>"
p12
sS'__setattr__'
p13
S"<method-wrapper '__setattr__' of exceptions.TypeError object>"
p14
sS'__reduce_ex__'
p15
S'<built-in method __reduce_ex__ of exceptions.TypeError object>'
p16
sS'__getslice__'
p17
S"<method-wrapper '__getslice__' of exceptions.TypeError object>"
p18
sS'__getitem__'
p19
S"<method-wrapper '__getitem__' of exceptions.TypeError object>"
p20
sS'__setstate__'
p21
S'<built-in method __setstate__ of exceptions.TypeError object>'
p22
sS'__reduce__'
p23
S'<built-in method __reduce__ of exceptions.TypeError object>'
p24
sS'__str__'
p25
S"<method-wrapper '__str__' of exceptions.TypeError object>"
p26
sS'__format__'
p27
S'<built-in method __format__ of exceptions.TypeError object>'
p28
sS'__getattribute__'
p29
S"<method-wrapper '__getattribute__' of exceptions.TypeError object>"
p30
sS'__class__'
p31
S"<type 'exceptions.TypeError'>"
p32
sS'__unicode__'
p33
S'<built-in method __unicode__ of exceptions.TypeError object>'
p34
sS'__delattr__'
p35
S"<method-wrapper '__delattr__' of exceptions.TypeError object>"
p36
sS'__subclasshook__'
p37
S'<built-in method __subclasshook__ of type object>'
p38
sS'__repr__'
p39
S"<method-wrapper '__repr__' of exceptions.TypeError object>"
p40
sS'args'
p41
S"('not all arguments converted during string formatting',)"
p42
sS'__dict__'
p43
S'{}'
p44
sS'__sizeof__'
p45
S'<built-in method __sizeof__ of exceptions.TypeError object>'
p46
sS'__doc__'
p47
S"'Inappropriate argument type.'"
p48
sS'__init__'
p49
S"<method-wrapper '__init__' of exceptions.TypeError object>"
p50
sS'__new__'
p51
S'<built-in method __new__ of type object>'
p52
ssS'evalue'
p53
S'not all arguments converted during string formatting'
p54
sS'request'
p55
ccopy_reg
_reconstructor
p56
(cgluon.html
BEAUTIFY
p57
c__builtin__
object
p58
NtRp59
(dp60
S'attributes'
p61
(dp62
sS'components'
p63
(lp64
g56
(cgluon.html
TABLE
p65
g58
NtRp66
(dp67
g61
(dp68
S'level'
p69
I5
ssS'parent'
p70
Nsg63
(lp71
g56
(cgluon.html
TR
p72
g58
NtRp73
(dp74
g61
(dp75
sg70
g66
sg63
(lp76
g56
(cgluon.html
TD
p77
g58
NtRp78
(dp79
g61
(dp80
S'_style'
p81
S'font-weight:bold;'
p82
ssg70
g73
sg63
(lp83
S'ajax'
p84
asbag56
(g77
g58
NtRp85
(dp86
g61
(dp87
S'_valign'
p88
S'top'
p89
ssg70
g73
sg63
(lp90
S':'
asbag56
(g77
g58
NtRp91
(dp92
g61
(dp93
sg70
g73
sg63
(lp94
g56
(g57
g58
NtRp95
(dp96
g61
(dp97
g69
I5
ssg70
g91
sg63
(lp98
S'True'
p99
asbasbasbag56
(g72
g58
NtRp100
(dp101
g61
(dp102
sg70
g66
sg63
(lp103
g56
(g77
g58
NtRp104
(dp105
g61
(dp106
g81
g82
ssg70
g100
sg63
(lp107
S'application'
p108
asbag56
(g77
g58
NtRp109
(dp110
g61
(dp111
g88
g89
ssg70
g100
sg63
(lp112
S':'
asbag56
(g77
g58
NtRp113
(dp114
g61
(dp115
sg70
g100
sg63
(lp116
g56
(g57
g58
NtRp117
(dp118
g61
(dp119
g69
I5
ssg70
g113
sg63
(lp120
S'admin'
p121
asbasbasbag56
(g72
g58
NtRp122
(dp123
g61
(dp124
sg70
g66
sg63
(lp125
g56
(g77
g58
NtRp126
(dp127
g61
(dp128
g81
g82
ssg70
g122
sg63
(lp129
g41
asbag56
(g77
g58
NtRp130
(dp131
g61
(dp132
g88
g89
ssg70
g122
sg63
(lp133
S':'
asbag56
(g77
g58
NtRp134
(dp135
g61
(dp136
sg70
g122
sg63
(lp137
g56
(g57
g58
NtRp138
(dp139
g61
(dp140
g69
I5
ssg70
g134
sg63
(lp141
g56
(g65
g58
NtRp142
(dp143
g61
(dp144
g69
I4
ssg70
Nsg63
(lp145
sbasbasbasbag56
(g72
g58
NtRp146
(dp147
g61
(dp148
sg70
g66
sg63
(lp149
g56
(g77
g58
NtRp150
(dp151
g61
(dp152
g81
g82
ssg70
g146
sg63
(lp153
S'body'
p154
asbag56
(g77
g58
NtRp155
(dp156
g61
(dp157
g88
g89
ssg70
g146
sg63
(lp158
S':'
asbag56
(g77
g58
NtRp159
(dp160
g61
(dp161
sg70
g146
sg63
(lp162
g56
(g57
g58
NtRp163
(dp164
g61
(dp165
g69
I5
ssg70
g159
sg63
(lp166
S"<open file '<fdopen>', mode 'w+b' at 0x036D4128>"
p167
asbasbasbag56
(g72
g58
NtRp168
(dp169
g61
(dp170
sg70
g66
sg63
(lp171
g56
(g77
g58
NtRp172
(dp173
g61
(dp174
g81
g82
ssg70
g168
sg63
(lp175
S'client'
p176
asbag56
(g77
g58
NtRp177
(dp178
g61
(dp179
g88
g89
ssg70
g168
sg63
(lp180
S':'
asbag56
(g77
g58
NtRp181
(dp182
g61
(dp183
sg70
g168
sg63
(lp184
g56
(g57
g58
NtRp185
(dp186
g61
(dp187
g69
I5
ssg70
g181
sg63
(lp188
S'127.0.0.1'
p189
asbasbasbag56
(g72
g58
NtRp190
(dp191
g61
(dp192
sg70
g66
sg63
(lp193
g56
(g77
g58
NtRp194
(dp195
g61
(dp196
g81
g82
ssg70
g190
sg63
(lp197
S'controller'
p198
asbag56
(g77
g58
NtRp199
(dp200
g61
(dp201
g88
g89
ssg70
g190
sg63
(lp202
S':'
asbag56
(g77
g58
NtRp203
(dp204
g61
(dp205
sg70
g190
sg63
(lp206
g56
(g57
g58
NtRp207
(dp208
g61
(dp209
g69
I5
ssg70
g203
sg63
(lp210
S'default'
p211
asbasbasbag56
(g72
g58
NtRp212
(dp213
g61
(dp214
sg70
g66
sg63
(lp215
g56
(g77
g58
NtRp216
(dp217
g61
(dp218
g81
g82
ssg70
g212
sg63
(lp219
S'cookies'
p220
asbag56
(g77
g58
NtRp221
(dp222
g61
(dp223
g88
g89
ssg70
g212
sg63
(lp224
S':'
asbag56
(g77
g58
NtRp225
(dp226
g61
(dp227
sg70
g212
sg63
(lp228
g56
(g57
g58
NtRp229
(dp230
g61
(dp231
g69
I5
ssg70
g225
sg63
(lp232
g56
(g65
g58
NtRp233
(dp234
g61
(dp235
g69
I4
ssg70
Nsg63
(lp236
g56
(g72
g58
NtRp237
(dp238
g61
(dp239
sg70
g233
sg63
(lp240
g56
(g77
g58
NtRp241
(dp242
g61
(dp243
g81
g82
ssg70
g237
sg63
(lp244
S'session_id_admin'
p245
asbag56
(g77
g58
NtRp246
(dp247
g61
(dp248
g88
g89
ssg70
g237
sg63
(lp249
S':'
asbag56
(g77
g58
NtRp250
(dp251
g61
(dp252
sg70
g237
sg63
(lp253
g56
(g57
g58
NtRp254
(dp255
g61
(dp256
g69
I4
ssg70
g250
sg63
(lp257
g56
(g65
g58
NtRp258
(dp259
g61
(dp260
g69
I3
ssg70
Nsg63
(lp261
g56
(g72
g58
NtRp262
(dp263
g61
(dp264
sg70
g258
sg63
(lp265
g56
(g77
g58
NtRp266
(dp267
g61
(dp268
g81
g82
ssg70
g262
sg63
(lp269
S'comment'
p270
asbag56
(g77
g58
NtRp271
(dp272
g61
(dp273
g88
g89
ssg70
g262
sg63
(lp274
S':'
asbag56
(g77
g58
NtRp275
(dp276
g61
(dp277
sg70
g262
sg63
(lp278
g56
(g57
g58
NtRp279
(dp280
g61
(dp281
g69
I3
ssg70
g275
sg63
(lp282
S''
asbasbasbag56
(g72
g58
NtRp283
(dp284
g61
(dp285
sg70
g258
sg63
(lp286
g56
(g77
g58
NtRp287
(dp288
g61
(dp289
g81
g82
ssg70
g283
sg63
(lp290
S'domain'
p291
asbag56
(g77
g58
NtRp292
(dp293
g61
(dp294
g88
g89
ssg70
g283
sg63
(lp295
S':'
asbag56
(g77
g58
NtRp296
(dp297
g61
(dp298
sg70
g283
sg63
(lp299
g56
(g57
g58
NtRp300
(dp301
g61
(dp302
g69
I3
ssg70
g296
sg63
(lp303
S''
asbasbasbag56
(g72
g58
NtRp304
(dp305
g61
(dp306
sg70
g258
sg63
(lp307
g56
(g77
g58
NtRp308
(dp309
g61
(dp310
g81
g82
ssg70
g304
sg63
(lp311
S'expires'
p312
asbag56
(g77
g58
NtRp313
(dp314
g61
(dp315
g88
g89
ssg70
g304
sg63
(lp316
S':'
asbag56
(g77
g58
NtRp317
(dp318
g61
(dp319
sg70
g304
sg63
(lp320
g56
(g57
g58
NtRp321
(dp322
g61
(dp323
g69
I3
ssg70
g317
sg63
(lp324
S''
asbasbasbag56
(g72
g58
NtRp325
(dp326
g61
(dp327
sg70
g258
sg63
(lp328
g56
(g77
g58
NtRp329
(dp330
g61
(dp331
g81
g82
ssg70
g325
sg63
(lp332
S'httponly'
p333
asbag56
(g77
g58
NtRp334
(dp335
g61
(dp336
g88
g89
ssg70
g325
sg63
(lp337
S':'
asbag56
(g77
g58
NtRp338
(dp339
g61
(dp340
sg70
g325
sg63
(lp341
g56
(g57
g58
NtRp342
(dp343
g61
(dp344
g69
I3
ssg70
g338
sg63
(lp345
S''
asbasbasbag56
(g72
g58
NtRp346
(dp347
g61
(dp348
sg70
g258
sg63
(lp349
g56
(g77
g58
NtRp350
(dp351
g61
(dp352
g81
g82
ssg70
g346
sg63
(lp353
S'max-age'
p354
asbag56
(g77
g58
NtRp355
(dp356
g61
(dp357
g88
g89
ssg70
g346
sg63
(lp358
S':'
asbag56
(g77
g58
NtRp359
(dp360
g61
(dp361
sg70
g346
sg63
(lp362
g56
(g57
g58
NtRp363
(dp364
g61
(dp365
g69
I3
ssg70
g359
sg63
(lp366
S''
asbasbasbag56
(g72
g58
NtRp367
(dp368
g61
(dp369
sg70
g258
sg63
(lp370
g56
(g77
g58
NtRp371
(dp372
g61
(dp373
g81
g82
ssg70
g367
sg63
(lp374
S'path'
p375
asbag56
(g77
g58
NtRp376
(dp377
g61
(dp378
g88
g89
ssg70
g367
sg63
(lp379
S':'
asbag56
(g77
g58
NtRp380
(dp381
g61
(dp382
sg70
g367
sg63
(lp383
g56
(g57
g58
NtRp384
(dp385
g61
(dp386
g69
I3
ssg70
g380
sg63
(lp387
S''
asbasbasbag56
(g72
g58
NtRp388
(dp389
g61
(dp390
sg70
g258
sg63
(lp391
g56
(g77
g58
NtRp392
(dp393
g61
(dp394
g81
g82
ssg70
g388
sg63
(lp395
S'secure'
p396
asbag56
(g77
g58
NtRp397
(dp398
g61
(dp399
g88
g89
ssg70
g388
sg63
(lp400
S':'
asbag56
(g77
g58
NtRp401
(dp402
g61
(dp403
sg70
g388
sg63
(lp404
g56
(g57
g58
NtRp405
(dp406
g61
(dp407
g69
I3
ssg70
g401
sg63
(lp408
S''
asbasbasbag56
(g72
g58
NtRp409
(dp410
g61
(dp411
sg70
g258
sg63
(lp412
g56
(g77
g58
NtRp413
(dp414
g61
(dp415
g81
g82
ssg70
g409
sg63
(lp416
S'version'
p417
asbag56
(g77
g58
NtRp418
(dp419
g61
(dp420
g88
g89
ssg70
g409
sg63
(lp421
S':'
asbag56
(g77
g58
NtRp422
(dp423
g61
(dp424
sg70
g409
sg63
(lp425
g56
(g57
g58
NtRp426
(dp427
g61
(dp428
g69
I3
ssg70
g422
sg63
(lp429
S''
asbasbasbasbasbasbasbag56
(g72
g58
NtRp430
(dp431
g61
(dp432
sg70
g233
sg63
(lp433
g56
(g77
g58
NtRp434
(dp435
g61
(dp436
g81
g82
ssg70
g430
sg63
(lp437
S'session_id_dummy'
p438
asbag56
(g77
g58
NtRp439
(dp440
g61
(dp441
g88
g89
ssg70
g430
sg63
(lp442
S':'
asbag56
(g77
g58
NtRp443
(dp444
g61
(dp445
sg70
g430
sg63
(lp446
g56
(g57
g58
NtRp447
(dp448
g61
(dp449
g69
I4
ssg70
g443
sg63
(lp450
g56
(g65
g58
NtRp451
(dp452
g61
(dp453
g69
I3
ssg70
Nsg63
(lp454
g56
(g72
g58
NtRp455
(dp456
g61
(dp457
sg70
g451
sg63
(lp458
g56
(g77
g58
NtRp459
(dp460
g61
(dp461
g81
g82
ssg70
g455
sg63
(lp462
g270
asbag56
(g77
g58
NtRp463
(dp464
g61
(dp465
g88
g89
ssg70
g455
sg63
(lp466
S':'
asbag56
(g77
g58
NtRp467
(dp468
g61
(dp469
sg70
g455
sg63
(lp470
g56
(g57
g58
NtRp471
(dp472
g61
(dp473
g69
I3
ssg70
g467
sg63
(lp474
S''
asbasbasbag56
(g72
g58
NtRp475
(dp476
g61
(dp477
sg70
g451
sg63
(lp478
g56
(g77
g58
NtRp479
(dp480
g61
(dp481
g81
g82
ssg70
g475
sg63
(lp482
g291
asbag56
(g77
g58
NtRp483
(dp484
g61
(dp485
g88
g89
ssg70
g475
sg63
(lp486
S':'
asbag56
(g77
g58
NtRp487
(dp488
g61
(dp489
sg70
g475
sg63
(lp490
g56
(g57
g58
NtRp491
(dp492
g61
(dp493
g69
I3
ssg70
g487
sg63
(lp494
S''
asbasbasbag56
(g72
g58
NtRp495
(dp496
g61
(dp497
sg70
g451
sg63
(lp498
g56
(g77
g58
NtRp499
(dp500
g61
(dp501
g81
g82
ssg70
g495
sg63
(lp502
g312
asbag56
(g77
g58
NtRp503
(dp504
g61
(dp505
g88
g89
ssg70
g495
sg63
(lp506
S':'
asbag56
(g77
g58
NtRp507
(dp508
g61
(dp509
sg70
g495
sg63
(lp510
g56
(g57
g58
NtRp511
(dp512
g61
(dp513
g69
I3
ssg70
g507
sg63
(lp514
S''
asbasbasbag56
(g72
g58
NtRp515
(dp516
g61
(dp517
sg70
g451
sg63
(lp518
g56
(g77
g58
NtRp519
(dp520
g61
(dp521
g81
g82
ssg70
g515
sg63
(lp522
g333
asbag56
(g77
g58
NtRp523
(dp524
g61
(dp525
g88
g89
ssg70
g515
sg63
(lp526
S':'
asbag56
(g77
g58
NtRp527
(dp528
g61
(dp529
sg70
g515
sg63
(lp530
g56
(g57
g58
NtRp531
(dp532
g61
(dp533
g69
I3
ssg70
g527
sg63
(lp534
S''
asbasbasbag56
(g72
g58
NtRp535
(dp536
g61
(dp537
sg70
g451
sg63
(lp538
g56
(g77
g58
NtRp539
(dp540
g61
(dp541
g81
g82
ssg70
g535
sg63
(lp542
g354
asbag56
(g77
g58
NtRp543
(dp544
g61
(dp545
g88
g89
ssg70
g535
sg63
(lp546
S':'
asbag56
(g77
g58
NtRp547
(dp548
g61
(dp549
sg70
g535
sg63
(lp550
g56
(g57
g58
NtRp551
(dp552
g61
(dp553
g69
I3
ssg70
g547
sg63
(lp554
S''
asbasbasbag56
(g72
g58
NtRp555
(dp556
g61
(dp557
sg70
g451
sg63
(lp558
g56
(g77
g58
NtRp559
(dp560
g61
(dp561
g81
g82
ssg70
g555
sg63
(lp562
g375
asbag56
(g77
g58
NtRp563
(dp564
g61
(dp565
g88
g89
ssg70
g555
sg63
(lp566
S':'
asbag56
(g77
g58
NtRp567
(dp568
g61
(dp569
sg70
g555
sg63
(lp570
g56
(g57
g58
NtRp571
(dp572
g61
(dp573
g69
I3
ssg70
g567
sg63
(lp574
S''
asbasbasbag56
(g72
g58
NtRp575
(dp576
g61
(dp577
sg70
g451
sg63
(lp578
g56
(g77
g58
NtRp579
(dp580
g61
(dp581
g81
g82
ssg70
g575
sg63
(lp582
g396
asbag56
(g77
g58
NtRp583
(dp584
g61
(dp585
g88
g89
ssg70
g575
sg63
(lp586
S':'
asbag56
(g77
g58
NtRp587
(dp588
g61
(dp589
sg70
g575
sg63
(lp590
g56
(g57
g58
NtRp591
(dp592
g61
(dp593
g69
I3
ssg70
g587
sg63
(lp594
S''
asbasbasbag56
(g72
g58
NtRp595
(dp596
g61
(dp597
sg70
g451
sg63
(lp598
g56
(g77
g58
NtRp599
(dp600
g61
(dp601
g81
g82
ssg70
g595
sg63
(lp602
g417
asbag56
(g77
g58
NtRp603
(dp604
g61
(dp605
g88
g89
ssg70
g595
sg63
(lp606
S':'
asbag56
(g77
g58
NtRp607
(dp608
g61
(dp609
sg70
g595
sg63
(lp610
g56
(g57
g58
NtRp611
(dp612
g61
(dp613
g69
I3
ssg70
g607
sg63
(lp614
S''
asbasbasbasbasbasbasbag56
(g72
g58
NtRp615
(dp616
g61
(dp617
sg70
g233
sg63
(lp618
g56
(g77
g58
NtRp619
(dp620
g61
(dp621
g81
g82
ssg70
g615
sg63
(lp622
S'session_id_toolbox'
p623
asbag56
(g77
g58
NtRp624
(dp625
g61
(dp626
g88
g89
ssg70
g615
sg63
(lp627
S':'
asbag56
(g77
g58
NtRp628
(dp629
g61
(dp630
sg70
g615
sg63
(lp631
g56
(g57
g58
NtRp632
(dp633
g61
(dp634
g69
I4
ssg70
g628
sg63
(lp635
g56
(g65
g58
NtRp636
(dp637
g61
(dp638
g69
I3
ssg70
Nsg63
(lp639
g56
(g72
g58
NtRp640
(dp641
g61
(dp642
sg70
g636
sg63
(lp643
g56
(g77
g58
NtRp644
(dp645
g61
(dp646
g81
g82
ssg70
g640
sg63
(lp647
g270
asbag56
(g77
g58
NtRp648
(dp649
g61
(dp650
g88
g89
ssg70
g640
sg63
(lp651
S':'
asbag56
(g77
g58
NtRp652
(dp653
g61
(dp654
sg70
g640
sg63
(lp655
g56
(g57
g58
NtRp656
(dp657
g61
(dp658
g69
I3
ssg70
g652
sg63
(lp659
S''
asbasbasbag56
(g72
g58
NtRp660
(dp661
g61
(dp662
sg70
g636
sg63
(lp663
g56
(g77
g58
NtRp664
(dp665
g61
(dp666
g81
g82
ssg70
g660
sg63
(lp667
g291
asbag56
(g77
g58
NtRp668
(dp669
g61
(dp670
g88
g89
ssg70
g660
sg63
(lp671
S':'
asbag56
(g77
g58
NtRp672
(dp673
g61
(dp674
sg70
g660
sg63
(lp675
g56
(g57
g58
NtRp676
(dp677
g61
(dp678
g69
I3
ssg70
g672
sg63
(lp679
S''
asbasbasbag56
(g72
g58
NtRp680
(dp681
g61
(dp682
sg70
g636
sg63
(lp683
g56
(g77
g58
NtRp684
(dp685
g61
(dp686
g81
g82
ssg70
g680
sg63
(lp687
g312
asbag56
(g77
g58
NtRp688
(dp689
g61
(dp690
g88
g89
ssg70
g680
sg63
(lp691
S':'
asbag56
(g77
g58
NtRp692
(dp693
g61
(dp694
sg70
g680
sg63
(lp695
g56
(g57
g58
NtRp696
(dp697
g61
(dp698
g69
I3
ssg70
g692
sg63
(lp699
S''
asbasbasbag56
(g72
g58
NtRp700
(dp701
g61
(dp702
sg70
g636
sg63
(lp703
g56
(g77
g58
NtRp704
(dp705
g61
(dp706
g81
g82
ssg70
g700
sg63
(lp707
g333
asbag56
(g77
g58
NtRp708
(dp709
g61
(dp710
g88
g89
ssg70
g700
sg63
(lp711
S':'
asbag56
(g77
g58
NtRp712
(dp713
g61
(dp714
sg70
g700
sg63
(lp715
g56
(g57
g58
NtRp716
(dp717
g61
(dp718
g69
I3
ssg70
g712
sg63
(lp719
S''
asbasbasbag56
(g72
g58
NtRp720
(dp721
g61
(dp722
sg70
g636
sg63
(lp723
g56
(g77
g58
NtRp724
(dp725
g61
(dp726
g81
g82
ssg70
g720
sg63
(lp727
g354
asbag56
(g77
g58
NtRp728
(dp729
g61
(dp730
g88
g89
ssg70
g720
sg63
(lp731
S':'
asbag56
(g77
g58
NtRp732
(dp733
g61
(dp734
sg70
g720
sg63
(lp735
g56
(g57
g58
NtRp736
(dp737
g61
(dp738
g69
I3
ssg70
g732
sg63
(lp739
S''
asbasbasbag56
(g72
g58
NtRp740
(dp741
g61
(dp742
sg70
g636
sg63
(lp743
g56
(g77
g58
NtRp744
(dp745
g61
(dp746
g81
g82
ssg70
g740
sg63
(lp747
g375
asbag56
(g77
g58
NtRp748
(dp749
g61
(dp750
g88
g89
ssg70
g740
sg63
(lp751
S':'
asbag56
(g77
g58
NtRp752
(dp753
g61
(dp754
sg70
g740
sg63
(lp755
g56
(g57
g58
NtRp756
(dp757
g61
(dp758
g69
I3
ssg70
g752
sg63
(lp759
S''
asbasbasbag56
(g72
g58
NtRp760
(dp761
g61
(dp762
sg70
g636
sg63
(lp763
g56
(g77
g58
NtRp764
(dp765
g61
(dp766
g81
g82
ssg70
g760
sg63
(lp767
g396
asbag56
(g77
g58
NtRp768
(dp769
g61
(dp770
g88
g89
ssg70
g760
sg63
(lp771
S':'
asbag56
(g77
g58
NtRp772
(dp773
g61
(dp774
sg70
g760
sg63
(lp775
g56
(g57
g58
NtRp776
(dp777
g61
(dp778
g69
I3
ssg70
g772
sg63
(lp779
S''
asbasbasbag56
(g72
g58
NtRp780
(dp781
g61
(dp782
sg70
g636
sg63
(lp783
g56
(g77
g58
NtRp784
(dp785
g61
(dp786
g81
g82
ssg70
g780
sg63
(lp787
g417
asbag56
(g77
g58
NtRp788
(dp789
g61
(dp790
g88
g89
ssg70
g780
sg63
(lp791
S':'
asbag56
(g77
g58
NtRp792
(dp793
g61
(dp794
sg70
g780
sg63
(lp795
g56
(g57
g58
NtRp796
(dp797
g61
(dp798
g69
I3
ssg70
g792
sg63
(lp799
S''
asbasbasbasbasbasbasbag56
(g72
g58
NtRp800
(dp801
g61
(dp802
sg70
g233
sg63
(lp803
g56
(g77
g58
NtRp804
(dp805
g61
(dp806
g81
g82
ssg70
g800
sg63
(lp807
S'session_id_welcome'
p808
asbag56
(g77
g58
NtRp809
(dp810
g61
(dp811
g88
g89
ssg70
g800
sg63
(lp812
S':'
asbag56
(g77
g58
NtRp813
(dp814
g61
(dp815
sg70
g800
sg63
(lp816
g56
(g57
g58
NtRp817
(dp818
g61
(dp819
g69
I4
ssg70
g813
sg63
(lp820
g56
(g65
g58
NtRp821
(dp822
g61
(dp823
g69
I3
ssg70
Nsg63
(lp824
g56
(g72
g58
NtRp825
(dp826
g61
(dp827
sg70
g821
sg63
(lp828
g56
(g77
g58
NtRp829
(dp830
g61
(dp831
g81
g82
ssg70
g825
sg63
(lp832
g270
asbag56
(g77
g58
NtRp833
(dp834
g61
(dp835
g88
g89
ssg70
g825
sg63
(lp836
S':'
asbag56
(g77
g58
NtRp837
(dp838
g61
(dp839
sg70
g825
sg63
(lp840
g56
(g57
g58
NtRp841
(dp842
g61
(dp843
g69
I3
ssg70
g837
sg63
(lp844
S''
asbasbasbag56
(g72
g58
NtRp845
(dp846
g61
(dp847
sg70
g821
sg63
(lp848
g56
(g77
g58
NtRp849
(dp850
g61
(dp851
g81
g82
ssg70
g845
sg63
(lp852
g291
asbag56
(g77
g58
NtRp853
(dp854
g61
(dp855
g88
g89
ssg70
g845
sg63
(lp856
S':'
asbag56
(g77
g58
NtRp857
(dp858
g61
(dp859
sg70
g845
sg63
(lp860
g56
(g57
g58
NtRp861
(dp862
g61
(dp863
g69
I3
ssg70
g857
sg63
(lp864
S''
asbasbasbag56
(g72
g58
NtRp865
(dp866
g61
(dp867
sg70
g821
sg63
(lp868
g56
(g77
g58
NtRp869
(dp870
g61
(dp871
g81
g82
ssg70
g865
sg63
(lp872
g312
asbag56
(g77
g58
NtRp873
(dp874
g61
(dp875
g88
g89
ssg70
g865
sg63
(lp876
S':'
asbag56
(g77
g58
NtRp877
(dp878
g61
(dp879
sg70
g865
sg63
(lp880
g56
(g57
g58
NtRp881
(dp882
g61
(dp883
g69
I3
ssg70
g877
sg63
(lp884
S''
asbasbasbag56
(g72
g58
NtRp885
(dp886
g61
(dp887
sg70
g821
sg63
(lp888
g56
(g77
g58
NtRp889
(dp890
g61
(dp891
g81
g82
ssg70
g885
sg63
(lp892
g333
asbag56
(g77
g58
NtRp893
(dp894
g61
(dp895
g88
g89
ssg70
g885
sg63
(lp896
S':'
asbag56
(g77
g58
NtRp897
(dp898
g61
(dp899
sg70
g885
sg63
(lp900
g56
(g57
g58
NtRp901
(dp902
g61
(dp903
g69
I3
ssg70
g897
sg63
(lp904
S''
asbasbasbag56
(g72
g58
NtRp905
(dp906
g61
(dp907
sg70
g821
sg63
(lp908
g56
(g77
g58
NtRp909
(dp910
g61
(dp911
g81
g82
ssg70
g905
sg63
(lp912
g354
asbag56
(g77
g58
NtRp913
(dp914
g61
(dp915
g88
g89
ssg70
g905
sg63
(lp916
S':'
asbag56
(g77
g58
NtRp917
(dp918
g61
(dp919
sg70
g905
sg63
(lp920
g56
(g57
g58
NtRp921
(dp922
g61
(dp923
g69
I3
ssg70
g917
sg63
(lp924
S''
asbasbasbag56
(g72
g58
NtRp925
(dp926
g61
(dp927
sg70
g821
sg63
(lp928
g56
(g77
g58
NtRp929
(dp930
g61
(dp931
g81
g82
ssg70
g925
sg63
(lp932
g375
asbag56
(g77
g58
NtRp933
(dp934
g61
(dp935
g88
g89
ssg70
g925
sg63
(lp936
S':'
asbag56
(g77
g58
NtRp937
(dp938
g61
(dp939
sg70
g925
sg63
(lp940
g56
(g57
g58
NtRp941
(dp942
g61
(dp943
g69
I3
ssg70
g937
sg63
(lp944
S''
asbasbasbag56
(g72
g58
NtRp945
(dp946
g61
(dp947
sg70
g821
sg63
(lp948
g56
(g77
g58
NtRp949
(dp950
g61
(dp951
g81
g82
ssg70
g945
sg63
(lp952
g396
asbag56
(g77
g58
NtRp953
(dp954
g61
(dp955
g88
g89
ssg70
g945
sg63
(lp956
S':'
asbag56
(g77
g58
NtRp957
(dp958
g61
(dp959
sg70
g945
sg63
(lp960
g56
(g57
g58
NtRp961
(dp962
g61
(dp963
g69
I3
ssg70
g957
sg63
(lp964
S''
asbasbasbag56
(g72
g58
NtRp965
(dp966
g61
(dp967
sg70
g821
sg63
(lp968
g56
(g77
g58
NtRp969
(dp970
g61
(dp971
g81
g82
ssg70
g965
sg63
(lp972
g417
asbag56
(g77
g58
NtRp973
(dp974
g61
(dp975
g88
g89
ssg70
g965
sg63
(lp976
S':'
asbag56
(g77
g58
NtRp977
(dp978
g61
(dp979
sg70
g965
sg63
(lp980
g56
(g57
g58
NtRp981
(dp982
g61
(dp983
g69
I3
ssg70
g977
sg63
(lp984
S''
asbasbasbasbasbasbasbasbasbasbasbag56
(g72
g58
NtRp985
(dp986
g61
(dp987
sg70
g66
sg63
(lp988
g56
(g77
g58
NtRp989
(dp990
g61
(dp991
g81
g82
ssg70
g985
sg63
(lp992
S'env'
p993
asbag56
(g77
g58
NtRp994
(dp995
g61
(dp996
g88
g89
ssg70
g985
sg63
(lp997
S':'
asbag56
(g77
g58
NtRp998
(dp999
g61
(dp1000
sg70
g985
sg63
(lp1001
g56
(g57
g58
NtRp1002
(dp1003
g61
(dp1004
g69
I5
ssg70
g998
sg63
(lp1005
g56
(g65
g58
NtRp1006
(dp1007
g61
(dp1008
g69
I4
ssg70
Nsg63
(lp1009
g56
(g72
g58
NtRp1010
(dp1011
g61
(dp1012
sg70
g1006
sg63
(lp1013
g56
(g77
g58
NtRp1014
(dp1015
g61
(dp1016
g81
g82
ssg70
g1010
sg63
(lp1017
S'app_folders'
p1018
asbag56
(g77
g58
NtRp1019
(dp1020
g61
(dp1021
g88
g89
ssg70
g1010
sg63
(lp1022
S':'
asbag56
(g77
g58
NtRp1023
(dp1024
g61
(dp1025
sg70
g1010
sg63
(lp1026
g56
(g57
g58
NtRp1027
(dp1028
g61
(dp1029
g69
I4
ssg70
g1023
sg63
(lp1030
S"set(['D:\\\\Workbench\\\\web2py_src\\\\applications\\\\dummy\\\\', 'D:\\\\Workbench\\\\web2py_src\\\\applications\\\\admin\\\\', 'D:\\\\Workbench\\\\web2py_src\\\\applications\\\\welcome\\\\'])"
p1031
asbasbasbag56
(g72
g58
NtRp1032
(dp1033
g61
(dp1034
sg70
g1006
sg63
(lp1035
g56
(g77
g58
NtRp1036
(dp1037
g61
(dp1038
g81
g82
ssg70
g1032
sg63
(lp1039
S'applications_parent'
p1040
asbag56
(g77
g58
NtRp1041
(dp1042
g61
(dp1043
g88
g89
ssg70
g1032
sg63
(lp1044
S':'
asbag56
(g77
g58
NtRp1045
(dp1046
g61
(dp1047
sg70
g1032
sg63
(lp1048
g56
(g57
g58
NtRp1049
(dp1050
g61
(dp1051
g69
I4
ssg70
g1045
sg63
(lp1052
S'D:\\Workbench\\web2py_src'
p1053
asbasbasbag56
(g72
g58
NtRp1054
(dp1055
g61
(dp1056
sg70
g1006
sg63
(lp1057
g56
(g77
g58
NtRp1058
(dp1059
g61
(dp1060
g81
g82
ssg70
g1054
sg63
(lp1061
S'comspec'
p1062
asbag56
(g77
g58
NtRp1063
(dp1064
g61
(dp1065
g88
g89
ssg70
g1054
sg63
(lp1066
S':'
asbag56
(g77
g58
NtRp1067
(dp1068
g61
(dp1069
sg70
g1054
sg63
(lp1070
g56
(g57
g58
NtRp1071
(dp1072
g61
(dp1073
g69
I4
ssg70
g1067
sg63
(lp1074
S'C:\\Windows\\system32\\cmd.exe'
p1075
asbasbasbag56
(g72
g58
NtRp1076
(dp1077
g61
(dp1078
sg70
g1006
sg63
(lp1079
g56
(g77
g58
NtRp1080
(dp1081
g61
(dp1082
g81
g82
ssg70
g1076
sg63
(lp1083
S'content_length'
p1084
asbag56
(g77
g58
NtRp1085
(dp1086
g61
(dp1087
g88
g89
ssg70
g1076
sg63
(lp1088
S':'
asbag56
(g77
g58
NtRp1089
(dp1090
g61
(dp1091
sg70
g1076
sg63
(lp1092
g56
(g57
g58
NtRp1093
(dp1094
g61
(dp1095
g69
I4
ssg70
g1089
sg63
(lp1096
S'0'
asbasbasbag56
(g72
g58
NtRp1097
(dp1098
g61
(dp1099
sg70
g1006
sg63
(lp1100
g56
(g77
g58
NtRp1101
(dp1102
g61
(dp1103
g81
g82
ssg70
g1097
sg63
(lp1104
S'db_sessions'
p1105
asbag56
(g77
g58
NtRp1106
(dp1107
g61
(dp1108
g88
g89
ssg70
g1097
sg63
(lp1109
S':'
asbag56
(g77
g58
NtRp1110
(dp1111
g61
(dp1112
sg70
g1097
sg63
(lp1113
g56
(g57
g58
NtRp1114
(dp1115
g61
(dp1116
g69
I4
ssg70
g1110
sg63
(lp1117
S'set([])'
p1118
asbasbasbag56
(g72
g58
NtRp1119
(dp1120
g61
(dp1121
sg70
g1006
sg63
(lp1122
g56
(g77
g58
NtRp1123
(dp1124
g61
(dp1125
g81
g82
ssg70
g1119
sg63
(lp1126
S'debugging'
p1127
asbag56
(g77
g58
NtRp1128
(dp1129
g61
(dp1130
g88
g89
ssg70
g1119
sg63
(lp1131
S':'
asbag56
(g77
g58
NtRp1132
(dp1133
g61
(dp1134
sg70
g1119
sg63
(lp1135
g56
(g57
g58
NtRp1136
(dp1137
g61
(dp1138
g69
I4
ssg70
g1132
sg63
(lp1139
S'False'
p1140
asbasbasbag56
(g72
g58
NtRp1141
(dp1142
g61
(dp1143
sg70
g1006
sg63
(lp1144
g56
(g77
g58
NtRp1145
(dp1146
g61
(dp1147
g81
g82
ssg70
g1141
sg63
(lp1148
S'document_root'
p1149
asbag56
(g77
g58
NtRp1150
(dp1151
g61
(dp1152
g88
g89
ssg70
g1141
sg63
(lp1153
S':'
asbag56
(g77
g58
NtRp1154
(dp1155
g61
(dp1156
sg70
g1141
sg63
(lp1157
g56
(g57
g58
NtRp1158
(dp1159
g61
(dp1160
g69
I4
ssg70
g1154
sg63
(lp1161
S'D:/Workbench/documentroot'
p1162
asbasbasbag56
(g72
g58
NtRp1163
(dp1164
g61
(dp1165
sg70
g1006
sg63
(lp1166
g56
(g77
g58
NtRp1167
(dp1168
g61
(dp1169
g81
g82
ssg70
g1163
sg63
(lp1170
S'gateway_interface'
p1171
asbag56
(g77
g58
NtRp1172
(dp1173
g61
(dp1174
g88
g89
ssg70
g1163
sg63
(lp1175
S':'
asbag56
(g77
g58
NtRp1176
(dp1177
g61
(dp1178
sg70
g1163
sg63
(lp1179
g56
(g57
g58
NtRp1180
(dp1181
g61
(dp1182
g69
I4
ssg70
g1176
sg63
(lp1183
S'CGI/1.1'
p1184
asbasbasbag56
(g72
g58
NtRp1185
(dp1186
g61
(dp1187
sg70
g1006
sg63
(lp1188
g56
(g77
g58
NtRp1189
(dp1190
g61
(dp1191
g81
g82
ssg70
g1185
sg63
(lp1192
S'gluon_parent'
p1193
asbag56
(g77
g58
NtRp1194
(dp1195
g61
(dp1196
g88
g89
ssg70
g1185
sg63
(lp1197
S':'
asbag56
(g77
g58
NtRp1198
(dp1199
g61
(dp1200
sg70
g1185
sg63
(lp1201
g56
(g57
g58
NtRp1202
(dp1203
g61
(dp1204
g69
I4
ssg70
g1198
sg63
(lp1205
g1053
asbasbasbag56
(g72
g58
NtRp1206
(dp1207
g61
(dp1208
sg70
g1006
sg63
(lp1209
g56
(g77
g58
NtRp1210
(dp1211
g61
(dp1212
g81
g82
ssg70
g1206
sg63
(lp1213
S'http_accept'
p1214
asbag56
(g77
g58
NtRp1215
(dp1216
g61
(dp1217
g88
g89
ssg70
g1206
sg63
(lp1218
S':'
asbag56
(g77
g58
NtRp1219
(dp1220
g61
(dp1221
sg70
g1206
sg63
(lp1222
g56
(g57
g58
NtRp1223
(dp1224
g61
(dp1225
g69
I4
ssg70
g1219
sg63
(lp1226
S'*/*'
p1227
asbasbasbag56
(g72
g58
NtRp1228
(dp1229
g61
(dp1230
sg70
g1006
sg63
(lp1231
g56
(g77
g58
NtRp1232
(dp1233
g61
(dp1234
g81
g82
ssg70
g1228
sg63
(lp1235
S'http_accept_charset'
p1236
asbag56
(g77
g58
NtRp1237
(dp1238
g61
(dp1239
g88
g89
ssg70
g1228
sg63
(lp1240
S':'
asbag56
(g77
g58
NtRp1241
(dp1242
g61
(dp1243
sg70
g1228
sg63
(lp1244
g56
(g57
g58
NtRp1245
(dp1246
g61
(dp1247
g69
I4
ssg70
g1241
sg63
(lp1248
S'GBK,utf-8;q=0.7,*;q=0.3'
p1249
asbasbasbag56
(g72
g58
NtRp1250
(dp1251
g61
(dp1252
sg70
g1006
sg63
(lp1253
g56
(g77
g58
NtRp1254
(dp1255
g61
(dp1256
g81
g82
ssg70
g1250
sg63
(lp1257
S'http_accept_encoding'
p1258
asbag56
(g77
g58
NtRp1259
(dp1260
g61
(dp1261
g88
g89
ssg70
g1250
sg63
(lp1262
S':'
asbag56
(g77
g58
NtRp1263
(dp1264
g61
(dp1265
sg70
g1250
sg63
(lp1266
g56
(g57
g58
NtRp1267
(dp1268
g61
(dp1269
g69
I4
ssg70
g1263
sg63
(lp1270
S'gzip,deflate,sdch'
p1271
asbasbasbag56
(g72
g58
NtRp1272
(dp1273
g61
(dp1274
sg70
g1006
sg63
(lp1275
g56
(g77
g58
NtRp1276
(dp1277
g61
(dp1278
g81
g82
ssg70
g1272
sg63
(lp1279
S'http_accept_language'
p1280
asbag56
(g77
g58
NtRp1281
(dp1282
g61
(dp1283
g88
g89
ssg70
g1272
sg63
(lp1284
S':'
asbag56
(g77
g58
NtRp1285
(dp1286
g61
(dp1287
sg70
g1272
sg63
(lp1288
g56
(g57
g58
NtRp1289
(dp1290
g61
(dp1291
g69
I4
ssg70
g1285
sg63
(lp1292
S'zh-CN,zh;q=0.8'
p1293
asbasbasbag56
(g72
g58
NtRp1294
(dp1295
g61
(dp1296
sg70
g1006
sg63
(lp1297
g56
(g77
g58
NtRp1298
(dp1299
g61
(dp1300
g81
g82
ssg70
g1294
sg63
(lp1301
S'http_connection'
p1302
asbag56
(g77
g58
NtRp1303
(dp1304
g61
(dp1305
g88
g89
ssg70
g1294
sg63
(lp1306
S':'
asbag56
(g77
g58
NtRp1307
(dp1308
g61
(dp1309
sg70
g1294
sg63
(lp1310
g56
(g57
g58
NtRp1311
(dp1312
g61
(dp1313
g69
I4
ssg70
g1307
sg63
(lp1314
S'keep-alive'
p1315
asbasbasbag56
(g72
g58
NtRp1316
(dp1317
g61
(dp1318
sg70
g1006
sg63
(lp1319
g56
(g77
g58
NtRp1320
(dp1321
g61
(dp1322
g81
g82
ssg70
g1316
sg63
(lp1323
S'http_cookie'
p1324
asbag56
(g77
g58
NtRp1325
(dp1326
g61
(dp1327
g88
g89
ssg70
g1316
sg63
(lp1328
S':'
asbag56
(g77
g58
NtRp1329
(dp1330
g61
(dp1331
sg70
g1316
sg63
(lp1332
g56
(g57
g58
NtRp1333
(dp1334
g61
(dp1335
g69
I4
ssg70
g1329
sg63
(lp1336
S'session_id_toolbox=127.0.0.1-f96bdd5f-0f12-48d3-83bc-409874b2908c; session_id_dummy=127.0.0.1-ff52844d-6501-463d-baa3-3afe71e8bf99; session_id_welcome=127.0.0.1-a00d55a2-2c68-4c62-a25e-a20e6e356732; session_id_admin=127.0.0.1-afefa9db-4bf4-47a5-970c-a24d6228b14c'
p1337
asbasbasbag56
(g72
g58
NtRp1338
(dp1339
g61
(dp1340
sg70
g1006
sg63
(lp1341
g56
(g77
g58
NtRp1342
(dp1343
g61
(dp1344
g81
g82
ssg70
g1338
sg63
(lp1345
S'http_host'
p1346
asbag56
(g77
g58
NtRp1347
(dp1348
g61
(dp1349
g88
g89
ssg70
g1338
sg63
(lp1350
S':'
asbag56
(g77
g58
NtRp1351
(dp1352
g61
(dp1353
sg70
g1338
sg63
(lp1354
g56
(g57
g58
NtRp1355
(dp1356
g61
(dp1357
g69
I4
ssg70
g1351
sg63
(lp1358
S'localhost'
p1359
asbasbasbag56
(g72
g58
NtRp1360
(dp1361
g61
(dp1362
sg70
g1006
sg63
(lp1363
g56
(g77
g58
NtRp1364
(dp1365
g61
(dp1366
g81
g82
ssg70
g1360
sg63
(lp1367
S'http_origin'
p1368
asbag56
(g77
g58
NtRp1369
(dp1370
g61
(dp1371
g88
g89
ssg70
g1360
sg63
(lp1372
S':'
asbag56
(g77
g58
NtRp1373
(dp1374
g61
(dp1375
sg70
g1360
sg63
(lp1376
g56
(g57
g58
NtRp1377
(dp1378
g61
(dp1379
g69
I4
ssg70
g1373
sg63
(lp1380
S'http://localhost'
p1381
asbasbasbag56
(g72
g58
NtRp1382
(dp1383
g61
(dp1384
sg70
g1006
sg63
(lp1385
g56
(g77
g58
NtRp1386
(dp1387
g61
(dp1388
g81
g82
ssg70
g1382
sg63
(lp1389
S'http_referer'
p1390
asbag56
(g77
g58
NtRp1391
(dp1392
g61
(dp1393
g88
g89
ssg70
g1382
sg63
(lp1394
S':'
asbag56
(g77
g58
NtRp1395
(dp1396
g61
(dp1397
sg70
g1382
sg63
(lp1398
g56
(g57
g58
NtRp1399
(dp1400
g61
(dp1401
g69
I4
ssg70
g1395
sg63
(lp1402
S'http://localhost/admin/default/site'
p1403
asbasbasbag56
(g72
g58
NtRp1404
(dp1405
g61
(dp1406
sg70
g1006
sg63
(lp1407
g56
(g77
g58
NtRp1408
(dp1409
g61
(dp1410
g81
g82
ssg70
g1404
sg63
(lp1411
S'http_user_agent'
p1412
asbag56
(g77
g58
NtRp1413
(dp1414
g61
(dp1415
g88
g89
ssg70
g1404
sg63
(lp1416
S':'
asbag56
(g77
g58
NtRp1417
(dp1418
g61
(dp1419
sg70
g1404
sg63
(lp1420
g56
(g57
g58
NtRp1421
(dp1422
g61
(dp1423
g69
I4
ssg70
g1417
sg63
(lp1424
S'Mozilla/5.0 (Windows NT 6.1) AppleWebKit/535.7 (KHTML, like Gecko) Chrome/16.0.912.63 Safari/535.7'
p1425
asbasbasbag56
(g72
g58
NtRp1426
(dp1427
g61
(dp1428
sg70
g1006
sg63
(lp1429
g56
(g77
g58
NtRp1430
(dp1431
g61
(dp1432
g81
g82
ssg70
g1426
sg63
(lp1433
S'http_x_requested_with'
p1434
asbag56
(g77
g58
NtRp1435
(dp1436
g61
(dp1437
g88
g89
ssg70
g1426
sg63
(lp1438
S':'
asbag56
(g77
g58
NtRp1439
(dp1440
g61
(dp1441
sg70
g1426
sg63
(lp1442
g56
(g57
g58
NtRp1443
(dp1444
g61
(dp1445
g69
I4
ssg70
g1439
sg63
(lp1446
S'XMLHttpRequest'
p1447
asbasbasbag56
(g72
g58
NtRp1448
(dp1449
g61
(dp1450
sg70
g1006
sg63
(lp1451
g56
(g77
g58
NtRp1452
(dp1453
g61
(dp1454
g81
g82
ssg70
g1448
sg63
(lp1455
S'is_jython'
p1456
asbag56
(g77
g58
NtRp1457
(dp1458
g61
(dp1459
g88
g89
ssg70
g1448
sg63
(lp1460
S':'
asbag56
(g77
g58
NtRp1461
(dp1462
g61
(dp1463
sg70
g1448
sg63
(lp1464
g56
(g57
g58
NtRp1465
(dp1466
g61
(dp1467
g69
I4
ssg70
g1461
sg63
(lp1468
g1140
asbasbasbag56
(g72
g58
NtRp1469
(dp1470
g61
(dp1471
sg70
g1006
sg63
(lp1472
g56
(g77
g58
NtRp1473
(dp1474
g61
(dp1475
g81
g82
ssg70
g1469
sg63
(lp1476
S'mod_wsgi_application_group'
p1477
asbag56
(g77
g58
NtRp1478
(dp1479
g61
(dp1480
g88
g89
ssg70
g1469
sg63
(lp1481
S':'
asbag56
(g77
g58
NtRp1482
(dp1483
g61
(dp1484
sg70
g1469
sg63
(lp1485
g56
(g57
g58
NtRp1486
(dp1487
g61
(dp1488
g69
I4
ssg70
g1482
sg63
(lp1489
S'XIAOFTANG-NB.tencent.com|'
p1490
asbasbasbag56
(g72
g58
NtRp1491
(dp1492
g61
(dp1493
sg70
g1006
sg63
(lp1494
g56
(g77
g58
NtRp1495
(dp1496
g61
(dp1497
g81
g82
ssg70
g1491
sg63
(lp1498
S'mod_wsgi_callable_object'
p1499
asbag56
(g77
g58
NtRp1500
(dp1501
g61
(dp1502
g88
g89
ssg70
g1491
sg63
(lp1503
S':'
asbag56
(g77
g58
NtRp1504
(dp1505
g61
(dp1506
sg70
g1491
sg63
(lp1507
g56
(g57
g58
NtRp1508
(dp1509
g61
(dp1510
g69
I4
ssg70
g1504
sg63
(lp1511
S'application'
p1512
asbasbasbag56
(g72
g58
NtRp1513
(dp1514
g61
(dp1515
sg70
g1006
sg63
(lp1516
g56
(g77
g58
NtRp1517
(dp1518
g61
(dp1519
g81
g82
ssg70
g1513
sg63
(lp1520
S'mod_wsgi_handler_script'
p1521
asbag56
(g77
g58
NtRp1522
(dp1523
g61
(dp1524
g88
g89
ssg70
g1513
sg63
(lp1525
S':'
asbag56
(g77
g58
NtRp1526
(dp1527
g61
(dp1528
sg70
g1513
sg63
(lp1529
g56
(g57
g58
NtRp1530
(dp1531
g61
(dp1532
g69
I4
ssg70
g1526
sg63
(lp1533
S''
asbasbasbag56
(g72
g58
NtRp1534
(dp1535
g61
(dp1536
sg70
g1006
sg63
(lp1537
g56
(g77
g58
NtRp1538
(dp1539
g61
(dp1540
g81
g82
ssg70
g1534
sg63
(lp1541
S'mod_wsgi_input_chunked'
p1542
asbag56
(g77
g58
NtRp1543
(dp1544
g61
(dp1545
g88
g89
ssg70
g1534
sg63
(lp1546
S':'
asbag56
(g77
g58
NtRp1547
(dp1548
g61
(dp1549
sg70
g1534
sg63
(lp1550
g56
(g57
g58
NtRp1551
(dp1552
g61
(dp1553
g69
I4
ssg70
g1547
sg63
(lp1554
S'0'
asbasbasbag56
(g72
g58
NtRp1555
(dp1556
g61
(dp1557
sg70
g1006
sg63
(lp1558
g56
(g77
g58
NtRp1559
(dp1560
g61
(dp1561
g81
g82
ssg70
g1555
sg63
(lp1562
S'mod_wsgi_process_group'
p1563
asbag56
(g77
g58
NtRp1564
(dp1565
g61
(dp1566
g88
g89
ssg70
g1555
sg63
(lp1567
S':'
asbag56
(g77
g58
NtRp1568
(dp1569
g61
(dp1570
sg70
g1555
sg63
(lp1571
g56
(g57
g58
NtRp1572
(dp1573
g61
(dp1574
g69
I4
ssg70
g1568
sg63
(lp1575
S''
asbasbasbag56
(g72
g58
NtRp1576
(dp1577
g61
(dp1578
sg70
g1006
sg63
(lp1579
g56
(g77
g58
NtRp1580
(dp1581
g61
(dp1582
g81
g82
ssg70
g1576
sg63
(lp1583
S'mod_wsgi_request_handler'
p1584
asbag56
(g77
g58
NtRp1585
(dp1586
g61
(dp1587
g88
g89
ssg70
g1576
sg63
(lp1588
S':'
asbag56
(g77
g58
NtRp1589
(dp1590
g61
(dp1591
sg70
g1576
sg63
(lp1592
g56
(g57
g58
NtRp1593
(dp1594
g61
(dp1595
g69
I4
ssg70
g1589
sg63
(lp1596
S'wsgi-script'
p1597
asbasbasbag56
(g72
g58
NtRp1598
(dp1599
g61
(dp1600
sg70
g1006
sg63
(lp1601
g56
(g77
g58
NtRp1602
(dp1603
g61
(dp1604
g81
g82
ssg70
g1598
sg63
(lp1605
S'mod_wsgi_script_reloading'
p1606
asbag56
(g77
g58
NtRp1607
(dp1608
g61
(dp1609
g88
g89
ssg70
g1598
sg63
(lp1610
S':'
asbag56
(g77
g58
NtRp1611
(dp1612
g61
(dp1613
sg70
g1598
sg63
(lp1614
g56
(g57
g58
NtRp1615
(dp1616
g61
(dp1617
g69
I4
ssg70
g1611
sg63
(lp1618
S'1'
asbasbasbag56
(g72
g58
NtRp1619
(dp1620
g61
(dp1621
sg70
g1006
sg63
(lp1622
g56
(g77
g58
NtRp1623
(dp1624
g61
(dp1625
g81
g82
ssg70
g1619
sg63
(lp1626
S'mod_wsgi_version'
p1627
asbag56
(g77
g58
NtRp1628
(dp1629
g61
(dp1630
g88
g89
ssg70
g1619
sg63
(lp1631
S':'
asbag56
(g77
g58
NtRp1632
(dp1633
g61
(dp1634
sg70
g1619
sg63
(lp1635
g56
(g57
g58
NtRp1636
(dp1637
g61
(dp1638
g69
I4
ssg70
g1632
sg63
(lp1639
g56
(g65
g58
NtRp1640
(dp1641
g61
(dp1642
g69
I3
ssg70
Nsg63
(lp1643
g56
(g72
g58
NtRp1644
(dp1645
g61
(dp1646
sg70
g1640
sg63
(lp1647
g56
(g77
g58
NtRp1648
(dp1649
g61
(dp1650
sg70
g1644
sg63
(lp1651
g56
(g57
g58
NtRp1652
(dp1653
g61
(dp1654
g69
I3
ssg70
g1648
sg63
(lp1655
S'3'
asbasbasbag56
(g72
g58
NtRp1656
(dp1657
g61
(dp1658
sg70
g1640
sg63
(lp1659
g56
(g77
g58
NtRp1660
(dp1661
g61
(dp1662
sg70
g1656
sg63
(lp1663
g56
(g57
g58
NtRp1664
(dp1665
g61
(dp1666
g69
I3
ssg70
g1660
sg63
(lp1667
S'3'
asbasbasbasbasbasbasbag56
(g72
g58
NtRp1668
(dp1669
g61
(dp1670
sg70
g1006
sg63
(lp1671
g56
(g77
g58
NtRp1672
(dp1673
g61
(dp1674
g81
g82
ssg70
g1668
sg63
(lp1675
S'path_info'
p1676
asbag56
(g77
g58
NtRp1677
(dp1678
g61
(dp1679
g88
g89
ssg70
g1668
sg63
(lp1680
S':'
asbag56
(g77
g58
NtRp1681
(dp1682
g61
(dp1683
sg70
g1668
sg63
(lp1684
g56
(g57
g58
NtRp1685
(dp1686
g61
(dp1687
g69
I4
ssg70
g1681
sg63
(lp1688
S'/admin/default/check_version'
p1689
asbasbasbag56
(g72
g58
NtRp1690
(dp1691
g61
(dp1692
sg70
g1006
sg63
(lp1693
g56
(g77
g58
NtRp1694
(dp1695
g61
(dp1696
g81
g82
ssg70
g1690
sg63
(lp1697
S'path_translated'
p1698
asbag56
(g77
g58
NtRp1699
(dp1700
g61
(dp1701
g88
g89
ssg70
g1690
sg63
(lp1702
S':'
asbag56
(g77
g58
NtRp1703
(dp1704
g61
(dp1705
sg70
g1690
sg63
(lp1706
g56
(g57
g58
NtRp1707
(dp1708
g61
(dp1709
g69
I4
ssg70
g1703
sg63
(lp1710
S'D:\\Workbench\\web2py_src\\wsgihandler.py\\admin\\default\\check_version'
p1711
asbasbasbag56
(g72
g58
NtRp1712
(dp1713
g61
(dp1714
sg70
g1006
sg63
(lp1715
g56
(g77
g58
NtRp1716
(dp1717
g61
(dp1718
g81
g82
ssg70
g1712
sg63
(lp1719
S'pathext'
p1720
asbag56
(g77
g58
NtRp1721
(dp1722
g61
(dp1723
g88
g89
ssg70
g1712
sg63
(lp1724
S':'
asbag56
(g77
g58
NtRp1725
(dp1726
g61
(dp1727
sg70
g1712
sg63
(lp1728
g56
(g57
g58
NtRp1729
(dp1730
g61
(dp1731
g69
I4
ssg70
g1725
sg63
(lp1732
S'.COM;.EXE;.BAT;.CMD;.VBS;.VBE;.JS;.JSE;.WSF;.WSH;.MSC;.py;.pyw'
p1733
asbasbasbag56
(g72
g58
NtRp1734
(dp1735
g61
(dp1736
sg70
g1006
sg63
(lp1737
g56
(g77
g58
NtRp1738
(dp1739
g61
(dp1740
g81
g82
ssg70
g1734
sg63
(lp1741
S'query_string'
p1742
asbag56
(g77
g58
NtRp1743
(dp1744
g61
(dp1745
g88
g89
ssg70
g1734
sg63
(lp1746
S':'
asbag56
(g77
g58
NtRp1747
(dp1748
g61
(dp1749
sg70
g1734
sg63
(lp1750
g56
(g57
g58
NtRp1751
(dp1752
g61
(dp1753
g69
I4
ssg70
g1747
sg63
(lp1754
S''
asbasbasbag56
(g72
g58
NtRp1755
(dp1756
g61
(dp1757
sg70
g1006
sg63
(lp1758
g56
(g77
g58
NtRp1759
(dp1760
g61
(dp1761
g81
g82
ssg70
g1755
sg63
(lp1762
S'remote_addr'
p1763
asbag56
(g77
g58
NtRp1764
(dp1765
g61
(dp1766
g88
g89
ssg70
g1755
sg63
(lp1767
S':'
asbag56
(g77
g58
NtRp1768
(dp1769
g61
(dp1770
sg70
g1755
sg63
(lp1771
g56
(g57
g58
NtRp1772
(dp1773
g61
(dp1774
g69
I4
ssg70
g1768
sg63
(lp1775
g189
asbasbasbag56
(g72
g58
NtRp1776
(dp1777
g61
(dp1778
sg70
g1006
sg63
(lp1779
g56
(g77
g58
NtRp1780
(dp1781
g61
(dp1782
g81
g82
ssg70
g1776
sg63
(lp1783
S'remote_port'
p1784
asbag56
(g77
g58
NtRp1785
(dp1786
g61
(dp1787
g88
g89
ssg70
g1776
sg63
(lp1788
S':'
asbag56
(g77
g58
NtRp1789
(dp1790
g61
(dp1791
sg70
g1776
sg63
(lp1792
g56
(g57
g58
NtRp1793
(dp1794
g61
(dp1795
g69
I4
ssg70
g1789
sg63
(lp1796
S'33740'
p1797
asbasbasbag56
(g72
g58
NtRp1798
(dp1799
g61
(dp1800
sg70
g1006
sg63
(lp1801
g56
(g77
g58
NtRp1802
(dp1803
g61
(dp1804
g81
g82
ssg70
g1798
sg63
(lp1805
S'request_method'
p1806
asbag56
(g77
g58
NtRp1807
(dp1808
g61
(dp1809
g88
g89
ssg70
g1798
sg63
(lp1810
S':'
asbag56
(g77
g58
NtRp1811
(dp1812
g61
(dp1813
sg70
g1798
sg63
(lp1814
g56
(g57
g58
NtRp1815
(dp1816
g61
(dp1817
g69
I4
ssg70
g1811
sg63
(lp1818
S'POST'
p1819
asbasbasbag56
(g72
g58
NtRp1820
(dp1821
g61
(dp1822
sg70
g1006
sg63
(lp1823
g56
(g77
g58
NtRp1824
(dp1825
g61
(dp1826
g81
g82
ssg70
g1820
sg63
(lp1827
S'request_uri'
p1828
asbag56
(g77
g58
NtRp1829
(dp1830
g61
(dp1831
g88
g89
ssg70
g1820
sg63
(lp1832
S':'
asbag56
(g77
g58
NtRp1833
(dp1834
g61
(dp1835
sg70
g1820
sg63
(lp1836
g56
(g57
g58
NtRp1837
(dp1838
g61
(dp1839
g69
I4
ssg70
g1833
sg63
(lp1840
S'/admin/default/check_version'
p1841
asbasbasbag56
(g72
g58
NtRp1842
(dp1843
g61
(dp1844
sg70
g1006
sg63
(lp1845
g56
(g77
g58
NtRp1846
(dp1847
g61
(dp1848
g81
g82
ssg70
g1842
sg63
(lp1849
S'script_filename'
p1850
asbag56
(g77
g58
NtRp1851
(dp1852
g61
(dp1853
g88
g89
ssg70
g1842
sg63
(lp1854
S':'
asbag56
(g77
g58
NtRp1855
(dp1856
g61
(dp1857
sg70
g1842
sg63
(lp1858
g56
(g57
g58
NtRp1859
(dp1860
g61
(dp1861
g69
I4
ssg70
g1855
sg63
(lp1862
S'D:/Workbench/web2py_src/wsgihandler.py'
p1863
asbasbasbag56
(g72
g58
NtRp1864
(dp1865
g61
(dp1866
sg70
g1006
sg63
(lp1867
g56
(g77
g58
NtRp1868
(dp1869
g61
(dp1870
g81
g82
ssg70
g1864
sg63
(lp1871
S'script_name'
p1872
asbag56
(g77
g58
NtRp1873
(dp1874
g61
(dp1875
g88
g89
ssg70
g1864
sg63
(lp1876
S':'
asbag56
(g77
g58
NtRp1877
(dp1878
g61
(dp1879
sg70
g1864
sg63
(lp1880
g56
(g57
g58
NtRp1881
(dp1882
g61
(dp1883
g69
I4
ssg70
g1877
sg63
(lp1884
S''
asbasbasbag56
(g72
g58
NtRp1885
(dp1886
g61
(dp1887
sg70
g1006
sg63
(lp1888
g56
(g77
g58
NtRp1889
(dp1890
g61
(dp1891
g81
g82
ssg70
g1885
sg63
(lp1892
S'server_addr'
p1893
asbag56
(g77
g58
NtRp1894
(dp1895
g61
(dp1896
g88
g89
ssg70
g1885
sg63
(lp1897
S':'
asbag56
(g77
g58
NtRp1898
(dp1899
g61
(dp1900
sg70
g1885
sg63
(lp1901
g56
(g57
g58
NtRp1902
(dp1903
g61
(dp1904
g69
I4
ssg70
g1898
sg63
(lp1905
S'127.0.0.1'
p1906
asbasbasbag56
(g72
g58
NtRp1907
(dp1908
g61
(dp1909
sg70
g1006
sg63
(lp1910
g56
(g77
g58
NtRp1911
(dp1912
g61
(dp1913
g81
g82
ssg70
g1907
sg63
(lp1914
S'server_admin'
p1915
asbag56
(g77
g58
NtRp1916
(dp1917
g61
(dp1918
g88
g89
ssg70
g1907
sg63
(lp1919
S':'
asbag56
(g77
g58
NtRp1920
(dp1921
g61
(dp1922
sg70
g1907
sg63
(lp1923
g56
(g57
g58
NtRp1924
(dp1925
g61
(dp1926
g69
I4
ssg70
g1920
sg63
(lp1927
S'admin@tencent.com'
p1928
asbasbasbag56
(g72
g58
NtRp1929
(dp1930
g61
(dp1931
sg70
g1006
sg63
(lp1932
g56
(g77
g58
NtRp1933
(dp1934
g61
(dp1935
g81
g82
ssg70
g1929
sg63
(lp1936
S'server_name'
p1937
asbag56
(g77
g58
NtRp1938
(dp1939
g61
(dp1940
g88
g89
ssg70
g1929
sg63
(lp1941
S':'
asbag56
(g77
g58
NtRp1942
(dp1943
g61
(dp1944
sg70
g1929
sg63
(lp1945
g56
(g57
g58
NtRp1946
(dp1947
g61
(dp1948
g69
I4
ssg70
g1942
sg63
(lp1949
S'localhost'
p1950
asbasbasbag56
(g72
g58
NtRp1951
(dp1952
g61
(dp1953
sg70
g1006
sg63
(lp1954
g56
(g77
g58
NtRp1955
(dp1956
g61
(dp1957
g81
g82
ssg70
g1951
sg63
(lp1958
S'server_port'
p1959
asbag56
(g77
g58
NtRp1960
(dp1961
g61
(dp1962
g88
g89
ssg70
g1951
sg63
(lp1963
S':'
asbag56
(g77
g58
NtRp1964
(dp1965
g61
(dp1966
sg70
g1951
sg63
(lp1967
g56
(g57
g58
NtRp1968
(dp1969
g61
(dp1970
g69
I4
ssg70
g1964
sg63
(lp1971
S'80'
p1972
asbasbasbag56
(g72
g58
NtRp1973
(dp1974
g61
(dp1975
sg70
g1006
sg63
(lp1976
g56
(g77
g58
NtRp1977
(dp1978
g61
(dp1979
g81
g82
ssg70
g1973
sg63
(lp1980
S'server_protocol'
p1981
asbag56
(g77
g58
NtRp1982
(dp1983
g61
(dp1984
g88
g89
ssg70
g1973
sg63
(lp1985
S':'
asbag56
(g77
g58
NtRp1986
(dp1987
g61
(dp1988
sg70
g1973
sg63
(lp1989
g56
(g57
g58
NtRp1990
(dp1991
g61
(dp1992
g69
I4
ssg70
g1986
sg63
(lp1993
S'HTTP/1.1'
p1994
asbasbasbag56
(g72
g58
NtRp1995
(dp1996
g61
(dp1997
sg70
g1006
sg63
(lp1998
g56
(g77
g58
NtRp1999
(dp2000
g61
(dp2001
g81
g82
ssg70
g1995
sg63
(lp2002
S'server_signature'
p2003
asbag56
(g77
g58
NtRp2004
(dp2005
g61
(dp2006
g88
g89
ssg70
g1995
sg63
(lp2007
S':'
asbag56
(g77
g58
NtRp2008
(dp2009
g61
(dp2010
sg70
g1995
sg63
(lp2011
g56
(g57
g58
NtRp2012
(dp2013
g61
(dp2014
g69
I4
ssg70
g2008
sg63
(lp2015
S''
asbasbasbag56
(g72
g58
NtRp2016
(dp2017
g61
(dp2018
sg70
g1006
sg63
(lp2019
g56
(g77
g58
NtRp2020
(dp2021
g61
(dp2022
g81
g82
ssg70
g2016
sg63
(lp2023
S'server_software'
p2024
asbag56
(g77
g58
NtRp2025
(dp2026
g61
(dp2027
g88
g89
ssg70
g2016
sg63
(lp2028
S':'
asbag56
(g77
g58
NtRp2029
(dp2030
g61
(dp2031
sg70
g2016
sg63
(lp2032
g56
(g57
g58
NtRp2033
(dp2034
g61
(dp2035
g69
I4
ssg70
g2029
sg63
(lp2036
S'Apache/2.2.21 (Win32) PHP/5.2.17 mod_wsgi/3.3 Python/2.7.2'
p2037
asbasbasbag56
(g72
g58
NtRp2038
(dp2039
g61
(dp2040
sg70
g1006
sg63
(lp2041
g56
(g77
g58
NtRp2042
(dp2043
g61
(dp2044
g81
g82
ssg70
g2038
sg63
(lp2045
S'systemroot'
p2046
asbag56
(g77
g58
NtRp2047
(dp2048
g61
(dp2049
g88
g89
ssg70
g2038
sg63
(lp2050
S':'
asbag56
(g77
g58
NtRp2051
(dp2052
g61
(dp2053
sg70
g2038
sg63
(lp2054
g56
(g57
g58
NtRp2055
(dp2056
g61
(dp2057
g69
I4
ssg70
g2051
sg63
(lp2058
S'C:\\Windows'
p2059
asbasbasbag56
(g72
g58
NtRp2060
(dp2061
g61
(dp2062
sg70
g1006
sg63
(lp2063
g56
(g77
g58
NtRp2064
(dp2065
g61
(dp2066
g81
g82
ssg70
g2060
sg63
(lp2067
S'web2py_path'
p2068
asbag56
(g77
g58
NtRp2069
(dp2070
g61
(dp2071
g88
g89
ssg70
g2060
sg63
(lp2072
S':'
asbag56
(g77
g58
NtRp2073
(dp2074
g61
(dp2075
sg70
g2060
sg63
(lp2076
g56
(g57
g58
NtRp2077
(dp2078
g61
(dp2079
g69
I4
ssg70
g2073
sg63
(lp2080
g1053
asbasbasbag56
(g72
g58
NtRp2081
(dp2082
g61
(dp2083
sg70
g1006
sg63
(lp2084
g56
(g77
g58
NtRp2085
(dp2086
g61
(dp2087
g81
g82
ssg70
g2081
sg63
(lp2088
S'web2py_version'
p2089
asbag56
(g77
g58
NtRp2090
(dp2091
g61
(dp2092
g88
g89
ssg70
g2081
sg63
(lp2093
S':'
asbag56
(g77
g58
NtRp2094
(dp2095
g61
(dp2096
sg70
g2081
sg63
(lp2097
g56
(g57
g58
NtRp2098
(dp2099
g61
(dp2100
g69
I4
ssg70
g2094
sg63
(lp2101
g56
(g65
g58
NtRp2102
(dp2103
g61
(dp2104
g69
I3
ssg70
Nsg63
(lp2105
g56
(g72
g58
NtRp2106
(dp2107
g61
(dp2108
sg70
g2102
sg63
(lp2109
g56
(g77
g58
NtRp2110
(dp2111
g61
(dp2112
sg70
g2106
sg63
(lp2113
g56
(g57
g58
NtRp2114
(dp2115
g61
(dp2116
g69
I3
ssg70
g2110
sg63
(lp2117
S'1'
asbasbasbag56
(g72
g58
NtRp2118
(dp2119
g61
(dp2120
sg70
g2102
sg63
(lp2121
g56
(g77
g58
NtRp2122
(dp2123
g61
(dp2124
sg70
g2118
sg63
(lp2125
g56
(g57
g58
NtRp2126
(dp2127
g61
(dp2128
g69
I3
ssg70
g2122
sg63
(lp2129
S'99'
p2130
asbasbasbag56
(g72
g58
NtRp2131
(dp2132
g61
(dp2133
sg70
g2102
sg63
(lp2134
g56
(g77
g58
NtRp2135
(dp2136
g61
(dp2137
sg70
g2131
sg63
(lp2138
g56
(g57
g58
NtRp2139
(dp2140
g61
(dp2141
g69
I3
ssg70
g2135
sg63
(lp2142
S'2'
asbasbasbag56
(g72
g58
NtRp2143
(dp2144
g61
(dp2145
sg70
g2102
sg63
(lp2146
g56
(g77
g58
NtRp2147
(dp2148
g61
(dp2149
sg70
g2143
sg63
(lp2150
g56
(g57
g58
NtRp2151
(dp2152
g61
(dp2153
g69
I3
ssg70
g2147
sg63
(lp2154
S'datetime.datetime(2011, 9, 26, 6, 55, 33)'
p2155
asbasbasbag56
(g72
g58
NtRp2156
(dp2157
g61
(dp2158
sg70
g2102
sg63
(lp2159
g56
(g77
g58
NtRp2160
(dp2161
g61
(dp2162
sg70
g2156
sg63
(lp2163
g56
(g57
g58
NtRp2164
(dp2165
g61
(dp2166
g69
I3
ssg70
g2160
sg63
(lp2167
S'stable'
p2168
asbasbasbasbasbasbasbag56
(g72
g58
NtRp2169
(dp2170
g61
(dp2171
sg70
g1006
sg63
(lp2172
g56
(g77
g58
NtRp2173
(dp2174
g61
(dp2175
g81
g82
ssg70
g2169
sg63
(lp2176
S'windir'
p2177
asbag56
(g77
g58
NtRp2178
(dp2179
g61
(dp2180
g88
g89
ssg70
g2169
sg63
(lp2181
S':'
asbag56
(g77
g58
NtRp2182
(dp2183
g61
(dp2184
sg70
g2169
sg63
(lp2185
g56
(g57
g58
NtRp2186
(dp2187
g61
(dp2188
g69
I4
ssg70
g2182
sg63
(lp2189
S'C:\\Windows'
p2190
asbasbasbag56
(g72
g58
NtRp2191
(dp2192
g61
(dp2193
sg70
g1006
sg63
(lp2194
g56
(g77
g58
NtRp2195
(dp2196
g61
(dp2197
g81
g82
ssg70
g2191
sg63
(lp2198
S'wsgi_errors'
p2199
asbag56
(g77
g58
NtRp2200
(dp2201
g61
(dp2202
g88
g89
ssg70
g2191
sg63
(lp2203
S':'
asbag56
(g77
g58
NtRp2204
(dp2205
g61
(dp2206
sg70
g2191
sg63
(lp2207
g56
(g57
g58
NtRp2208
(dp2209
g61
(dp2210
g69
I4
ssg70
g2204
sg63
(lp2211
S'<mod_wsgi.Log object at 0x034D1048>'
p2212
asbasbasbag56
(g72
g58
NtRp2213
(dp2214
g61
(dp2215
sg70
g1006
sg63
(lp2216
g56
(g77
g58
NtRp2217
(dp2218
g61
(dp2219
g81
g82
ssg70
g2213
sg63
(lp2220
S'wsgi_file_wrapper'
p2221
asbag56
(g77
g58
NtRp2222
(dp2223
g61
(dp2224
g88
g89
ssg70
g2213
sg63
(lp2225
S':'
asbag56
(g77
g58
NtRp2226
(dp2227
g61
(dp2228
sg70
g2213
sg63
(lp2229
g56
(g57
g58
NtRp2230
(dp2231
g61
(dp2232
g69
I4
ssg70
g2226
sg63
(lp2233
S'<built-in method file_wrapper of mod_wsgi.Adapter object at 0x035D8218>'
p2234
asbasbasbag56
(g72
g58
NtRp2235
(dp2236
g61
(dp2237
sg70
g1006
sg63
(lp2238
g56
(g77
g58
NtRp2239
(dp2240
g61
(dp2241
g81
g82
ssg70
g2235
sg63
(lp2242
S'wsgi_input'
p2243
asbag56
(g77
g58
NtRp2244
(dp2245
g61
(dp2246
g88
g89
ssg70
g2235
sg63
(lp2247
S':'
asbag56
(g77
g58
NtRp2248
(dp2249
g61
(dp2250
sg70
g2235
sg63
(lp2251
g56
(g57
g58
NtRp2252
(dp2253
g61
(dp2254
g69
I4
ssg70
g2248
sg63
(lp2255
S'<mod_wsgi.Input object at 0x03516A98>'
p2256
asbasbasbag56
(g72
g58
NtRp2257
(dp2258
g61
(dp2259
sg70
g1006
sg63
(lp2260
g56
(g77
g58
NtRp2261
(dp2262
g61
(dp2263
g81
g82
ssg70
g2257
sg63
(lp2264
S'wsgi_multiprocess'
p2265
asbag56
(g77
g58
NtRp2266
(dp2267
g61
(dp2268
g88
g89
ssg70
g2257
sg63
(lp2269
S':'
asbag56
(g77
g58
NtRp2270
(dp2271
g61
(dp2272
sg70
g2257
sg63
(lp2273
g56
(g57
g58
NtRp2274
(dp2275
g61
(dp2276
g69
I4
ssg70
g2270
sg63
(lp2277
g1140
asbasbasbag56
(g72
g58
NtRp2278
(dp2279
g61
(dp2280
sg70
g1006
sg63
(lp2281
g56
(g77
g58
NtRp2282
(dp2283
g61
(dp2284
g81
g82
ssg70
g2278
sg63
(lp2285
S'wsgi_multithread'
p2286
asbag56
(g77
g58
NtRp2287
(dp2288
g61
(dp2289
g88
g89
ssg70
g2278
sg63
(lp2290
S':'
asbag56
(g77
g58
NtRp2291
(dp2292
g61
(dp2293
sg70
g2278
sg63
(lp2294
g56
(g57
g58
NtRp2295
(dp2296
g61
(dp2297
g69
I4
ssg70
g2291
sg63
(lp2298
g99
asbasbasbag56
(g72
g58
NtRp2299
(dp2300
g61
(dp2301
sg70
g1006
sg63
(lp2302
g56
(g77
g58
NtRp2303
(dp2304
g61
(dp2305
g81
g82
ssg70
g2299
sg63
(lp2306
S'wsgi_run_once'
p2307
asbag56
(g77
g58
NtRp2308
(dp2309
g61
(dp2310
g88
g89
ssg70
g2299
sg63
(lp2311
S':'
asbag56
(g77
g58
NtRp2312
(dp2313
g61
(dp2314
sg70
g2299
sg63
(lp2315
g56
(g57
g58
NtRp2316
(dp2317
g61
(dp2318
g69
I4
ssg70
g2312
sg63
(lp2319
g1140
asbasbasbag56
(g72
g58
NtRp2320
(dp2321
g61
(dp2322
sg70
g1006
sg63
(lp2323
g56
(g77
g58
NtRp2324
(dp2325
g61
(dp2326
g81
g82
ssg70
g2320
sg63
(lp2327
S'wsgi_url_scheme'
p2328
asbag56
(g77
g58
NtRp2329
(dp2330
g61
(dp2331
g88
g89
ssg70
g2320
sg63
(lp2332
S':'
asbag56
(g77
g58
NtRp2333
(dp2334
g61
(dp2335
sg70
g2320
sg63
(lp2336
g56
(g57
g58
NtRp2337
(dp2338
g61
(dp2339
g69
I4
ssg70
g2333
sg63
(lp2340
S'http'
p2341
asbasbasbag56
(g72
g58
NtRp2342
(dp2343
g61
(dp2344
sg70
g1006
sg63
(lp2345
g56
(g77
g58
NtRp2346
(dp2347
g61
(dp2348
g81
g82
ssg70
g2342
sg63
(lp2349
S'wsgi_version'
p2350
asbag56
(g77
g58
NtRp2351
(dp2352
g61
(dp2353
g88
g89
ssg70
g2342
sg63
(lp2354
S':'
asbag56
(g77
g58
NtRp2355
(dp2356
g61
(dp2357
sg70
g2342
sg63
(lp2358
g56
(g57
g58
NtRp2359
(dp2360
g61
(dp2361
g69
I4
ssg70
g2355
sg63
(lp2362
g56
(g65
g58
NtRp2363
(dp2364
g61
(dp2365
g69
I3
ssg70
Nsg63
(lp2366
g56
(g72
g58
NtRp2367
(dp2368
g61
(dp2369
sg70
g2363
sg63
(lp2370
g56
(g77
g58
NtRp2371
(dp2372
g61
(dp2373
sg70
g2367
sg63
(lp2374
g56
(g57
g58
NtRp2375
(dp2376
g61
(dp2377
g69
I3
ssg70
g2371
sg63
(lp2378
S'1'
asbasbasbag56
(g72
g58
NtRp2379
(dp2380
g61
(dp2381
sg70
g2363
sg63
(lp2382
g56
(g77
g58
NtRp2383
(dp2384
g61
(dp2385
sg70
g2379
sg63
(lp2386
g56
(g57
g58
NtRp2387
(dp2388
g61
(dp2389
g69
I3
ssg70
g2383
sg63
(lp2390
S'1'
asbasbasbasbasbasbasbasbasbasbasbag56
(g72
g58
NtRp2391
(dp2392
g61
(dp2393
sg70
g66
sg63
(lp2394
g56
(g77
g58
NtRp2395
(dp2396
g61
(dp2397
g81
g82
ssg70
g2391
sg63
(lp2398
S'extension'
p2399
asbag56
(g77
g58
NtRp2400
(dp2401
g61
(dp2402
g88
g89
ssg70
g2391
sg63
(lp2403
S':'
asbag56
(g77
g58
NtRp2404
(dp2405
g61
(dp2406
sg70
g2391
sg63
(lp2407
g56
(g57
g58
NtRp2408
(dp2409
g61
(dp2410
g69
I5
ssg70
g2404
sg63
(lp2411
S'html'
p2412
asbasbasbag56
(g72
g58
NtRp2413
(dp2414
g61
(dp2415
sg70
g66
sg63
(lp2416
g56
(g77
g58
NtRp2417
(dp2418
g61
(dp2419
g81
g82
ssg70
g2413
sg63
(lp2420
S'folder'
p2421
asbag56
(g77
g58
NtRp2422
(dp2423
g61
(dp2424
g88
g89
ssg70
g2413
sg63
(lp2425
S':'
asbag56
(g77
g58
NtRp2426
(dp2427
g61
(dp2428
sg70
g2413
sg63
(lp2429
g56
(g57
g58
NtRp2430
(dp2431
g61
(dp2432
g69
I5
ssg70
g2426
sg63
(lp2433
S'D:\\Workbench\\web2py_src\\applications\\admin\\'
p2434
asbasbasbag56
(g72
g58
NtRp2435
(dp2436
g61
(dp2437
sg70
g66
sg63
(lp2438
g56
(g77
g58
NtRp2439
(dp2440
g61
(dp2441
g81
g82
ssg70
g2435
sg63
(lp2442
S'function'
p2443
asbag56
(g77
g58
NtRp2444
(dp2445
g61
(dp2446
g88
g89
ssg70
g2435
sg63
(lp2447
S':'
asbag56
(g77
g58
NtRp2448
(dp2449
g61
(dp2450
sg70
g2435
sg63
(lp2451
g56
(g57
g58
NtRp2452
(dp2453
g61
(dp2454
g69
I5
ssg70
g2448
sg63
(lp2455
S'check_version'
p2456
asbasbasbag56
(g72
g58
NtRp2457
(dp2458
g61
(dp2459
sg70
g66
sg63
(lp2460
g56
(g77
g58
NtRp2461
(dp2462
g61
(dp2463
g81
g82
ssg70
g2457
sg63
(lp2464
S'get_vars'
p2465
asbag56
(g77
g58
NtRp2466
(dp2467
g61
(dp2468
g88
g89
ssg70
g2457
sg63
(lp2469
S':'
asbag56
(g77
g58
NtRp2470
(dp2471
g61
(dp2472
sg70
g2457
sg63
(lp2473
g56
(g57
g58
NtRp2474
(dp2475
g61
(dp2476
g69
I5
ssg70
g2470
sg63
(lp2477
g56
(g65
g58
NtRp2478
(dp2479
g61
(dp2480
g69
I4
ssg70
Nsg63
(lp2481
sbasbasbasbag56
(g72
g58
NtRp2482
(dp2483
g61
(dp2484
sg70
g66
sg63
(lp2485
g56
(g77
g58
NtRp2486
(dp2487
g61
(dp2488
g81
g82
ssg70
g2482
sg63
(lp2489
S'global_settings'
p2490
asbag56
(g77
g58
NtRp2491
(dp2492
g61
(dp2493
g88
g89
ssg70
g2482
sg63
(lp2494
S':'
asbag56
(g77
g58
NtRp2495
(dp2496
g61
(dp2497
sg70
g2482
sg63
(lp2498
g56
(g57
g58
NtRp2499
(dp2500
g61
(dp2501
g69
I5
ssg70
g2495
sg63
(lp2502
g56
(g65
g58
NtRp2503
(dp2504
g61
(dp2505
g69
I4
ssg70
Nsg63
(lp2506
g56
(g72
g58
NtRp2507
(dp2508
g61
(dp2509
sg70
g2503
sg63
(lp2510
g56
(g77
g58
NtRp2511
(dp2512
g61
(dp2513
g81
g82
ssg70
g2507
sg63
(lp2514
g1018
asbag56
(g77
g58
NtRp2515
(dp2516
g61
(dp2517
g88
g89
ssg70
g2507
sg63
(lp2518
S':'
asbag56
(g77
g58
NtRp2519
(dp2520
g61
(dp2521
sg70
g2507
sg63
(lp2522
g56
(g57
g58
NtRp2523
(dp2524
g61
(dp2525
g69
I4
ssg70
g2519
sg63
(lp2526
S"set(['D:\\\\Workbench\\\\web2py_src\\\\applications\\\\dummy\\\\', 'D:\\\\Workbench\\\\web2py_src\\\\applications\\\\admin\\\\', 'D:\\\\Workbench\\\\web2py_src\\\\applications\\\\welcome\\\\'])"
p2527
asbasbasbag56
(g72
g58
NtRp2528
(dp2529
g61
(dp2530
sg70
g2503
sg63
(lp2531
g56
(g77
g58
NtRp2532
(dp2533
g61
(dp2534
g81
g82
ssg70
g2528
sg63
(lp2535
g1040
asbag56
(g77
g58
NtRp2536
(dp2537
g61
(dp2538
g88
g89
ssg70
g2528
sg63
(lp2539
S':'
asbag56
(g77
g58
NtRp2540
(dp2541
g61
(dp2542
sg70
g2528
sg63
(lp2543
g56
(g57
g58
NtRp2544
(dp2545
g61
(dp2546
g69
I4
ssg70
g2540
sg63
(lp2547
g1053
asbasbasbag56
(g72
g58
NtRp2548
(dp2549
g61
(dp2550
sg70
g2503
sg63
(lp2551
g56
(g77
g58
NtRp2552
(dp2553
g61
(dp2554
g81
g82
ssg70
g2548
sg63
(lp2555
g1105
asbag56
(g77
g58
NtRp2556
(dp2557
g61
(dp2558
g88
g89
ssg70
g2548
sg63
(lp2559
S':'
asbag56
(g77
g58
NtRp2560
(dp2561
g61
(dp2562
sg70
g2548
sg63
(lp2563
g56
(g57
g58
NtRp2564
(dp2565
g61
(dp2566
g69
I4
ssg70
g2560
sg63
(lp2567
S'set([])'
p2568
asbasbasbag56
(g72
g58
NtRp2569
(dp2570
g61
(dp2571
sg70
g2503
sg63
(lp2572
g56
(g77
g58
NtRp2573
(dp2574
g61
(dp2575
g81
g82
ssg70
g2569
sg63
(lp2576
g1127
asbag56
(g77
g58
NtRp2577
(dp2578
g61
(dp2579
g88
g89
ssg70
g2569
sg63
(lp2580
S':'
asbag56
(g77
g58
NtRp2581
(dp2582
g61
(dp2583
sg70
g2569
sg63
(lp2584
g56
(g57
g58
NtRp2585
(dp2586
g61
(dp2587
g69
I4
ssg70
g2581
sg63
(lp2588
g1140
asbasbasbag56
(g72
g58
NtRp2589
(dp2590
g61
(dp2591
sg70
g2503
sg63
(lp2592
g56
(g77
g58
NtRp2593
(dp2594
g61
(dp2595
g81
g82
ssg70
g2589
sg63
(lp2596
g1193
asbag56
(g77
g58
NtRp2597
(dp2598
g61
(dp2599
g88
g89
ssg70
g2589
sg63
(lp2600
S':'
asbag56
(g77
g58
NtRp2601
(dp2602
g61
(dp2603
sg70
g2589
sg63
(lp2604
g56
(g57
g58
NtRp2605
(dp2606
g61
(dp2607
g69
I4
ssg70
g2601
sg63
(lp2608
g1053
asbasbasbag56
(g72
g58
NtRp2609
(dp2610
g61
(dp2611
sg70
g2503
sg63
(lp2612
g56
(g77
g58
NtRp2613
(dp2614
g61
(dp2615
g81
g82
ssg70
g2609
sg63
(lp2616
g1456
asbag56
(g77
g58
NtRp2617
(dp2618
g61
(dp2619
g88
g89
ssg70
g2609
sg63
(lp2620
S':'
asbag56
(g77
g58
NtRp2621
(dp2622
g61
(dp2623
sg70
g2609
sg63
(lp2624
g56
(g57
g58
NtRp2625
(dp2626
g61
(dp2627
g69
I4
ssg70
g2621
sg63
(lp2628
g1140
asbasbasbag56
(g72
g58
NtRp2629
(dp2630
g61
(dp2631
sg70
g2503
sg63
(lp2632
g56
(g77
g58
NtRp2633
(dp2634
g61
(dp2635
g81
g82
ssg70
g2629
sg63
(lp2636
g2089
asbag56
(g77
g58
NtRp2637
(dp2638
g61
(dp2639
g88
g89
ssg70
g2629
sg63
(lp2640
S':'
asbag56
(g77
g58
NtRp2641
(dp2642
g61
(dp2643
sg70
g2629
sg63
(lp2644
g56
(g57
g58
NtRp2645
(dp2646
g61
(dp2647
g69
I4
ssg70
g2641
sg63
(lp2648
g56
(g65
g58
NtRp2649
(dp2650
g61
(dp2651
g69
I3
ssg70
Nsg63
(lp2652
g56
(g72
g58
NtRp2653
(dp2654
g61
(dp2655
sg70
g2649
sg63
(lp2656
g56
(g77
g58
NtRp2657
(dp2658
g61
(dp2659
sg70
g2653
sg63
(lp2660
g56
(g57
g58
NtRp2661
(dp2662
g61
(dp2663
g69
I3
ssg70
g2657
sg63
(lp2664
S'1'
asbasbasbag56
(g72
g58
NtRp2665
(dp2666
g61
(dp2667
sg70
g2649
sg63
(lp2668
g56
(g77
g58
NtRp2669
(dp2670
g61
(dp2671
sg70
g2665
sg63
(lp2672
g56
(g57
g58
NtRp2673
(dp2674
g61
(dp2675
g69
I3
ssg70
g2669
sg63
(lp2676
S'99'
p2677
asbasbasbag56
(g72
g58
NtRp2678
(dp2679
g61
(dp2680
sg70
g2649
sg63
(lp2681
g56
(g77
g58
NtRp2682
(dp2683
g61
(dp2684
sg70
g2678
sg63
(lp2685
g56
(g57
g58
NtRp2686
(dp2687
g61
(dp2688
g69
I3
ssg70
g2682
sg63
(lp2689
S'2'
asbasbasbag56
(g72
g58
NtRp2690
(dp2691
g61
(dp2692
sg70
g2649
sg63
(lp2693
g56
(g77
g58
NtRp2694
(dp2695
g61
(dp2696
sg70
g2690
sg63
(lp2697
g56
(g57
g58
NtRp2698
(dp2699
g61
(dp2700
g69
I3
ssg70
g2694
sg63
(lp2701
S'datetime.datetime(2011, 9, 26, 6, 55, 33)'
p2702
asbasbasbag56
(g72
g58
NtRp2703
(dp2704
g61
(dp2705
sg70
g2649
sg63
(lp2706
g56
(g77
g58
NtRp2707
(dp2708
g61
(dp2709
sg70
g2703
sg63
(lp2710
g56
(g57
g58
NtRp2711
(dp2712
g61
(dp2713
g69
I3
ssg70
g2707
sg63
(lp2714
g2168
asbasbasbasbasbasbasbasbasbasbasbag56
(g72
g58
NtRp2715
(dp2716
g61
(dp2717
sg70
g66
sg63
(lp2718
g56
(g77
g58
NtRp2719
(dp2720
g61
(dp2721
g81
g82
ssg70
g2715
sg63
(lp2722
S'is_https'
p2723
asbag56
(g77
g58
NtRp2724
(dp2725
g61
(dp2726
g88
g89
ssg70
g2715
sg63
(lp2727
S':'
asbag56
(g77
g58
NtRp2728
(dp2729
g61
(dp2730
sg70
g2715
sg63
(lp2731
g56
(g57
g58
NtRp2732
(dp2733
g61
(dp2734
g69
I5
ssg70
g2728
sg63
(lp2735
g1140
asbasbasbag56
(g72
g58
NtRp2736
(dp2737
g61
(dp2738
sg70
g66
sg63
(lp2739
g56
(g77
g58
NtRp2740
(dp2741
g61
(dp2742
g81
g82
ssg70
g2736
sg63
(lp2743
S'is_local'
p2744
asbag56
(g77
g58
NtRp2745
(dp2746
g61
(dp2747
g88
g89
ssg70
g2736
sg63
(lp2748
S':'
asbag56
(g77
g58
NtRp2749
(dp2750
g61
(dp2751
sg70
g2736
sg63
(lp2752
g56
(g57
g58
NtRp2753
(dp2754
g61
(dp2755
g69
I5
ssg70
g2749
sg63
(lp2756
g99
asbasbasbag56
(g72
g58
NtRp2757
(dp2758
g61
(dp2759
sg70
g66
sg63
(lp2760
g56
(g77
g58
NtRp2761
(dp2762
g61
(dp2763
g81
g82
ssg70
g2757
sg63
(lp2764
S'is_restful'
p2765
asbag56
(g77
g58
NtRp2766
(dp2767
g61
(dp2768
g88
g89
ssg70
g2757
sg63
(lp2769
S':'
asbag56
(g77
g58
NtRp2770
(dp2771
g61
(dp2772
sg70
g2757
sg63
(lp2773
g56
(g57
g58
NtRp2774
(dp2775
g61
(dp2776
g69
I5
ssg70
g2770
sg63
(lp2777
g1140
asbasbasbag56
(g72
g58
NtRp2778
(dp2779
g61
(dp2780
sg70
g66
sg63
(lp2781
g56
(g77
g58
NtRp2782
(dp2783
g61
(dp2784
g81
g82
ssg70
g2778
sg63
(lp2785
S'now'
p2786
asbag56
(g77
g58
NtRp2787
(dp2788
g61
(dp2789
g88
g89
ssg70
g2778
sg63
(lp2790
S':'
asbag56
(g77
g58
NtRp2791
(dp2792
g61
(dp2793
sg70
g2778
sg63
(lp2794
g56
(g57
g58
NtRp2795
(dp2796
g61
(dp2797
g69
I5
ssg70
g2791
sg63
(lp2798
S'datetime.datetime(2012, 1, 3, 13, 57, 2, 653000)'
p2799
asbasbasbag56
(g72
g58
NtRp2800
(dp2801
g61
(dp2802
sg70
g66
sg63
(lp2803
g56
(g77
g58
NtRp2804
(dp2805
g61
(dp2806
g81
g82
ssg70
g2800
sg63
(lp2807
S'post_vars'
p2808
asbag56
(g77
g58
NtRp2809
(dp2810
g61
(dp2811
g88
g89
ssg70
g2800
sg63
(lp2812
S':'
asbag56
(g77
g58
NtRp2813
(dp2814
g61
(dp2815
sg70
g2800
sg63
(lp2816
g56
(g57
g58
NtRp2817
(dp2818
g61
(dp2819
g69
I5
ssg70
g2813
sg63
(lp2820
g56
(g65
g58
NtRp2821
(dp2822
g61
(dp2823
g69
I4
ssg70
Nsg63
(lp2824
sbasbasbasbag56
(g72
g58
NtRp2825
(dp2826
g61
(dp2827
sg70
g66
sg63
(lp2828
g56
(g77
g58
NtRp2829
(dp2830
g61
(dp2831
g81
g82
ssg70
g2825
sg63
(lp2832
S'url'
p2833
asbag56
(g77
g58
NtRp2834
(dp2835
g61
(dp2836
g88
g89
ssg70
g2825
sg63
(lp2837
S':'
asbag56
(g77
g58
NtRp2838
(dp2839
g61
(dp2840
sg70
g2825
sg63
(lp2841
g56
(g57
g58
NtRp2842
(dp2843
g61
(dp2844
g69
I5
ssg70
g2838
sg63
(lp2845
S'/admin/default/check_version'
p2846
asbasbasbag56
(g72
g58
NtRp2847
(dp2848
g61
(dp2849
sg70
g66
sg63
(lp2850
g56
(g77
g58
NtRp2851
(dp2852
g61
(dp2853
g81
g82
ssg70
g2847
sg63
(lp2854
S'utcnow'
p2855
asbag56
(g77
g58
NtRp2856
(dp2857
g61
(dp2858
g88
g89
ssg70
g2847
sg63
(lp2859
S':'
asbag56
(g77
g58
NtRp2860
(dp2861
g61
(dp2862
sg70
g2847
sg63
(lp2863
g56
(g57
g58
NtRp2864
(dp2865
g61
(dp2866
g69
I5
ssg70
g2860
sg63
(lp2867
S'datetime.datetime(2012, 1, 3, 5, 57, 2, 653000)'
p2868
asbasbasbag56
(g72
g58
NtRp2869
(dp2870
g61
(dp2871
sg70
g66
sg63
(lp2872
g56
(g77
g58
NtRp2873
(dp2874
g61
(dp2875
g81
g82
ssg70
g2869
sg63
(lp2876
S'uuid'
p2877
asbag56
(g77
g58
NtRp2878
(dp2879
g61
(dp2880
g88
g89
ssg70
g2869
sg63
(lp2881
S':'
asbag56
(g77
g58
NtRp2882
(dp2883
g61
(dp2884
sg70
g2869
sg63
(lp2885
g56
(g57
g58
NtRp2886
(dp2887
g61
(dp2888
g69
I5
ssg70
g2882
sg63
(lp2889
S'admin/127.0.0.1.2012-01-03.13-57-02.6970a32a-693c-4eab-88c1-f311e7255216'
p2890
asbasbasbag56
(g72
g58
NtRp2891
(dp2892
g61
(dp2893
sg70
g66
sg63
(lp2894
g56
(g77
g58
NtRp2895
(dp2896
g61
(dp2897
g81
g82
ssg70
g2891
sg63
(lp2898
S'vars'
p2899
asbag56
(g77
g58
NtRp2900
(dp2901
g61
(dp2902
g88
g89
ssg70
g2891
sg63
(lp2903
S':'
asbag56
(g77
g58
NtRp2904
(dp2905
g61
(dp2906
sg70
g2891
sg63
(lp2907
g56
(g57
g58
NtRp2908
(dp2909
g61
(dp2910
g69
I5
ssg70
g2904
sg63
(lp2911
g56
(g65
g58
NtRp2912
(dp2913
g61
(dp2914
g69
I4
ssg70
Nsg63
(lp2915
sbasbasbasbag56
(g72
g58
NtRp2916
(dp2917
g61
(dp2918
sg70
g66
sg63
(lp2919
g56
(g77
g58
NtRp2920
(dp2921
g61
(dp2922
g81
g82
ssg70
g2916
sg63
(lp2923
S'wsgi'
p2924
asbag56
(g77
g58
NtRp2925
(dp2926
g61
(dp2927
g88
g89
ssg70
g2916
sg63
(lp2928
S':'
asbag56
(g77
g58
NtRp2929
(dp2930
g61
(dp2931
sg70
g2916
sg63
(lp2932
g56
(g57
g58
NtRp2933
(dp2934
g61
(dp2935
g69
I5
ssg70
g2929
sg63
(lp2936
g56
(g65
g58
NtRp2937
(dp2938
g61
(dp2939
g69
I4
ssg70
Nsg63
(lp2940
g56
(g72
g58
NtRp2941
(dp2942
g61
(dp2943
sg70
g2937
sg63
(lp2944
g56
(g77
g58
NtRp2945
(dp2946
g61
(dp2947
g81
g82
ssg70
g2941
sg63
(lp2948
S'environ'
p2949
asbag56
(g77
g58
NtRp2950
(dp2951
g61
(dp2952
g88
g89
ssg70
g2941
sg63
(lp2953
S':'
asbag56
(g77
g58
NtRp2954
(dp2955
g61
(dp2956
sg70
g2941
sg63
(lp2957
g56
(g57
g58
NtRp2958
(dp2959
g61
(dp2960
g69
I4
ssg70
g2954
sg63
(lp2961
g56
(g65
g58
NtRp2962
(dp2963
g61
(dp2964
g69
I3
ssg70
Nsg63
(lp2965
g56
(g72
g58
NtRp2966
(dp2967
g61
(dp2968
sg70
g2962
sg63
(lp2969
g56
(g77
g58
NtRp2970
(dp2971
g61
(dp2972
g81
g82
ssg70
g2966
sg63
(lp2973
S'COMSPEC'
p2974
asbag56
(g77
g58
NtRp2975
(dp2976
g61
(dp2977
g88
g89
ssg70
g2966
sg63
(lp2978
S':'
asbag56
(g77
g58
NtRp2979
(dp2980
g61
(dp2981
sg70
g2966
sg63
(lp2982
g56
(g57
g58
NtRp2983
(dp2984
g61
(dp2985
g69
I3
ssg70
g2979
sg63
(lp2986
g1075
asbasbasbag56
(g72
g58
NtRp2987
(dp2988
g61
(dp2989
sg70
g2962
sg63
(lp2990
g56
(g77
g58
NtRp2991
(dp2992
g61
(dp2993
g81
g82
ssg70
g2987
sg63
(lp2994
S'CONTENT_LENGTH'
p2995
asbag56
(g77
g58
NtRp2996
(dp2997
g61
(dp2998
g88
g89
ssg70
g2987
sg63
(lp2999
S':'
asbag56
(g77
g58
NtRp3000
(dp3001
g61
(dp3002
sg70
g2987
sg63
(lp3003
g56
(g57
g58
NtRp3004
(dp3005
g61
(dp3006
g69
I3
ssg70
g3000
sg63
(lp3007
S'0'
asbasbasbag56
(g72
g58
NtRp3008
(dp3009
g61
(dp3010
sg70
g2962
sg63
(lp3011
g56
(g77
g58
NtRp3012
(dp3013
g61
(dp3014
g81
g82
ssg70
g3008
sg63
(lp3015
S'DOCUMENT_ROOT'
p3016
asbag56
(g77
g58
NtRp3017
(dp3018
g61
(dp3019
g88
g89
ssg70
g3008
sg63
(lp3020
S':'
asbag56
(g77
g58
NtRp3021
(dp3022
g61
(dp3023
sg70
g3008
sg63
(lp3024
g56
(g57
g58
NtRp3025
(dp3026
g61
(dp3027
g69
I3
ssg70
g3021
sg63
(lp3028
g1162
asbasbasbag56
(g72
g58
NtRp3029
(dp3030
g61
(dp3031
sg70
g2962
sg63
(lp3032
g56
(g77
g58
NtRp3033
(dp3034
g61
(dp3035
g81
g82
ssg70
g3029
sg63
(lp3036
S'GATEWAY_INTERFACE'
p3037
asbag56
(g77
g58
NtRp3038
(dp3039
g61
(dp3040
g88
g89
ssg70
g3029
sg63
(lp3041
S':'
asbag56
(g77
g58
NtRp3042
(dp3043
g61
(dp3044
sg70
g3029
sg63
(lp3045
g56
(g57
g58
NtRp3046
(dp3047
g61
(dp3048
g69
I3
ssg70
g3042
sg63
(lp3049
g1184
asbasbasbag56
(g72
g58
NtRp3050
(dp3051
g61
(dp3052
sg70
g2962
sg63
(lp3053
g56
(g77
g58
NtRp3054
(dp3055
g61
(dp3056
g81
g82
ssg70
g3050
sg63
(lp3057
S'HTTP_ACCEPT'
p3058
asbag56
(g77
g58
NtRp3059
(dp3060
g61
(dp3061
g88
g89
ssg70
g3050
sg63
(lp3062
S':'
asbag56
(g77
g58
NtRp3063
(dp3064
g61
(dp3065
sg70
g3050
sg63
(lp3066
g56
(g57
g58
NtRp3067
(dp3068
g61
(dp3069
g69
I3
ssg70
g3063
sg63
(lp3070
g1227
asbasbasbag56
(g72
g58
NtRp3071
(dp3072
g61
(dp3073
sg70
g2962
sg63
(lp3074
g56
(g77
g58
NtRp3075
(dp3076
g61
(dp3077
g81
g82
ssg70
g3071
sg63
(lp3078
S'HTTP_ACCEPT_CHARSET'
p3079
asbag56
(g77
g58
NtRp3080
(dp3081
g61
(dp3082
g88
g89
ssg70
g3071
sg63
(lp3083
S':'
asbag56
(g77
g58
NtRp3084
(dp3085
g61
(dp3086
sg70
g3071
sg63
(lp3087
g56
(g57
g58
NtRp3088
(dp3089
g61
(dp3090
g69
I3
ssg70
g3084
sg63
(lp3091
g1249
asbasbasbag56
(g72
g58
NtRp3092
(dp3093
g61
(dp3094
sg70
g2962
sg63
(lp3095
g56
(g77
g58
NtRp3096
(dp3097
g61
(dp3098
g81
g82
ssg70
g3092
sg63
(lp3099
S'HTTP_ACCEPT_ENCODING'
p3100
asbag56
(g77
g58
NtRp3101
(dp3102
g61
(dp3103
g88
g89
ssg70
g3092
sg63
(lp3104
S':'
asbag56
(g77
g58
NtRp3105
(dp3106
g61
(dp3107
sg70
g3092
sg63
(lp3108
g56
(g57
g58
NtRp3109
(dp3110
g61
(dp3111
g69
I3
ssg70
g3105
sg63
(lp3112
g1271
asbasbasbag56
(g72
g58
NtRp3113
(dp3114
g61
(dp3115
sg70
g2962
sg63
(lp3116
g56
(g77
g58
NtRp3117
(dp3118
g61
(dp3119
g81
g82
ssg70
g3113
sg63
(lp3120
S'HTTP_ACCEPT_LANGUAGE'
p3121
asbag56
(g77
g58
NtRp3122
(dp3123
g61
(dp3124
g88
g89
ssg70
g3113
sg63
(lp3125
S':'
asbag56
(g77
g58
NtRp3126
(dp3127
g61
(dp3128
sg70
g3113
sg63
(lp3129
g56
(g57
g58
NtRp3130
(dp3131
g61
(dp3132
g69
I3
ssg70
g3126
sg63
(lp3133
g1293
asbasbasbag56
(g72
g58
NtRp3134
(dp3135
g61
(dp3136
sg70
g2962
sg63
(lp3137
g56
(g77
g58
NtRp3138
(dp3139
g61
(dp3140
g81
g82
ssg70
g3134
sg63
(lp3141
S'HTTP_CONNECTION'
p3142
asbag56
(g77
g58
NtRp3143
(dp3144
g61
(dp3145
g88
g89
ssg70
g3134
sg63
(lp3146
S':'
asbag56
(g77
g58
NtRp3147
(dp3148
g61
(dp3149
sg70
g3134
sg63
(lp3150
g56
(g57
g58
NtRp3151
(dp3152
g61
(dp3153
g69
I3
ssg70
g3147
sg63
(lp3154
g1315
asbasbasbag56
(g72
g58
NtRp3155
(dp3156
g61
(dp3157
sg70
g2962
sg63
(lp3158
g56
(g77
g58
NtRp3159
(dp3160
g61
(dp3161
g81
g82
ssg70
g3155
sg63
(lp3162
S'HTTP_COOKIE'
p3163
asbag56
(g77
g58
NtRp3164
(dp3165
g61
(dp3166
g88
g89
ssg70
g3155
sg63
(lp3167
S':'
asbag56
(g77
g58
NtRp3168
(dp3169
g61
(dp3170
sg70
g3155
sg63
(lp3171
g56
(g57
g58
NtRp3172
(dp3173
g61
(dp3174
g69
I3
ssg70
g3168
sg63
(lp3175
g1337
asbasbasbag56
(g72
g58
NtRp3176
(dp3177
g61
(dp3178
sg70
g2962
sg63
(lp3179
g56
(g77
g58
NtRp3180
(dp3181
g61
(dp3182
g81
g82
ssg70
g3176
sg63
(lp3183
S'HTTP_HOST'
p3184
asbag56
(g77
g58
NtRp3185
(dp3186
g61
(dp3187
g88
g89
ssg70
g3176
sg63
(lp3188
S':'
asbag56
(g77
g58
NtRp3189
(dp3190
g61
(dp3191
sg70
g3176
sg63
(lp3192
g56
(g57
g58
NtRp3193
(dp3194
g61
(dp3195
g69
I3
ssg70
g3189
sg63
(lp3196
g1359
asbasbasbag56
(g72
g58
NtRp3197
(dp3198
g61
(dp3199
sg70
g2962
sg63
(lp3200
g56
(g77
g58
NtRp3201
(dp3202
g61
(dp3203
g81
g82
ssg70
g3197
sg63
(lp3204
S'HTTP_ORIGIN'
p3205
asbag56
(g77
g58
NtRp3206
(dp3207
g61
(dp3208
g88
g89
ssg70
g3197
sg63
(lp3209
S':'
asbag56
(g77
g58
NtRp3210
(dp3211
g61
(dp3212
sg70
g3197
sg63
(lp3213
g56
(g57
g58
NtRp3214
(dp3215
g61
(dp3216
g69
I3
ssg70
g3210
sg63
(lp3217
g1381
asbasbasbag56
(g72
g58
NtRp3218
(dp3219
g61
(dp3220
sg70
g2962
sg63
(lp3221
g56
(g77
g58
NtRp3222
(dp3223
g61
(dp3224
g81
g82
ssg70
g3218
sg63
(lp3225
S'HTTP_REFERER'
p3226
asbag56
(g77
g58
NtRp3227
(dp3228
g61
(dp3229
g88
g89
ssg70
g3218
sg63
(lp3230
S':'
asbag56
(g77
g58
NtRp3231
(dp3232
g61
(dp3233
sg70
g3218
sg63
(lp3234
g56
(g57
g58
NtRp3235
(dp3236
g61
(dp3237
g69
I3
ssg70
g3231
sg63
(lp3238
g1403
asbasbasbag56
(g72
g58
NtRp3239
(dp3240
g61
(dp3241
sg70
g2962
sg63
(lp3242
g56
(g77
g58
NtRp3243
(dp3244
g61
(dp3245
g81
g82
ssg70
g3239
sg63
(lp3246
S'HTTP_USER_AGENT'
p3247
asbag56
(g77
g58
NtRp3248
(dp3249
g61
(dp3250
g88
g89
ssg70
g3239
sg63
(lp3251
S':'
asbag56
(g77
g58
NtRp3252
(dp3253
g61
(dp3254
sg70
g3239
sg63
(lp3255
g56
(g57
g58
NtRp3256
(dp3257
g61
(dp3258
g69
I3
ssg70
g3252
sg63
(lp3259
g1425
asbasbasbag56
(g72
g58
NtRp3260
(dp3261
g61
(dp3262
sg70
g2962
sg63
(lp3263
g56
(g77
g58
NtRp3264
(dp3265
g61
(dp3266
g81
g82
ssg70
g3260
sg63
(lp3267
S'HTTP_X_REQUESTED_WITH'
p3268
asbag56
(g77
g58
NtRp3269
(dp3270
g61
(dp3271
g88
g89
ssg70
g3260
sg63
(lp3272
S':'
asbag56
(g77
g58
NtRp3273
(dp3274
g61
(dp3275
sg70
g3260
sg63
(lp3276
g56
(g57
g58
NtRp3277
(dp3278
g61
(dp3279
g69
I3
ssg70
g3273
sg63
(lp3280
g1447
asbasbasbag56
(g72
g58
NtRp3281
(dp3282
g61
(dp3283
sg70
g2962
sg63
(lp3284
g56
(g77
g58
NtRp3285
(dp3286
g61
(dp3287
g81
g82
ssg70
g3281
sg63
(lp3288
S'PATHEXT'
p3289
asbag56
(g77
g58
NtRp3290
(dp3291
g61
(dp3292
g88
g89
ssg70
g3281
sg63
(lp3293
S':'
asbag56
(g77
g58
NtRp3294
(dp3295
g61
(dp3296
sg70
g3281
sg63
(lp3297
g56
(g57
g58
NtRp3298
(dp3299
g61
(dp3300
g69
I3
ssg70
g3294
sg63
(lp3301
g1733
asbasbasbag56
(g72
g58
NtRp3302
(dp3303
g61
(dp3304
sg70
g2962
sg63
(lp3305
g56
(g77
g58
NtRp3306
(dp3307
g61
(dp3308
g81
g82
ssg70
g3302
sg63
(lp3309
S'PATH_INFO'
p3310
asbag56
(g77
g58
NtRp3311
(dp3312
g61
(dp3313
g88
g89
ssg70
g3302
sg63
(lp3314
S':'
asbag56
(g77
g58
NtRp3315
(dp3316
g61
(dp3317
sg70
g3302
sg63
(lp3318
g56
(g57
g58
NtRp3319
(dp3320
g61
(dp3321
g69
I3
ssg70
g3315
sg63
(lp3322
g1689
asbasbasbag56
(g72
g58
NtRp3323
(dp3324
g61
(dp3325
sg70
g2962
sg63
(lp3326
g56
(g77
g58
NtRp3327
(dp3328
g61
(dp3329
g81
g82
ssg70
g3323
sg63
(lp3330
S'PATH_TRANSLATED'
p3331
asbag56
(g77
g58
NtRp3332
(dp3333
g61
(dp3334
g88
g89
ssg70
g3323
sg63
(lp3335
S':'
asbag56
(g77
g58
NtRp3336
(dp3337
g61
(dp3338
sg70
g3323
sg63
(lp3339
g56
(g57
g58
NtRp3340
(dp3341
g61
(dp3342
g69
I3
ssg70
g3336
sg63
(lp3343
g1711
asbasbasbag56
(g72
g58
NtRp3344
(dp3345
g61
(dp3346
sg70
g2962
sg63
(lp3347
g56
(g77
g58
NtRp3348
(dp3349
g61
(dp3350
g81
g82
ssg70
g3344
sg63
(lp3351
S'QUERY_STRING'
p3352
asbag56
(g77
g58
NtRp3353
(dp3354
g61
(dp3355
g88
g89
ssg70
g3344
sg63
(lp3356
S':'
asbag56
(g77
g58
NtRp3357
(dp3358
g61
(dp3359
sg70
g3344
sg63
(lp3360
g56
(g57
g58
NtRp3361
(dp3362
g61
(dp3363
g69
I3
ssg70
g3357
sg63
(lp3364
S''
asbasbasbag56
(g72
g58
NtRp3365
(dp3366
g61
(dp3367
sg70
g2962
sg63
(lp3368
g56
(g77
g58
NtRp3369
(dp3370
g61
(dp3371
g81
g82
ssg70
g3365
sg63
(lp3372
S'REMOTE_ADDR'
p3373
asbag56
(g77
g58
NtRp3374
(dp3375
g61
(dp3376
g88
g89
ssg70
g3365
sg63
(lp3377
S':'
asbag56
(g77
g58
NtRp3378
(dp3379
g61
(dp3380
sg70
g3365
sg63
(lp3381
g56
(g57
g58
NtRp3382
(dp3383
g61
(dp3384
g69
I3
ssg70
g3378
sg63
(lp3385
g189
asbasbasbag56
(g72
g58
NtRp3386
(dp3387
g61
(dp3388
sg70
g2962
sg63
(lp3389
g56
(g77
g58
NtRp3390
(dp3391
g61
(dp3392
g81
g82
ssg70
g3386
sg63
(lp3393
S'REMOTE_PORT'
p3394
asbag56
(g77
g58
NtRp3395
(dp3396
g61
(dp3397
g88
g89
ssg70
g3386
sg63
(lp3398
S':'
asbag56
(g77
g58
NtRp3399
(dp3400
g61
(dp3401
sg70
g3386
sg63
(lp3402
g56
(g57
g58
NtRp3403
(dp3404
g61
(dp3405
g69
I3
ssg70
g3399
sg63
(lp3406
g1797
asbasbasbag56
(g72
g58
NtRp3407
(dp3408
g61
(dp3409
sg70
g2962
sg63
(lp3410
g56
(g77
g58
NtRp3411
(dp3412
g61
(dp3413
g81
g82
ssg70
g3407
sg63
(lp3414
S'REQUEST_METHOD'
p3415
asbag56
(g77
g58
NtRp3416
(dp3417
g61
(dp3418
g88
g89
ssg70
g3407
sg63
(lp3419
S':'
asbag56
(g77
g58
NtRp3420
(dp3421
g61
(dp3422
sg70
g3407
sg63
(lp3423
g56
(g57
g58
NtRp3424
(dp3425
g61
(dp3426
g69
I3
ssg70
g3420
sg63
(lp3427
g1819
asbasbasbag56
(g72
g58
NtRp3428
(dp3429
g61
(dp3430
sg70
g2962
sg63
(lp3431
g56
(g77
g58
NtRp3432
(dp3433
g61
(dp3434
g81
g82
ssg70
g3428
sg63
(lp3435
S'REQUEST_URI'
p3436
asbag56
(g77
g58
NtRp3437
(dp3438
g61
(dp3439
g88
g89
ssg70
g3428
sg63
(lp3440
S':'
asbag56
(g77
g58
NtRp3441
(dp3442
g61
(dp3443
sg70
g3428
sg63
(lp3444
g56
(g57
g58
NtRp3445
(dp3446
g61
(dp3447
g69
I3
ssg70
g3441
sg63
(lp3448
g1841
asbasbasbag56
(g72
g58
NtRp3449
(dp3450
g61
(dp3451
sg70
g2962
sg63
(lp3452
g56
(g77
g58
NtRp3453
(dp3454
g61
(dp3455
g81
g82
ssg70
g3449
sg63
(lp3456
S'SCRIPT_FILENAME'
p3457
asbag56
(g77
g58
NtRp3458
(dp3459
g61
(dp3460
g88
g89
ssg70
g3449
sg63
(lp3461
S':'
asbag56
(g77
g58
NtRp3462
(dp3463
g61
(dp3464
sg70
g3449
sg63
(lp3465
g56
(g57
g58
NtRp3466
(dp3467
g61
(dp3468
g69
I3
ssg70
g3462
sg63
(lp3469
g1863
asbasbasbag56
(g72
g58
NtRp3470
(dp3471
g61
(dp3472
sg70
g2962
sg63
(lp3473
g56
(g77
g58
NtRp3474
(dp3475
g61
(dp3476
g81
g82
ssg70
g3470
sg63
(lp3477
S'SCRIPT_NAME'
p3478
asbag56
(g77
g58
NtRp3479
(dp3480
g61
(dp3481
g88
g89
ssg70
g3470
sg63
(lp3482
S':'
asbag56
(g77
g58
NtRp3483
(dp3484
g61
(dp3485
sg70
g3470
sg63
(lp3486
g56
(g57
g58
NtRp3487
(dp3488
g61
(dp3489
g69
I3
ssg70
g3483
sg63
(lp3490
S''
asbasbasbag56
(g72
g58
NtRp3491
(dp3492
g61
(dp3493
sg70
g2962
sg63
(lp3494
g56
(g77
g58
NtRp3495
(dp3496
g61
(dp3497
g81
g82
ssg70
g3491
sg63
(lp3498
S'SERVER_ADDR'
p3499
asbag56
(g77
g58
NtRp3500
(dp3501
g61
(dp3502
g88
g89
ssg70
g3491
sg63
(lp3503
S':'
asbag56
(g77
g58
NtRp3504
(dp3505
g61
(dp3506
sg70
g3491
sg63
(lp3507
g56
(g57
g58
NtRp3508
(dp3509
g61
(dp3510
g69
I3
ssg70
g3504
sg63
(lp3511
g1906
asbasbasbag56
(g72
g58
NtRp3512
(dp3513
g61
(dp3514
sg70
g2962
sg63
(lp3515
g56
(g77
g58
NtRp3516
(dp3517
g61
(dp3518
g81
g82
ssg70
g3512
sg63
(lp3519
S'SERVER_ADMIN'
p3520
asbag56
(g77
g58
NtRp3521
(dp3522
g61
(dp3523
g88
g89
ssg70
g3512
sg63
(lp3524
S':'
asbag56
(g77
g58
NtRp3525
(dp3526
g61
(dp3527
sg70
g3512
sg63
(lp3528
g56
(g57
g58
NtRp3529
(dp3530
g61
(dp3531
g69
I3
ssg70
g3525
sg63
(lp3532
g1928
asbasbasbag56
(g72
g58
NtRp3533
(dp3534
g61
(dp3535
sg70
g2962
sg63
(lp3536
g56
(g77
g58
NtRp3537
(dp3538
g61
(dp3539
g81
g82
ssg70
g3533
sg63
(lp3540
S'SERVER_NAME'
p3541
asbag56
(g77
g58
NtRp3542
(dp3543
g61
(dp3544
g88
g89
ssg70
g3533
sg63
(lp3545
S':'
asbag56
(g77
g58
NtRp3546
(dp3547
g61
(dp3548
sg70
g3533
sg63
(lp3549
g56
(g57
g58
NtRp3550
(dp3551
g61
(dp3552
g69
I3
ssg70
g3546
sg63
(lp3553
g1950
asbasbasbag56
(g72
g58
NtRp3554
(dp3555
g61
(dp3556
sg70
g2962
sg63
(lp3557
g56
(g77
g58
NtRp3558
(dp3559
g61
(dp3560
g81
g82
ssg70
g3554
sg63
(lp3561
S'SERVER_PORT'
p3562
asbag56
(g77
g58
NtRp3563
(dp3564
g61
(dp3565
g88
g89
ssg70
g3554
sg63
(lp3566
S':'
asbag56
(g77
g58
NtRp3567
(dp3568
g61
(dp3569
sg70
g3554
sg63
(lp3570
g56
(g57
g58
NtRp3571
(dp3572
g61
(dp3573
g69
I3
ssg70
g3567
sg63
(lp3574
g1972
asbasbasbag56
(g72
g58
NtRp3575
(dp3576
g61
(dp3577
sg70
g2962
sg63
(lp3578
g56
(g77
g58
NtRp3579
(dp3580
g61
(dp3581
g81
g82
ssg70
g3575
sg63
(lp3582
S'SERVER_PROTOCOL'
p3583
asbag56
(g77
g58
NtRp3584
(dp3585
g61
(dp3586
g88
g89
ssg70
g3575
sg63
(lp3587
S':'
asbag56
(g77
g58
NtRp3588
(dp3589
g61
(dp3590
sg70
g3575
sg63
(lp3591
g56
(g57
g58
NtRp3592
(dp3593
g61
(dp3594
g69
I3
ssg70
g3588
sg63
(lp3595
g1994
asbasbasbag56
(g72
g58
NtRp3596
(dp3597
g61
(dp3598
sg70
g2962
sg63
(lp3599
g56
(g77
g58
NtRp3600
(dp3601
g61
(dp3602
g81
g82
ssg70
g3596
sg63
(lp3603
S'SERVER_SIGNATURE'
p3604
asbag56
(g77
g58
NtRp3605
(dp3606
g61
(dp3607
g88
g89
ssg70
g3596
sg63
(lp3608
S':'
asbag56
(g77
g58
NtRp3609
(dp3610
g61
(dp3611
sg70
g3596
sg63
(lp3612
g56
(g57
g58
NtRp3613
(dp3614
g61
(dp3615
g69
I3
ssg70
g3609
sg63
(lp3616
S''
asbasbasbag56
(g72
g58
NtRp3617
(dp3618
g61
(dp3619
sg70
g2962
sg63
(lp3620
g56
(g77
g58
NtRp3621
(dp3622
g61
(dp3623
g81
g82
ssg70
g3617
sg63
(lp3624
S'SERVER_SOFTWARE'
p3625
asbag56
(g77
g58
NtRp3626
(dp3627
g61
(dp3628
g88
g89
ssg70
g3617
sg63
(lp3629
S':'
asbag56
(g77
g58
NtRp3630
(dp3631
g61
(dp3632
sg70
g3617
sg63
(lp3633
g56
(g57
g58
NtRp3634
(dp3635
g61
(dp3636
g69
I3
ssg70
g3630
sg63
(lp3637
g2037
asbasbasbag56
(g72
g58
NtRp3638
(dp3639
g61
(dp3640
sg70
g2962
sg63
(lp3641
g56
(g77
g58
NtRp3642
(dp3643
g61
(dp3644
g81
g82
ssg70
g3638
sg63
(lp3645
S'SystemRoot'
p3646
asbag56
(g77
g58
NtRp3647
(dp3648
g61
(dp3649
g88
g89
ssg70
g3638
sg63
(lp3650
S':'
asbag56
(g77
g58
NtRp3651
(dp3652
g61
(dp3653
sg70
g3638
sg63
(lp3654
g56
(g57
g58
NtRp3655
(dp3656
g61
(dp3657
g69
I3
ssg70
g3651
sg63
(lp3658
g2059
asbasbasbag56
(g72
g58
NtRp3659
(dp3660
g61
(dp3661
sg70
g2962
sg63
(lp3662
g56
(g77
g58
NtRp3663
(dp3664
g61
(dp3665
g81
g82
ssg70
g3659
sg63
(lp3666
S'WINDIR'
p3667
asbag56
(g77
g58
NtRp3668
(dp3669
g61
(dp3670
g88
g89
ssg70
g3659
sg63
(lp3671
S':'
asbag56
(g77
g58
NtRp3672
(dp3673
g61
(dp3674
sg70
g3659
sg63
(lp3675
g56
(g57
g58
NtRp3676
(dp3677
g61
(dp3678
g69
I3
ssg70
g3672
sg63
(lp3679
g2190
asbasbasbag56
(g72
g58
NtRp3680
(dp3681
g61
(dp3682
sg70
g2962
sg63
(lp3683
g56
(g77
g58
NtRp3684
(dp3685
g61
(dp3686
g81
g82
ssg70
g3680
sg63
(lp3687
S'mod_wsgi.application_group'
p3688
asbag56
(g77
g58
NtRp3689
(dp3690
g61
(dp3691
g88
g89
ssg70
g3680
sg63
(lp3692
S':'
asbag56
(g77
g58
NtRp3693
(dp3694
g61
(dp3695
sg70
g3680
sg63
(lp3696
g56
(g57
g58
NtRp3697
(dp3698
g61
(dp3699
g69
I3
ssg70
g3693
sg63
(lp3700
g1490
asbasbasbag56
(g72
g58
NtRp3701
(dp3702
g61
(dp3703
sg70
g2962
sg63
(lp3704
g56
(g77
g58
NtRp3705
(dp3706
g61
(dp3707
g81
g82
ssg70
g3701
sg63
(lp3708
S'mod_wsgi.callable_object'
p3709
asbag56
(g77
g58
NtRp3710
(dp3711
g61
(dp3712
g88
g89
ssg70
g3701
sg63
(lp3713
S':'
asbag56
(g77
g58
NtRp3714
(dp3715
g61
(dp3716
sg70
g3701
sg63
(lp3717
g56
(g57
g58
NtRp3718
(dp3719
g61
(dp3720
g69
I3
ssg70
g3714
sg63
(lp3721
g1512
asbasbasbag56
(g72
g58
NtRp3722
(dp3723
g61
(dp3724
sg70
g2962
sg63
(lp3725
g56
(g77
g58
NtRp3726
(dp3727
g61
(dp3728
g81
g82
ssg70
g3722
sg63
(lp3729
S'mod_wsgi.handler_script'
p3730
asbag56
(g77
g58
NtRp3731
(dp3732
g61
(dp3733
g88
g89
ssg70
g3722
sg63
(lp3734
S':'
asbag56
(g77
g58
NtRp3735
(dp3736
g61
(dp3737
sg70
g3722
sg63
(lp3738
g56
(g57
g58
NtRp3739
(dp3740
g61
(dp3741
g69
I3
ssg70
g3735
sg63
(lp3742
S''
asbasbasbag56
(g72
g58
NtRp3743
(dp3744
g61
(dp3745
sg70
g2962
sg63
(lp3746
g56
(g77
g58
NtRp3747
(dp3748
g61
(dp3749
g81
g82
ssg70
g3743
sg63
(lp3750
S'mod_wsgi.input_chunked'
p3751
asbag56
(g77
g58
NtRp3752
(dp3753
g61
(dp3754
g88
g89
ssg70
g3743
sg63
(lp3755
S':'
asbag56
(g77
g58
NtRp3756
(dp3757
g61
(dp3758
sg70
g3743
sg63
(lp3759
g56
(g57
g58
NtRp3760
(dp3761
g61
(dp3762
g69
I3
ssg70
g3756
sg63
(lp3763
S'0'
asbasbasbag56
(g72
g58
NtRp3764
(dp3765
g61
(dp3766
sg70
g2962
sg63
(lp3767
g56
(g77
g58
NtRp3768
(dp3769
g61
(dp3770
g81
g82
ssg70
g3764
sg63
(lp3771
S'mod_wsgi.process_group'
p3772
asbag56
(g77
g58
NtRp3773
(dp3774
g61
(dp3775
g88
g89
ssg70
g3764
sg63
(lp3776
S':'
asbag56
(g77
g58
NtRp3777
(dp3778
g61
(dp3779
sg70
g3764
sg63
(lp3780
g56
(g57
g58
NtRp3781
(dp3782
g61
(dp3783
g69
I3
ssg70
g3777
sg63
(lp3784
S''
asbasbasbag56
(g72
g58
NtRp3785
(dp3786
g61
(dp3787
sg70
g2962
sg63
(lp3788
g56
(g77
g58
NtRp3789
(dp3790
g61
(dp3791
g81
g82
ssg70
g3785
sg63
(lp3792
S'mod_wsgi.request_handler'
p3793
asbag56
(g77
g58
NtRp3794
(dp3795
g61
(dp3796
g88
g89
ssg70
g3785
sg63
(lp3797
S':'
asbag56
(g77
g58
NtRp3798
(dp3799
g61
(dp3800
sg70
g3785
sg63
(lp3801
g56
(g57
g58
NtRp3802
(dp3803
g61
(dp3804
g69
I3
ssg70
g3798
sg63
(lp3805
g1597
asbasbasbag56
(g72
g58
NtRp3806
(dp3807
g61
(dp3808
sg70
g2962
sg63
(lp3809
g56
(g77
g58
NtRp3810
(dp3811
g61
(dp3812
g81
g82
ssg70
g3806
sg63
(lp3813
S'mod_wsgi.script_reloading'
p3814
asbag56
(g77
g58
NtRp3815
(dp3816
g61
(dp3817
g88
g89
ssg70
g3806
sg63
(lp3818
S':'
asbag56
(g77
g58
NtRp3819
(dp3820
g61
(dp3821
sg70
g3806
sg63
(lp3822
g56
(g57
g58
NtRp3823
(dp3824
g61
(dp3825
g69
I3
ssg70
g3819
sg63
(lp3826
S'1'
asbasbasbag56
(g72
g58
NtRp3827
(dp3828
g61
(dp3829
sg70
g2962
sg63
(lp3830
g56
(g77
g58
NtRp3831
(dp3832
g61
(dp3833
g81
g82
ssg70
g3827
sg63
(lp3834
S'mod_wsgi.version'
p3835
asbag56
(g77
g58
NtRp3836
(dp3837
g61
(dp3838
g88
g89
ssg70
g3827
sg63
(lp3839
S':'
asbag56
(g77
g58
NtRp3840
(dp3841
g61
(dp3842
sg70
g3827
sg63
(lp3843
g56
(g57
g58
NtRp3844
(dp3845
g61
(dp3846
g69
I3
ssg70
g3840
sg63
(lp3847
g56
(g65
g58
NtRp3848
(dp3849
g61
(dp3850
g69
I2
ssg70
Nsg63
(lp3851
g56
(g72
g58
NtRp3852
(dp3853
g61
(dp3854
sg70
g3848
sg63
(lp3855
g56
(g77
g58
NtRp3856
(dp3857
g61
(dp3858
sg70
g3852
sg63
(lp3859
g56
(g57
g58
NtRp3860
(dp3861
g61
(dp3862
g69
I2
ssg70
g3856
sg63
(lp3863
S'3'
asbasbasbag56
(g72
g58
NtRp3864
(dp3865
g61
(dp3866
sg70
g3848
sg63
(lp3867
g56
(g77
g58
NtRp3868
(dp3869
g61
(dp3870
sg70
g3864
sg63
(lp3871
g56
(g57
g58
NtRp3872
(dp3873
g61
(dp3874
g69
I2
ssg70
g3868
sg63
(lp3875
S'3'
asbasbasbasbasbasbasbag56
(g72
g58
NtRp3876
(dp3877
g61
(dp3878
sg70
g2962
sg63
(lp3879
g56
(g77
g58
NtRp3880
(dp3881
g61
(dp3882
g81
g82
ssg70
g3876
sg63
(lp3883
S'wsgi.errors'
p3884
asbag56
(g77
g58
NtRp3885
(dp3886
g61
(dp3887
g88
g89
ssg70
g3876
sg63
(lp3888
S':'
asbag56
(g77
g58
NtRp3889
(dp3890
g61
(dp3891
sg70
g3876
sg63
(lp3892
g56
(g57
g58
NtRp3893
(dp3894
g61
(dp3895
g69
I3
ssg70
g3889
sg63
(lp3896
S'<mod_wsgi.Log object at 0x034D1048>'
p3897
asbasbasbag56
(g72
g58
NtRp3898
(dp3899
g61
(dp3900
sg70
g2962
sg63
(lp3901
g56
(g77
g58
NtRp3902
(dp3903
g61
(dp3904
g81
g82
ssg70
g3898
sg63
(lp3905
S'wsgi.file_wrapper'
p3906
asbag56
(g77
g58
NtRp3907
(dp3908
g61
(dp3909
g88
g89
ssg70
g3898
sg63
(lp3910
S':'
asbag56
(g77
g58
NtRp3911
(dp3912
g61
(dp3913
sg70
g3898
sg63
(lp3914
g56
(g57
g58
NtRp3915
(dp3916
g61
(dp3917
g69
I3
ssg70
g3911
sg63
(lp3918
S'<built-in method file_wrapper of mod_wsgi.Adapter object at 0x035D8218>'
p3919
asbasbasbag56
(g72
g58
NtRp3920
(dp3921
g61
(dp3922
sg70
g2962
sg63
(lp3923
g56
(g77
g58
NtRp3924
(dp3925
g61
(dp3926
g81
g82
ssg70
g3920
sg63
(lp3927
S'wsgi.input'
p3928
asbag56
(g77
g58
NtRp3929
(dp3930
g61
(dp3931
g88
g89
ssg70
g3920
sg63
(lp3932
S':'
asbag56
(g77
g58
NtRp3933
(dp3934
g61
(dp3935
sg70
g3920
sg63
(lp3936
g56
(g57
g58
NtRp3937
(dp3938
g61
(dp3939
g69
I3
ssg70
g3933
sg63
(lp3940
S"<open file '<fdopen>', mode 'w+b' at 0x036D4128>"
p3941
asbasbasbag56
(g72
g58
NtRp3942
(dp3943
g61
(dp3944
sg70
g2962
sg63
(lp3945
g56
(g77
g58
NtRp3946
(dp3947
g61
(dp3948
g81
g82
ssg70
g3942
sg63
(lp3949
S'wsgi.multiprocess'
p3950
asbag56
(g77
g58
NtRp3951
(dp3952
g61
(dp3953
g88
g89
ssg70
g3942
sg63
(lp3954
S':'
asbag56
(g77
g58
NtRp3955
(dp3956
g61
(dp3957
sg70
g3942
sg63
(lp3958
g56
(g57
g58
NtRp3959
(dp3960
g61
(dp3961
g69
I3
ssg70
g3955
sg63
(lp3962
g1140
asbasbasbag56
(g72
g58
NtRp3963
(dp3964
g61
(dp3965
sg70
g2962
sg63
(lp3966
g56
(g77
g58
NtRp3967
(dp3968
g61
(dp3969
g81
g82
ssg70
g3963
sg63
(lp3970
S'wsgi.multithread'
p3971
asbag56
(g77
g58
NtRp3972
(dp3973
g61
(dp3974
g88
g89
ssg70
g3963
sg63
(lp3975
S':'
asbag56
(g77
g58
NtRp3976
(dp3977
g61
(dp3978
sg70
g3963
sg63
(lp3979
g56
(g57
g58
NtRp3980
(dp3981
g61
(dp3982
g69
I3
ssg70
g3976
sg63
(lp3983
g99
asbasbasbag56
(g72
g58
NtRp3984
(dp3985
g61
(dp3986
sg70
g2962
sg63
(lp3987
g56
(g77
g58
NtRp3988
(dp3989
g61
(dp3990
g81
g82
ssg70
g3984
sg63
(lp3991
S'wsgi.run_once'
p3992
asbag56
(g77
g58
NtRp3993
(dp3994
g61
(dp3995
g88
g89
ssg70
g3984
sg63
(lp3996
S':'
asbag56
(g77
g58
NtRp3997
(dp3998
g61
(dp3999
sg70
g3984
sg63
(lp4000
g56
(g57
g58
NtRp4001
(dp4002
g61
(dp4003
g69
I3
ssg70
g3997
sg63
(lp4004
g1140
asbasbasbag56
(g72
g58
NtRp4005
(dp4006
g61
(dp4007
sg70
g2962
sg63
(lp4008
g56
(g77
g58
NtRp4009
(dp4010
g61
(dp4011
g81
g82
ssg70
g4005
sg63
(lp4012
S'wsgi.url_scheme'
p4013
asbag56
(g77
g58
NtRp4014
(dp4015
g61
(dp4016
g88
g89
ssg70
g4005
sg63
(lp4017
S':'
asbag56
(g77
g58
NtRp4018
(dp4019
g61
(dp4020
sg70
g4005
sg63
(lp4021
g56
(g57
g58
NtRp4022
(dp4023
g61
(dp4024
g69
I3
ssg70
g4018
sg63
(lp4025
g2341
asbasbasbag56
(g72
g58
NtRp4026
(dp4027
g61
(dp4028
sg70
g2962
sg63
(lp4029
g56
(g77
g58
NtRp4030
(dp4031
g61
(dp4032
g81
g82
ssg70
g4026
sg63
(lp4033
S'wsgi.version'
p4034
asbag56
(g77
g58
NtRp4035
(dp4036
g61
(dp4037
g88
g89
ssg70
g4026
sg63
(lp4038
S':'
asbag56
(g77
g58
NtRp4039
(dp4040
g61
(dp4041
sg70
g4026
sg63
(lp4042
g56
(g57
g58
NtRp4043
(dp4044
g61
(dp4045
g69
I3
ssg70
g4039
sg63
(lp4046
S'1'
asbasbasbasbasbasbasbasbasbasbasbasbasbsS'frames'
p4047
(lp4048
(dp4049
S'file'
p4050
S'D:\\Workbench\\web2py_src\\gluon\\restricted.py'
p4051
sS'dump'
p4052
(dp4053
S'environment'
p4054
S"{'A': <class 'gluon.html.A'>, 'ALLOW_TOGGLE': 'true', 'B': <class 'gluon.html.B'>, 'BEAUTIFY': <class 'gluon.html.BEAUTIFY'>, 'BODY': <class 'gluon.html.BODY'>, 'BR': <class 'gluon.html.BR'>, 'BUTTON': <class 'gluon.html.BUTTON'>, 'CAT': <class 'gluon.html.CAT'>, 'CENTER': <class 'gluon.html.CENTER'>, 'CHECK_VERSION': True, ...}"
p4055
sS'ccode'
p4056
S'<code object <module> at 0363ED58, file "D:\\Work...plications\\admin\\controllers/default.py", line 3>'
p4057
ssS'lnum'
p4058
I194
sS'lines'
p4059
(dp4060
I192
S'        else:'
p4061
sI193
S'            ccode = compile2(code,layer)'
p4062
sI194
S'        exec ccode in environment'
p4063
sI195
S'    except HTTP:'
p4064
sI196
S'        raise'
p4065
sI197
S'    except Exception, error:'
p4066
sI198
S'        # XXX Show exception in Wing IDE if running in debugger'
p4067
sI189
S'    try:'
p4068
sI190
S'        if type(code) == types.CodeType:'
p4069
sI191
S'            ccode = code'
p4070
ssS'call'
p4071
S"(code='# coding: utf8\\n\\nfrom gluon.admin import *\\nfrom g...\\n\\nresponse._vars=response._caller(check_version)\\n', environment={'A': <class 'gluon.html.A'>, 'ALLOW_TOGGLE': 'true', 'B': <class 'gluon.html.B'>, 'BEAUTIFY': <class 'gluon.html.BEAUTIFY'>, 'BODY': <class 'gluon.html.BODY'>, 'BR': <class 'gluon.html.BR'>, 'BUTTON': <class 'gluon.html.BUTTON'>, 'CAT': <class 'gluon.html.CAT'>, 'CENTER': <class 'gluon.html.CENTER'>, 'CHECK_VERSION': True, ...}, layer=r'D:\\Workbench\\web2py_src\\applications\\admin\\controllers/default.py')"
p4072
sS'func'
p4073
S'restricted'
p4074
sa(dp4075
g4050
S'D:\\Workbench\\web2py_src\\applications\\admin\\controllers\\default.py'
p4076
sg4052
(dp4077
sg4058
I1225
sg4059
(dp4078
I1216
S'    else:'
p4079
sI1217
S'        return dict(form=T("Disabled"))'
p4080
sI1218
S''
sI1219
S'def reload_routes():'
p4081
sI1220
S'    """ Reload routes.py """'
p4082
sI1221
S'    import gluon.rewrite'
p4083
sI1222
S'    gluon.rewrite.load()'
p4084
sI1223
S"    redirect(URL('site'))"
p4085
sI1214
S'            auth.settings.registration_requires_approval = False'
p4086
sI1215
S'        return dict(form=auth())'
p4087
ssg4071
S'()'
p4088
sg4073
S'<module>'
p4089
sa(dp4090
g4050
S'D:\\Workbench\\web2py_src\\gluon\\globals.py'
p4091
sg4052
(dp4092
S'self'
p4093
S'undefined'
p4094
sS'f'
S'<function check_version>'
p4095
ssg4058
I149
sg4059
(dp4096
I144
S'        self.meta = Storage()      # used by web2py_ajax.html'
p4097
sI145
S'        self.menu = []             # used by the default view layout'
p4098
sI146
S'        self.files = []            # used by web2py_ajax.html'
p4099
sI147
S'        self.generic_patterns = [] # patterns to allow generic views'
p4100
sI148
S'        self._vars = None'
p4101
sI149
S'        self._caller = lambda f: f()'
p4102
sI150
S'        self._view_environment = None'
p4103
sI151
S'        self._custom_commit = None'
p4104
sI152
S'        self._custom_rollback = None'
p4105
sI153
S''
ssg4071
S'(f=<function check_version>)'
p4106
sg4073
S'<lambda>'
p4107
sa(dp4108
g4050
S'D:\\Workbench\\web2py_src\\applications\\admin\\controllers\\default.py'
p4109
sg4052
(dp4110
S'global XML'
p4111
S"<class 'gluon.html.XML'>"
p4112
sS'version_number'
p4113
S"(1, 99, 4, datetime.datetime(2011, 12, 14, 14, 46, 14), 'stable')"
p4114
ssg4058
I105
sg4059
(dp4115
I100
S"        return A(T('web2py is up to date'), _href=WEB2PY_URL)"
p4116
sI101
S'    elif platform.system().lower() in (\'windows\',\'win32\',\'win64\') and os.path.exists("web2py.exe"):'
p4117
sI102
S"        return SPAN('You should upgrade to version %s' % version_number)"
p4118
sI103
S'    else:'
p4119
sI104
S"        return sp_button(URL('upgrade_web2py'), T('upgrade now')) \\"
p4120
sI105
S'          + XML(\' <strong class="upgrade_version">%s</strong>\' % version_number)'
p4121
sI106
S''
sI107
S''
sI108
S'def logout():'
p4122
sI109
S'    """ Logout handler """'
p4123
ssg4071
S'()'
p4124
sg4073
S'check_version'
p4125
sasS'pyver'
p4126
S'Python 2.7.2: C:\\Program Files\\Apache Software Foundation\\Apache2.2\\bin\\httpd.exe'
p4127
sS'session'
p4128
g56
(g57
g58
NtRp4129
(dp4130
g61
(dp4131
sg63
(lp4132
g56
(g65
g58
NtRp4133
(dp4134
g61
(dp4135
g69
I5
ssg70
Nsg63
(lp4136
g56
(g72
g58
NtRp4137
(dp4138
g61
(dp4139
sg70
g4133
sg63
(lp4140
g56
(g77
g58
NtRp4141
(dp4142
g61
(dp4143
g81
g82
ssg70
g4137
sg63
(lp4144
S'authorized'
p4145
asbag56
(g77
g58
NtRp4146
(dp4147
g61
(dp4148
g88
g89
ssg70
g4137
sg63
(lp4149
S':'
asbag56
(g77
g58
NtRp4150
(dp4151
g61
(dp4152
sg70
g4137
sg63
(lp4153
g56
(g57
g58
NtRp4154
(dp4155
g61
(dp4156
g69
I5
ssg70
g4150
sg63
(lp4157
g99
asbasbasbag56
(g72
g58
NtRp4158
(dp4159
g61
(dp4160
sg70
g4133
sg63
(lp4161
g56
(g77
g58
NtRp4162
(dp4163
g61
(dp4164
g81
g82
ssg70
g4158
sg63
(lp4165
S'check_version'
p4166
asbag56
(g77
g58
NtRp4167
(dp4168
g61
(dp4169
g88
g89
ssg70
g4158
sg63
(lp4170
S':'
asbag56
(g77
g58
NtRp4171
(dp4172
g61
(dp4173
sg70
g4158
sg63
(lp4174
g56
(g57
g58
NtRp4175
(dp4176
g61
(dp4177
g69
I5
ssg70
g4171
sg63
(lp4178
g1140
asbasbasbag56
(g72
g58
NtRp4179
(dp4180
g61
(dp4181
sg70
g4133
sg63
(lp4182
g56
(g77
g58
NtRp4183
(dp4184
g61
(dp4185
g81
g82
ssg70
g4179
sg63
(lp4186
S'last_time'
p4187
asbag56
(g77
g58
NtRp4188
(dp4189
g61
(dp4190
g88
g89
ssg70
g4179
sg63
(lp4191
S':'
asbag56
(g77
g58
NtRp4192
(dp4193
g61
(dp4194
sg70
g4179
sg63
(lp4195
g56
(g57
g58
NtRp4196
(dp4197
g61
(dp4198
g69
I5
ssg70
g4192
sg63
(lp4199
S'1325570222.676'
p4200
asbasbasbasbasbsS'etype'
p4201
S"<type 'exceptions.TypeError'>"
p4202
sS'date'
p4203
S'Tue Jan 03 13:57:04 2012'
p4204
sS'response'
p4205
g56
(g57
g58
NtRp4206
(dp4207
g61
(dp4208
sg63
(lp4209
g56
(g65
g58
NtRp4210
(dp4211
g61
(dp4212
g69
I5
ssg70
Nsg63
(lp4213
g56
(g72
g58
NtRp4214
(dp4215
g61
(dp4216
sg70
g4210
sg63
(lp4217
g56
(g77
g58
NtRp4218
(dp4219
g61
(dp4220
g81
g82
ssg70
g4214
sg63
(lp4221
g154
asbag56
(g77
g58
NtRp4222
(dp4223
g61
(dp4224
g88
g89
ssg70
g4214
sg63
(lp4225
S':'
asbag56
(g77
g58
NtRp4226
(dp4227
g61
(dp4228
sg70
g4214
sg63
(lp4229
g56
(g57
g58
NtRp4230
(dp4231
g61
(dp4232
g69
I5
ssg70
g4226
sg63
(lp4233
S'<cStringIO.StringO object at 0x03709A40>'
p4234
asbasbasbag56
(g72
g58
NtRp4235
(dp4236
g61
(dp4237
sg70
g4210
sg63
(lp4238
g56
(g77
g58
NtRp4239
(dp4240
g61
(dp4241
g81
g82
ssg70
g4235
sg63
(lp4242
g220
asbag56
(g77
g58
NtRp4243
(dp4244
g61
(dp4245
g88
g89
ssg70
g4235
sg63
(lp4246
S':'
asbag56
(g77
g58
NtRp4247
(dp4248
g61
(dp4249
sg70
g4235
sg63
(lp4250
g56
(g57
g58
NtRp4251
(dp4252
g61
(dp4253
g69
I5
ssg70
g4247
sg63
(lp4254
g56
(g65
g58
NtRp4255
(dp4256
g61
(dp4257
g69
I4
ssg70
Nsg63
(lp4258
g56
(g72
g58
NtRp4259
(dp4260
g61
(dp4261
sg70
g4255
sg63
(lp4262
g56
(g77
g58
NtRp4263
(dp4264
g61
(dp4265
g81
g82
ssg70
g4259
sg63
(lp4266
S'session_id_admin'
p4267
asbag56
(g77
g58
NtRp4268
(dp4269
g61
(dp4270
g88
g89
ssg70
g4259
sg63
(lp4271
S':'
asbag56
(g77
g58
NtRp4272
(dp4273
g61
(dp4274
sg70
g4259
sg63
(lp4275
g56
(g57
g58
NtRp4276
(dp4277
g61
(dp4278
g69
I4
ssg70
g4272
sg63
(lp4279
g56
(g65
g58
NtRp4280
(dp4281
g61
(dp4282
g69
I3
ssg70
Nsg63
(lp4283
g56
(g72
g58
NtRp4284
(dp4285
g61
(dp4286
sg70
g4280
sg63
(lp4287
g56
(g77
g58
NtRp4288
(dp4289
g61
(dp4290
g81
g82
ssg70
g4284
sg63
(lp4291
g270
asbag56
(g77
g58
NtRp4292
(dp4293
g61
(dp4294
g88
g89
ssg70
g4284
sg63
(lp4295
S':'
asbag56
(g77
g58
NtRp4296
(dp4297
g61
(dp4298
sg70
g4284
sg63
(lp4299
g56
(g57
g58
NtRp4300
(dp4301
g61
(dp4302
g69
I3
ssg70
g4296
sg63
(lp4303
S''
asbasbasbag56
(g72
g58
NtRp4304
(dp4305
g61
(dp4306
sg70
g4280
sg63
(lp4307
g56
(g77
g58
NtRp4308
(dp4309
g61
(dp4310
g81
g82
ssg70
g4304
sg63
(lp4311
g291
asbag56
(g77
g58
NtRp4312
(dp4313
g61
(dp4314
g88
g89
ssg70
g4304
sg63
(lp4315
S':'
asbag56
(g77
g58
NtRp4316
(dp4317
g61
(dp4318
sg70
g4304
sg63
(lp4319
g56
(g57
g58
NtRp4320
(dp4321
g61
(dp4322
g69
I3
ssg70
g4316
sg63
(lp4323
S''
asbasbasbag56
(g72
g58
NtRp4324
(dp4325
g61
(dp4326
sg70
g4280
sg63
(lp4327
g56
(g77
g58
NtRp4328
(dp4329
g61
(dp4330
g81
g82
ssg70
g4324
sg63
(lp4331
g312
asbag56
(g77
g58
NtRp4332
(dp4333
g61
(dp4334
g88
g89
ssg70
g4324
sg63
(lp4335
S':'
asbag56
(g77
g58
NtRp4336
(dp4337
g61
(dp4338
sg70
g4324
sg63
(lp4339
g56
(g57
g58
NtRp4340
(dp4341
g61
(dp4342
g69
I3
ssg70
g4336
sg63
(lp4343
S''
asbasbasbag56
(g72
g58
NtRp4344
(dp4345
g61
(dp4346
sg70
g4280
sg63
(lp4347
g56
(g77
g58
NtRp4348
(dp4349
g61
(dp4350
g81
g82
ssg70
g4344
sg63
(lp4351
g333
asbag56
(g77
g58
NtRp4352
(dp4353
g61
(dp4354
g88
g89
ssg70
g4344
sg63
(lp4355
S':'
asbag56
(g77
g58
NtRp4356
(dp4357
g61
(dp4358
sg70
g4344
sg63
(lp4359
g56
(g57
g58
NtRp4360
(dp4361
g61
(dp4362
g69
I3
ssg70
g4356
sg63
(lp4363
S''
asbasbasbag56
(g72
g58
NtRp4364
(dp4365
g61
(dp4366
sg70
g4280
sg63
(lp4367
g56
(g77
g58
NtRp4368
(dp4369
g61
(dp4370
g81
g82
ssg70
g4364
sg63
(lp4371
g354
asbag56
(g77
g58
NtRp4372
(dp4373
g61
(dp4374
g88
g89
ssg70
g4364
sg63
(lp4375
S':'
asbag56
(g77
g58
NtRp4376
(dp4377
g61
(dp4378
sg70
g4364
sg63
(lp4379
g56
(g57
g58
NtRp4380
(dp4381
g61
(dp4382
g69
I3
ssg70
g4376
sg63
(lp4383
S''
asbasbasbag56
(g72
g58
NtRp4384
(dp4385
g61
(dp4386
sg70
g4280
sg63
(lp4387
g56
(g77
g58
NtRp4388
(dp4389
g61
(dp4390
g81
g82
ssg70
g4384
sg63
(lp4391
g375
asbag56
(g77
g58
NtRp4392
(dp4393
g61
(dp4394
g88
g89
ssg70
g4384
sg63
(lp4395
S':'
asbag56
(g77
g58
NtRp4396
(dp4397
g61
(dp4398
sg70
g4384
sg63
(lp4399
g56
(g57
g58
NtRp4400
(dp4401
g61
(dp4402
g69
I3
ssg70
g4396
sg63
(lp4403
S'/'
asbasbasbag56
(g72
g58
NtRp4404
(dp4405
g61
(dp4406
sg70
g4280
sg63
(lp4407
g56
(g77
g58
NtRp4408
(dp4409
g61
(dp4410
g81
g82
ssg70
g4404
sg63
(lp4411
g396
asbag56
(g77
g58
NtRp4412
(dp4413
g61
(dp4414
g88
g89
ssg70
g4404
sg63
(lp4415
S':'
asbag56
(g77
g58
NtRp4416
(dp4417
g61
(dp4418
sg70
g4404
sg63
(lp4419
g56
(g57
g58
NtRp4420
(dp4421
g61
(dp4422
g69
I3
ssg70
g4416
sg63
(lp4423
S''
asbasbasbag56
(g72
g58
NtRp4424
(dp4425
g61
(dp4426
sg70
g4280
sg63
(lp4427
g56
(g77
g58
NtRp4428
(dp4429
g61
(dp4430
g81
g82
ssg70
g4424
sg63
(lp4431
g417
asbag56
(g77
g58
NtRp4432
(dp4433
g61
(dp4434
g88
g89
ssg70
g4424
sg63
(lp4435
S':'
asbag56
(g77
g58
NtRp4436
(dp4437
g61
(dp4438
sg70
g4424
sg63
(lp4439
g56
(g57
g58
NtRp4440
(dp4441
g61
(dp4442
g69
I3
ssg70
g4436
sg63
(lp4443
S''
asbasbasbasbasbasbasbasbasbasbasbag56
(g72
g58
NtRp4444
(dp4445
g61
(dp4446
sg70
g4210
sg63
(lp4447
g56
(g77
g58
NtRp4448
(dp4449
g61
(dp4450
g81
g82
ssg70
g4444
sg63
(lp4451
S'files'
p4452
asbag56
(g77
g58
NtRp4453
(dp4454
g61
(dp4455
g88
g89
ssg70
g4444
sg63
(lp4456
S':'
asbag56
(g77
g58
NtRp4457
(dp4458
g61
(dp4459
sg70
g4444
sg63
(lp4460
g56
(g57
g58
NtRp4461
(dp4462
g61
(dp4463
g69
I5
ssg70
g4457
sg63
(lp4464
g56
(g65
g58
NtRp4465
(dp4466
g61
(dp4467
g69
I4
ssg70
Nsg63
(lp4468
g56
(g72
g58
NtRp4469
(dp4470
g61
(dp4471
sg70
g4465
sg63
(lp4472
g56
(g77
g58
NtRp4473
(dp4474
g61
(dp4475
sg70
g4469
sg63
(lp4476
g56
(g57
g58
NtRp4477
(dp4478
g61
(dp4479
g69
I4
ssg70
g4473
sg63
(lp4480
S'/admin/static/plugin_multiselect/jquery.dimensions.js'
p4481
asbasbasbag56
(g72
g58
NtRp4482
(dp4483
g61
(dp4484
sg70
g4465
sg63
(lp4485
g56
(g77
g58
NtRp4486
(dp4487
g61
(dp4488
sg70
g4482
sg63
(lp4489
g56
(g57
g58
NtRp4490
(dp4491
g61
(dp4492
g69
I4
ssg70
g4486
sg63
(lp4493
S'/admin/static/plugin_multiselect/jquery.multiselect.js'
p4494
asbasbasbag56
(g72
g58
NtRp4495
(dp4496
g61
(dp4497
sg70
g4465
sg63
(lp4498
g56
(g77
g58
NtRp4499
(dp4500
g61
(dp4501
sg70
g4495
sg63
(lp4502
g56
(g57
g58
NtRp4503
(dp4504
g61
(dp4505
g69
I4
ssg70
g4499
sg63
(lp4506
S'/admin/static/plugin_multiselect/jquery.multiselect.css'
p4507
asbasbasbag56
(g72
g58
NtRp4508
(dp4509
g61
(dp4510
sg70
g4465
sg63
(lp4511
g56
(g77
g58
NtRp4512
(dp4513
g61
(dp4514
sg70
g4508
sg63
(lp4515
g56
(g57
g58
NtRp4516
(dp4517
g61
(dp4518
g69
I4
ssg70
g4512
sg63
(lp4519
S'/admin/static/plugin_multiselect/start.js'
p4520
asbasbasbasbasbasbasbag56
(g72
g58
NtRp4521
(dp4522
g61
(dp4523
sg70
g4210
sg63
(lp4524
g56
(g77
g58
NtRp4525
(dp4526
g61
(dp4527
g81
g82
ssg70
g4521
sg63
(lp4528
S'flash'
p4529
asbag56
(g77
g58
NtRp4530
(dp4531
g61
(dp4532
g88
g89
ssg70
g4521
sg63
(lp4533
S':'
asbag56
(g77
g58
NtRp4534
(dp4535
g61
(dp4536
sg70
g4521
sg63
(lp4537
g56
(g57
g58
NtRp4538
(dp4539
g61
(dp4540
g69
I5
ssg70
g4534
sg63
(lp4541
S''
asbasbasbag56
(g72
g58
NtRp4542
(dp4543
g61
(dp4544
sg70
g4210
sg63
(lp4545
g56
(g77
g58
NtRp4546
(dp4547
g61
(dp4548
g81
g82
ssg70
g4542
sg63
(lp4549
S'generic_patterns'
p4550
asbag56
(g77
g58
NtRp4551
(dp4552
g61
(dp4553
g88
g89
ssg70
g4542
sg63
(lp4554
S':'
asbag56
(g77
g58
NtRp4555
(dp4556
g61
(dp4557
sg70
g4542
sg63
(lp4558
g56
(g57
g58
NtRp4559
(dp4560
g61
(dp4561
g69
I5
ssg70
g4555
sg63
(lp4562
g56
(g65
g58
NtRp4563
(dp4564
g61
(dp4565
g69
I4
ssg70
Nsg63
(lp4566
sbasbasbasbag56
(g72
g58
NtRp4567
(dp4568
g61
(dp4569
sg70
g4210
sg63
(lp4570
g56
(g77
g58
NtRp4571
(dp4572
g61
(dp4573
g81
g82
ssg70
g4567
sg63
(lp4574
S'headers'
p4575
asbag56
(g77
g58
NtRp4576
(dp4577
g61
(dp4578
g88
g89
ssg70
g4567
sg63
(lp4579
S':'
asbag56
(g77
g58
NtRp4580
(dp4581
g61
(dp4582
sg70
g4567
sg63
(lp4583
g56
(g57
g58
NtRp4584
(dp4585
g61
(dp4586
g69
I5
ssg70
g4580
sg63
(lp4587
g56
(g65
g58
NtRp4588
(dp4589
g61
(dp4590
g69
I4
ssg70
Nsg63
(lp4591
g56
(g72
g58
NtRp4592
(dp4593
g61
(dp4594
sg70
g4588
sg63
(lp4595
g56
(g77
g58
NtRp4596
(dp4597
g61
(dp4598
g81
g82
ssg70
g4592
sg63
(lp4599
S'Cache-Control'
p4600
asbag56
(g77
g58
NtRp4601
(dp4602
g61
(dp4603
g88
g89
ssg70
g4592
sg63
(lp4604
S':'
asbag56
(g77
g58
NtRp4605
(dp4606
g61
(dp4607
sg70
g4592
sg63
(lp4608
g56
(g57
g58
NtRp4609
(dp4610
g61
(dp4611
g69
I4
ssg70
g4605
sg63
(lp4612
S'no-store, no-cache, must-revalidate, post-check=0, pre-check=0'
p4613
asbasbasbag56
(g72
g58
NtRp4614
(dp4615
g61
(dp4616
sg70
g4588
sg63
(lp4617
g56
(g77
g58
NtRp4618
(dp4619
g61
(dp4620
g81
g82
ssg70
g4614
sg63
(lp4621
S'Content-Type'
p4622
asbag56
(g77
g58
NtRp4623
(dp4624
g61
(dp4625
g88
g89
ssg70
g4614
sg63
(lp4626
S':'
asbag56
(g77
g58
NtRp4627
(dp4628
g61
(dp4629
sg70
g4614
sg63
(lp4630
g56
(g57
g58
NtRp4631
(dp4632
g61
(dp4633
g69
I4
ssg70
g4627
sg63
(lp4634
S'text/html; charset=utf-8'
p4635
asbasbasbag56
(g72
g58
NtRp4636
(dp4637
g61
(dp4638
sg70
g4588
sg63
(lp4639
g56
(g77
g58
NtRp4640
(dp4641
g61
(dp4642
g81
g82
ssg70
g4636
sg63
(lp4643
S'Expires'
p4644
asbag56
(g77
g58
NtRp4645
(dp4646
g61
(dp4647
g88
g89
ssg70
g4636
sg63
(lp4648
S':'
asbag56
(g77
g58
NtRp4649
(dp4650
g61
(dp4651
sg70
g4636
sg63
(lp4652
g56
(g57
g58
NtRp4653
(dp4654
g61
(dp4655
g69
I4
ssg70
g4649
sg63
(lp4656
S'Tue, 03 Jan 2012 05:57:02 GMT'
p4657
asbasbasbag56
(g72
g58
NtRp4658
(dp4659
g61
(dp4660
sg70
g4588
sg63
(lp4661
g56
(g77
g58
NtRp4662
(dp4663
g61
(dp4664
g81
g82
ssg70
g4658
sg63
(lp4665
S'Pragma'
p4666
asbag56
(g77
g58
NtRp4667
(dp4668
g61
(dp4669
g88
g89
ssg70
g4658
sg63
(lp4670
S':'
asbag56
(g77
g58
NtRp4671
(dp4672
g61
(dp4673
sg70
g4658
sg63
(lp4674
g56
(g57
g58
NtRp4675
(dp4676
g61
(dp4677
g69
I4
ssg70
g4671
sg63
(lp4678
S'no-cache'
p4679
asbasbasbag56
(g72
g58
NtRp4680
(dp4681
g61
(dp4682
sg70
g4588
sg63
(lp4683
g56
(g77
g58
NtRp4684
(dp4685
g61
(dp4686
g81
g82
ssg70
g4680
sg63
(lp4687
S'X-Powered-By'
p4688
asbag56
(g77
g58
NtRp4689
(dp4690
g61
(dp4691
g88
g89
ssg70
g4680
sg63
(lp4692
S':'
asbag56
(g77
g58
NtRp4693
(dp4694
g61
(dp4695
sg70
g4680
sg63
(lp4696
g56
(g57
g58
NtRp4697
(dp4698
g61
(dp4699
g69
I4
ssg70
g4693
sg63
(lp4700
S'web2py'
p4701
asbasbasbasbasbasbasbag56
(g72
g58
NtRp4702
(dp4703
g61
(dp4704
sg70
g4210
sg63
(lp4705
g56
(g77
g58
NtRp4706
(dp4707
g61
(dp4708
g81
g82
ssg70
g4702
sg63
(lp4709
S'menu'
p4710
asbag56
(g77
g58
NtRp4711
(dp4712
g61
(dp4713
g88
g89
ssg70
g4702
sg63
(lp4714
S':'
asbag56
(g77
g58
NtRp4715
(dp4716
g61
(dp4717
sg70
g4702
sg63
(lp4718
g56
(g57
g58
NtRp4719
(dp4720
g61
(dp4721
g69
I5
ssg70
g4715
sg63
(lp4722
g56
(g65
g58
NtRp4723
(dp4724
g61
(dp4725
g69
I4
ssg70
Nsg63
(lp4726
g56
(g72
g58
NtRp4727
(dp4728
g61
(dp4729
sg70
g4723
sg63
(lp4730
g56
(g77
g58
NtRp4731
(dp4732
g61
(dp4733
sg70
g4727
sg63
(lp4734
g56
(g57
g58
NtRp4735
(dp4736
g61
(dp4737
g69
I4
ssg70
g4731
sg63
(lp4738
g56
(g65
g58
NtRp4739
(dp4740
g61
(dp4741
g69
I3
ssg70
Nsg63
(lp4742
g56
(g72
g58
NtRp4743
(dp4744
g61
(dp4745
sg70
g4739
sg63
(lp4746
g56
(g77
g58
NtRp4747
(dp4748
g61
(dp4749
sg70
g4743
sg63
(lp4750
g56
(g57
g58
NtRp4751
(dp4752
g61
(dp4753
g69
I3
ssg70
g4747
sg63
(lp4754
cgluon.languages
lazyT_unpickle
p4755
(S's\x06\x00\x00\x00\xe6\x80\xbb\xe7\xab\x99'
tRp4756
asbasbasbag56
(g72
g58
NtRp4757
(dp4758
g61
(dp4759
sg70
g4739
sg63
(lp4760
g56
(g77
g58
NtRp4761
(dp4762
g61
(dp4763
sg70
g4757
sg63
(lp4764
g56
(g57
g58
NtRp4765
(dp4766
g61
(dp4767
g69
I3
ssg70
g4761
sg63
(lp4768
g1140
asbasbasbag56
(g72
g58
NtRp4769
(dp4770
g61
(dp4771
sg70
g4739
sg63
(lp4772
g56
(g77
g58
NtRp4773
(dp4774
g61
(dp4775
sg70
g4769
sg63
(lp4776
g56
(g57
g58
NtRp4777
(dp4778
g61
(dp4779
g69
I3
ssg70
g4773
sg63
(lp4780
S'/admin/default/site'
p4781
asbasbasbasbasbasbasbag56
(g72
g58
NtRp4782
(dp4783
g61
(dp4784
sg70
g4723
sg63
(lp4785
g56
(g77
g58
NtRp4786
(dp4787
g61
(dp4788
sg70
g4782
sg63
(lp4789
g56
(g57
g58
NtRp4790
(dp4791
g61
(dp4792
g69
I4
ssg70
g4786
sg63
(lp4793
g56
(g65
g58
NtRp4794
(dp4795
g61
(dp4796
g69
I3
ssg70
Nsg63
(lp4797
g56
(g72
g58
NtRp4798
(dp4799
g61
(dp4800
sg70
g4794
sg63
(lp4801
g56
(g77
g58
NtRp4802
(dp4803
g61
(dp4804
sg70
g4798
sg63
(lp4805
g56
(g57
g58
NtRp4806
(dp4807
g61
(dp4808
g69
I3
ssg70
g4802
sg63
(lp4809
g4755
(S's\x06\x00\x00\x00\xe6\xb3\xa8\xe9\x94\x80'
tRp4810
asbasbasbag56
(g72
g58
NtRp4811
(dp4812
g61
(dp4813
sg70
g4794
sg63
(lp4814
g56
(g77
g58
NtRp4815
(dp4816
g61
(dp4817
sg70
g4811
sg63
(lp4818
g56
(g57
g58
NtRp4819
(dp4820
g61
(dp4821
g69
I3
ssg70
g4815
sg63
(lp4822
g1140
asbasbasbag56
(g72
g58
NtRp4823
(dp4824
g61
(dp4825
sg70
g4794
sg63
(lp4826
g56
(g77
g58
NtRp4827
(dp4828
g61
(dp4829
sg70
g4823
sg63
(lp4830
g56
(g57
g58
NtRp4831
(dp4832
g61
(dp4833
g69
I3
ssg70
g4827
sg63
(lp4834
S'/admin/default/logout'
p4835
asbasbasbasbasbasbasbag56
(g72
g58
NtRp4836
(dp4837
g61
(dp4838
sg70
g4723
sg63
(lp4839
g56
(g77
g58
NtRp4840
(dp4841
g61
(dp4842
sg70
g4836
sg63
(lp4843
g56
(g57
g58
NtRp4844
(dp4845
g61
(dp4846
g69
I4
ssg70
g4840
sg63
(lp4847
g56
(g65
g58
NtRp4848
(dp4849
g61
(dp4850
g69
I3
ssg70
Nsg63
(lp4851
g56
(g72
g58
NtRp4852
(dp4853
g61
(dp4854
sg70
g4848
sg63
(lp4855
g56
(g77
g58
NtRp4856
(dp4857
g61
(dp4858
sg70
g4852
sg63
(lp4859
g56
(g57
g58
NtRp4860
(dp4861
g61
(dp4862
g69
I3
ssg70
g4856
sg63
(lp4863
g4755
(S's\x06\x00\x00\x00\xe5\xb8\xae\xe5\x8a\xa9'
tRp4864
asbasbasbag56
(g72
g58
NtRp4865
(dp4866
g61
(dp4867
sg70
g4848
sg63
(lp4868
g56
(g77
g58
NtRp4869
(dp4870
g61
(dp4871
sg70
g4865
sg63
(lp4872
g56
(g57
g58
NtRp4873
(dp4874
g61
(dp4875
g69
I3
ssg70
g4869
sg63
(lp4876
g1140
asbasbasbag56
(g72
g58
NtRp4877
(dp4878
g61
(dp4879
sg70
g4848
sg63
(lp4880
g56
(g77
g58
NtRp4881
(dp4882
g61
(dp4883
sg70
g4877
sg63
(lp4884
g56
(g57
g58
NtRp4885
(dp4886
g61
(dp4887
g69
I3
ssg70
g4881
sg63
(lp4888
S'/examples/default/index'
p4889
asbasbasbasbasbasbasbasbasbasbasbag56
(g72
g58
NtRp4890
(dp4891
g61
(dp4892
sg70
g4210
sg63
(lp4893
g56
(g77
g58
NtRp4894
(dp4895
g61
(dp4896
g81
g82
ssg70
g4890
sg63
(lp4897
S'meta'
p4898
asbag56
(g77
g58
NtRp4899
(dp4900
g61
(dp4901
g88
g89
ssg70
g4890
sg63
(lp4902
S':'
asbag56
(g77
g58
NtRp4903
(dp4904
g61
(dp4905
sg70
g4890
sg63
(lp4906
g56
(g57
g58
NtRp4907
(dp4908
g61
(dp4909
g69
I5
ssg70
g4903
sg63
(lp4910
g56
(g65
g58
NtRp4911
(dp4912
g61
(dp4913
g69
I4
ssg70
Nsg63
(lp4914
sbasbasbasbag56
(g72
g58
NtRp4915
(dp4916
g61
(dp4917
sg70
g4210
sg63
(lp4918
g56
(g77
g58
NtRp4919
(dp4920
g61
(dp4921
g81
g82
ssg70
g4915
sg63
(lp4922
S'postprocessing'
p4923
asbag56
(g77
g58
NtRp4924
(dp4925
g61
(dp4926
g88
g89
ssg70
g4915
sg63
(lp4927
S':'
asbag56
(g77
g58
NtRp4928
(dp4929
g61
(dp4930
sg70
g4915
sg63
(lp4931
g56
(g57
g58
NtRp4932
(dp4933
g61
(dp4934
g69
I5
ssg70
g4928
sg63
(lp4935
g56
(g65
g58
NtRp4936
(dp4937
g61
(dp4938
g69
I4
ssg70
Nsg63
(lp4939
sbasbasbasbag56
(g72
g58
NtRp4940
(dp4941
g61
(dp4942
sg70
g4210
sg63
(lp4943
g56
(g77
g58
NtRp4944
(dp4945
g61
(dp4946
g81
g82
ssg70
g4940
sg63
(lp4947
S'session_file'
p4948
asbag56
(g77
g58
NtRp4949
(dp4950
g61
(dp4951
g88
g89
ssg70
g4940
sg63
(lp4952
S':'
asbag56
(g77
g58
NtRp4953
(dp4954
g61
(dp4955
sg70
g4940
sg63
(lp4956
g56
(g57
g58
NtRp4957
(dp4958
g61
(dp4959
g69
I5
ssg70
g4953
sg63
(lp4960
S"<open file 'D:\\Workbench\\web2py_src\\applications\\admin\\sessions\\127.0.0.1-afefa9db-4bf4-47a5-970c-a24d6228b14c', mode 'rb+' at 0x036D45F8>"
p4961
asbasbasbag56
(g72
g58
NtRp4962
(dp4963
g61
(dp4964
sg70
g4210
sg63
(lp4965
g56
(g77
g58
NtRp4966
(dp4967
g61
(dp4968
g81
g82
ssg70
g4962
sg63
(lp4969
S'session_filename'
p4970
asbag56
(g77
g58
NtRp4971
(dp4972
g61
(dp4973
g88
g89
ssg70
g4962
sg63
(lp4974
S':'
asbag56
(g77
g58
NtRp4975
(dp4976
g61
(dp4977
sg70
g4962
sg63
(lp4978
g56
(g57
g58
NtRp4979
(dp4980
g61
(dp4981
g69
I5
ssg70
g4975
sg63
(lp4982
S'D:\\Workbench\\web2py_src\\applications\\admin\\sessions\\127.0.0.1-afefa9db-4bf4-47a5-970c-a24d6228b14c'
p4983
asbasbasbag56
(g72
g58
NtRp4984
(dp4985
g61
(dp4986
sg70
g4210
sg63
(lp4987
g56
(g77
g58
NtRp4988
(dp4989
g61
(dp4990
g81
g82
ssg70
g4984
sg63
(lp4991
S'session_id'
p4992
asbag56
(g77
g58
NtRp4993
(dp4994
g61
(dp4995
g88
g89
ssg70
g4984
sg63
(lp4996
S':'
asbag56
(g77
g58
NtRp4997
(dp4998
g61
(dp4999
sg70
g4984
sg63
(lp5000
g56
(g57
g58
NtRp5001
(dp5002
g61
(dp5003
g69
I5
ssg70
g4997
sg63
(lp5004
S'127.0.0.1-afefa9db-4bf4-47a5-970c-a24d6228b14c'
p5005
asbasbasbag56
(g72
g58
NtRp5006
(dp5007
g61
(dp5008
sg70
g4210
sg63
(lp5009
g56
(g77
g58
NtRp5010
(dp5011
g61
(dp5012
g81
g82
ssg70
g5006
sg63
(lp5013
S'session_id_name'
p5014
asbag56
(g77
g58
NtRp5015
(dp5016
g61
(dp5017
g88
g89
ssg70
g5006
sg63
(lp5018
S':'
asbag56
(g77
g58
NtRp5019
(dp5020
g61
(dp5021
sg70
g5006
sg63
(lp5022
g56
(g57
g58
NtRp5023
(dp5024
g61
(dp5025
g69
I5
ssg70
g5019
sg63
(lp5026
g4267
asbasbasbag56
(g72
g58
NtRp5027
(dp5028
g61
(dp5029
sg70
g4210
sg63
(lp5030
g56
(g77
g58
NtRp5031
(dp5032
g61
(dp5033
g81
g82
ssg70
g5027
sg63
(lp5034
S'session_locked'
p5035
asbag56
(g77
g58
NtRp5036
(dp5037
g61
(dp5038
g88
g89
ssg70
g5027
sg63
(lp5039
S':'
asbag56
(g77
g58
NtRp5040
(dp5041
g61
(dp5042
sg70
g5027
sg63
(lp5043
g56
(g57
g58
NtRp5044
(dp5045
g61
(dp5046
g69
I5
ssg70
g5040
sg63
(lp5047
g1140
asbasbasbag56
(g72
g58
NtRp5048
(dp5049
g61
(dp5050
sg70
g4210
sg63
(lp5051
g56
(g77
g58
NtRp5052
(dp5053
g61
(dp5054
g81
g82
ssg70
g5048
sg63
(lp5055
S'session_new'
p5056
asbag56
(g77
g58
NtRp5057
(dp5058
g61
(dp5059
g88
g89
ssg70
g5048
sg63
(lp5060
S':'
asbag56
(g77
g58
NtRp5061
(dp5062
g61
(dp5063
sg70
g5048
sg63
(lp5064
g56
(g57
g58
NtRp5065
(dp5066
g61
(dp5067
g69
I5
ssg70
g5061
sg63
(lp5068
g1140
asbasbasbag56
(g72
g58
NtRp5069
(dp5070
g61
(dp5071
sg70
g4210
sg63
(lp5072
g56
(g77
g58
NtRp5073
(dp5074
g61
(dp5075
g81
g82
ssg70
g5069
sg63
(lp5076
S'status'
p5077
asbag56
(g77
g58
NtRp5078
(dp5079
g61
(dp5080
g88
g89
ssg70
g5069
sg63
(lp5081
S':'
asbag56
(g77
g58
NtRp5082
(dp5083
g61
(dp5084
sg70
g5069
sg63
(lp5085
g56
(g57
g58
NtRp5086
(dp5087
g61
(dp5088
g69
I5
ssg70
g5082
sg63
(lp5089
S'200'
p5090
asbasbasbag56
(g72
g58
NtRp5091
(dp5092
g61
(dp5093
sg70
g4210
sg63
(lp5094
g56
(g77
g58
NtRp5095
(dp5096
g61
(dp5097
g81
g82
ssg70
g5091
sg63
(lp5098
S'subtitle'
p5099
asbag56
(g77
g58
NtRp5100
(dp5101
g61
(dp5102
g88
g89
ssg70
g5091
sg63
(lp5103
S':'
asbag56
(g77
g58
NtRp5104
(dp5105
g61
(dp5106
sg70
g5091
sg63
(lp5107
g56
(g57
g58
NtRp5108
(dp5109
g61
(dp5110
g69
I5
ssg70
g5104
sg63
(lp5111
S'admin'
p5112
asbasbasbag56
(g72
g58
NtRp5113
(dp5114
g61
(dp5115
sg70
g4210
sg63
(lp5116
g56
(g77
g58
NtRp5117
(dp5118
g61
(dp5119
g81
g82
ssg70
g5113
sg63
(lp5120
S'title'
p5121
asbag56
(g77
g58
NtRp5122
(dp5123
g61
(dp5124
g88
g89
ssg70
g5113
sg63
(lp5125
S':'
asbag56
(g77
g58
NtRp5126
(dp5127
g61
(dp5128
sg70
g5113
sg63
(lp5129
g56
(g57
g58
NtRp5130
(dp5131
g61
(dp5132
g69
I5
ssg70
g5126
sg63
(lp5133
S'check_version '
p5134
asbasbasbag56
(g72
g58
NtRp5135
(dp5136
g61
(dp5137
sg70
g4210
sg63
(lp5138
g56
(g77
g58
NtRp5139
(dp5140
g61
(dp5141
g81
g82
ssg70
g5135
sg63
(lp5142
g2877
asbag56
(g77
g58
NtRp5143
(dp5144
g61
(dp5145
g88
g89
ssg70
g5135
sg63
(lp5146
S':'
asbag56
(g77
g58
NtRp5147
(dp5148
g61
(dp5149
sg70
g5135
sg63
(lp5150
g56
(g57
g58
NtRp5151
(dp5152
g61
(dp5153
g69
I5
ssg70
g5147
sg63
(lp5154
g2890
asbasbasbag56
(g72
g58
NtRp5155
(dp5156
g61
(dp5157
sg70
g4210
sg63
(lp5158
g56
(g77
g58
NtRp5159
(dp5160
g61
(dp5161
g81
g82
ssg70
g5155
sg63
(lp5162
S'view'
p5163
asbag56
(g77
g58
NtRp5164
(dp5165
g61
(dp5166
g88
g89
ssg70
g5155
sg63
(lp5167
S':'
asbag56
(g77
g58
NtRp5168
(dp5169
g61
(dp5170
sg70
g5155
sg63
(lp5171
g56
(g57
g58
NtRp5172
(dp5173
g61
(dp5174
g69
I5
ssg70
g5168
sg63
(lp5175
S'default/check_version.html'
p5176
asbasbasbasbasbsS'locals'
p5177
(dp5178
S'version_number'
p5179
S"(1, 99, 4, datetime.datetime(2011, 12, 14, 14, 46, 14), 'stable')"
p5180
sS'new_version'
p5181
g99
sssS'traceback'
p5182
S'Traceback (most recent call last):\n  File "D:\\Workbench\\web2py_src\\gluon\\restricted.py", line 194, in restricted\n    exec ccode in environment\n  File "D:\\Workbench\\web2py_src\\applications\\admin\\controllers/default.py", line 1225, in <module>\n  File "D:\\Workbench\\web2py_src\\gluon\\globals.py", line 149, in <lambda>\n    self._caller = lambda f: f()\n  File "D:\\Workbench\\web2py_src\\applications\\admin\\controllers/default.py", line 105, in check_version\n    + XML(\' <strong class="upgrade_version">%s</strong>\' % version_number)\nTypeError: not all arguments converted during string formatting\n'
p5183
s.