(dp1
S'output'
p2
S''
sS'layer'
p3
S'D:\\Workbench\\web2py_src\\applications\\admin\\controllers/default.py'
p4
sS'code'
p5
S'# coding: utf8\n\nfrom gluon.admin import *\nfrom gluon.fileutils import abspath, read_file, write_file\nfrom glob import glob\nimport shutil\nimport platform\n\nif DEMO_MODE and request.function in [\'change_password\',\'pack\',\'pack_plugin\',\'upgrade_web2py\',\'uninstall\',\'cleanup\',\'compile_app\',\'remove_compiled_app\',\'delete\',\'delete_plugin\',\'create_file\',\'upload_file\',\'update_languages\',\'reload_routes\']:\n    session.flash = T(\'disabled in demo mode\')\n    redirect(URL(\'site\'))\n\nif not is_manager() and request.function in [\'change_password\',\'upgrade_web2py\']:\n    session.flash = T(\'disabled in multi user mode\')\n    redirect(URL(\'site\'))\n\nif FILTER_APPS and request.args(0) and not request.args(0) in FILTER_APPS:\n    session.flash = T(\'disabled in demo mode\')\n    redirect(URL(\'site\'))\n\ndef safe_open(a,b):\n    if DEMO_MODE and \'w\' in b:\n        class tmp:\n            def write(self,data): pass\n        return tmp()\n    return open(a,b)\n\ndef safe_read(a, b=\'r\'):\n    safe_file = safe_open(a, b)\n    try:\n        return safe_file.read()\n    finally:\n        safe_file.close()\n\ndef safe_write(a, value, b=\'w\'):\n    safe_file = safe_open(a, b)\n    try:\n        safe_file.write(value)\n    finally:\n        safe_file.close()\n\ndef get_app(name=None):\n    app = name or request.args(0)\n    if app and (not MULTI_USER_MODE or db(db.app.name==app)(db.app.owner==auth.user.id).count()):\n        return app\n    session.flash = \'App does not exist or your are not authorized\'\n    redirect(URL(\'site\'))\n\ndef index():\n    """ Index handler """\n\n    send = request.vars.send\n    if DEMO_MODE:\n        session.authorized = True\n        session.last_time = t0\n    if not send:\n        send = URL(\'site\')\n    if session.authorized:\n        redirect(send)\n    elif request.vars.password:\n        if verify_password(request.vars.password):\n            session.authorized = True\n            login_record(True)\n\n            if CHECK_VERSION:\n                session.check_version = True\n            else:\n                session.check_version = False\n\n            session.last_time = t0\n            if isinstance(send, list):  # ## why does this happen?\n                send = str(send[0])\n\n            redirect(send)\n        else:\n            times_denied = login_record(False)\n            if times_denied >= allowed_number_of_attempts:\n                response.flash = \\\n                    T(\'admin disabled because too many invalid login attempts\')\n            elif times_denied == allowed_number_of_attempts - 1:\n                response.flash = \\\n                    T(\'You have one more login attempt before you are locked out\')\n            else:\n                response.flash = T(\'invalid password.\')\n    return dict(send=send)\n\n\ndef check_version():\n    """ Checks if web2py is up to date """\n\n    session.forget()\n    session._unlock(response)\n\n    new_version, version_number = check_new_version(request.env.web2py_version,\n                                    WEB2PY_VERSION_URL)\n\n    if new_version == -1:\n        return A(T(\'Unable to check for upgrades\'), _href=WEB2PY_URL)\n    elif new_version != True:\n        return A(T(\'web2py is up to date\'), _href=WEB2PY_URL)\n    elif platform.system().lower() in (\'windows\',\'win32\',\'win64\') and os.path.exists("web2py.exe"):\n        return SPAN(\'You should upgrade to version %s\' % version_number)\n    else:\n        return sp_button(URL(\'upgrade_web2py\'), T(\'upgrade now\')) \\\n          + XML(\' <strong class="upgrade_version">%s</strong>\' % version_number)\n\n\ndef logout():\n    """ Logout handler """\n    session.authorized = None\n    if MULTI_USER_MODE:\n        redirect(URL(\'user/logout\'))\n    redirect(URL(\'index\'))\n\n\ndef change_password():\n\n    if session.pam_user:\n        session.flash = T(\'PAM authenticated user, cannot change password here\')\n        redirect(URL(\'site\'))\n    form=SQLFORM.factory(Field(\'current_admin_password\',\'password\'),\n                         Field(\'new_admin_password\',\'password\',requires=IS_STRONG()),\n                         Field(\'new_admin_password_again\',\'password\'))\n    if form.accepts(request.vars):\n        if not verify_password(request.vars.current_admin_password):\n            form.errors.current_admin_password = T(\'invalid password\')\n        elif form.vars.new_admin_password != form.vars.new_admin_password_again:\n            form.errors.new_admin_password_again = T(\'no match\')\n        else:\n            path = abspath(\'parameters_%s.py\' % request.env.server_port)\n            safe_write(path, \'password="%s"\' % CRYPT()(request.vars.new_admin_password)[0])\n            session.flash = T(\'password changed\')\n            redirect(URL(\'site\'))\n    return dict(form=form)\n\ndef site():\n    """ Site handler """\n\n    myversion = request.env.web2py_version\n\n    # Shortcut to make the elif statements more legible\n    file_or_appurl = \'file\' in request.vars or \'appurl\' in request.vars\n\n    if DEMO_MODE:\n        pass\n\n    elif request.vars.filename and not \'file\' in request.vars:\n        # create a new application\n        appname = cleanpath(request.vars.filename).replace(\'.\', \'_\')\n        if app_create(appname, request):\n            if MULTI_USER_MODE:\n                db.app.insert(name=appname,owner=auth.user.id)\n            session.flash = T(\'new application "%s" created\', appname)\n            redirect(URL(\'design\',args=appname))\n        else:\n            session.flash = \\\n                T(\'unable to create application "%s" (it may exist already)\', request.vars.filename)\n        redirect(URL(r=request))\n\n    elif file_or_appurl and not request.vars.filename:\n        # can\'t do anything without an app name\n        msg = \'you must specify a name for the uploaded application\'\n        response.flash = T(msg)\n\n    elif file_or_appurl and request.vars.filename:\n        # fetch an application via URL or file upload\n        f = None\n        if request.vars.appurl is not \'\':\n            try:\n                f = urllib.urlopen(request.vars.appurl)\n            except Exception, e:\n                session.flash = DIV(T(\'Unable to download app because:\'),PRE(str(e)))\n                redirect(URL(r=request))\n            fname = request.vars.appurl\n        elif request.vars.file is not \'\':\n            f = request.vars.file.file\n            fname = request.vars.file.filename\n\n        if f:\n            appname = cleanpath(request.vars.filename).replace(\'.\', \'_\')\n            installed = app_install(appname, f, request, fname,\n                                    overwrite=request.vars.overwrite_check)\n        if f and installed:\n            msg = \'application %(appname)s installed with md5sum: %(digest)s\'\n            session.flash = T(msg, dict(appname=appname,\n                                        digest=md5_hash(installed)))\n        elif f and request.vars.overwrite_check:\n            msg = \'unable to install application "%(appname)s"\'\n            session.flash = T(msg, dict(appname=request.vars.filename))\n\n        else:\n            msg = \'unable to install application "%(appname)s"\'\n            session.flash = T(msg, dict(appname=request.vars.filename))\n\n        redirect(URL(r=request))\n\n    regex = re.compile(\'^\\w+$\')\n\n    if is_manager():\n        apps = [f for f in os.listdir(apath(r=request)) if regex.match(f)]\n    else:\n        apps = [f.name for f in db(db.app.owner==auth.user_id).select()]\n\n    if FILTER_APPS:\n        apps = [f for f in apps if f in FILTER_APPS]\n\n    apps = sorted(apps,lambda a,b:cmp(a.upper(),b.upper()))\n\n    return dict(app=None, apps=apps, myversion=myversion)\n\n\ndef pack():\n    app = get_app()\n\n    if len(request.args) == 1:\n        fname = \'web2py.app.%s.w2p\' % app\n        filename = app_pack(app, request)\n    else:\n        fname = \'web2py.app.%s.compiled.w2p\' % app\n        filename = app_pack_compiled(app, request)\n\n    if filename:\n        response.headers[\'Content-Type\'] = \'application/w2p\'\n        disposition = \'attachment; filename=%s\' % fname\n        response.headers[\'Content-Disposition\'] = disposition\n        return safe_read(filename, \'rb\')\n    else:\n        session.flash = T(\'internal error\')\n        redirect(URL(\'site\'))\n\ndef pack_plugin():\n    app = get_app()\n    if len(request.args) == 2:\n        fname = \'web2py.plugin.%s.w2p\' % request.args[1]\n        filename = plugin_pack(app, request.args[1], request)\n    if filename:\n        response.headers[\'Content-Type\'] = \'application/w2p\'\n        disposition = \'attachment; filename=%s\' % fname\n        response.headers[\'Content-Disposition\'] = disposition\n        return safe_read(filename, \'rb\')\n    else:\n        session.flash = T(\'internal error\')\n        redirect(URL(\'plugin\',args=request.args))\n\ndef upgrade_web2py():\n    if \'upgrade\' in request.vars:\n        (success, error) = upgrade(request)\n        if success:\n            session.flash = T(\'web2py upgraded; please restart it\')\n        else:\n            session.flash = T(\'unable to upgrade because "%s"\', error)\n        redirect(URL(\'site\'))\n    elif \'noupgrade\' in request.vars:\n        redirect(URL(\'site\'))\n    return dict()\n\ndef uninstall():\n    app = get_app()\n    if \'delete\' in request.vars:\n        if MULTI_USER_MODE:\n            if is_manager() and db(db.app.name==app).delete():\n                pass\n            elif db(db.app.name==app)(db.app.owner==auth.user.id).delete():\n                pass\n            else:\n                session.flash = T(\'no permission to uninstall "%s"\', app)\n                redirect(URL(\'site\'))\n        if app_uninstall(app, request):            \n            session.flash = T(\'application "%s" uninstalled\', app)\n        else:\n            session.flash = T(\'unable to uninstall "%s"\', app)\n        redirect(URL(\'site\'))\n    elif \'nodelete\' in request.vars:\n        redirect(URL(\'site\'))\n    return dict(app=app)\n\n\ndef cleanup():\n    app = get_app()\n    clean = app_cleanup(app, request)\n    if not clean:\n        session.flash = T("some files could not be removed")\n    else:\n        session.flash = T(\'cache, errors and sessions cleaned\')\n\n    redirect(URL(\'site\'))\n\n\ndef compile_app():\n    app = get_app()\n    c = app_compile(app, request)\n    if not c:\n        session.flash = T(\'application compiled\')\n    else:\n        session.flash = DIV(T(\'Cannot compile: there are errors in your app:\'),\n                              CODE(c))\n    redirect(URL(\'site\'))\n\n\ndef remove_compiled_app():\n    """ Remove the compiled application """\n    app = get_app()\n    remove_compiled_application(apath(app, r=request))\n    session.flash = T(\'compiled application removed\')\n    redirect(URL(\'site\'))\n\ndef delete():\n    """ Object delete handler """\n    app = get_app()\n    filename = \'/\'.join(request.args)\n    sender = request.vars.sender\n\n    if isinstance(sender, list):  # ## fix a problem with Vista\n        sender = sender[0]\n\n    if \'nodelete\' in request.vars:\n        redirect(URL(sender))\n    elif \'delete\' in request.vars:\n        try:\n            os.unlink(apath(filename, r=request))\n            session.flash = T(\'file "%(filename)s" deleted\',\n                              dict(filename=filename))\n        except Exception:\n            session.flash = T(\'unable to delete file "%(filename)s"\',\n                              dict(filename=filename))\n        redirect(URL(sender))\n    return dict(filename=filename, sender=sender)\n\ndef peek():\n    """ Visualize object code """\n    app = get_app()\n    filename = \'/\'.join(request.args)\n    try:\n        data = safe_read(apath(filename, r=request)).replace(\'\\r\',\'\')\n    except IOError:\n        session.flash = T(\'file does not exist\')\n        redirect(URL(\'site\'))\n\n    extension = filename[filename.rfind(\'.\') + 1:].lower()\n\n    return dict(app=request.args[0],\n                filename=filename,\n                data=data,\n                extension=extension)\n\n\ndef test():\n    """ Execute controller tests """\n    app = get_app()\n    if len(request.args) > 1:\n        file = request.args[1]\n    else:\n        file = \'.*\\.py\'\n\n    controllers = listdir(apath(\'%s/controllers/\' % app, r=request), file + \'$\')\n\n    return dict(app=app, controllers=controllers)\n\ndef keepalive():\n    return \'\'\n\ndef search():\n    keywords=request.vars.keywords or \'\'\n    app = get_app()\n    def match(filename,keywords):\n        filename=os.path.join(apath(app, r=request),filename)\n        if keywords in read_file(filename,\'rb\'):\n            return True\n        return False\n    path = apath(request.args[0], r=request)\n    files1 = glob(os.path.join(path,\'*/*.py\'))\n    files2 = glob(os.path.join(path,\'*/*.html\'))\n    files3 = glob(os.path.join(path,\'*/*/*.html\'))\n    files=[x[len(path)+1:].replace(\'\\\\\',\'/\') for x in files1+files2+files3 if match(x,keywords)]\n    return response.json({\'files\':files})\n\ndef edit():\n    """ File edit handler """\n    # Load json only if it is ajax edited...\n    app = get_app()\n    filename = \'/\'.join(request.args)\n    # Try to discover the file type\n    if filename[-3:] == \'.py\':\n        filetype = \'python\'\n    elif filename[-5:] == \'.html\':\n        filetype = \'html\'\n    elif filename[-5:] == \'.load\':\n        filetype = \'html\'\n    elif filename[-4:] == \'.css\':\n        filetype = \'css\'\n    elif filename[-3:] == \'.js\':\n        filetype = \'js\'\n    else:\n        filetype = \'html\'\n\n    # ## check if file is not there\n\n    path = apath(filename, r=request)\n\n    if request.vars.revert and os.path.exists(path + \'.bak\'):\n        try:\n            data = safe_read(path + \'.bak\')\n            data1 = safe_read(path)\n        except IOError:\n            session.flash = T(\'Invalid action\')\n            if \'from_ajax\' in request.vars:\n                 return response.json({\'error\': str(T(\'Invalid action\'))})\n            else:\n                redirect(URL(\'site\'))\n\n        safe_write(path, data)\n        file_hash = md5_hash(data)\n        saved_on = time.ctime(os.stat(path)[stat.ST_MTIME])\n        safe_write(path + \'.bak\', data1)\n        response.flash = T(\'file "%s" of %s restored\', (filename, saved_on))\n    else:\n        try:\n            data = safe_read(path)\n        except IOError:\n            session.flash = T(\'Invalid action\')\n            if \'from_ajax\' in request.vars:\n                return response.json({\'error\': str(T(\'Invalid action\'))})\n            else:\n                redirect(URL(\'site\'))\n\n        file_hash = md5_hash(data)\n        saved_on = time.ctime(os.stat(path)[stat.ST_MTIME])\n\n        if request.vars.file_hash and request.vars.file_hash != file_hash:\n            session.flash = T(\'file changed on disk\')\n            data = request.vars.data.replace(\'\\r\\n\', \'\\n\').strip() + \'\\n\'\n            safe_write(path + \'.1\', data)\n            if \'from_ajax\' in request.vars:\n                return response.json({\'error\': str(T(\'file changed on disk\')),\n                                      \'redirect\': URL(\'resolve\',\n                                                      args=request.args)})\n            else:\n                redirect(URL(\'resolve\', args=request.args))\n        elif request.vars.data:\n            safe_write(path + \'.bak\', data)\n            data = request.vars.data.replace(\'\\r\\n\', \'\\n\').strip() + \'\\n\'\n            safe_write(path, data)\n            file_hash = md5_hash(data)\n            saved_on = time.ctime(os.stat(path)[stat.ST_MTIME])\n            response.flash = T(\'file saved on %s\', saved_on)\n\n    data_or_revert = (request.vars.data or request.vars.revert)\n\n    # Check compile errors\n    highlight = None\n    if filetype == \'python\' and request.vars.data:\n        import _ast\n        try:\n            code = request.vars.data.rstrip().replace(\'\\r\\n\',\'\\n\')+\'\\n\'\n            compile(code, path, "exec", _ast.PyCF_ONLY_AST)\n        except Exception, e:\n            start = sum([len(line)+1 for l, line\n                            in enumerate(request.vars.data.split("\\n"))\n                            if l < e.lineno-1])\n            if e.text and e.offset:\n                offset = e.offset - (len(e.text) - len(e.text.splitlines()[-1]))\n            else:\n                offset = 0\n            highlight = {\'start\': start, \'end\': start + offset + 1}\n            try:\n                ex_name = e.__class__.__name__\n            except:\n                ex_name = \'unknown exception!\'\n            response.flash = DIV(T(\'failed to compile file because:\'), BR(),\n                                 B(ex_name), T(\' at line %s\') % e.lineno,\n                                 offset and T(\' at char %s\') % offset or \'\',\n                                 PRE(str(e)))\n\n    if data_or_revert and request.args[1] == \'modules\':\n        # Lets try to reload the modules\n        try:\n            mopath = \'.\'.join(request.args[2:])[:-3]\n            exec \'import applications.%s.modules.%s\' % (request.args[0], mopath)\n            reload(sys.modules[\'applications.%s.modules.%s\'\n                    % (request.args[0], mopath)])\n        except Exception, e:\n            response.flash = DIV(T(\'failed to reload module because:\'),PRE(str(e)))\n\n    edit_controller = None\n    editviewlinks = None\n    view_link = None\n    if filetype == \'html\' and len(request.args) >= 3:\n        cfilename = os.path.join(request.args[0], \'controllers\',\n                                 request.args[2] + \'.py\')\n        if os.path.exists(apath(cfilename, r=request)):\n            edit_controller = URL(\'edit\', args=[cfilename])\n            view = request.args[3].replace(\'.html\',\'\')\n            view_link = URL(request.args[0],request.args[2],view)\n    elif filetype == \'python\' and request.args[1] == \'controllers\':\n        ## it\'s a controller file.\n        ## Create links to all of the associated view files.\n        app = get_app()\n        viewname = os.path.splitext(request.args[2])[0]\n        viewpath = os.path.join(app,\'views\',viewname)\n        aviewpath = apath(viewpath, r=request)\n        viewlist = []\n        if os.path.exists(aviewpath):\n            if os.path.isdir(aviewpath):\n                viewlist = glob(os.path.join(aviewpath,\'*.html\'))\n        elif os.path.exists(aviewpath+\'.html\'):\n            viewlist.append(aviewpath+\'.html\')\n        if len(viewlist):\n            editviewlinks = []\n            for v in viewlist:\n                vf = os.path.split(v)[-1]\n                vargs = "/".join([viewpath.replace(os.sep,"/"),vf])\n                editviewlinks.append(A(T(vf.split(".")[0]),\\\n                    _href=URL(\'edit\',args=[vargs])))\n\n    if len(request.args) > 2 and request.args[1] == \'controllers\':\n        controller = (request.args[2])[:-3]\n        functions = regex_expose.findall(data)\n    else:\n        (controller, functions) = (None, None)\n\n    if \'from_ajax\' in request.vars:\n        return response.json({\'file_hash\': file_hash, \'saved_on\': saved_on, \'functions\':functions, \'controller\': controller, \'application\': request.args[0], \'highlight\': highlight })\n    else:\n\n        editarea_preferences = {}\n        editarea_preferences[\'FONT_SIZE\'] = \'10\'\n        editarea_preferences[\'FULL_SCREEN\'] = \'false\'\n        editarea_preferences[\'ALLOW_TOGGLE\'] = \'true\'\n        editarea_preferences[\'REPLACE_TAB_BY_SPACES\'] = \'4\'\n        editarea_preferences[\'DISPLAY\'] = \'onload\'\n        for key in editarea_preferences:\n            if globals().has_key(key):\n                editarea_preferences[key]=globals()[key]\n        return dict(app=request.args[0],\n                    filename=filename,\n                    filetype=filetype,\n                    data=data,\n                    edit_controller=edit_controller,\n                    file_hash=file_hash,\n                    saved_on=saved_on,\n                    controller=controller,\n                    functions=functions,\n                    view_link=view_link,\n                    editarea_preferences=editarea_preferences,\n                    editviewlinks=editviewlinks)\n\ndef resolve():\n    """\n    """\n\n    filename = \'/\'.join(request.args)\n    # ## check if file is not there\n    path = apath(filename, r=request)\n    a = safe_read(path).split(\'\\n\')\n    try:\n        b = safe_read(path + \'.1\').split(\'\\n\')\n    except IOError:\n        session.flash = \'Other file, no longer there\'\n        redirect(URL(\'edit\', args=request.args))\n\n    d = difflib.ndiff(a, b)\n\n    def leading(line):\n        """  """\n\n        # TODO: we really need to comment this\n        z = \'\'\n        for (k, c) in enumerate(line):\n            if c == \' \':\n                z += \'&nbsp;\'\n            elif c == \' \\t\':\n                z += \'&nbsp;\'\n            elif k == 0 and c == \'?\':\n                pass\n            else:\n                break\n\n        return XML(z)\n\n    def getclass(item):\n        """ Determine item class """\n\n        if item[0] == \' \':\n            return \'normal\'\n        if item[0] == \'+\':\n            return \'plus\'\n        if item[0] == \'-\':\n            return \'minus\'\n\n    if request.vars:\n        c = \'\\n\'.join([item[2:].rstrip() for (i, item) in enumerate(d) if item[0] \\\n                           == \' \' or \'line%i\' % i in request.vars])\n        safe_write(path, c)\n        session.flash = \'files merged\'\n        redirect(URL(\'edit\', args=request.args))\n    else:\n        # Making the short circuit compatible with <= python2.4\n        gen_data = lambda index,item: not item[:1] in [\'+\',\'-\'] and "" \\\n                   or INPUT(_type=\'checkbox\',\n                            _name=\'line%i\' % index,\n                            value=item[0] == \'+\')\n\n        diff = TABLE(*[TR(TD(gen_data(i,item)),\n                          TD(item[0]),\n                          TD(leading(item[2:]),\n                          TT(item[2:].rstrip())), _class=getclass(item))\n                       for (i, item) in enumerate(d) if item[0] != \'?\'])\n\n    return dict(diff=diff, filename=filename)\n\n\ndef edit_language():\n    """ Edit language file """\n    app = get_app()\n    filename = \'/\'.join(request.args)\n    from gluon.languages import read_dict, write_dict\n    strings = read_dict(apath(filename, r=request))\n    keys = sorted(strings.keys(),lambda x,y: cmp(x.lower(), y.lower()))\n    rows = []\n    rows.append(H2(T(\'Original/Translation\')))\n\n    for key in keys:\n        name = md5_hash(key)\n        if key==strings[key]:\n            _class=\'untranslated\'\n        else:\n            _class=\'translated\'\n        if len(key) <= 40:\n            elem = INPUT(_type=\'text\', _name=name,value=strings[key],\n                         _size=70,_class=_class)\n        else:\n            elem = TEXTAREA(_name=name, value=strings[key], _cols=70,\n                            _rows=5, _class=_class)\n\n        # Making the short circuit compatible with <= python2.4\n        k = (strings[key] != key) and key or B(key)\n\n        rows.append(P(k, BR(), elem, TAG.BUTTON(T(\'delete\'),\n                            _onclick=\'return delkey("%s")\' % name), _id=name))\n\n    rows.append(INPUT(_type=\'submit\', _value=T(\'update\')))\n    form = FORM(*rows)\n    if form.accepts(request.vars, keepvalues=True):\n        strs = dict()\n        for key in keys:\n            name = md5_hash(key)\n            if form.vars[name]==chr(127): continue\n            strs[key] = form.vars[name]\n        write_dict(apath(filename, r=request), strs)\n        session.flash = T(\'file saved on %(time)s\', dict(time=time.ctime()))\n        redirect(URL(r=request,args=request.args))\n    return dict(app=request.args[0], filename=filename, form=form)\n\n\ndef about():\n    """ Read about info """\n    app = get_app()\n    # ## check if file is not there\n    about = safe_read(apath(\'%s/ABOUT\' % app, r=request))\n    license = safe_read(apath(\'%s/LICENSE\' % app, r=request))\n    return dict(app=app, about=MARKMIN(about), license=MARKMIN(license))\n\n\ndef design():\n    """ Application design handler """\n    app = get_app()\n\n    if not response.flash and app == request.application:\n        msg = T(\'ATTENTION: you cannot edit the running application!\')\n        response.flash = msg\n\n    if request.vars.pluginfile!=None and not isinstance(request.vars.pluginfile,str):\n        filename=os.path.basename(request.vars.pluginfile.filename)\n        if plugin_install(app, request.vars.pluginfile.file,\n                          request, filename):\n            session.flash = T(\'new plugin installed\')\n            redirect(URL(\'design\',args=app))\n        else:\n            session.flash = \\\n                T(\'unable to create application "%s"\', request.vars.filename)\n        redirect(URL(r=request))\n    elif isinstance(request.vars.pluginfile,str):\n        session.flash = T(\'plugin not specified\')\n        redirect(URL(r=request))\n\n\n    # If we have only pyc files it means that\n    # we cannot design\n    if os.path.exists(apath(\'%s/compiled\' % app, r=request)):\n        session.flash = \\\n            T(\'application is compiled and cannot be designed\')\n        redirect(URL(\'site\'))\n\n    # Get all models\n    models = listdir(apath(\'%s/models/\' % app, r=request), \'.*\\.py$\')\n    models=[x.replace(\'\\\\\',\'/\') for x in models]\n    defines = {}\n    for m in models:\n        data = safe_read(apath(\'%s/models/%s\' % (app, m), r=request))\n        defines[m] = regex_tables.findall(data)\n        defines[m].sort()\n\n    # Get all controllers\n    controllers = sorted(listdir(apath(\'%s/controllers/\' % app, r=request), \'.*\\.py$\'))\n    controllers = [x.replace(\'\\\\\',\'/\') for x in controllers]\n    functions = {}\n    for c in controllers:\n        data = safe_read(apath(\'%s/controllers/%s\' % (app, c), r=request))\n        items = regex_expose.findall(data)\n        functions[c] = items\n\n    # Get all views\n    views = sorted(listdir(apath(\'%s/views/\' % app, r=request), \'[\\w/\\-]+(\\.\\w+)+$\'))\n    views = [x.replace(\'\\\\\',\'/\') for x in views if not x.endswith(\'.bak\')]\n    extend = {}\n    include = {}\n    for c in views:\n        data = safe_read(apath(\'%s/views/%s\' % (app, c), r=request))\n        items = regex_extend.findall(data)\n\n        if items:\n            extend[c] = items[0][1]\n\n        items = regex_include.findall(data)\n        include[c] = [i[1] for i in items]\n\n    # Get all modules\n    modules = listdir(apath(\'%s/modules/\' % app, r=request), \'.*\\.py$\')\n    modules = modules=[x.replace(\'\\\\\',\'/\') for x in modules]\n    modules.sort()\n\n    # Get all static files\n    statics = listdir(apath(\'%s/static/\' % app, r=request), \'[^\\.#].*\')\n    statics = [x.replace(\'\\\\\',\'/\') for x in statics]\n    statics.sort()\n\n    # Get all languages\n    languages = listdir(apath(\'%s/languages/\' % app, r=request), \'[\\w-]*\\.py\')\n\n    #Get crontab\n    cronfolder = apath(\'%s/cron\' % app, r=request)\n    if not os.path.exists(cronfolder): os.mkdir(cronfolder)\n    crontab = apath(\'%s/cron/crontab\' % app, r=request)\n    if not os.path.exists(crontab):\n        safe_write(crontab, \'#crontab\')\n\n    plugins=[]\n    def filter_plugins(items,plugins):\n        plugins+=[item[7:].split(\'/\')[0].split(\'.\')[0] for item in items if item.startswith(\'plugin_\')]\n        plugins[:]=list(set(plugins))\n        plugins.sort()\n        return [item for item in items if not item.startswith(\'plugin_\')]\n\n    return dict(app=app,\n                models=filter_plugins(models,plugins),\n                defines=defines,\n                controllers=filter_plugins(controllers,plugins),\n                functions=functions,\n                views=filter_plugins(views,plugins),\n                modules=filter_plugins(modules,plugins),\n                extend=extend,\n                include=include,\n                statics=filter_plugins(statics,plugins),\n                languages=languages,\n                crontab=crontab,\n                plugins=plugins)\n\ndef delete_plugin():\n    """ Object delete handler """\n    app=request.args(0)\n    plugin = request.args(1)\n    plugin_name=\'plugin_\'+plugin\n    if \'nodelete\' in request.vars:\n        redirect(URL(\'design\',args=app))\n    elif \'delete\' in request.vars:\n        try:\n            for folder in [\'models\',\'views\',\'controllers\',\'static\',\'modules\']:\n                path=os.path.join(apath(app,r=request),folder)\n                for item in os.listdir(path):\n                    if item.startswith(plugin_name):\n                        filename=os.path.join(path,item)\n                        if os.path.isdir(filename):\n                            shutil.rmtree(filename)\n                        else:\n                            os.unlink(filename)\n            session.flash = T(\'plugin "%(plugin)s" deleted\',\n                              dict(plugin=plugin))\n        except Exception:\n            session.flash = T(\'unable to delete file plugin "%(plugin)s"\',\n                              dict(plugin=plugin))\n        redirect(URL(\'design\',args=request.args(0)))\n    return dict(plugin=plugin)\n\ndef plugin():\n    """ Application design handler """\n    app = get_app()\n    plugin = request.args(1)\n\n    if not response.flash and app == request.application:\n        msg = T(\'ATTENTION: you cannot edit the running application!\')\n        response.flash = msg\n\n    # If we have only pyc files it means that\n    # we cannot design\n    if os.path.exists(apath(\'%s/compiled\' % app, r=request)):\n        session.flash = \\\n            T(\'application is compiled and cannot be designed\')\n        redirect(URL(\'site\'))\n\n    # Get all models\n    models = listdir(apath(\'%s/models/\' % app, r=request), \'.*\\.py$\')\n    models=[x.replace(\'\\\\\',\'/\') for x in models]\n    defines = {}\n    for m in models:\n        data = safe_read(apath(\'%s/models/%s\' % (app, m), r=request))\n        defines[m] = regex_tables.findall(data)\n        defines[m].sort()\n\n    # Get all controllers\n    controllers = sorted(listdir(apath(\'%s/controllers/\' % app, r=request), \'.*\\.py$\'))\n    controllers = [x.replace(\'\\\\\',\'/\') for x in controllers]\n    functions = {}\n    for c in controllers:\n        data = safe_read(apath(\'%s/controllers/%s\' % (app, c), r=request))\n        items = regex_expose.findall(data)\n        functions[c] = items\n\n    # Get all views\n    views = sorted(listdir(apath(\'%s/views/\' % app, r=request), \'[\\w/\\-]+\\.\\w+$\'))\n    views = [x.replace(\'\\\\\',\'/\') for x in views]\n    extend = {}\n    include = {}\n    for c in views:\n        data = safe_read(apath(\'%s/views/%s\' % (app, c), r=request))\n        items = regex_extend.findall(data)\n        if items:\n            extend[c] = items[0][1]\n\n        items = regex_include.findall(data)\n        include[c] = [i[1] for i in items]\n\n    # Get all modules\n    modules = listdir(apath(\'%s/modules/\' % app, r=request), \'.*\\.py$\')\n    modules = modules=[x.replace(\'\\\\\',\'/\') for x in modules]\n    modules.sort()\n\n    # Get all static files\n    statics = listdir(apath(\'%s/static/\' % app, r=request), \'[^\\.#].*\')\n    statics = [x.replace(\'\\\\\',\'/\') for x in statics]\n    statics.sort()\n\n    # Get all languages\n    languages = listdir(apath(\'%s/languages/\' % app, r=request), \'[\\w-]*\\.py\')\n\n    #Get crontab\n    crontab = apath(\'%s/cron/crontab\' % app, r=request)\n    if not os.path.exists(crontab):\n        safe_write(crontab, \'#crontab\')\n\n    def filter_plugins(items):\n        regex=re.compile(\'^plugin_\'+plugin+\'(/.*|\\..*)?$\')\n        return [item for item in items if regex.match(item)]\n\n    return dict(app=app,\n                models=filter_plugins(models),\n                defines=defines,\n                controllers=filter_plugins(controllers),\n                functions=functions,\n                views=filter_plugins(views),\n                modules=filter_plugins(modules),\n                extend=extend,\n                include=include,\n                statics=filter_plugins(statics),\n                languages=languages,\n                crontab=crontab)\n\n\ndef create_file():\n    """ Create files handler """\n    try:\n        app = get_app(name=request.vars.location.split(\'/\')[0])\n        path = apath(request.vars.location, r=request)\n        filename = re.sub(\'[^\\w./-]+\', \'_\', request.vars.filename)\n\n        if path[-11:] == \'/languages/\':\n            # Handle language files\n            if len(filename) == 0:\n                raise SyntaxError\n            if not filename[-3:] == \'.py\':\n                filename += \'.py\'\n            app = path.split(\'/\')[-3]\n            path=os.path.join(apath(app, r=request),\'languages\',filename)\n            if not os.path.exists(path):\n                safe_write(path, \'\')\n            findT(apath(app, r=request), filename[:-3])\n            session.flash = T(\'language file "%(filename)s" created/updated\',\n                              dict(filename=filename))\n            redirect(request.vars.sender)\n\n        elif path[-8:] == \'/models/\':\n            # Handle python models\n            if not filename[-3:] == \'.py\':\n                filename += \'.py\'\n\n            if len(filename) == 3:\n                raise SyntaxError\n\n            text = \'# coding: utf8\\n\'\n\n        elif path[-13:] == \'/controllers/\':\n            # Handle python controllers\n            if not filename[-3:] == \'.py\':\n                filename += \'.py\'\n\n            if len(filename) == 3:\n                raise SyntaxError\n\n            text = \'# coding: utf8\\n# %s\\ndef index(): return dict(message="hello from %s")\'\n            text = text % (T(\'try something like\'), filename)\n\n        elif path[-7:] == \'/views/\':\n            if request.vars.plugin and not filename.startswith(\'plugin_%s/\' % request.vars.plugin):\n                filename = \'plugin_%s/%s\' % (request.vars.plugin, filename)\n            # Handle template (html) views\n            if filename.find(\'.\')<0:\n                filename += \'.html\'\n            extension = filename.split(\'.\')[-1].lower()\n\n            if len(filename) == 5:\n                raise SyntaxError\n\n            msg = T(\'This is the %(filename)s template\',\n                    dict(filename=filename))            \n            if extension == \'html\':\n                text = dedent("""\n                   {{extend \'layout.html\'}}\n                   <h1>%s</h1>\n                   {{=BEAUTIFY(response._vars)}}""" % msg)\n            else:\n                generic = os.path.join(path,\'generic.\'+extension)\n                if os.path.exists(generic):\n                    text = read_file(generic)\n                else:\n                    text = \'\'\n                \n        elif path[-9:] == \'/modules/\':\n            if request.vars.plugin and not filename.startswith(\'plugin_%s/\' % request.vars.plugin):\n                filename = \'plugin_%s/%s\' % (request.vars.plugin, filename)\n            # Handle python module files\n            if not filename[-3:] == \'.py\':\n                filename += \'.py\'\n\n            if len(filename) == 3:\n                raise SyntaxError\n\n            text = dedent("""\n                   #!/usr/bin/env python\n                   # coding: utf8\n                   from gluon import *\\n""")\n\n        elif path[-8:] == \'/static/\':\n            if request.vars.plugin and not filename.startswith(\'plugin_%s/\' % request.vars.plugin):\n                filename = \'plugin_%s/%s\' % (request.vars.plugin, filename)\n            text = \'\'\n        else:\n            redirect(request.vars.sender)\n\n        full_filename = os.path.join(path, filename)\n        dirpath = os.path.dirname(full_filename)\n\n        if not os.path.exists(dirpath):\n            os.makedirs(dirpath)\n\n        if os.path.exists(full_filename):\n            raise SyntaxError\n\n        safe_write(full_filename, text)\n        session.flash = T(\'file "%(filename)s" created\',\n                          dict(filename=full_filename[len(path):]))\n        redirect(URL(\'edit\',\n                 args=[os.path.join(request.vars.location, filename)]))\n    except Exception, e:\n        if not isinstance(e,HTTP):\n            session.flash = T(\'cannot create file\')\n\n    redirect(request.vars.sender)\n\n\ndef upload_file():\n    """ File uploading handler """\n\n    try:\n        filename = None\n        app = get_app(name=request.vars.location.split(\'/\')[0])\n        path = apath(request.vars.location, r=request)\n\n        if request.vars.filename:\n            filename = re.sub(\'[^\\w\\./]+\', \'_\', request.vars.filename)\n        else:\n            filename = os.path.split(request.vars.file.filename)[-1]\n\n        if path[-8:] == \'/models/\' and not filename[-3:] == \'.py\':\n            filename += \'.py\'\n\n        if path[-9:] == \'/modules/\' and not filename[-3:] == \'.py\':\n            filename += \'.py\'\n\n        if path[-13:] == \'/controllers/\' and not filename[-3:] == \'.py\':\n            filename += \'.py\'\n\n        if path[-7:] == \'/views/\' and not filename[-5:] == \'.html\':\n            filename += \'.html\'\n\n        if path[-11:] == \'/languages/\' and not filename[-3:] == \'.py\':\n            filename += \'.py\'\n\n        filename = os.path.join(path, filename)\n        dirpath = os.path.dirname(filename)\n\n        if not os.path.exists(dirpath):\n            os.makedirs(dirpath)\n\n        safe_write(filename, request.vars.file.file.read(), \'wb\')\n        session.flash = T(\'file "%(filename)s" uploaded\',\n                          dict(filename=filename[len(path):]))\n    except Exception:\n        if filename:\n            d = dict(filename = filename[len(path):])\n        else:\n            d = dict(filename = \'unkown\')\n        session.flash = T(\'cannot upload file "%(filename)s"\', d)\n\n    redirect(request.vars.sender)\n\n\ndef errors():\n    """ Error handler """\n    import operator\n    import os\n    import pickle\n    import hashlib\n\n    app = get_app()\n\n    method = request.args(1) or \'new\'\n\n\n    if method == \'new\':\n        errors_path = apath(\'%s/errors\' % app, r=request)\n\n        delete_hashes = []\n        for item in request.vars:\n            if item[:7] == \'delete_\':\n                delete_hashes.append(item[7:])\n\n        hash2error = dict()\n\n        for fn in listdir(errors_path, \'^\\w.*\'):\n            fullpath = os.path.join(errors_path, fn)\n            if not os.path.isfile(fullpath): continue\n            try:\n                fullpath_file = open(fullpath, \'r\')\n                try:\n                    error = pickle.load(fullpath_file)\n                finally:\n                    fullpath_file.close()\n            except IOError:\n                continue\n\n            hash = hashlib.md5(error[\'traceback\']).hexdigest()\n\n            if hash in delete_hashes:\n                os.unlink(fullpath)\n            else:\n                try:\n                    hash2error[hash][\'count\'] += 1\n                except KeyError:\n                    error_lines = error[\'traceback\'].split("\\n")\n                    last_line = error_lines[-2]\n                    error_causer = os.path.split(error[\'layer\'])[1]\n                    hash2error[hash] = dict(count=1, pickel=error,\n                                            causer=error_causer,\n                                            last_line=last_line,\n                                            hash=hash,ticket=fn)\n\n        decorated = [(x[\'count\'], x) for x in hash2error.values()]\n        decorated.sort(key=operator.itemgetter(0), reverse=True)\n\n        return dict(errors = [x[1] for x in decorated], app=app, method=method)\n    else:\n        for item in request.vars:\n            if item[:7] == \'delete_\':\n                os.unlink(apath(\'%s/errors/%s\' % (app, item[7:]), r=request))\n        func = lambda p: os.stat(apath(\'%s/errors/%s\' % \\\n                                           (app, p), r=request)).st_mtime\n        tickets = sorted(listdir(apath(\'%s/errors/\' % app, r=request), \'^\\w.*\'),\n                         key=func,\n                         reverse=True)\n\n        return dict(app=app, tickets=tickets, method=method)\n\n\ndef make_link(path):\n    """ Create a link from a path """\n    tryFile = path.replace(\'\\\\\', \'/\')\n\n    if os.path.isabs(tryFile) and os.path.isfile(tryFile):\n        (folder, filename) = os.path.split(tryFile)\n        (base, ext) = os.path.splitext(filename)\n        app = get_app()\n\n        editable = {\'controllers\': \'.py\', \'models\': \'.py\', \'views\': \'.html\'}\n        for key in editable.keys():\n            check_extension = folder.endswith("%s/%s" % (app,key))\n            if ext.lower() == editable[key] and check_extension:\n                return A(\'"\' + tryFile + \'"\',\n                         _href=URL(r=request,\n                         f=\'edit/%s/%s/%s\' % (app, key, filename))).xml()\n    return \'\'\n\n\ndef make_links(traceback):\n    """ Make links using the given traceback """\n\n    lwords = traceback.split(\'"\')\n\n    # Making the short circuit compatible with <= python2.4\n    result = (len(lwords) != 0) and lwords[0] or \'\'\n\n    i = 1\n\n    while i < len(lwords):\n        link = make_link(lwords[i])\n\n        if link == \'\':\n            result += \'"\' + lwords[i]\n        else:\n            result += link\n\n            if i + 1 < len(lwords):\n                result += lwords[i + 1]\n                i = i + 1\n\n        i = i + 1\n\n    return result\n\n\nclass TRACEBACK(object):\n    """ Generate the traceback """\n\n    def __init__(self, text):\n        """ TRACEBACK constructor """\n\n        self.s = make_links(CODE(text).xml())\n\n    def xml(self):\n        """ Returns the xml """\n\n        return self.s\n\n\ndef ticket():\n    """ Ticket handler """\n\n    if len(request.args) != 2:\n        session.flash = T(\'invalid ticket\')\n        redirect(URL(\'site\'))\n\n    app = get_app()\n    myversion = request.env.web2py_version\n    ticket = request.args[1]\n    e = RestrictedError()\n    e.load(request, app, ticket)\n\n    return dict(app=app,\n                ticket=ticket,\n                output=e.output,\n                traceback=(e.traceback and TRACEBACK(e.traceback)),\n                snapshot=e.snapshot,\n                code=e.code,\n                layer=e.layer,\n                myversion=myversion)\n\ndef error():\n    """ Generate a ticket (for testing) """\n    raise RuntimeError(\'admin ticket generator at your service\')\n\ndef update_languages():\n    """ Update available languages """\n\n    app = get_app()\n    update_all_languages(apath(app, r=request))\n    session.flash = T(\'Language files (static strings) updated\')\n    redirect(URL(\'design\',args=app,anchor=\'languages\'))\n\ndef twitter():\n    session.forget()\n    session._unlock(response)\n    import gluon.tools\n    import gluon.contrib.simplejson as sj\n    try:\n        if TWITTER_HASH:\n            page = gluon.tools.fetch(\'http://twitter.com/%s?format=json\'%TWITTER_HASH)\n            return sj.loads(page)[\'#timeline\']\n        else:\n            return \'disabled\'\n    except Exception, e:\n        return DIV(T(\'Unable to download because:\'),BR(),str(e))\n\ndef user():\n    if MULTI_USER_MODE:\n        if not db(db.auth_user).count():\n            auth.settings.registration_requires_approval = False            \n        return dict(form=auth())\n    else:\n        return dict(form=T("Disabled"))\n\ndef reload_routes():\n    """ Reload routes.py """\n    import gluon.rewrite\n    gluon.rewrite.load()\n    redirect(URL(\'site\'))\n\nresponse._vars=response._caller(check_version)\n'
p6
sS'snapshot'
p7
(dp8
S'exception'
p9
(dp10
S'__hash__'
p11
S"<method-wrapper '__hash__' of exceptions.TypeError object>"
p12
sS'__setattr__'
p13
S"<method-wrapper '__setattr__' of exceptions.TypeError object>"
p14
sS'__reduce_ex__'
p15
S'<built-in method __reduce_ex__ of exceptions.TypeError object>'
p16
sS'__getslice__'
p17
S"<method-wrapper '__getslice__' of exceptions.TypeError object>"
p18
sS'__getitem__'
p19
S"<method-wrapper '__getitem__' of exceptions.TypeError object>"
p20
sS'__setstate__'
p21
S'<built-in method __setstate__ of exceptions.TypeError object>'
p22
sS'__reduce__'
p23
S'<built-in method __reduce__ of exceptions.TypeError object>'
p24
sS'__str__'
p25
S"<method-wrapper '__str__' of exceptions.TypeError object>"
p26
sS'__format__'
p27
S'<built-in method __format__ of exceptions.TypeError object>'
p28
sS'__getattribute__'
p29
S"<method-wrapper '__getattribute__' of exceptions.TypeError object>"
p30
sS'__class__'
p31
S"<type 'exceptions.TypeError'>"
p32
sS'__unicode__'
p33
S'<built-in method __unicode__ of exceptions.TypeError object>'
p34
sS'__delattr__'
p35
S"<method-wrapper '__delattr__' of exceptions.TypeError object>"
p36
sS'__subclasshook__'
p37
S'<built-in method __subclasshook__ of type object>'
p38
sS'__repr__'
p39
S"<method-wrapper '__repr__' of exceptions.TypeError object>"
p40
sS'args'
p41
S"('not all arguments converted during string formatting',)"
p42
sS'__dict__'
p43
S'{}'
p44
sS'__sizeof__'
p45
S'<built-in method __sizeof__ of exceptions.TypeError object>'
p46
sS'__doc__'
p47
S"'Inappropriate argument type.'"
p48
sS'__init__'
p49
S"<method-wrapper '__init__' of exceptions.TypeError object>"
p50
sS'__new__'
p51
S'<built-in method __new__ of type object>'
p52
ssS'evalue'
p53
S'not all arguments converted during string formatting'
p54
sS'request'
p55
ccopy_reg
_reconstructor
p56
(cgluon.html
BEAUTIFY
p57
c__builtin__
object
p58
NtRp59
(dp60
S'attributes'
p61
(dp62
sS'components'
p63
(lp64
g56
(cgluon.html
TABLE
p65
g58
NtRp66
(dp67
g61
(dp68
S'level'
p69
I5
ssS'parent'
p70
Nsg63
(lp71
g56
(cgluon.html
TR
p72
g58
NtRp73
(dp74
g61
(dp75
sg70
g66
sg63
(lp76
g56
(cgluon.html
TD
p77
g58
NtRp78
(dp79
g61
(dp80
S'_style'
p81
S'font-weight:bold;'
p82
ssg70
g73
sg63
(lp83
S'ajax'
p84
asbag56
(g77
g58
NtRp85
(dp86
g61
(dp87
S'_valign'
p88
S'top'
p89
ssg70
g73
sg63
(lp90
S':'
asbag56
(g77
g58
NtRp91
(dp92
g61
(dp93
sg70
g73
sg63
(lp94
g56
(g57
g58
NtRp95
(dp96
g61
(dp97
g69
I5
ssg70
g91
sg63
(lp98
S'True'
p99
asbasbasbag56
(g72
g58
NtRp100
(dp101
g61
(dp102
sg70
g66
sg63
(lp103
g56
(g77
g58
NtRp104
(dp105
g61
(dp106
g81
g82
ssg70
g100
sg63
(lp107
S'application'
p108
asbag56
(g77
g58
NtRp109
(dp110
g61
(dp111
g88
g89
ssg70
g100
sg63
(lp112
S':'
asbag56
(g77
g58
NtRp113
(dp114
g61
(dp115
sg70
g100
sg63
(lp116
g56
(g57
g58
NtRp117
(dp118
g61
(dp119
g69
I5
ssg70
g113
sg63
(lp120
S'admin'
p121
asbasbasbag56
(g72
g58
NtRp122
(dp123
g61
(dp124
sg70
g66
sg63
(lp125
g56
(g77
g58
NtRp126
(dp127
g61
(dp128
g81
g82
ssg70
g122
sg63
(lp129
g41
asbag56
(g77
g58
NtRp130
(dp131
g61
(dp132
g88
g89
ssg70
g122
sg63
(lp133
S':'
asbag56
(g77
g58
NtRp134
(dp135
g61
(dp136
sg70
g122
sg63
(lp137
g56
(g57
g58
NtRp138
(dp139
g61
(dp140
g69
I5
ssg70
g134
sg63
(lp141
g56
(g65
g58
NtRp142
(dp143
g61
(dp144
g69
I4
ssg70
Nsg63
(lp145
sbasbasbasbag56
(g72
g58
NtRp146
(dp147
g61
(dp148
sg70
g66
sg63
(lp149
g56
(g77
g58
NtRp150
(dp151
g61
(dp152
g81
g82
ssg70
g146
sg63
(lp153
S'body'
p154
asbag56
(g77
g58
NtRp155
(dp156
g61
(dp157
g88
g89
ssg70
g146
sg63
(lp158
S':'
asbag56
(g77
g58
NtRp159
(dp160
g61
(dp161
sg70
g146
sg63
(lp162
g56
(g57
g58
NtRp163
(dp164
g61
(dp165
g69
I5
ssg70
g159
sg63
(lp166
S"<open file '<fdopen>', mode 'w+b' at 0x0379A230>"
p167
asbasbasbag56
(g72
g58
NtRp168
(dp169
g61
(dp170
sg70
g66
sg63
(lp171
g56
(g77
g58
NtRp172
(dp173
g61
(dp174
g81
g82
ssg70
g168
sg63
(lp175
S'client'
p176
asbag56
(g77
g58
NtRp177
(dp178
g61
(dp179
g88
g89
ssg70
g168
sg63
(lp180
S':'
asbag56
(g77
g58
NtRp181
(dp182
g61
(dp183
sg70
g168
sg63
(lp184
g56
(g57
g58
NtRp185
(dp186
g61
(dp187
g69
I5
ssg70
g181
sg63
(lp188
S'127.0.0.1'
p189
asbasbasbag56
(g72
g58
NtRp190
(dp191
g61
(dp192
sg70
g66
sg63
(lp193
g56
(g77
g58
NtRp194
(dp195
g61
(dp196
g81
g82
ssg70
g190
sg63
(lp197
S'controller'
p198
asbag56
(g77
g58
NtRp199
(dp200
g61
(dp201
g88
g89
ssg70
g190
sg63
(lp202
S':'
asbag56
(g77
g58
NtRp203
(dp204
g61
(dp205
sg70
g190
sg63
(lp206
g56
(g57
g58
NtRp207
(dp208
g61
(dp209
g69
I5
ssg70
g203
sg63
(lp210
S'default'
p211
asbasbasbag56
(g72
g58
NtRp212
(dp213
g61
(dp214
sg70
g66
sg63
(lp215
g56
(g77
g58
NtRp216
(dp217
g61
(dp218
g81
g82
ssg70
g212
sg63
(lp219
S'cookies'
p220
asbag56
(g77
g58
NtRp221
(dp222
g61
(dp223
g88
g89
ssg70
g212
sg63
(lp224
S':'
asbag56
(g77
g58
NtRp225
(dp226
g61
(dp227
sg70
g212
sg63
(lp228
g56
(g57
g58
NtRp229
(dp230
g61
(dp231
g69
I5
ssg70
g225
sg63
(lp232
g56
(g65
g58
NtRp233
(dp234
g61
(dp235
g69
I4
ssg70
Nsg63
(lp236
g56
(g72
g58
NtRp237
(dp238
g61
(dp239
sg70
g233
sg63
(lp240
g56
(g77
g58
NtRp241
(dp242
g61
(dp243
g81
g82
ssg70
g237
sg63
(lp244
S'session_id_admin'
p245
asbag56
(g77
g58
NtRp246
(dp247
g61
(dp248
g88
g89
ssg70
g237
sg63
(lp249
S':'
asbag56
(g77
g58
NtRp250
(dp251
g61
(dp252
sg70
g237
sg63
(lp253
g56
(g57
g58
NtRp254
(dp255
g61
(dp256
g69
I4
ssg70
g250
sg63
(lp257
g56
(g65
g58
NtRp258
(dp259
g61
(dp260
g69
I3
ssg70
Nsg63
(lp261
g56
(g72
g58
NtRp262
(dp263
g61
(dp264
sg70
g258
sg63
(lp265
g56
(g77
g58
NtRp266
(dp267
g61
(dp268
g81
g82
ssg70
g262
sg63
(lp269
S'comment'
p270
asbag56
(g77
g58
NtRp271
(dp272
g61
(dp273
g88
g89
ssg70
g262
sg63
(lp274
S':'
asbag56
(g77
g58
NtRp275
(dp276
g61
(dp277
sg70
g262
sg63
(lp278
g56
(g57
g58
NtRp279
(dp280
g61
(dp281
g69
I3
ssg70
g275
sg63
(lp282
S''
asbasbasbag56
(g72
g58
NtRp283
(dp284
g61
(dp285
sg70
g258
sg63
(lp286
g56
(g77
g58
NtRp287
(dp288
g61
(dp289
g81
g82
ssg70
g283
sg63
(lp290
S'domain'
p291
asbag56
(g77
g58
NtRp292
(dp293
g61
(dp294
g88
g89
ssg70
g283
sg63
(lp295
S':'
asbag56
(g77
g58
NtRp296
(dp297
g61
(dp298
sg70
g283
sg63
(lp299
g56
(g57
g58
NtRp300
(dp301
g61
(dp302
g69
I3
ssg70
g296
sg63
(lp303
S''
asbasbasbag56
(g72
g58
NtRp304
(dp305
g61
(dp306
sg70
g258
sg63
(lp307
g56
(g77
g58
NtRp308
(dp309
g61
(dp310
g81
g82
ssg70
g304
sg63
(lp311
S'expires'
p312
asbag56
(g77
g58
NtRp313
(dp314
g61
(dp315
g88
g89
ssg70
g304
sg63
(lp316
S':'
asbag56
(g77
g58
NtRp317
(dp318
g61
(dp319
sg70
g304
sg63
(lp320
g56
(g57
g58
NtRp321
(dp322
g61
(dp323
g69
I3
ssg70
g317
sg63
(lp324
S''
asbasbasbag56
(g72
g58
NtRp325
(dp326
g61
(dp327
sg70
g258
sg63
(lp328
g56
(g77
g58
NtRp329
(dp330
g61
(dp331
g81
g82
ssg70
g325
sg63
(lp332
S'httponly'
p333
asbag56
(g77
g58
NtRp334
(dp335
g61
(dp336
g88
g89
ssg70
g325
sg63
(lp337
S':'
asbag56
(g77
g58
NtRp338
(dp339
g61
(dp340
sg70
g325
sg63
(lp341
g56
(g57
g58
NtRp342
(dp343
g61
(dp344
g69
I3
ssg70
g338
sg63
(lp345
S''
asbasbasbag56
(g72
g58
NtRp346
(dp347
g61
(dp348
sg70
g258
sg63
(lp349
g56
(g77
g58
NtRp350
(dp351
g61
(dp352
g81
g82
ssg70
g346
sg63
(lp353
S'max-age'
p354
asbag56
(g77
g58
NtRp355
(dp356
g61
(dp357
g88
g89
ssg70
g346
sg63
(lp358
S':'
asbag56
(g77
g58
NtRp359
(dp360
g61
(dp361
sg70
g346
sg63
(lp362
g56
(g57
g58
NtRp363
(dp364
g61
(dp365
g69
I3
ssg70
g359
sg63
(lp366
S''
asbasbasbag56
(g72
g58
NtRp367
(dp368
g61
(dp369
sg70
g258
sg63
(lp370
g56
(g77
g58
NtRp371
(dp372
g61
(dp373
g81
g82
ssg70
g367
sg63
(lp374
S'path'
p375
asbag56
(g77
g58
NtRp376
(dp377
g61
(dp378
g88
g89
ssg70
g367
sg63
(lp379
S':'
asbag56
(g77
g58
NtRp380
(dp381
g61
(dp382
sg70
g367
sg63
(lp383
g56
(g57
g58
NtRp384
(dp385
g61
(dp386
g69
I3
ssg70
g380
sg63
(lp387
S''
asbasbasbag56
(g72
g58
NtRp388
(dp389
g61
(dp390
sg70
g258
sg63
(lp391
g56
(g77
g58
NtRp392
(dp393
g61
(dp394
g81
g82
ssg70
g388
sg63
(lp395
S'secure'
p396
asbag56
(g77
g58
NtRp397
(dp398
g61
(dp399
g88
g89
ssg70
g388
sg63
(lp400
S':'
asbag56
(g77
g58
NtRp401
(dp402
g61
(dp403
sg70
g388
sg63
(lp404
g56
(g57
g58
NtRp405
(dp406
g61
(dp407
g69
I3
ssg70
g401
sg63
(lp408
S''
asbasbasbag56
(g72
g58
NtRp409
(dp410
g61
(dp411
sg70
g258
sg63
(lp412
g56
(g77
g58
NtRp413
(dp414
g61
(dp415
g81
g82
ssg70
g409
sg63
(lp416
S'version'
p417
asbag56
(g77
g58
NtRp418
(dp419
g61
(dp420
g88
g89
ssg70
g409
sg63
(lp421
S':'
asbag56
(g77
g58
NtRp422
(dp423
g61
(dp424
sg70
g409
sg63
(lp425
g56
(g57
g58
NtRp426
(dp427
g61
(dp428
g69
I3
ssg70
g422
sg63
(lp429
S''
asbasbasbasbasbasbasbag56
(g72
g58
NtRp430
(dp431
g61
(dp432
sg70
g233
sg63
(lp433
g56
(g77
g58
NtRp434
(dp435
g61
(dp436
g81
g82
ssg70
g430
sg63
(lp437
S'session_id_welcome'
p438
asbag56
(g77
g58
NtRp439
(dp440
g61
(dp441
g88
g89
ssg70
g430
sg63
(lp442
S':'
asbag56
(g77
g58
NtRp443
(dp444
g61
(dp445
sg70
g430
sg63
(lp446
g56
(g57
g58
NtRp447
(dp448
g61
(dp449
g69
I4
ssg70
g443
sg63
(lp450
g56
(g65
g58
NtRp451
(dp452
g61
(dp453
g69
I3
ssg70
Nsg63
(lp454
g56
(g72
g58
NtRp455
(dp456
g61
(dp457
sg70
g451
sg63
(lp458
g56
(g77
g58
NtRp459
(dp460
g61
(dp461
g81
g82
ssg70
g455
sg63
(lp462
g270
asbag56
(g77
g58
NtRp463
(dp464
g61
(dp465
g88
g89
ssg70
g455
sg63
(lp466
S':'
asbag56
(g77
g58
NtRp467
(dp468
g61
(dp469
sg70
g455
sg63
(lp470
g56
(g57
g58
NtRp471
(dp472
g61
(dp473
g69
I3
ssg70
g467
sg63
(lp474
S''
asbasbasbag56
(g72
g58
NtRp475
(dp476
g61
(dp477
sg70
g451
sg63
(lp478
g56
(g77
g58
NtRp479
(dp480
g61
(dp481
g81
g82
ssg70
g475
sg63
(lp482
g291
asbag56
(g77
g58
NtRp483
(dp484
g61
(dp485
g88
g89
ssg70
g475
sg63
(lp486
S':'
asbag56
(g77
g58
NtRp487
(dp488
g61
(dp489
sg70
g475
sg63
(lp490
g56
(g57
g58
NtRp491
(dp492
g61
(dp493
g69
I3
ssg70
g487
sg63
(lp494
S''
asbasbasbag56
(g72
g58
NtRp495
(dp496
g61
(dp497
sg70
g451
sg63
(lp498
g56
(g77
g58
NtRp499
(dp500
g61
(dp501
g81
g82
ssg70
g495
sg63
(lp502
g312
asbag56
(g77
g58
NtRp503
(dp504
g61
(dp505
g88
g89
ssg70
g495
sg63
(lp506
S':'
asbag56
(g77
g58
NtRp507
(dp508
g61
(dp509
sg70
g495
sg63
(lp510
g56
(g57
g58
NtRp511
(dp512
g61
(dp513
g69
I3
ssg70
g507
sg63
(lp514
S''
asbasbasbag56
(g72
g58
NtRp515
(dp516
g61
(dp517
sg70
g451
sg63
(lp518
g56
(g77
g58
NtRp519
(dp520
g61
(dp521
g81
g82
ssg70
g515
sg63
(lp522
g333
asbag56
(g77
g58
NtRp523
(dp524
g61
(dp525
g88
g89
ssg70
g515
sg63
(lp526
S':'
asbag56
(g77
g58
NtRp527
(dp528
g61
(dp529
sg70
g515
sg63
(lp530
g56
(g57
g58
NtRp531
(dp532
g61
(dp533
g69
I3
ssg70
g527
sg63
(lp534
S''
asbasbasbag56
(g72
g58
NtRp535
(dp536
g61
(dp537
sg70
g451
sg63
(lp538
g56
(g77
g58
NtRp539
(dp540
g61
(dp541
g81
g82
ssg70
g535
sg63
(lp542
g354
asbag56
(g77
g58
NtRp543
(dp544
g61
(dp545
g88
g89
ssg70
g535
sg63
(lp546
S':'
asbag56
(g77
g58
NtRp547
(dp548
g61
(dp549
sg70
g535
sg63
(lp550
g56
(g57
g58
NtRp551
(dp552
g61
(dp553
g69
I3
ssg70
g547
sg63
(lp554
S''
asbasbasbag56
(g72
g58
NtRp555
(dp556
g61
(dp557
sg70
g451
sg63
(lp558
g56
(g77
g58
NtRp559
(dp560
g61
(dp561
g81
g82
ssg70
g555
sg63
(lp562
g375
asbag56
(g77
g58
NtRp563
(dp564
g61
(dp565
g88
g89
ssg70
g555
sg63
(lp566
S':'
asbag56
(g77
g58
NtRp567
(dp568
g61
(dp569
sg70
g555
sg63
(lp570
g56
(g57
g58
NtRp571
(dp572
g61
(dp573
g69
I3
ssg70
g567
sg63
(lp574
S''
asbasbasbag56
(g72
g58
NtRp575
(dp576
g61
(dp577
sg70
g451
sg63
(lp578
g56
(g77
g58
NtRp579
(dp580
g61
(dp581
g81
g82
ssg70
g575
sg63
(lp582
g396
asbag56
(g77
g58
NtRp583
(dp584
g61
(dp585
g88
g89
ssg70
g575
sg63
(lp586
S':'
asbag56
(g77
g58
NtRp587
(dp588
g61
(dp589
sg70
g575
sg63
(lp590
g56
(g57
g58
NtRp591
(dp592
g61
(dp593
g69
I3
ssg70
g587
sg63
(lp594
S''
asbasbasbag56
(g72
g58
NtRp595
(dp596
g61
(dp597
sg70
g451
sg63
(lp598
g56
(g77
g58
NtRp599
(dp600
g61
(dp601
g81
g82
ssg70
g595
sg63
(lp602
g417
asbag56
(g77
g58
NtRp603
(dp604
g61
(dp605
g88
g89
ssg70
g595
sg63
(lp606
S':'
asbag56
(g77
g58
NtRp607
(dp608
g61
(dp609
sg70
g595
sg63
(lp610
g56
(g57
g58
NtRp611
(dp612
g61
(dp613
g69
I3
ssg70
g607
sg63
(lp614
S''
asbasbasbasbasbasbasbasbasbasbasbag56
(g72
g58
NtRp615
(dp616
g61
(dp617
sg70
g66
sg63
(lp618
g56
(g77
g58
NtRp619
(dp620
g61
(dp621
g81
g82
ssg70
g615
sg63
(lp622
S'env'
p623
asbag56
(g77
g58
NtRp624
(dp625
g61
(dp626
g88
g89
ssg70
g615
sg63
(lp627
S':'
asbag56
(g77
g58
NtRp628
(dp629
g61
(dp630
sg70
g615
sg63
(lp631
g56
(g57
g58
NtRp632
(dp633
g61
(dp634
g69
I5
ssg70
g628
sg63
(lp635
g56
(g65
g58
NtRp636
(dp637
g61
(dp638
g69
I4
ssg70
Nsg63
(lp639
g56
(g72
g58
NtRp640
(dp641
g61
(dp642
sg70
g636
sg63
(lp643
g56
(g77
g58
NtRp644
(dp645
g61
(dp646
g81
g82
ssg70
g640
sg63
(lp647
S'app_folders'
p648
asbag56
(g77
g58
NtRp649
(dp650
g61
(dp651
g88
g89
ssg70
g640
sg63
(lp652
S':'
asbag56
(g77
g58
NtRp653
(dp654
g61
(dp655
sg70
g640
sg63
(lp656
g56
(g57
g58
NtRp657
(dp658
g61
(dp659
g69
I4
ssg70
g653
sg63
(lp660
S"set(['D:\\\\Workbench\\\\web2py_src\\\\applications\\\\admin\\\\', 'D:\\\\Workbench\\\\web2py_src\\\\applications\\\\welcome\\\\'])"
p661
asbasbasbag56
(g72
g58
NtRp662
(dp663
g61
(dp664
sg70
g636
sg63
(lp665
g56
(g77
g58
NtRp666
(dp667
g61
(dp668
g81
g82
ssg70
g662
sg63
(lp669
S'applications_parent'
p670
asbag56
(g77
g58
NtRp671
(dp672
g61
(dp673
g88
g89
ssg70
g662
sg63
(lp674
S':'
asbag56
(g77
g58
NtRp675
(dp676
g61
(dp677
sg70
g662
sg63
(lp678
g56
(g57
g58
NtRp679
(dp680
g61
(dp681
g69
I4
ssg70
g675
sg63
(lp682
S'D:\\Workbench\\web2py_src'
p683
asbasbasbag56
(g72
g58
NtRp684
(dp685
g61
(dp686
sg70
g636
sg63
(lp687
g56
(g77
g58
NtRp688
(dp689
g61
(dp690
g81
g82
ssg70
g684
sg63
(lp691
S'comspec'
p692
asbag56
(g77
g58
NtRp693
(dp694
g61
(dp695
g88
g89
ssg70
g684
sg63
(lp696
S':'
asbag56
(g77
g58
NtRp697
(dp698
g61
(dp699
sg70
g684
sg63
(lp700
g56
(g57
g58
NtRp701
(dp702
g61
(dp703
g69
I4
ssg70
g697
sg63
(lp704
S'C:\\Windows\\system32\\cmd.exe'
p705
asbasbasbag56
(g72
g58
NtRp706
(dp707
g61
(dp708
sg70
g636
sg63
(lp709
g56
(g77
g58
NtRp710
(dp711
g61
(dp712
g81
g82
ssg70
g706
sg63
(lp713
S'content_length'
p714
asbag56
(g77
g58
NtRp715
(dp716
g61
(dp717
g88
g89
ssg70
g706
sg63
(lp718
S':'
asbag56
(g77
g58
NtRp719
(dp720
g61
(dp721
sg70
g706
sg63
(lp722
g56
(g57
g58
NtRp723
(dp724
g61
(dp725
g69
I4
ssg70
g719
sg63
(lp726
S'0'
asbasbasbag56
(g72
g58
NtRp727
(dp728
g61
(dp729
sg70
g636
sg63
(lp730
g56
(g77
g58
NtRp731
(dp732
g61
(dp733
g81
g82
ssg70
g727
sg63
(lp734
S'db_sessions'
p735
asbag56
(g77
g58
NtRp736
(dp737
g61
(dp738
g88
g89
ssg70
g727
sg63
(lp739
S':'
asbag56
(g77
g58
NtRp740
(dp741
g61
(dp742
sg70
g727
sg63
(lp743
g56
(g57
g58
NtRp744
(dp745
g61
(dp746
g69
I4
ssg70
g740
sg63
(lp747
S'set([])'
p748
asbasbasbag56
(g72
g58
NtRp749
(dp750
g61
(dp751
sg70
g636
sg63
(lp752
g56
(g77
g58
NtRp753
(dp754
g61
(dp755
g81
g82
ssg70
g749
sg63
(lp756
S'debugging'
p757
asbag56
(g77
g58
NtRp758
(dp759
g61
(dp760
g88
g89
ssg70
g749
sg63
(lp761
S':'
asbag56
(g77
g58
NtRp762
(dp763
g61
(dp764
sg70
g749
sg63
(lp765
g56
(g57
g58
NtRp766
(dp767
g61
(dp768
g69
I4
ssg70
g762
sg63
(lp769
S'False'
p770
asbasbasbag56
(g72
g58
NtRp771
(dp772
g61
(dp773
sg70
g636
sg63
(lp774
g56
(g77
g58
NtRp775
(dp776
g61
(dp777
g81
g82
ssg70
g771
sg63
(lp778
S'document_root'
p779
asbag56
(g77
g58
NtRp780
(dp781
g61
(dp782
g88
g89
ssg70
g771
sg63
(lp783
S':'
asbag56
(g77
g58
NtRp784
(dp785
g61
(dp786
sg70
g771
sg63
(lp787
g56
(g57
g58
NtRp788
(dp789
g61
(dp790
g69
I4
ssg70
g784
sg63
(lp791
S'D:/Workbench/documentroot'
p792
asbasbasbag56
(g72
g58
NtRp793
(dp794
g61
(dp795
sg70
g636
sg63
(lp796
g56
(g77
g58
NtRp797
(dp798
g61
(dp799
g81
g82
ssg70
g793
sg63
(lp800
S'gateway_interface'
p801
asbag56
(g77
g58
NtRp802
(dp803
g61
(dp804
g88
g89
ssg70
g793
sg63
(lp805
S':'
asbag56
(g77
g58
NtRp806
(dp807
g61
(dp808
sg70
g793
sg63
(lp809
g56
(g57
g58
NtRp810
(dp811
g61
(dp812
g69
I4
ssg70
g806
sg63
(lp813
S'CGI/1.1'
p814
asbasbasbag56
(g72
g58
NtRp815
(dp816
g61
(dp817
sg70
g636
sg63
(lp818
g56
(g77
g58
NtRp819
(dp820
g61
(dp821
g81
g82
ssg70
g815
sg63
(lp822
S'gluon_parent'
p823
asbag56
(g77
g58
NtRp824
(dp825
g61
(dp826
g88
g89
ssg70
g815
sg63
(lp827
S':'
asbag56
(g77
g58
NtRp828
(dp829
g61
(dp830
sg70
g815
sg63
(lp831
g56
(g57
g58
NtRp832
(dp833
g61
(dp834
g69
I4
ssg70
g828
sg63
(lp835
g683
asbasbasbag56
(g72
g58
NtRp836
(dp837
g61
(dp838
sg70
g636
sg63
(lp839
g56
(g77
g58
NtRp840
(dp841
g61
(dp842
g81
g82
ssg70
g836
sg63
(lp843
S'http_accept'
p844
asbag56
(g77
g58
NtRp845
(dp846
g61
(dp847
g88
g89
ssg70
g836
sg63
(lp848
S':'
asbag56
(g77
g58
NtRp849
(dp850
g61
(dp851
sg70
g836
sg63
(lp852
g56
(g57
g58
NtRp853
(dp854
g61
(dp855
g69
I4
ssg70
g849
sg63
(lp856
S'*/*'
p857
asbasbasbag56
(g72
g58
NtRp858
(dp859
g61
(dp860
sg70
g636
sg63
(lp861
g56
(g77
g58
NtRp862
(dp863
g61
(dp864
g81
g82
ssg70
g858
sg63
(lp865
S'http_accept_charset'
p866
asbag56
(g77
g58
NtRp867
(dp868
g61
(dp869
g88
g89
ssg70
g858
sg63
(lp870
S':'
asbag56
(g77
g58
NtRp871
(dp872
g61
(dp873
sg70
g858
sg63
(lp874
g56
(g57
g58
NtRp875
(dp876
g61
(dp877
g69
I4
ssg70
g871
sg63
(lp878
S'GBK,utf-8;q=0.7,*;q=0.3'
p879
asbasbasbag56
(g72
g58
NtRp880
(dp881
g61
(dp882
sg70
g636
sg63
(lp883
g56
(g77
g58
NtRp884
(dp885
g61
(dp886
g81
g82
ssg70
g880
sg63
(lp887
S'http_accept_encoding'
p888
asbag56
(g77
g58
NtRp889
(dp890
g61
(dp891
g88
g89
ssg70
g880
sg63
(lp892
S':'
asbag56
(g77
g58
NtRp893
(dp894
g61
(dp895
sg70
g880
sg63
(lp896
g56
(g57
g58
NtRp897
(dp898
g61
(dp899
g69
I4
ssg70
g893
sg63
(lp900
S'gzip,deflate,sdch'
p901
asbasbasbag56
(g72
g58
NtRp902
(dp903
g61
(dp904
sg70
g636
sg63
(lp905
g56
(g77
g58
NtRp906
(dp907
g61
(dp908
g81
g82
ssg70
g902
sg63
(lp909
S'http_accept_language'
p910
asbag56
(g77
g58
NtRp911
(dp912
g61
(dp913
g88
g89
ssg70
g902
sg63
(lp914
S':'
asbag56
(g77
g58
NtRp915
(dp916
g61
(dp917
sg70
g902
sg63
(lp918
g56
(g57
g58
NtRp919
(dp920
g61
(dp921
g69
I4
ssg70
g915
sg63
(lp922
S'zh-CN,zh;q=0.8'
p923
asbasbasbag56
(g72
g58
NtRp924
(dp925
g61
(dp926
sg70
g636
sg63
(lp927
g56
(g77
g58
NtRp928
(dp929
g61
(dp930
g81
g82
ssg70
g924
sg63
(lp931
S'http_connection'
p932
asbag56
(g77
g58
NtRp933
(dp934
g61
(dp935
g88
g89
ssg70
g924
sg63
(lp936
S':'
asbag56
(g77
g58
NtRp937
(dp938
g61
(dp939
sg70
g924
sg63
(lp940
g56
(g57
g58
NtRp941
(dp942
g61
(dp943
g69
I4
ssg70
g937
sg63
(lp944
S'keep-alive'
p945
asbasbasbag56
(g72
g58
NtRp946
(dp947
g61
(dp948
sg70
g636
sg63
(lp949
g56
(g77
g58
NtRp950
(dp951
g61
(dp952
g81
g82
ssg70
g946
sg63
(lp953
S'http_cookie'
p954
asbag56
(g77
g58
NtRp955
(dp956
g61
(dp957
g88
g89
ssg70
g946
sg63
(lp958
S':'
asbag56
(g77
g58
NtRp959
(dp960
g61
(dp961
sg70
g946
sg63
(lp962
g56
(g57
g58
NtRp963
(dp964
g61
(dp965
g69
I4
ssg70
g959
sg63
(lp966
S'session_id_welcome=127.0.0.1-2974afab-9cee-4edc-a9d9-ca7e3b9dedca; session_id_admin=127.0.0.1-72abd675-70d4-4fd8-8601-dbdefde9533f'
p967
asbasbasbag56
(g72
g58
NtRp968
(dp969
g61
(dp970
sg70
g636
sg63
(lp971
g56
(g77
g58
NtRp972
(dp973
g61
(dp974
g81
g82
ssg70
g968
sg63
(lp975
S'http_host'
p976
asbag56
(g77
g58
NtRp977
(dp978
g61
(dp979
g88
g89
ssg70
g968
sg63
(lp980
S':'
asbag56
(g77
g58
NtRp981
(dp982
g61
(dp983
sg70
g968
sg63
(lp984
g56
(g57
g58
NtRp985
(dp986
g61
(dp987
g69
I4
ssg70
g981
sg63
(lp988
S'localhost'
p989
asbasbasbag56
(g72
g58
NtRp990
(dp991
g61
(dp992
sg70
g636
sg63
(lp993
g56
(g77
g58
NtRp994
(dp995
g61
(dp996
g81
g82
ssg70
g990
sg63
(lp997
S'http_origin'
p998
asbag56
(g77
g58
NtRp999
(dp1000
g61
(dp1001
g88
g89
ssg70
g990
sg63
(lp1002
S':'
asbag56
(g77
g58
NtRp1003
(dp1004
g61
(dp1005
sg70
g990
sg63
(lp1006
g56
(g57
g58
NtRp1007
(dp1008
g61
(dp1009
g69
I4
ssg70
g1003
sg63
(lp1010
S'http://localhost'
p1011
asbasbasbag56
(g72
g58
NtRp1012
(dp1013
g61
(dp1014
sg70
g636
sg63
(lp1015
g56
(g77
g58
NtRp1016
(dp1017
g61
(dp1018
g81
g82
ssg70
g1012
sg63
(lp1019
S'http_referer'
p1020
asbag56
(g77
g58
NtRp1021
(dp1022
g61
(dp1023
g88
g89
ssg70
g1012
sg63
(lp1024
S':'
asbag56
(g77
g58
NtRp1025
(dp1026
g61
(dp1027
sg70
g1012
sg63
(lp1028
g56
(g57
g58
NtRp1029
(dp1030
g61
(dp1031
g69
I4
ssg70
g1025
sg63
(lp1032
S'http://localhost/admin/default/site'
p1033
asbasbasbag56
(g72
g58
NtRp1034
(dp1035
g61
(dp1036
sg70
g636
sg63
(lp1037
g56
(g77
g58
NtRp1038
(dp1039
g61
(dp1040
g81
g82
ssg70
g1034
sg63
(lp1041
S'http_user_agent'
p1042
asbag56
(g77
g58
NtRp1043
(dp1044
g61
(dp1045
g88
g89
ssg70
g1034
sg63
(lp1046
S':'
asbag56
(g77
g58
NtRp1047
(dp1048
g61
(dp1049
sg70
g1034
sg63
(lp1050
g56
(g57
g58
NtRp1051
(dp1052
g61
(dp1053
g69
I4
ssg70
g1047
sg63
(lp1054
S'Mozilla/5.0 (Windows NT 6.1) AppleWebKit/535.2 (KHTML, like Gecko) Chrome/15.0.874.121 Safari/535.2'
p1055
asbasbasbag56
(g72
g58
NtRp1056
(dp1057
g61
(dp1058
sg70
g636
sg63
(lp1059
g56
(g77
g58
NtRp1060
(dp1061
g61
(dp1062
g81
g82
ssg70
g1056
sg63
(lp1063
S'http_x_requested_with'
p1064
asbag56
(g77
g58
NtRp1065
(dp1066
g61
(dp1067
g88
g89
ssg70
g1056
sg63
(lp1068
S':'
asbag56
(g77
g58
NtRp1069
(dp1070
g61
(dp1071
sg70
g1056
sg63
(lp1072
g56
(g57
g58
NtRp1073
(dp1074
g61
(dp1075
g69
I4
ssg70
g1069
sg63
(lp1076
S'XMLHttpRequest'
p1077
asbasbasbag56
(g72
g58
NtRp1078
(dp1079
g61
(dp1080
sg70
g636
sg63
(lp1081
g56
(g77
g58
NtRp1082
(dp1083
g61
(dp1084
g81
g82
ssg70
g1078
sg63
(lp1085
S'is_jython'
p1086
asbag56
(g77
g58
NtRp1087
(dp1088
g61
(dp1089
g88
g89
ssg70
g1078
sg63
(lp1090
S':'
asbag56
(g77
g58
NtRp1091
(dp1092
g61
(dp1093
sg70
g1078
sg63
(lp1094
g56
(g57
g58
NtRp1095
(dp1096
g61
(dp1097
g69
I4
ssg70
g1091
sg63
(lp1098
g770
asbasbasbag56
(g72
g58
NtRp1099
(dp1100
g61
(dp1101
sg70
g636
sg63
(lp1102
g56
(g77
g58
NtRp1103
(dp1104
g61
(dp1105
g81
g82
ssg70
g1099
sg63
(lp1106
S'mod_wsgi_application_group'
p1107
asbag56
(g77
g58
NtRp1108
(dp1109
g61
(dp1110
g88
g89
ssg70
g1099
sg63
(lp1111
S':'
asbag56
(g77
g58
NtRp1112
(dp1113
g61
(dp1114
sg70
g1099
sg63
(lp1115
g56
(g57
g58
NtRp1116
(dp1117
g61
(dp1118
g69
I4
ssg70
g1112
sg63
(lp1119
S'XIAOFTANG-NB.tencent.com|'
p1120
asbasbasbag56
(g72
g58
NtRp1121
(dp1122
g61
(dp1123
sg70
g636
sg63
(lp1124
g56
(g77
g58
NtRp1125
(dp1126
g61
(dp1127
g81
g82
ssg70
g1121
sg63
(lp1128
S'mod_wsgi_callable_object'
p1129
asbag56
(g77
g58
NtRp1130
(dp1131
g61
(dp1132
g88
g89
ssg70
g1121
sg63
(lp1133
S':'
asbag56
(g77
g58
NtRp1134
(dp1135
g61
(dp1136
sg70
g1121
sg63
(lp1137
g56
(g57
g58
NtRp1138
(dp1139
g61
(dp1140
g69
I4
ssg70
g1134
sg63
(lp1141
S'application'
p1142
asbasbasbag56
(g72
g58
NtRp1143
(dp1144
g61
(dp1145
sg70
g636
sg63
(lp1146
g56
(g77
g58
NtRp1147
(dp1148
g61
(dp1149
g81
g82
ssg70
g1143
sg63
(lp1150
S'mod_wsgi_handler_script'
p1151
asbag56
(g77
g58
NtRp1152
(dp1153
g61
(dp1154
g88
g89
ssg70
g1143
sg63
(lp1155
S':'
asbag56
(g77
g58
NtRp1156
(dp1157
g61
(dp1158
sg70
g1143
sg63
(lp1159
g56
(g57
g58
NtRp1160
(dp1161
g61
(dp1162
g69
I4
ssg70
g1156
sg63
(lp1163
S''
asbasbasbag56
(g72
g58
NtRp1164
(dp1165
g61
(dp1166
sg70
g636
sg63
(lp1167
g56
(g77
g58
NtRp1168
(dp1169
g61
(dp1170
g81
g82
ssg70
g1164
sg63
(lp1171
S'mod_wsgi_input_chunked'
p1172
asbag56
(g77
g58
NtRp1173
(dp1174
g61
(dp1175
g88
g89
ssg70
g1164
sg63
(lp1176
S':'
asbag56
(g77
g58
NtRp1177
(dp1178
g61
(dp1179
sg70
g1164
sg63
(lp1180
g56
(g57
g58
NtRp1181
(dp1182
g61
(dp1183
g69
I4
ssg70
g1177
sg63
(lp1184
S'0'
asbasbasbag56
(g72
g58
NtRp1185
(dp1186
g61
(dp1187
sg70
g636
sg63
(lp1188
g56
(g77
g58
NtRp1189
(dp1190
g61
(dp1191
g81
g82
ssg70
g1185
sg63
(lp1192
S'mod_wsgi_process_group'
p1193
asbag56
(g77
g58
NtRp1194
(dp1195
g61
(dp1196
g88
g89
ssg70
g1185
sg63
(lp1197
S':'
asbag56
(g77
g58
NtRp1198
(dp1199
g61
(dp1200
sg70
g1185
sg63
(lp1201
g56
(g57
g58
NtRp1202
(dp1203
g61
(dp1204
g69
I4
ssg70
g1198
sg63
(lp1205
S''
asbasbasbag56
(g72
g58
NtRp1206
(dp1207
g61
(dp1208
sg70
g636
sg63
(lp1209
g56
(g77
g58
NtRp1210
(dp1211
g61
(dp1212
g81
g82
ssg70
g1206
sg63
(lp1213
S'mod_wsgi_request_handler'
p1214
asbag56
(g77
g58
NtRp1215
(dp1216
g61
(dp1217
g88
g89
ssg70
g1206
sg63
(lp1218
S':'
asbag56
(g77
g58
NtRp1219
(dp1220
g61
(dp1221
sg70
g1206
sg63
(lp1222
g56
(g57
g58
NtRp1223
(dp1224
g61
(dp1225
g69
I4
ssg70
g1219
sg63
(lp1226
S'wsgi-script'
p1227
asbasbasbag56
(g72
g58
NtRp1228
(dp1229
g61
(dp1230
sg70
g636
sg63
(lp1231
g56
(g77
g58
NtRp1232
(dp1233
g61
(dp1234
g81
g82
ssg70
g1228
sg63
(lp1235
S'mod_wsgi_script_reloading'
p1236
asbag56
(g77
g58
NtRp1237
(dp1238
g61
(dp1239
g88
g89
ssg70
g1228
sg63
(lp1240
S':'
asbag56
(g77
g58
NtRp1241
(dp1242
g61
(dp1243
sg70
g1228
sg63
(lp1244
g56
(g57
g58
NtRp1245
(dp1246
g61
(dp1247
g69
I4
ssg70
g1241
sg63
(lp1248
S'1'
asbasbasbag56
(g72
g58
NtRp1249
(dp1250
g61
(dp1251
sg70
g636
sg63
(lp1252
g56
(g77
g58
NtRp1253
(dp1254
g61
(dp1255
g81
g82
ssg70
g1249
sg63
(lp1256
S'mod_wsgi_version'
p1257
asbag56
(g77
g58
NtRp1258
(dp1259
g61
(dp1260
g88
g89
ssg70
g1249
sg63
(lp1261
S':'
asbag56
(g77
g58
NtRp1262
(dp1263
g61
(dp1264
sg70
g1249
sg63
(lp1265
g56
(g57
g58
NtRp1266
(dp1267
g61
(dp1268
g69
I4
ssg70
g1262
sg63
(lp1269
g56
(g65
g58
NtRp1270
(dp1271
g61
(dp1272
g69
I3
ssg70
Nsg63
(lp1273
g56
(g72
g58
NtRp1274
(dp1275
g61
(dp1276
sg70
g1270
sg63
(lp1277
g56
(g77
g58
NtRp1278
(dp1279
g61
(dp1280
sg70
g1274
sg63
(lp1281
g56
(g57
g58
NtRp1282
(dp1283
g61
(dp1284
g69
I3
ssg70
g1278
sg63
(lp1285
S'3'
asbasbasbag56
(g72
g58
NtRp1286
(dp1287
g61
(dp1288
sg70
g1270
sg63
(lp1289
g56
(g77
g58
NtRp1290
(dp1291
g61
(dp1292
sg70
g1286
sg63
(lp1293
g56
(g57
g58
NtRp1294
(dp1295
g61
(dp1296
g69
I3
ssg70
g1290
sg63
(lp1297
S'3'
asbasbasbasbasbasbasbag56
(g72
g58
NtRp1298
(dp1299
g61
(dp1300
sg70
g636
sg63
(lp1301
g56
(g77
g58
NtRp1302
(dp1303
g61
(dp1304
g81
g82
ssg70
g1298
sg63
(lp1305
S'path_info'
p1306
asbag56
(g77
g58
NtRp1307
(dp1308
g61
(dp1309
g88
g89
ssg70
g1298
sg63
(lp1310
S':'
asbag56
(g77
g58
NtRp1311
(dp1312
g61
(dp1313
sg70
g1298
sg63
(lp1314
g56
(g57
g58
NtRp1315
(dp1316
g61
(dp1317
g69
I4
ssg70
g1311
sg63
(lp1318
S'/admin/default/check_version'
p1319
asbasbasbag56
(g72
g58
NtRp1320
(dp1321
g61
(dp1322
sg70
g636
sg63
(lp1323
g56
(g77
g58
NtRp1324
(dp1325
g61
(dp1326
g81
g82
ssg70
g1320
sg63
(lp1327
S'path_translated'
p1328
asbag56
(g77
g58
NtRp1329
(dp1330
g61
(dp1331
g88
g89
ssg70
g1320
sg63
(lp1332
S':'
asbag56
(g77
g58
NtRp1333
(dp1334
g61
(dp1335
sg70
g1320
sg63
(lp1336
g56
(g57
g58
NtRp1337
(dp1338
g61
(dp1339
g69
I4
ssg70
g1333
sg63
(lp1340
S'D:\\Workbench\\web2py_src\\wsgihandler.py\\admin\\default\\check_version'
p1341
asbasbasbag56
(g72
g58
NtRp1342
(dp1343
g61
(dp1344
sg70
g636
sg63
(lp1345
g56
(g77
g58
NtRp1346
(dp1347
g61
(dp1348
g81
g82
ssg70
g1342
sg63
(lp1349
S'pathext'
p1350
asbag56
(g77
g58
NtRp1351
(dp1352
g61
(dp1353
g88
g89
ssg70
g1342
sg63
(lp1354
S':'
asbag56
(g77
g58
NtRp1355
(dp1356
g61
(dp1357
sg70
g1342
sg63
(lp1358
g56
(g57
g58
NtRp1359
(dp1360
g61
(dp1361
g69
I4
ssg70
g1355
sg63
(lp1362
S'.COM;.EXE;.BAT;.CMD;.VBS;.VBE;.JS;.JSE;.WSF;.WSH;.MSC;.py;.pyw'
p1363
asbasbasbag56
(g72
g58
NtRp1364
(dp1365
g61
(dp1366
sg70
g636
sg63
(lp1367
g56
(g77
g58
NtRp1368
(dp1369
g61
(dp1370
g81
g82
ssg70
g1364
sg63
(lp1371
S'query_string'
p1372
asbag56
(g77
g58
NtRp1373
(dp1374
g61
(dp1375
g88
g89
ssg70
g1364
sg63
(lp1376
S':'
asbag56
(g77
g58
NtRp1377
(dp1378
g61
(dp1379
sg70
g1364
sg63
(lp1380
g56
(g57
g58
NtRp1381
(dp1382
g61
(dp1383
g69
I4
ssg70
g1377
sg63
(lp1384
S''
asbasbasbag56
(g72
g58
NtRp1385
(dp1386
g61
(dp1387
sg70
g636
sg63
(lp1388
g56
(g77
g58
NtRp1389
(dp1390
g61
(dp1391
g81
g82
ssg70
g1385
sg63
(lp1392
S'remote_addr'
p1393
asbag56
(g77
g58
NtRp1394
(dp1395
g61
(dp1396
g88
g89
ssg70
g1385
sg63
(lp1397
S':'
asbag56
(g77
g58
NtRp1398
(dp1399
g61
(dp1400
sg70
g1385
sg63
(lp1401
g56
(g57
g58
NtRp1402
(dp1403
g61
(dp1404
g69
I4
ssg70
g1398
sg63
(lp1405
g189
asbasbasbag56
(g72
g58
NtRp1406
(dp1407
g61
(dp1408
sg70
g636
sg63
(lp1409
g56
(g77
g58
NtRp1410
(dp1411
g61
(dp1412
g81
g82
ssg70
g1406
sg63
(lp1413
S'remote_port'
p1414
asbag56
(g77
g58
NtRp1415
(dp1416
g61
(dp1417
g88
g89
ssg70
g1406
sg63
(lp1418
S':'
asbag56
(g77
g58
NtRp1419
(dp1420
g61
(dp1421
sg70
g1406
sg63
(lp1422
g56
(g57
g58
NtRp1423
(dp1424
g61
(dp1425
g69
I4
ssg70
g1419
sg63
(lp1426
S'17878'
p1427
asbasbasbag56
(g72
g58
NtRp1428
(dp1429
g61
(dp1430
sg70
g636
sg63
(lp1431
g56
(g77
g58
NtRp1432
(dp1433
g61
(dp1434
g81
g82
ssg70
g1428
sg63
(lp1435
S'request_method'
p1436
asbag56
(g77
g58
NtRp1437
(dp1438
g61
(dp1439
g88
g89
ssg70
g1428
sg63
(lp1440
S':'
asbag56
(g77
g58
NtRp1441
(dp1442
g61
(dp1443
sg70
g1428
sg63
(lp1444
g56
(g57
g58
NtRp1445
(dp1446
g61
(dp1447
g69
I4
ssg70
g1441
sg63
(lp1448
S'POST'
p1449
asbasbasbag56
(g72
g58
NtRp1450
(dp1451
g61
(dp1452
sg70
g636
sg63
(lp1453
g56
(g77
g58
NtRp1454
(dp1455
g61
(dp1456
g81
g82
ssg70
g1450
sg63
(lp1457
S'request_uri'
p1458
asbag56
(g77
g58
NtRp1459
(dp1460
g61
(dp1461
g88
g89
ssg70
g1450
sg63
(lp1462
S':'
asbag56
(g77
g58
NtRp1463
(dp1464
g61
(dp1465
sg70
g1450
sg63
(lp1466
g56
(g57
g58
NtRp1467
(dp1468
g61
(dp1469
g69
I4
ssg70
g1463
sg63
(lp1470
S'/admin/default/check_version'
p1471
asbasbasbag56
(g72
g58
NtRp1472
(dp1473
g61
(dp1474
sg70
g636
sg63
(lp1475
g56
(g77
g58
NtRp1476
(dp1477
g61
(dp1478
g81
g82
ssg70
g1472
sg63
(lp1479
S'script_filename'
p1480
asbag56
(g77
g58
NtRp1481
(dp1482
g61
(dp1483
g88
g89
ssg70
g1472
sg63
(lp1484
S':'
asbag56
(g77
g58
NtRp1485
(dp1486
g61
(dp1487
sg70
g1472
sg63
(lp1488
g56
(g57
g58
NtRp1489
(dp1490
g61
(dp1491
g69
I4
ssg70
g1485
sg63
(lp1492
S'D:/Workbench/web2py_src/wsgihandler.py'
p1493
asbasbasbag56
(g72
g58
NtRp1494
(dp1495
g61
(dp1496
sg70
g636
sg63
(lp1497
g56
(g77
g58
NtRp1498
(dp1499
g61
(dp1500
g81
g82
ssg70
g1494
sg63
(lp1501
S'script_name'
p1502
asbag56
(g77
g58
NtRp1503
(dp1504
g61
(dp1505
g88
g89
ssg70
g1494
sg63
(lp1506
S':'
asbag56
(g77
g58
NtRp1507
(dp1508
g61
(dp1509
sg70
g1494
sg63
(lp1510
g56
(g57
g58
NtRp1511
(dp1512
g61
(dp1513
g69
I4
ssg70
g1507
sg63
(lp1514
S''
asbasbasbag56
(g72
g58
NtRp1515
(dp1516
g61
(dp1517
sg70
g636
sg63
(lp1518
g56
(g77
g58
NtRp1519
(dp1520
g61
(dp1521
g81
g82
ssg70
g1515
sg63
(lp1522
S'server_addr'
p1523
asbag56
(g77
g58
NtRp1524
(dp1525
g61
(dp1526
g88
g89
ssg70
g1515
sg63
(lp1527
S':'
asbag56
(g77
g58
NtRp1528
(dp1529
g61
(dp1530
sg70
g1515
sg63
(lp1531
g56
(g57
g58
NtRp1532
(dp1533
g61
(dp1534
g69
I4
ssg70
g1528
sg63
(lp1535
S'127.0.0.1'
p1536
asbasbasbag56
(g72
g58
NtRp1537
(dp1538
g61
(dp1539
sg70
g636
sg63
(lp1540
g56
(g77
g58
NtRp1541
(dp1542
g61
(dp1543
g81
g82
ssg70
g1537
sg63
(lp1544
S'server_admin'
p1545
asbag56
(g77
g58
NtRp1546
(dp1547
g61
(dp1548
g88
g89
ssg70
g1537
sg63
(lp1549
S':'
asbag56
(g77
g58
NtRp1550
(dp1551
g61
(dp1552
sg70
g1537
sg63
(lp1553
g56
(g57
g58
NtRp1554
(dp1555
g61
(dp1556
g69
I4
ssg70
g1550
sg63
(lp1557
S'admin@tencent.com'
p1558
asbasbasbag56
(g72
g58
NtRp1559
(dp1560
g61
(dp1561
sg70
g636
sg63
(lp1562
g56
(g77
g58
NtRp1563
(dp1564
g61
(dp1565
g81
g82
ssg70
g1559
sg63
(lp1566
S'server_name'
p1567
asbag56
(g77
g58
NtRp1568
(dp1569
g61
(dp1570
g88
g89
ssg70
g1559
sg63
(lp1571
S':'
asbag56
(g77
g58
NtRp1572
(dp1573
g61
(dp1574
sg70
g1559
sg63
(lp1575
g56
(g57
g58
NtRp1576
(dp1577
g61
(dp1578
g69
I4
ssg70
g1572
sg63
(lp1579
S'localhost'
p1580
asbasbasbag56
(g72
g58
NtRp1581
(dp1582
g61
(dp1583
sg70
g636
sg63
(lp1584
g56
(g77
g58
NtRp1585
(dp1586
g61
(dp1587
g81
g82
ssg70
g1581
sg63
(lp1588
S'server_port'
p1589
asbag56
(g77
g58
NtRp1590
(dp1591
g61
(dp1592
g88
g89
ssg70
g1581
sg63
(lp1593
S':'
asbag56
(g77
g58
NtRp1594
(dp1595
g61
(dp1596
sg70
g1581
sg63
(lp1597
g56
(g57
g58
NtRp1598
(dp1599
g61
(dp1600
g69
I4
ssg70
g1594
sg63
(lp1601
S'80'
p1602
asbasbasbag56
(g72
g58
NtRp1603
(dp1604
g61
(dp1605
sg70
g636
sg63
(lp1606
g56
(g77
g58
NtRp1607
(dp1608
g61
(dp1609
g81
g82
ssg70
g1603
sg63
(lp1610
S'server_protocol'
p1611
asbag56
(g77
g58
NtRp1612
(dp1613
g61
(dp1614
g88
g89
ssg70
g1603
sg63
(lp1615
S':'
asbag56
(g77
g58
NtRp1616
(dp1617
g61
(dp1618
sg70
g1603
sg63
(lp1619
g56
(g57
g58
NtRp1620
(dp1621
g61
(dp1622
g69
I4
ssg70
g1616
sg63
(lp1623
S'HTTP/1.1'
p1624
asbasbasbag56
(g72
g58
NtRp1625
(dp1626
g61
(dp1627
sg70
g636
sg63
(lp1628
g56
(g77
g58
NtRp1629
(dp1630
g61
(dp1631
g81
g82
ssg70
g1625
sg63
(lp1632
S'server_signature'
p1633
asbag56
(g77
g58
NtRp1634
(dp1635
g61
(dp1636
g88
g89
ssg70
g1625
sg63
(lp1637
S':'
asbag56
(g77
g58
NtRp1638
(dp1639
g61
(dp1640
sg70
g1625
sg63
(lp1641
g56
(g57
g58
NtRp1642
(dp1643
g61
(dp1644
g69
I4
ssg70
g1638
sg63
(lp1645
S''
asbasbasbag56
(g72
g58
NtRp1646
(dp1647
g61
(dp1648
sg70
g636
sg63
(lp1649
g56
(g77
g58
NtRp1650
(dp1651
g61
(dp1652
g81
g82
ssg70
g1646
sg63
(lp1653
S'server_software'
p1654
asbag56
(g77
g58
NtRp1655
(dp1656
g61
(dp1657
g88
g89
ssg70
g1646
sg63
(lp1658
S':'
asbag56
(g77
g58
NtRp1659
(dp1660
g61
(dp1661
sg70
g1646
sg63
(lp1662
g56
(g57
g58
NtRp1663
(dp1664
g61
(dp1665
g69
I4
ssg70
g1659
sg63
(lp1666
S'Apache/2.2.21 (Win32) PHP/5.2.17 mod_wsgi/3.3 Python/2.7.2'
p1667
asbasbasbag56
(g72
g58
NtRp1668
(dp1669
g61
(dp1670
sg70
g636
sg63
(lp1671
g56
(g77
g58
NtRp1672
(dp1673
g61
(dp1674
g81
g82
ssg70
g1668
sg63
(lp1675
S'systemroot'
p1676
asbag56
(g77
g58
NtRp1677
(dp1678
g61
(dp1679
g88
g89
ssg70
g1668
sg63
(lp1680
S':'
asbag56
(g77
g58
NtRp1681
(dp1682
g61
(dp1683
sg70
g1668
sg63
(lp1684
g56
(g57
g58
NtRp1685
(dp1686
g61
(dp1687
g69
I4
ssg70
g1681
sg63
(lp1688
S'C:\\Windows'
p1689
asbasbasbag56
(g72
g58
NtRp1690
(dp1691
g61
(dp1692
sg70
g636
sg63
(lp1693
g56
(g77
g58
NtRp1694
(dp1695
g61
(dp1696
g81
g82
ssg70
g1690
sg63
(lp1697
S'web2py_path'
p1698
asbag56
(g77
g58
NtRp1699
(dp1700
g61
(dp1701
g88
g89
ssg70
g1690
sg63
(lp1702
S':'
asbag56
(g77
g58
NtRp1703
(dp1704
g61
(dp1705
sg70
g1690
sg63
(lp1706
g56
(g57
g58
NtRp1707
(dp1708
g61
(dp1709
g69
I4
ssg70
g1703
sg63
(lp1710
g683
asbasbasbag56
(g72
g58
NtRp1711
(dp1712
g61
(dp1713
sg70
g636
sg63
(lp1714
g56
(g77
g58
NtRp1715
(dp1716
g61
(dp1717
g81
g82
ssg70
g1711
sg63
(lp1718
S'web2py_version'
p1719
asbag56
(g77
g58
NtRp1720
(dp1721
g61
(dp1722
g88
g89
ssg70
g1711
sg63
(lp1723
S':'
asbag56
(g77
g58
NtRp1724
(dp1725
g61
(dp1726
sg70
g1711
sg63
(lp1727
g56
(g57
g58
NtRp1728
(dp1729
g61
(dp1730
g69
I4
ssg70
g1724
sg63
(lp1731
g56
(g65
g58
NtRp1732
(dp1733
g61
(dp1734
g69
I3
ssg70
Nsg63
(lp1735
g56
(g72
g58
NtRp1736
(dp1737
g61
(dp1738
sg70
g1732
sg63
(lp1739
g56
(g77
g58
NtRp1740
(dp1741
g61
(dp1742
sg70
g1736
sg63
(lp1743
g56
(g57
g58
NtRp1744
(dp1745
g61
(dp1746
g69
I3
ssg70
g1740
sg63
(lp1747
S'1'
asbasbasbag56
(g72
g58
NtRp1748
(dp1749
g61
(dp1750
sg70
g1732
sg63
(lp1751
g56
(g77
g58
NtRp1752
(dp1753
g61
(dp1754
sg70
g1748
sg63
(lp1755
g56
(g57
g58
NtRp1756
(dp1757
g61
(dp1758
g69
I3
ssg70
g1752
sg63
(lp1759
S'99'
p1760
asbasbasbag56
(g72
g58
NtRp1761
(dp1762
g61
(dp1763
sg70
g1732
sg63
(lp1764
g56
(g77
g58
NtRp1765
(dp1766
g61
(dp1767
sg70
g1761
sg63
(lp1768
g56
(g57
g58
NtRp1769
(dp1770
g61
(dp1771
g69
I3
ssg70
g1765
sg63
(lp1772
S'2'
asbasbasbag56
(g72
g58
NtRp1773
(dp1774
g61
(dp1775
sg70
g1732
sg63
(lp1776
g56
(g77
g58
NtRp1777
(dp1778
g61
(dp1779
sg70
g1773
sg63
(lp1780
g56
(g57
g58
NtRp1781
(dp1782
g61
(dp1783
g69
I3
ssg70
g1777
sg63
(lp1784
S'datetime.datetime(2011, 9, 26, 6, 55, 33)'
p1785
asbasbasbag56
(g72
g58
NtRp1786
(dp1787
g61
(dp1788
sg70
g1732
sg63
(lp1789
g56
(g77
g58
NtRp1790
(dp1791
g61
(dp1792
sg70
g1786
sg63
(lp1793
g56
(g57
g58
NtRp1794
(dp1795
g61
(dp1796
g69
I3
ssg70
g1790
sg63
(lp1797
S'stable'
p1798
asbasbasbasbasbasbasbag56
(g72
g58
NtRp1799
(dp1800
g61
(dp1801
sg70
g636
sg63
(lp1802
g56
(g77
g58
NtRp1803
(dp1804
g61
(dp1805
g81
g82
ssg70
g1799
sg63
(lp1806
S'windir'
p1807
asbag56
(g77
g58
NtRp1808
(dp1809
g61
(dp1810
g88
g89
ssg70
g1799
sg63
(lp1811
S':'
asbag56
(g77
g58
NtRp1812
(dp1813
g61
(dp1814
sg70
g1799
sg63
(lp1815
g56
(g57
g58
NtRp1816
(dp1817
g61
(dp1818
g69
I4
ssg70
g1812
sg63
(lp1819
S'C:\\Windows'
p1820
asbasbasbag56
(g72
g58
NtRp1821
(dp1822
g61
(dp1823
sg70
g636
sg63
(lp1824
g56
(g77
g58
NtRp1825
(dp1826
g61
(dp1827
g81
g82
ssg70
g1821
sg63
(lp1828
S'wsgi_errors'
p1829
asbag56
(g77
g58
NtRp1830
(dp1831
g61
(dp1832
g88
g89
ssg70
g1821
sg63
(lp1833
S':'
asbag56
(g77
g58
NtRp1834
(dp1835
g61
(dp1836
sg70
g1821
sg63
(lp1837
g56
(g57
g58
NtRp1838
(dp1839
g61
(dp1840
g69
I4
ssg70
g1834
sg63
(lp1841
S'<mod_wsgi.Log object at 0x03A26CA0>'
p1842
asbasbasbag56
(g72
g58
NtRp1843
(dp1844
g61
(dp1845
sg70
g636
sg63
(lp1846
g56
(g77
g58
NtRp1847
(dp1848
g61
(dp1849
g81
g82
ssg70
g1843
sg63
(lp1850
S'wsgi_file_wrapper'
p1851
asbag56
(g77
g58
NtRp1852
(dp1853
g61
(dp1854
g88
g89
ssg70
g1843
sg63
(lp1855
S':'
asbag56
(g77
g58
NtRp1856
(dp1857
g61
(dp1858
sg70
g1843
sg63
(lp1859
g56
(g57
g58
NtRp1860
(dp1861
g61
(dp1862
g69
I4
ssg70
g1856
sg63
(lp1863
S'<built-in method file_wrapper of mod_wsgi.Adapter object at 0x037B9380>'
p1864
asbasbasbag56
(g72
g58
NtRp1865
(dp1866
g61
(dp1867
sg70
g636
sg63
(lp1868
g56
(g77
g58
NtRp1869
(dp1870
g61
(dp1871
g81
g82
ssg70
g1865
sg63
(lp1872
S'wsgi_input'
p1873
asbag56
(g77
g58
NtRp1874
(dp1875
g61
(dp1876
g88
g89
ssg70
g1865
sg63
(lp1877
S':'
asbag56
(g77
g58
NtRp1878
(dp1879
g61
(dp1880
sg70
g1865
sg63
(lp1881
g56
(g57
g58
NtRp1882
(dp1883
g61
(dp1884
g69
I4
ssg70
g1878
sg63
(lp1885
S'<mod_wsgi.Input object at 0x03A26BD8>'
p1886
asbasbasbag56
(g72
g58
NtRp1887
(dp1888
g61
(dp1889
sg70
g636
sg63
(lp1890
g56
(g77
g58
NtRp1891
(dp1892
g61
(dp1893
g81
g82
ssg70
g1887
sg63
(lp1894
S'wsgi_multiprocess'
p1895
asbag56
(g77
g58
NtRp1896
(dp1897
g61
(dp1898
g88
g89
ssg70
g1887
sg63
(lp1899
S':'
asbag56
(g77
g58
NtRp1900
(dp1901
g61
(dp1902
sg70
g1887
sg63
(lp1903
g56
(g57
g58
NtRp1904
(dp1905
g61
(dp1906
g69
I4
ssg70
g1900
sg63
(lp1907
g770
asbasbasbag56
(g72
g58
NtRp1908
(dp1909
g61
(dp1910
sg70
g636
sg63
(lp1911
g56
(g77
g58
NtRp1912
(dp1913
g61
(dp1914
g81
g82
ssg70
g1908
sg63
(lp1915
S'wsgi_multithread'
p1916
asbag56
(g77
g58
NtRp1917
(dp1918
g61
(dp1919
g88
g89
ssg70
g1908
sg63
(lp1920
S':'
asbag56
(g77
g58
NtRp1921
(dp1922
g61
(dp1923
sg70
g1908
sg63
(lp1924
g56
(g57
g58
NtRp1925
(dp1926
g61
(dp1927
g69
I4
ssg70
g1921
sg63
(lp1928
g99
asbasbasbag56
(g72
g58
NtRp1929
(dp1930
g61
(dp1931
sg70
g636
sg63
(lp1932
g56
(g77
g58
NtRp1933
(dp1934
g61
(dp1935
g81
g82
ssg70
g1929
sg63
(lp1936
S'wsgi_run_once'
p1937
asbag56
(g77
g58
NtRp1938
(dp1939
g61
(dp1940
g88
g89
ssg70
g1929
sg63
(lp1941
S':'
asbag56
(g77
g58
NtRp1942
(dp1943
g61
(dp1944
sg70
g1929
sg63
(lp1945
g56
(g57
g58
NtRp1946
(dp1947
g61
(dp1948
g69
I4
ssg70
g1942
sg63
(lp1949
g770
asbasbasbag56
(g72
g58
NtRp1950
(dp1951
g61
(dp1952
sg70
g636
sg63
(lp1953
g56
(g77
g58
NtRp1954
(dp1955
g61
(dp1956
g81
g82
ssg70
g1950
sg63
(lp1957
S'wsgi_url_scheme'
p1958
asbag56
(g77
g58
NtRp1959
(dp1960
g61
(dp1961
g88
g89
ssg70
g1950
sg63
(lp1962
S':'
asbag56
(g77
g58
NtRp1963
(dp1964
g61
(dp1965
sg70
g1950
sg63
(lp1966
g56
(g57
g58
NtRp1967
(dp1968
g61
(dp1969
g69
I4
ssg70
g1963
sg63
(lp1970
S'http'
p1971
asbasbasbag56
(g72
g58
NtRp1972
(dp1973
g61
(dp1974
sg70
g636
sg63
(lp1975
g56
(g77
g58
NtRp1976
(dp1977
g61
(dp1978
g81
g82
ssg70
g1972
sg63
(lp1979
S'wsgi_version'
p1980
asbag56
(g77
g58
NtRp1981
(dp1982
g61
(dp1983
g88
g89
ssg70
g1972
sg63
(lp1984
S':'
asbag56
(g77
g58
NtRp1985
(dp1986
g61
(dp1987
sg70
g1972
sg63
(lp1988
g56
(g57
g58
NtRp1989
(dp1990
g61
(dp1991
g69
I4
ssg70
g1985
sg63
(lp1992
g56
(g65
g58
NtRp1993
(dp1994
g61
(dp1995
g69
I3
ssg70
Nsg63
(lp1996
g56
(g72
g58
NtRp1997
(dp1998
g61
(dp1999
sg70
g1993
sg63
(lp2000
g56
(g77
g58
NtRp2001
(dp2002
g61
(dp2003
sg70
g1997
sg63
(lp2004
g56
(g57
g58
NtRp2005
(dp2006
g61
(dp2007
g69
I3
ssg70
g2001
sg63
(lp2008
S'1'
asbasbasbag56
(g72
g58
NtRp2009
(dp2010
g61
(dp2011
sg70
g1993
sg63
(lp2012
g56
(g77
g58
NtRp2013
(dp2014
g61
(dp2015
sg70
g2009
sg63
(lp2016
g56
(g57
g58
NtRp2017
(dp2018
g61
(dp2019
g69
I3
ssg70
g2013
sg63
(lp2020
S'1'
asbasbasbasbasbasbasbasbasbasbasbag56
(g72
g58
NtRp2021
(dp2022
g61
(dp2023
sg70
g66
sg63
(lp2024
g56
(g77
g58
NtRp2025
(dp2026
g61
(dp2027
g81
g82
ssg70
g2021
sg63
(lp2028
S'extension'
p2029
asbag56
(g77
g58
NtRp2030
(dp2031
g61
(dp2032
g88
g89
ssg70
g2021
sg63
(lp2033
S':'
asbag56
(g77
g58
NtRp2034
(dp2035
g61
(dp2036
sg70
g2021
sg63
(lp2037
g56
(g57
g58
NtRp2038
(dp2039
g61
(dp2040
g69
I5
ssg70
g2034
sg63
(lp2041
S'html'
p2042
asbasbasbag56
(g72
g58
NtRp2043
(dp2044
g61
(dp2045
sg70
g66
sg63
(lp2046
g56
(g77
g58
NtRp2047
(dp2048
g61
(dp2049
g81
g82
ssg70
g2043
sg63
(lp2050
S'folder'
p2051
asbag56
(g77
g58
NtRp2052
(dp2053
g61
(dp2054
g88
g89
ssg70
g2043
sg63
(lp2055
S':'
asbag56
(g77
g58
NtRp2056
(dp2057
g61
(dp2058
sg70
g2043
sg63
(lp2059
g56
(g57
g58
NtRp2060
(dp2061
g61
(dp2062
g69
I5
ssg70
g2056
sg63
(lp2063
S'D:\\Workbench\\web2py_src\\applications\\admin\\'
p2064
asbasbasbag56
(g72
g58
NtRp2065
(dp2066
g61
(dp2067
sg70
g66
sg63
(lp2068
g56
(g77
g58
NtRp2069
(dp2070
g61
(dp2071
g81
g82
ssg70
g2065
sg63
(lp2072
S'function'
p2073
asbag56
(g77
g58
NtRp2074
(dp2075
g61
(dp2076
g88
g89
ssg70
g2065
sg63
(lp2077
S':'
asbag56
(g77
g58
NtRp2078
(dp2079
g61
(dp2080
sg70
g2065
sg63
(lp2081
g56
(g57
g58
NtRp2082
(dp2083
g61
(dp2084
g69
I5
ssg70
g2078
sg63
(lp2085
S'check_version'
p2086
asbasbasbag56
(g72
g58
NtRp2087
(dp2088
g61
(dp2089
sg70
g66
sg63
(lp2090
g56
(g77
g58
NtRp2091
(dp2092
g61
(dp2093
g81
g82
ssg70
g2087
sg63
(lp2094
S'get_vars'
p2095
asbag56
(g77
g58
NtRp2096
(dp2097
g61
(dp2098
g88
g89
ssg70
g2087
sg63
(lp2099
S':'
asbag56
(g77
g58
NtRp2100
(dp2101
g61
(dp2102
sg70
g2087
sg63
(lp2103
g56
(g57
g58
NtRp2104
(dp2105
g61
(dp2106
g69
I5
ssg70
g2100
sg63
(lp2107
g56
(g65
g58
NtRp2108
(dp2109
g61
(dp2110
g69
I4
ssg70
Nsg63
(lp2111
sbasbasbasbag56
(g72
g58
NtRp2112
(dp2113
g61
(dp2114
sg70
g66
sg63
(lp2115
g56
(g77
g58
NtRp2116
(dp2117
g61
(dp2118
g81
g82
ssg70
g2112
sg63
(lp2119
S'global_settings'
p2120
asbag56
(g77
g58
NtRp2121
(dp2122
g61
(dp2123
g88
g89
ssg70
g2112
sg63
(lp2124
S':'
asbag56
(g77
g58
NtRp2125
(dp2126
g61
(dp2127
sg70
g2112
sg63
(lp2128
g56
(g57
g58
NtRp2129
(dp2130
g61
(dp2131
g69
I5
ssg70
g2125
sg63
(lp2132
g56
(g65
g58
NtRp2133
(dp2134
g61
(dp2135
g69
I4
ssg70
Nsg63
(lp2136
g56
(g72
g58
NtRp2137
(dp2138
g61
(dp2139
sg70
g2133
sg63
(lp2140
g56
(g77
g58
NtRp2141
(dp2142
g61
(dp2143
g81
g82
ssg70
g2137
sg63
(lp2144
g648
asbag56
(g77
g58
NtRp2145
(dp2146
g61
(dp2147
g88
g89
ssg70
g2137
sg63
(lp2148
S':'
asbag56
(g77
g58
NtRp2149
(dp2150
g61
(dp2151
sg70
g2137
sg63
(lp2152
g56
(g57
g58
NtRp2153
(dp2154
g61
(dp2155
g69
I4
ssg70
g2149
sg63
(lp2156
S"set(['D:\\\\Workbench\\\\web2py_src\\\\applications\\\\admin\\\\', 'D:\\\\Workbench\\\\web2py_src\\\\applications\\\\welcome\\\\'])"
p2157
asbasbasbag56
(g72
g58
NtRp2158
(dp2159
g61
(dp2160
sg70
g2133
sg63
(lp2161
g56
(g77
g58
NtRp2162
(dp2163
g61
(dp2164
g81
g82
ssg70
g2158
sg63
(lp2165
g670
asbag56
(g77
g58
NtRp2166
(dp2167
g61
(dp2168
g88
g89
ssg70
g2158
sg63
(lp2169
S':'
asbag56
(g77
g58
NtRp2170
(dp2171
g61
(dp2172
sg70
g2158
sg63
(lp2173
g56
(g57
g58
NtRp2174
(dp2175
g61
(dp2176
g69
I4
ssg70
g2170
sg63
(lp2177
g683
asbasbasbag56
(g72
g58
NtRp2178
(dp2179
g61
(dp2180
sg70
g2133
sg63
(lp2181
g56
(g77
g58
NtRp2182
(dp2183
g61
(dp2184
g81
g82
ssg70
g2178
sg63
(lp2185
g735
asbag56
(g77
g58
NtRp2186
(dp2187
g61
(dp2188
g88
g89
ssg70
g2178
sg63
(lp2189
S':'
asbag56
(g77
g58
NtRp2190
(dp2191
g61
(dp2192
sg70
g2178
sg63
(lp2193
g56
(g57
g58
NtRp2194
(dp2195
g61
(dp2196
g69
I4
ssg70
g2190
sg63
(lp2197
S'set([])'
p2198
asbasbasbag56
(g72
g58
NtRp2199
(dp2200
g61
(dp2201
sg70
g2133
sg63
(lp2202
g56
(g77
g58
NtRp2203
(dp2204
g61
(dp2205
g81
g82
ssg70
g2199
sg63
(lp2206
g757
asbag56
(g77
g58
NtRp2207
(dp2208
g61
(dp2209
g88
g89
ssg70
g2199
sg63
(lp2210
S':'
asbag56
(g77
g58
NtRp2211
(dp2212
g61
(dp2213
sg70
g2199
sg63
(lp2214
g56
(g57
g58
NtRp2215
(dp2216
g61
(dp2217
g69
I4
ssg70
g2211
sg63
(lp2218
g770
asbasbasbag56
(g72
g58
NtRp2219
(dp2220
g61
(dp2221
sg70
g2133
sg63
(lp2222
g56
(g77
g58
NtRp2223
(dp2224
g61
(dp2225
g81
g82
ssg70
g2219
sg63
(lp2226
g823
asbag56
(g77
g58
NtRp2227
(dp2228
g61
(dp2229
g88
g89
ssg70
g2219
sg63
(lp2230
S':'
asbag56
(g77
g58
NtRp2231
(dp2232
g61
(dp2233
sg70
g2219
sg63
(lp2234
g56
(g57
g58
NtRp2235
(dp2236
g61
(dp2237
g69
I4
ssg70
g2231
sg63
(lp2238
g683
asbasbasbag56
(g72
g58
NtRp2239
(dp2240
g61
(dp2241
sg70
g2133
sg63
(lp2242
g56
(g77
g58
NtRp2243
(dp2244
g61
(dp2245
g81
g82
ssg70
g2239
sg63
(lp2246
g1086
asbag56
(g77
g58
NtRp2247
(dp2248
g61
(dp2249
g88
g89
ssg70
g2239
sg63
(lp2250
S':'
asbag56
(g77
g58
NtRp2251
(dp2252
g61
(dp2253
sg70
g2239
sg63
(lp2254
g56
(g57
g58
NtRp2255
(dp2256
g61
(dp2257
g69
I4
ssg70
g2251
sg63
(lp2258
g770
asbasbasbag56
(g72
g58
NtRp2259
(dp2260
g61
(dp2261
sg70
g2133
sg63
(lp2262
g56
(g77
g58
NtRp2263
(dp2264
g61
(dp2265
g81
g82
ssg70
g2259
sg63
(lp2266
g1719
asbag56
(g77
g58
NtRp2267
(dp2268
g61
(dp2269
g88
g89
ssg70
g2259
sg63
(lp2270
S':'
asbag56
(g77
g58
NtRp2271
(dp2272
g61
(dp2273
sg70
g2259
sg63
(lp2274
g56
(g57
g58
NtRp2275
(dp2276
g61
(dp2277
g69
I4
ssg70
g2271
sg63
(lp2278
g56
(g65
g58
NtRp2279
(dp2280
g61
(dp2281
g69
I3
ssg70
Nsg63
(lp2282
g56
(g72
g58
NtRp2283
(dp2284
g61
(dp2285
sg70
g2279
sg63
(lp2286
g56
(g77
g58
NtRp2287
(dp2288
g61
(dp2289
sg70
g2283
sg63
(lp2290
g56
(g57
g58
NtRp2291
(dp2292
g61
(dp2293
g69
I3
ssg70
g2287
sg63
(lp2294
S'1'
asbasbasbag56
(g72
g58
NtRp2295
(dp2296
g61
(dp2297
sg70
g2279
sg63
(lp2298
g56
(g77
g58
NtRp2299
(dp2300
g61
(dp2301
sg70
g2295
sg63
(lp2302
g56
(g57
g58
NtRp2303
(dp2304
g61
(dp2305
g69
I3
ssg70
g2299
sg63
(lp2306
S'99'
p2307
asbasbasbag56
(g72
g58
NtRp2308
(dp2309
g61
(dp2310
sg70
g2279
sg63
(lp2311
g56
(g77
g58
NtRp2312
(dp2313
g61
(dp2314
sg70
g2308
sg63
(lp2315
g56
(g57
g58
NtRp2316
(dp2317
g61
(dp2318
g69
I3
ssg70
g2312
sg63
(lp2319
S'2'
asbasbasbag56
(g72
g58
NtRp2320
(dp2321
g61
(dp2322
sg70
g2279
sg63
(lp2323
g56
(g77
g58
NtRp2324
(dp2325
g61
(dp2326
sg70
g2320
sg63
(lp2327
g56
(g57
g58
NtRp2328
(dp2329
g61
(dp2330
g69
I3
ssg70
g2324
sg63
(lp2331
S'datetime.datetime(2011, 9, 26, 6, 55, 33)'
p2332
asbasbasbag56
(g72
g58
NtRp2333
(dp2334
g61
(dp2335
sg70
g2279
sg63
(lp2336
g56
(g77
g58
NtRp2337
(dp2338
g61
(dp2339
sg70
g2333
sg63
(lp2340
g56
(g57
g58
NtRp2341
(dp2342
g61
(dp2343
g69
I3
ssg70
g2337
sg63
(lp2344
g1798
asbasbasbasbasbasbasbasbasbasbasbag56
(g72
g58
NtRp2345
(dp2346
g61
(dp2347
sg70
g66
sg63
(lp2348
g56
(g77
g58
NtRp2349
(dp2350
g61
(dp2351
g81
g82
ssg70
g2345
sg63
(lp2352
S'is_https'
p2353
asbag56
(g77
g58
NtRp2354
(dp2355
g61
(dp2356
g88
g89
ssg70
g2345
sg63
(lp2357
S':'
asbag56
(g77
g58
NtRp2358
(dp2359
g61
(dp2360
sg70
g2345
sg63
(lp2361
g56
(g57
g58
NtRp2362
(dp2363
g61
(dp2364
g69
I5
ssg70
g2358
sg63
(lp2365
g770
asbasbasbag56
(g72
g58
NtRp2366
(dp2367
g61
(dp2368
sg70
g66
sg63
(lp2369
g56
(g77
g58
NtRp2370
(dp2371
g61
(dp2372
g81
g82
ssg70
g2366
sg63
(lp2373
S'is_local'
p2374
asbag56
(g77
g58
NtRp2375
(dp2376
g61
(dp2377
g88
g89
ssg70
g2366
sg63
(lp2378
S':'
asbag56
(g77
g58
NtRp2379
(dp2380
g61
(dp2381
sg70
g2366
sg63
(lp2382
g56
(g57
g58
NtRp2383
(dp2384
g61
(dp2385
g69
I5
ssg70
g2379
sg63
(lp2386
g99
asbasbasbag56
(g72
g58
NtRp2387
(dp2388
g61
(dp2389
sg70
g66
sg63
(lp2390
g56
(g77
g58
NtRp2391
(dp2392
g61
(dp2393
g81
g82
ssg70
g2387
sg63
(lp2394
S'is_restful'
p2395
asbag56
(g77
g58
NtRp2396
(dp2397
g61
(dp2398
g88
g89
ssg70
g2387
sg63
(lp2399
S':'
asbag56
(g77
g58
NtRp2400
(dp2401
g61
(dp2402
sg70
g2387
sg63
(lp2403
g56
(g57
g58
NtRp2404
(dp2405
g61
(dp2406
g69
I5
ssg70
g2400
sg63
(lp2407
g770
asbasbasbag56
(g72
g58
NtRp2408
(dp2409
g61
(dp2410
sg70
g66
sg63
(lp2411
g56
(g77
g58
NtRp2412
(dp2413
g61
(dp2414
g81
g82
ssg70
g2408
sg63
(lp2415
S'now'
p2416
asbag56
(g77
g58
NtRp2417
(dp2418
g61
(dp2419
g88
g89
ssg70
g2408
sg63
(lp2420
S':'
asbag56
(g77
g58
NtRp2421
(dp2422
g61
(dp2423
sg70
g2408
sg63
(lp2424
g56
(g57
g58
NtRp2425
(dp2426
g61
(dp2427
g69
I5
ssg70
g2421
sg63
(lp2428
S'datetime.datetime(2011, 12, 18, 12, 12, 14, 117000)'
p2429
asbasbasbag56
(g72
g58
NtRp2430
(dp2431
g61
(dp2432
sg70
g66
sg63
(lp2433
g56
(g77
g58
NtRp2434
(dp2435
g61
(dp2436
g81
g82
ssg70
g2430
sg63
(lp2437
S'post_vars'
p2438
asbag56
(g77
g58
NtRp2439
(dp2440
g61
(dp2441
g88
g89
ssg70
g2430
sg63
(lp2442
S':'
asbag56
(g77
g58
NtRp2443
(dp2444
g61
(dp2445
sg70
g2430
sg63
(lp2446
g56
(g57
g58
NtRp2447
(dp2448
g61
(dp2449
g69
I5
ssg70
g2443
sg63
(lp2450
g56
(g65
g58
NtRp2451
(dp2452
g61
(dp2453
g69
I4
ssg70
Nsg63
(lp2454
sbasbasbasbag56
(g72
g58
NtRp2455
(dp2456
g61
(dp2457
sg70
g66
sg63
(lp2458
g56
(g77
g58
NtRp2459
(dp2460
g61
(dp2461
g81
g82
ssg70
g2455
sg63
(lp2462
S'url'
p2463
asbag56
(g77
g58
NtRp2464
(dp2465
g61
(dp2466
g88
g89
ssg70
g2455
sg63
(lp2467
S':'
asbag56
(g77
g58
NtRp2468
(dp2469
g61
(dp2470
sg70
g2455
sg63
(lp2471
g56
(g57
g58
NtRp2472
(dp2473
g61
(dp2474
g69
I5
ssg70
g2468
sg63
(lp2475
S'/admin/default/check_version'
p2476
asbasbasbag56
(g72
g58
NtRp2477
(dp2478
g61
(dp2479
sg70
g66
sg63
(lp2480
g56
(g77
g58
NtRp2481
(dp2482
g61
(dp2483
g81
g82
ssg70
g2477
sg63
(lp2484
S'utcnow'
p2485
asbag56
(g77
g58
NtRp2486
(dp2487
g61
(dp2488
g88
g89
ssg70
g2477
sg63
(lp2489
S':'
asbag56
(g77
g58
NtRp2490
(dp2491
g61
(dp2492
sg70
g2477
sg63
(lp2493
g56
(g57
g58
NtRp2494
(dp2495
g61
(dp2496
g69
I5
ssg70
g2490
sg63
(lp2497
S'datetime.datetime(2011, 12, 18, 4, 12, 14, 117000)'
p2498
asbasbasbag56
(g72
g58
NtRp2499
(dp2500
g61
(dp2501
sg70
g66
sg63
(lp2502
g56
(g77
g58
NtRp2503
(dp2504
g61
(dp2505
g81
g82
ssg70
g2499
sg63
(lp2506
S'uuid'
p2507
asbag56
(g77
g58
NtRp2508
(dp2509
g61
(dp2510
g88
g89
ssg70
g2499
sg63
(lp2511
S':'
asbag56
(g77
g58
NtRp2512
(dp2513
g61
(dp2514
sg70
g2499
sg63
(lp2515
g56
(g57
g58
NtRp2516
(dp2517
g61
(dp2518
g69
I5
ssg70
g2512
sg63
(lp2519
S'admin/127.0.0.1.2011-12-18.12-12-14.cc808f32-c781-4bb9-8198-6191f820dff6'
p2520
asbasbasbag56
(g72
g58
NtRp2521
(dp2522
g61
(dp2523
sg70
g66
sg63
(lp2524
g56
(g77
g58
NtRp2525
(dp2526
g61
(dp2527
g81
g82
ssg70
g2521
sg63
(lp2528
S'vars'
p2529
asbag56
(g77
g58
NtRp2530
(dp2531
g61
(dp2532
g88
g89
ssg70
g2521
sg63
(lp2533
S':'
asbag56
(g77
g58
NtRp2534
(dp2535
g61
(dp2536
sg70
g2521
sg63
(lp2537
g56
(g57
g58
NtRp2538
(dp2539
g61
(dp2540
g69
I5
ssg70
g2534
sg63
(lp2541
g56
(g65
g58
NtRp2542
(dp2543
g61
(dp2544
g69
I4
ssg70
Nsg63
(lp2545
sbasbasbasbag56
(g72
g58
NtRp2546
(dp2547
g61
(dp2548
sg70
g66
sg63
(lp2549
g56
(g77
g58
NtRp2550
(dp2551
g61
(dp2552
g81
g82
ssg70
g2546
sg63
(lp2553
S'wsgi'
p2554
asbag56
(g77
g58
NtRp2555
(dp2556
g61
(dp2557
g88
g89
ssg70
g2546
sg63
(lp2558
S':'
asbag56
(g77
g58
NtRp2559
(dp2560
g61
(dp2561
sg70
g2546
sg63
(lp2562
g56
(g57
g58
NtRp2563
(dp2564
g61
(dp2565
g69
I5
ssg70
g2559
sg63
(lp2566
g56
(g65
g58
NtRp2567
(dp2568
g61
(dp2569
g69
I4
ssg70
Nsg63
(lp2570
g56
(g72
g58
NtRp2571
(dp2572
g61
(dp2573
sg70
g2567
sg63
(lp2574
g56
(g77
g58
NtRp2575
(dp2576
g61
(dp2577
g81
g82
ssg70
g2571
sg63
(lp2578
S'environ'
p2579
asbag56
(g77
g58
NtRp2580
(dp2581
g61
(dp2582
g88
g89
ssg70
g2571
sg63
(lp2583
S':'
asbag56
(g77
g58
NtRp2584
(dp2585
g61
(dp2586
sg70
g2571
sg63
(lp2587
g56
(g57
g58
NtRp2588
(dp2589
g61
(dp2590
g69
I4
ssg70
g2584
sg63
(lp2591
g56
(g65
g58
NtRp2592
(dp2593
g61
(dp2594
g69
I3
ssg70
Nsg63
(lp2595
g56
(g72
g58
NtRp2596
(dp2597
g61
(dp2598
sg70
g2592
sg63
(lp2599
g56
(g77
g58
NtRp2600
(dp2601
g61
(dp2602
g81
g82
ssg70
g2596
sg63
(lp2603
S'COMSPEC'
p2604
asbag56
(g77
g58
NtRp2605
(dp2606
g61
(dp2607
g88
g89
ssg70
g2596
sg63
(lp2608
S':'
asbag56
(g77
g58
NtRp2609
(dp2610
g61
(dp2611
sg70
g2596
sg63
(lp2612
g56
(g57
g58
NtRp2613
(dp2614
g61
(dp2615
g69
I3
ssg70
g2609
sg63
(lp2616
g705
asbasbasbag56
(g72
g58
NtRp2617
(dp2618
g61
(dp2619
sg70
g2592
sg63
(lp2620
g56
(g77
g58
NtRp2621
(dp2622
g61
(dp2623
g81
g82
ssg70
g2617
sg63
(lp2624
S'CONTENT_LENGTH'
p2625
asbag56
(g77
g58
NtRp2626
(dp2627
g61
(dp2628
g88
g89
ssg70
g2617
sg63
(lp2629
S':'
asbag56
(g77
g58
NtRp2630
(dp2631
g61
(dp2632
sg70
g2617
sg63
(lp2633
g56
(g57
g58
NtRp2634
(dp2635
g61
(dp2636
g69
I3
ssg70
g2630
sg63
(lp2637
S'0'
asbasbasbag56
(g72
g58
NtRp2638
(dp2639
g61
(dp2640
sg70
g2592
sg63
(lp2641
g56
(g77
g58
NtRp2642
(dp2643
g61
(dp2644
g81
g82
ssg70
g2638
sg63
(lp2645
S'DOCUMENT_ROOT'
p2646
asbag56
(g77
g58
NtRp2647
(dp2648
g61
(dp2649
g88
g89
ssg70
g2638
sg63
(lp2650
S':'
asbag56
(g77
g58
NtRp2651
(dp2652
g61
(dp2653
sg70
g2638
sg63
(lp2654
g56
(g57
g58
NtRp2655
(dp2656
g61
(dp2657
g69
I3
ssg70
g2651
sg63
(lp2658
g792
asbasbasbag56
(g72
g58
NtRp2659
(dp2660
g61
(dp2661
sg70
g2592
sg63
(lp2662
g56
(g77
g58
NtRp2663
(dp2664
g61
(dp2665
g81
g82
ssg70
g2659
sg63
(lp2666
S'GATEWAY_INTERFACE'
p2667
asbag56
(g77
g58
NtRp2668
(dp2669
g61
(dp2670
g88
g89
ssg70
g2659
sg63
(lp2671
S':'
asbag56
(g77
g58
NtRp2672
(dp2673
g61
(dp2674
sg70
g2659
sg63
(lp2675
g56
(g57
g58
NtRp2676
(dp2677
g61
(dp2678
g69
I3
ssg70
g2672
sg63
(lp2679
g814
asbasbasbag56
(g72
g58
NtRp2680
(dp2681
g61
(dp2682
sg70
g2592
sg63
(lp2683
g56
(g77
g58
NtRp2684
(dp2685
g61
(dp2686
g81
g82
ssg70
g2680
sg63
(lp2687
S'HTTP_ACCEPT'
p2688
asbag56
(g77
g58
NtRp2689
(dp2690
g61
(dp2691
g88
g89
ssg70
g2680
sg63
(lp2692
S':'
asbag56
(g77
g58
NtRp2693
(dp2694
g61
(dp2695
sg70
g2680
sg63
(lp2696
g56
(g57
g58
NtRp2697
(dp2698
g61
(dp2699
g69
I3
ssg70
g2693
sg63
(lp2700
g857
asbasbasbag56
(g72
g58
NtRp2701
(dp2702
g61
(dp2703
sg70
g2592
sg63
(lp2704
g56
(g77
g58
NtRp2705
(dp2706
g61
(dp2707
g81
g82
ssg70
g2701
sg63
(lp2708
S'HTTP_ACCEPT_CHARSET'
p2709
asbag56
(g77
g58
NtRp2710
(dp2711
g61
(dp2712
g88
g89
ssg70
g2701
sg63
(lp2713
S':'
asbag56
(g77
g58
NtRp2714
(dp2715
g61
(dp2716
sg70
g2701
sg63
(lp2717
g56
(g57
g58
NtRp2718
(dp2719
g61
(dp2720
g69
I3
ssg70
g2714
sg63
(lp2721
g879
asbasbasbag56
(g72
g58
NtRp2722
(dp2723
g61
(dp2724
sg70
g2592
sg63
(lp2725
g56
(g77
g58
NtRp2726
(dp2727
g61
(dp2728
g81
g82
ssg70
g2722
sg63
(lp2729
S'HTTP_ACCEPT_ENCODING'
p2730
asbag56
(g77
g58
NtRp2731
(dp2732
g61
(dp2733
g88
g89
ssg70
g2722
sg63
(lp2734
S':'
asbag56
(g77
g58
NtRp2735
(dp2736
g61
(dp2737
sg70
g2722
sg63
(lp2738
g56
(g57
g58
NtRp2739
(dp2740
g61
(dp2741
g69
I3
ssg70
g2735
sg63
(lp2742
g901
asbasbasbag56
(g72
g58
NtRp2743
(dp2744
g61
(dp2745
sg70
g2592
sg63
(lp2746
g56
(g77
g58
NtRp2747
(dp2748
g61
(dp2749
g81
g82
ssg70
g2743
sg63
(lp2750
S'HTTP_ACCEPT_LANGUAGE'
p2751
asbag56
(g77
g58
NtRp2752
(dp2753
g61
(dp2754
g88
g89
ssg70
g2743
sg63
(lp2755
S':'
asbag56
(g77
g58
NtRp2756
(dp2757
g61
(dp2758
sg70
g2743
sg63
(lp2759
g56
(g57
g58
NtRp2760
(dp2761
g61
(dp2762
g69
I3
ssg70
g2756
sg63
(lp2763
g923
asbasbasbag56
(g72
g58
NtRp2764
(dp2765
g61
(dp2766
sg70
g2592
sg63
(lp2767
g56
(g77
g58
NtRp2768
(dp2769
g61
(dp2770
g81
g82
ssg70
g2764
sg63
(lp2771
S'HTTP_CONNECTION'
p2772
asbag56
(g77
g58
NtRp2773
(dp2774
g61
(dp2775
g88
g89
ssg70
g2764
sg63
(lp2776
S':'
asbag56
(g77
g58
NtRp2777
(dp2778
g61
(dp2779
sg70
g2764
sg63
(lp2780
g56
(g57
g58
NtRp2781
(dp2782
g61
(dp2783
g69
I3
ssg70
g2777
sg63
(lp2784
g945
asbasbasbag56
(g72
g58
NtRp2785
(dp2786
g61
(dp2787
sg70
g2592
sg63
(lp2788
g56
(g77
g58
NtRp2789
(dp2790
g61
(dp2791
g81
g82
ssg70
g2785
sg63
(lp2792
S'HTTP_COOKIE'
p2793
asbag56
(g77
g58
NtRp2794
(dp2795
g61
(dp2796
g88
g89
ssg70
g2785
sg63
(lp2797
S':'
asbag56
(g77
g58
NtRp2798
(dp2799
g61
(dp2800
sg70
g2785
sg63
(lp2801
g56
(g57
g58
NtRp2802
(dp2803
g61
(dp2804
g69
I3
ssg70
g2798
sg63
(lp2805
g967
asbasbasbag56
(g72
g58
NtRp2806
(dp2807
g61
(dp2808
sg70
g2592
sg63
(lp2809
g56
(g77
g58
NtRp2810
(dp2811
g61
(dp2812
g81
g82
ssg70
g2806
sg63
(lp2813
S'HTTP_HOST'
p2814
asbag56
(g77
g58
NtRp2815
(dp2816
g61
(dp2817
g88
g89
ssg70
g2806
sg63
(lp2818
S':'
asbag56
(g77
g58
NtRp2819
(dp2820
g61
(dp2821
sg70
g2806
sg63
(lp2822
g56
(g57
g58
NtRp2823
(dp2824
g61
(dp2825
g69
I3
ssg70
g2819
sg63
(lp2826
g989
asbasbasbag56
(g72
g58
NtRp2827
(dp2828
g61
(dp2829
sg70
g2592
sg63
(lp2830
g56
(g77
g58
NtRp2831
(dp2832
g61
(dp2833
g81
g82
ssg70
g2827
sg63
(lp2834
S'HTTP_ORIGIN'
p2835
asbag56
(g77
g58
NtRp2836
(dp2837
g61
(dp2838
g88
g89
ssg70
g2827
sg63
(lp2839
S':'
asbag56
(g77
g58
NtRp2840
(dp2841
g61
(dp2842
sg70
g2827
sg63
(lp2843
g56
(g57
g58
NtRp2844
(dp2845
g61
(dp2846
g69
I3
ssg70
g2840
sg63
(lp2847
g1011
asbasbasbag56
(g72
g58
NtRp2848
(dp2849
g61
(dp2850
sg70
g2592
sg63
(lp2851
g56
(g77
g58
NtRp2852
(dp2853
g61
(dp2854
g81
g82
ssg70
g2848
sg63
(lp2855
S'HTTP_REFERER'
p2856
asbag56
(g77
g58
NtRp2857
(dp2858
g61
(dp2859
g88
g89
ssg70
g2848
sg63
(lp2860
S':'
asbag56
(g77
g58
NtRp2861
(dp2862
g61
(dp2863
sg70
g2848
sg63
(lp2864
g56
(g57
g58
NtRp2865
(dp2866
g61
(dp2867
g69
I3
ssg70
g2861
sg63
(lp2868
g1033
asbasbasbag56
(g72
g58
NtRp2869
(dp2870
g61
(dp2871
sg70
g2592
sg63
(lp2872
g56
(g77
g58
NtRp2873
(dp2874
g61
(dp2875
g81
g82
ssg70
g2869
sg63
(lp2876
S'HTTP_USER_AGENT'
p2877
asbag56
(g77
g58
NtRp2878
(dp2879
g61
(dp2880
g88
g89
ssg70
g2869
sg63
(lp2881
S':'
asbag56
(g77
g58
NtRp2882
(dp2883
g61
(dp2884
sg70
g2869
sg63
(lp2885
g56
(g57
g58
NtRp2886
(dp2887
g61
(dp2888
g69
I3
ssg70
g2882
sg63
(lp2889
g1055
asbasbasbag56
(g72
g58
NtRp2890
(dp2891
g61
(dp2892
sg70
g2592
sg63
(lp2893
g56
(g77
g58
NtRp2894
(dp2895
g61
(dp2896
g81
g82
ssg70
g2890
sg63
(lp2897
S'HTTP_X_REQUESTED_WITH'
p2898
asbag56
(g77
g58
NtRp2899
(dp2900
g61
(dp2901
g88
g89
ssg70
g2890
sg63
(lp2902
S':'
asbag56
(g77
g58
NtRp2903
(dp2904
g61
(dp2905
sg70
g2890
sg63
(lp2906
g56
(g57
g58
NtRp2907
(dp2908
g61
(dp2909
g69
I3
ssg70
g2903
sg63
(lp2910
g1077
asbasbasbag56
(g72
g58
NtRp2911
(dp2912
g61
(dp2913
sg70
g2592
sg63
(lp2914
g56
(g77
g58
NtRp2915
(dp2916
g61
(dp2917
g81
g82
ssg70
g2911
sg63
(lp2918
S'PATHEXT'
p2919
asbag56
(g77
g58
NtRp2920
(dp2921
g61
(dp2922
g88
g89
ssg70
g2911
sg63
(lp2923
S':'
asbag56
(g77
g58
NtRp2924
(dp2925
g61
(dp2926
sg70
g2911
sg63
(lp2927
g56
(g57
g58
NtRp2928
(dp2929
g61
(dp2930
g69
I3
ssg70
g2924
sg63
(lp2931
g1363
asbasbasbag56
(g72
g58
NtRp2932
(dp2933
g61
(dp2934
sg70
g2592
sg63
(lp2935
g56
(g77
g58
NtRp2936
(dp2937
g61
(dp2938
g81
g82
ssg70
g2932
sg63
(lp2939
S'PATH_INFO'
p2940
asbag56
(g77
g58
NtRp2941
(dp2942
g61
(dp2943
g88
g89
ssg70
g2932
sg63
(lp2944
S':'
asbag56
(g77
g58
NtRp2945
(dp2946
g61
(dp2947
sg70
g2932
sg63
(lp2948
g56
(g57
g58
NtRp2949
(dp2950
g61
(dp2951
g69
I3
ssg70
g2945
sg63
(lp2952
g1319
asbasbasbag56
(g72
g58
NtRp2953
(dp2954
g61
(dp2955
sg70
g2592
sg63
(lp2956
g56
(g77
g58
NtRp2957
(dp2958
g61
(dp2959
g81
g82
ssg70
g2953
sg63
(lp2960
S'PATH_TRANSLATED'
p2961
asbag56
(g77
g58
NtRp2962
(dp2963
g61
(dp2964
g88
g89
ssg70
g2953
sg63
(lp2965
S':'
asbag56
(g77
g58
NtRp2966
(dp2967
g61
(dp2968
sg70
g2953
sg63
(lp2969
g56
(g57
g58
NtRp2970
(dp2971
g61
(dp2972
g69
I3
ssg70
g2966
sg63
(lp2973
g1341
asbasbasbag56
(g72
g58
NtRp2974
(dp2975
g61
(dp2976
sg70
g2592
sg63
(lp2977
g56
(g77
g58
NtRp2978
(dp2979
g61
(dp2980
g81
g82
ssg70
g2974
sg63
(lp2981
S'QUERY_STRING'
p2982
asbag56
(g77
g58
NtRp2983
(dp2984
g61
(dp2985
g88
g89
ssg70
g2974
sg63
(lp2986
S':'
asbag56
(g77
g58
NtRp2987
(dp2988
g61
(dp2989
sg70
g2974
sg63
(lp2990
g56
(g57
g58
NtRp2991
(dp2992
g61
(dp2993
g69
I3
ssg70
g2987
sg63
(lp2994
S''
asbasbasbag56
(g72
g58
NtRp2995
(dp2996
g61
(dp2997
sg70
g2592
sg63
(lp2998
g56
(g77
g58
NtRp2999
(dp3000
g61
(dp3001
g81
g82
ssg70
g2995
sg63
(lp3002
S'REMOTE_ADDR'
p3003
asbag56
(g77
g58
NtRp3004
(dp3005
g61
(dp3006
g88
g89
ssg70
g2995
sg63
(lp3007
S':'
asbag56
(g77
g58
NtRp3008
(dp3009
g61
(dp3010
sg70
g2995
sg63
(lp3011
g56
(g57
g58
NtRp3012
(dp3013
g61
(dp3014
g69
I3
ssg70
g3008
sg63
(lp3015
g189
asbasbasbag56
(g72
g58
NtRp3016
(dp3017
g61
(dp3018
sg70
g2592
sg63
(lp3019
g56
(g77
g58
NtRp3020
(dp3021
g61
(dp3022
g81
g82
ssg70
g3016
sg63
(lp3023
S'REMOTE_PORT'
p3024
asbag56
(g77
g58
NtRp3025
(dp3026
g61
(dp3027
g88
g89
ssg70
g3016
sg63
(lp3028
S':'
asbag56
(g77
g58
NtRp3029
(dp3030
g61
(dp3031
sg70
g3016
sg63
(lp3032
g56
(g57
g58
NtRp3033
(dp3034
g61
(dp3035
g69
I3
ssg70
g3029
sg63
(lp3036
g1427
asbasbasbag56
(g72
g58
NtRp3037
(dp3038
g61
(dp3039
sg70
g2592
sg63
(lp3040
g56
(g77
g58
NtRp3041
(dp3042
g61
(dp3043
g81
g82
ssg70
g3037
sg63
(lp3044
S'REQUEST_METHOD'
p3045
asbag56
(g77
g58
NtRp3046
(dp3047
g61
(dp3048
g88
g89
ssg70
g3037
sg63
(lp3049
S':'
asbag56
(g77
g58
NtRp3050
(dp3051
g61
(dp3052
sg70
g3037
sg63
(lp3053
g56
(g57
g58
NtRp3054
(dp3055
g61
(dp3056
g69
I3
ssg70
g3050
sg63
(lp3057
g1449
asbasbasbag56
(g72
g58
NtRp3058
(dp3059
g61
(dp3060
sg70
g2592
sg63
(lp3061
g56
(g77
g58
NtRp3062
(dp3063
g61
(dp3064
g81
g82
ssg70
g3058
sg63
(lp3065
S'REQUEST_URI'
p3066
asbag56
(g77
g58
NtRp3067
(dp3068
g61
(dp3069
g88
g89
ssg70
g3058
sg63
(lp3070
S':'
asbag56
(g77
g58
NtRp3071
(dp3072
g61
(dp3073
sg70
g3058
sg63
(lp3074
g56
(g57
g58
NtRp3075
(dp3076
g61
(dp3077
g69
I3
ssg70
g3071
sg63
(lp3078
g1471
asbasbasbag56
(g72
g58
NtRp3079
(dp3080
g61
(dp3081
sg70
g2592
sg63
(lp3082
g56
(g77
g58
NtRp3083
(dp3084
g61
(dp3085
g81
g82
ssg70
g3079
sg63
(lp3086
S'SCRIPT_FILENAME'
p3087
asbag56
(g77
g58
NtRp3088
(dp3089
g61
(dp3090
g88
g89
ssg70
g3079
sg63
(lp3091
S':'
asbag56
(g77
g58
NtRp3092
(dp3093
g61
(dp3094
sg70
g3079
sg63
(lp3095
g56
(g57
g58
NtRp3096
(dp3097
g61
(dp3098
g69
I3
ssg70
g3092
sg63
(lp3099
g1493
asbasbasbag56
(g72
g58
NtRp3100
(dp3101
g61
(dp3102
sg70
g2592
sg63
(lp3103
g56
(g77
g58
NtRp3104
(dp3105
g61
(dp3106
g81
g82
ssg70
g3100
sg63
(lp3107
S'SCRIPT_NAME'
p3108
asbag56
(g77
g58
NtRp3109
(dp3110
g61
(dp3111
g88
g89
ssg70
g3100
sg63
(lp3112
S':'
asbag56
(g77
g58
NtRp3113
(dp3114
g61
(dp3115
sg70
g3100
sg63
(lp3116
g56
(g57
g58
NtRp3117
(dp3118
g61
(dp3119
g69
I3
ssg70
g3113
sg63
(lp3120
S''
asbasbasbag56
(g72
g58
NtRp3121
(dp3122
g61
(dp3123
sg70
g2592
sg63
(lp3124
g56
(g77
g58
NtRp3125
(dp3126
g61
(dp3127
g81
g82
ssg70
g3121
sg63
(lp3128
S'SERVER_ADDR'
p3129
asbag56
(g77
g58
NtRp3130
(dp3131
g61
(dp3132
g88
g89
ssg70
g3121
sg63
(lp3133
S':'
asbag56
(g77
g58
NtRp3134
(dp3135
g61
(dp3136
sg70
g3121
sg63
(lp3137
g56
(g57
g58
NtRp3138
(dp3139
g61
(dp3140
g69
I3
ssg70
g3134
sg63
(lp3141
g1536
asbasbasbag56
(g72
g58
NtRp3142
(dp3143
g61
(dp3144
sg70
g2592
sg63
(lp3145
g56
(g77
g58
NtRp3146
(dp3147
g61
(dp3148
g81
g82
ssg70
g3142
sg63
(lp3149
S'SERVER_ADMIN'
p3150
asbag56
(g77
g58
NtRp3151
(dp3152
g61
(dp3153
g88
g89
ssg70
g3142
sg63
(lp3154
S':'
asbag56
(g77
g58
NtRp3155
(dp3156
g61
(dp3157
sg70
g3142
sg63
(lp3158
g56
(g57
g58
NtRp3159
(dp3160
g61
(dp3161
g69
I3
ssg70
g3155
sg63
(lp3162
g1558
asbasbasbag56
(g72
g58
NtRp3163
(dp3164
g61
(dp3165
sg70
g2592
sg63
(lp3166
g56
(g77
g58
NtRp3167
(dp3168
g61
(dp3169
g81
g82
ssg70
g3163
sg63
(lp3170
S'SERVER_NAME'
p3171
asbag56
(g77
g58
NtRp3172
(dp3173
g61
(dp3174
g88
g89
ssg70
g3163
sg63
(lp3175
S':'
asbag56
(g77
g58
NtRp3176
(dp3177
g61
(dp3178
sg70
g3163
sg63
(lp3179
g56
(g57
g58
NtRp3180
(dp3181
g61
(dp3182
g69
I3
ssg70
g3176
sg63
(lp3183
g1580
asbasbasbag56
(g72
g58
NtRp3184
(dp3185
g61
(dp3186
sg70
g2592
sg63
(lp3187
g56
(g77
g58
NtRp3188
(dp3189
g61
(dp3190
g81
g82
ssg70
g3184
sg63
(lp3191
S'SERVER_PORT'
p3192
asbag56
(g77
g58
NtRp3193
(dp3194
g61
(dp3195
g88
g89
ssg70
g3184
sg63
(lp3196
S':'
asbag56
(g77
g58
NtRp3197
(dp3198
g61
(dp3199
sg70
g3184
sg63
(lp3200
g56
(g57
g58
NtRp3201
(dp3202
g61
(dp3203
g69
I3
ssg70
g3197
sg63
(lp3204
g1602
asbasbasbag56
(g72
g58
NtRp3205
(dp3206
g61
(dp3207
sg70
g2592
sg63
(lp3208
g56
(g77
g58
NtRp3209
(dp3210
g61
(dp3211
g81
g82
ssg70
g3205
sg63
(lp3212
S'SERVER_PROTOCOL'
p3213
asbag56
(g77
g58
NtRp3214
(dp3215
g61
(dp3216
g88
g89
ssg70
g3205
sg63
(lp3217
S':'
asbag56
(g77
g58
NtRp3218
(dp3219
g61
(dp3220
sg70
g3205
sg63
(lp3221
g56
(g57
g58
NtRp3222
(dp3223
g61
(dp3224
g69
I3
ssg70
g3218
sg63
(lp3225
g1624
asbasbasbag56
(g72
g58
NtRp3226
(dp3227
g61
(dp3228
sg70
g2592
sg63
(lp3229
g56
(g77
g58
NtRp3230
(dp3231
g61
(dp3232
g81
g82
ssg70
g3226
sg63
(lp3233
S'SERVER_SIGNATURE'
p3234
asbag56
(g77
g58
NtRp3235
(dp3236
g61
(dp3237
g88
g89
ssg70
g3226
sg63
(lp3238
S':'
asbag56
(g77
g58
NtRp3239
(dp3240
g61
(dp3241
sg70
g3226
sg63
(lp3242
g56
(g57
g58
NtRp3243
(dp3244
g61
(dp3245
g69
I3
ssg70
g3239
sg63
(lp3246
S''
asbasbasbag56
(g72
g58
NtRp3247
(dp3248
g61
(dp3249
sg70
g2592
sg63
(lp3250
g56
(g77
g58
NtRp3251
(dp3252
g61
(dp3253
g81
g82
ssg70
g3247
sg63
(lp3254
S'SERVER_SOFTWARE'
p3255
asbag56
(g77
g58
NtRp3256
(dp3257
g61
(dp3258
g88
g89
ssg70
g3247
sg63
(lp3259
S':'
asbag56
(g77
g58
NtRp3260
(dp3261
g61
(dp3262
sg70
g3247
sg63
(lp3263
g56
(g57
g58
NtRp3264
(dp3265
g61
(dp3266
g69
I3
ssg70
g3260
sg63
(lp3267
g1667
asbasbasbag56
(g72
g58
NtRp3268
(dp3269
g61
(dp3270
sg70
g2592
sg63
(lp3271
g56
(g77
g58
NtRp3272
(dp3273
g61
(dp3274
g81
g82
ssg70
g3268
sg63
(lp3275
S'SystemRoot'
p3276
asbag56
(g77
g58
NtRp3277
(dp3278
g61
(dp3279
g88
g89
ssg70
g3268
sg63
(lp3280
S':'
asbag56
(g77
g58
NtRp3281
(dp3282
g61
(dp3283
sg70
g3268
sg63
(lp3284
g56
(g57
g58
NtRp3285
(dp3286
g61
(dp3287
g69
I3
ssg70
g3281
sg63
(lp3288
g1689
asbasbasbag56
(g72
g58
NtRp3289
(dp3290
g61
(dp3291
sg70
g2592
sg63
(lp3292
g56
(g77
g58
NtRp3293
(dp3294
g61
(dp3295
g81
g82
ssg70
g3289
sg63
(lp3296
S'WINDIR'
p3297
asbag56
(g77
g58
NtRp3298
(dp3299
g61
(dp3300
g88
g89
ssg70
g3289
sg63
(lp3301
S':'
asbag56
(g77
g58
NtRp3302
(dp3303
g61
(dp3304
sg70
g3289
sg63
(lp3305
g56
(g57
g58
NtRp3306
(dp3307
g61
(dp3308
g69
I3
ssg70
g3302
sg63
(lp3309
g1820
asbasbasbag56
(g72
g58
NtRp3310
(dp3311
g61
(dp3312
sg70
g2592
sg63
(lp3313
g56
(g77
g58
NtRp3314
(dp3315
g61
(dp3316
g81
g82
ssg70
g3310
sg63
(lp3317
S'mod_wsgi.application_group'
p3318
asbag56
(g77
g58
NtRp3319
(dp3320
g61
(dp3321
g88
g89
ssg70
g3310
sg63
(lp3322
S':'
asbag56
(g77
g58
NtRp3323
(dp3324
g61
(dp3325
sg70
g3310
sg63
(lp3326
g56
(g57
g58
NtRp3327
(dp3328
g61
(dp3329
g69
I3
ssg70
g3323
sg63
(lp3330
g1120
asbasbasbag56
(g72
g58
NtRp3331
(dp3332
g61
(dp3333
sg70
g2592
sg63
(lp3334
g56
(g77
g58
NtRp3335
(dp3336
g61
(dp3337
g81
g82
ssg70
g3331
sg63
(lp3338
S'mod_wsgi.callable_object'
p3339
asbag56
(g77
g58
NtRp3340
(dp3341
g61
(dp3342
g88
g89
ssg70
g3331
sg63
(lp3343
S':'
asbag56
(g77
g58
NtRp3344
(dp3345
g61
(dp3346
sg70
g3331
sg63
(lp3347
g56
(g57
g58
NtRp3348
(dp3349
g61
(dp3350
g69
I3
ssg70
g3344
sg63
(lp3351
g1142
asbasbasbag56
(g72
g58
NtRp3352
(dp3353
g61
(dp3354
sg70
g2592
sg63
(lp3355
g56
(g77
g58
NtRp3356
(dp3357
g61
(dp3358
g81
g82
ssg70
g3352
sg63
(lp3359
S'mod_wsgi.handler_script'
p3360
asbag56
(g77
g58
NtRp3361
(dp3362
g61
(dp3363
g88
g89
ssg70
g3352
sg63
(lp3364
S':'
asbag56
(g77
g58
NtRp3365
(dp3366
g61
(dp3367
sg70
g3352
sg63
(lp3368
g56
(g57
g58
NtRp3369
(dp3370
g61
(dp3371
g69
I3
ssg70
g3365
sg63
(lp3372
S''
asbasbasbag56
(g72
g58
NtRp3373
(dp3374
g61
(dp3375
sg70
g2592
sg63
(lp3376
g56
(g77
g58
NtRp3377
(dp3378
g61
(dp3379
g81
g82
ssg70
g3373
sg63
(lp3380
S'mod_wsgi.input_chunked'
p3381
asbag56
(g77
g58
NtRp3382
(dp3383
g61
(dp3384
g88
g89
ssg70
g3373
sg63
(lp3385
S':'
asbag56
(g77
g58
NtRp3386
(dp3387
g61
(dp3388
sg70
g3373
sg63
(lp3389
g56
(g57
g58
NtRp3390
(dp3391
g61
(dp3392
g69
I3
ssg70
g3386
sg63
(lp3393
S'0'
asbasbasbag56
(g72
g58
NtRp3394
(dp3395
g61
(dp3396
sg70
g2592
sg63
(lp3397
g56
(g77
g58
NtRp3398
(dp3399
g61
(dp3400
g81
g82
ssg70
g3394
sg63
(lp3401
S'mod_wsgi.process_group'
p3402
asbag56
(g77
g58
NtRp3403
(dp3404
g61
(dp3405
g88
g89
ssg70
g3394
sg63
(lp3406
S':'
asbag56
(g77
g58
NtRp3407
(dp3408
g61
(dp3409
sg70
g3394
sg63
(lp3410
g56
(g57
g58
NtRp3411
(dp3412
g61
(dp3413
g69
I3
ssg70
g3407
sg63
(lp3414
S''
asbasbasbag56
(g72
g58
NtRp3415
(dp3416
g61
(dp3417
sg70
g2592
sg63
(lp3418
g56
(g77
g58
NtRp3419
(dp3420
g61
(dp3421
g81
g82
ssg70
g3415
sg63
(lp3422
S'mod_wsgi.request_handler'
p3423
asbag56
(g77
g58
NtRp3424
(dp3425
g61
(dp3426
g88
g89
ssg70
g3415
sg63
(lp3427
S':'
asbag56
(g77
g58
NtRp3428
(dp3429
g61
(dp3430
sg70
g3415
sg63
(lp3431
g56
(g57
g58
NtRp3432
(dp3433
g61
(dp3434
g69
I3
ssg70
g3428
sg63
(lp3435
g1227
asbasbasbag56
(g72
g58
NtRp3436
(dp3437
g61
(dp3438
sg70
g2592
sg63
(lp3439
g56
(g77
g58
NtRp3440
(dp3441
g61
(dp3442
g81
g82
ssg70
g3436
sg63
(lp3443
S'mod_wsgi.script_reloading'
p3444
asbag56
(g77
g58
NtRp3445
(dp3446
g61
(dp3447
g88
g89
ssg70
g3436
sg63
(lp3448
S':'
asbag56
(g77
g58
NtRp3449
(dp3450
g61
(dp3451
sg70
g3436
sg63
(lp3452
g56
(g57
g58
NtRp3453
(dp3454
g61
(dp3455
g69
I3
ssg70
g3449
sg63
(lp3456
S'1'
asbasbasbag56
(g72
g58
NtRp3457
(dp3458
g61
(dp3459
sg70
g2592
sg63
(lp3460
g56
(g77
g58
NtRp3461
(dp3462
g61
(dp3463
g81
g82
ssg70
g3457
sg63
(lp3464
S'mod_wsgi.version'
p3465
asbag56
(g77
g58
NtRp3466
(dp3467
g61
(dp3468
g88
g89
ssg70
g3457
sg63
(lp3469
S':'
asbag56
(g77
g58
NtRp3470
(dp3471
g61
(dp3472
sg70
g3457
sg63
(lp3473
g56
(g57
g58
NtRp3474
(dp3475
g61
(dp3476
g69
I3
ssg70
g3470
sg63
(lp3477
g56
(g65
g58
NtRp3478
(dp3479
g61
(dp3480
g69
I2
ssg70
Nsg63
(lp3481
g56
(g72
g58
NtRp3482
(dp3483
g61
(dp3484
sg70
g3478
sg63
(lp3485
g56
(g77
g58
NtRp3486
(dp3487
g61
(dp3488
sg70
g3482
sg63
(lp3489
g56
(g57
g58
NtRp3490
(dp3491
g61
(dp3492
g69
I2
ssg70
g3486
sg63
(lp3493
S'3'
asbasbasbag56
(g72
g58
NtRp3494
(dp3495
g61
(dp3496
sg70
g3478
sg63
(lp3497
g56
(g77
g58
NtRp3498
(dp3499
g61
(dp3500
sg70
g3494
sg63
(lp3501
g56
(g57
g58
NtRp3502
(dp3503
g61
(dp3504
g69
I2
ssg70
g3498
sg63
(lp3505
S'3'
asbasbasbasbasbasbasbag56
(g72
g58
NtRp3506
(dp3507
g61
(dp3508
sg70
g2592
sg63
(lp3509
g56
(g77
g58
NtRp3510
(dp3511
g61
(dp3512
g81
g82
ssg70
g3506
sg63
(lp3513
S'wsgi.errors'
p3514
asbag56
(g77
g58
NtRp3515
(dp3516
g61
(dp3517
g88
g89
ssg70
g3506
sg63
(lp3518
S':'
asbag56
(g77
g58
NtRp3519
(dp3520
g61
(dp3521
sg70
g3506
sg63
(lp3522
g56
(g57
g58
NtRp3523
(dp3524
g61
(dp3525
g69
I3
ssg70
g3519
sg63
(lp3526
S'<mod_wsgi.Log object at 0x03A26CA0>'
p3527
asbasbasbag56
(g72
g58
NtRp3528
(dp3529
g61
(dp3530
sg70
g2592
sg63
(lp3531
g56
(g77
g58
NtRp3532
(dp3533
g61
(dp3534
g81
g82
ssg70
g3528
sg63
(lp3535
S'wsgi.file_wrapper'
p3536
asbag56
(g77
g58
NtRp3537
(dp3538
g61
(dp3539
g88
g89
ssg70
g3528
sg63
(lp3540
S':'
asbag56
(g77
g58
NtRp3541
(dp3542
g61
(dp3543
sg70
g3528
sg63
(lp3544
g56
(g57
g58
NtRp3545
(dp3546
g61
(dp3547
g69
I3
ssg70
g3541
sg63
(lp3548
S'<built-in method file_wrapper of mod_wsgi.Adapter object at 0x037B9380>'
p3549
asbasbasbag56
(g72
g58
NtRp3550
(dp3551
g61
(dp3552
sg70
g2592
sg63
(lp3553
g56
(g77
g58
NtRp3554
(dp3555
g61
(dp3556
g81
g82
ssg70
g3550
sg63
(lp3557
S'wsgi.input'
p3558
asbag56
(g77
g58
NtRp3559
(dp3560
g61
(dp3561
g88
g89
ssg70
g3550
sg63
(lp3562
S':'
asbag56
(g77
g58
NtRp3563
(dp3564
g61
(dp3565
sg70
g3550
sg63
(lp3566
g56
(g57
g58
NtRp3567
(dp3568
g61
(dp3569
g69
I3
ssg70
g3563
sg63
(lp3570
S"<open file '<fdopen>', mode 'w+b' at 0x0379A230>"
p3571
asbasbasbag56
(g72
g58
NtRp3572
(dp3573
g61
(dp3574
sg70
g2592
sg63
(lp3575
g56
(g77
g58
NtRp3576
(dp3577
g61
(dp3578
g81
g82
ssg70
g3572
sg63
(lp3579
S'wsgi.multiprocess'
p3580
asbag56
(g77
g58
NtRp3581
(dp3582
g61
(dp3583
g88
g89
ssg70
g3572
sg63
(lp3584
S':'
asbag56
(g77
g58
NtRp3585
(dp3586
g61
(dp3587
sg70
g3572
sg63
(lp3588
g56
(g57
g58
NtRp3589
(dp3590
g61
(dp3591
g69
I3
ssg70
g3585
sg63
(lp3592
g770
asbasbasbag56
(g72
g58
NtRp3593
(dp3594
g61
(dp3595
sg70
g2592
sg63
(lp3596
g56
(g77
g58
NtRp3597
(dp3598
g61
(dp3599
g81
g82
ssg70
g3593
sg63
(lp3600
S'wsgi.multithread'
p3601
asbag56
(g77
g58
NtRp3602
(dp3603
g61
(dp3604
g88
g89
ssg70
g3593
sg63
(lp3605
S':'
asbag56
(g77
g58
NtRp3606
(dp3607
g61
(dp3608
sg70
g3593
sg63
(lp3609
g56
(g57
g58
NtRp3610
(dp3611
g61
(dp3612
g69
I3
ssg70
g3606
sg63
(lp3613
g99
asbasbasbag56
(g72
g58
NtRp3614
(dp3615
g61
(dp3616
sg70
g2592
sg63
(lp3617
g56
(g77
g58
NtRp3618
(dp3619
g61
(dp3620
g81
g82
ssg70
g3614
sg63
(lp3621
S'wsgi.run_once'
p3622
asbag56
(g77
g58
NtRp3623
(dp3624
g61
(dp3625
g88
g89
ssg70
g3614
sg63
(lp3626
S':'
asbag56
(g77
g58
NtRp3627
(dp3628
g61
(dp3629
sg70
g3614
sg63
(lp3630
g56
(g57
g58
NtRp3631
(dp3632
g61
(dp3633
g69
I3
ssg70
g3627
sg63
(lp3634
g770
asbasbasbag56
(g72
g58
NtRp3635
(dp3636
g61
(dp3637
sg70
g2592
sg63
(lp3638
g56
(g77
g58
NtRp3639
(dp3640
g61
(dp3641
g81
g82
ssg70
g3635
sg63
(lp3642
S'wsgi.url_scheme'
p3643
asbag56
(g77
g58
NtRp3644
(dp3645
g61
(dp3646
g88
g89
ssg70
g3635
sg63
(lp3647
S':'
asbag56
(g77
g58
NtRp3648
(dp3649
g61
(dp3650
sg70
g3635
sg63
(lp3651
g56
(g57
g58
NtRp3652
(dp3653
g61
(dp3654
g69
I3
ssg70
g3648
sg63
(lp3655
g1971
asbasbasbag56
(g72
g58
NtRp3656
(dp3657
g61
(dp3658
sg70
g2592
sg63
(lp3659
g56
(g77
g58
NtRp3660
(dp3661
g61
(dp3662
g81
g82
ssg70
g3656
sg63
(lp3663
S'wsgi.version'
p3664
asbag56
(g77
g58
NtRp3665
(dp3666
g61
(dp3667
g88
g89
ssg70
g3656
sg63
(lp3668
S':'
asbag56
(g77
g58
NtRp3669
(dp3670
g61
(dp3671
sg70
g3656
sg63
(lp3672
g56
(g57
g58
NtRp3673
(dp3674
g61
(dp3675
g69
I3
ssg70
g3669
sg63
(lp3676
S'1'
asbasbasbasbasbasbasbasbasbasbasbasbasbsS'frames'
p3677
(lp3678
(dp3679
S'file'
p3680
S'D:\\Workbench\\web2py_src\\gluon\\restricted.py'
p3681
sS'dump'
p3682
(dp3683
S'environment'
p3684
S"{'A': <class 'gluon.html.A'>, 'ALLOW_TOGGLE': 'true', 'B': <class 'gluon.html.B'>, 'BEAUTIFY': <class 'gluon.html.BEAUTIFY'>, 'BODY': <class 'gluon.html.BODY'>, 'BR': <class 'gluon.html.BR'>, 'BUTTON': <class 'gluon.html.BUTTON'>, 'CAT': <class 'gluon.html.CAT'>, 'CENTER': <class 'gluon.html.CENTER'>, 'CHECK_VERSION': True, ...}"
p3685
sS'ccode'
p3686
S'<code object <module> at 037908D8, file "D:\\Work...plications\\admin\\controllers/default.py", line 3>'
p3687
ssS'lnum'
p3688
I194
sS'lines'
p3689
(dp3690
I192
S'        else:'
p3691
sI193
S'            ccode = compile2(code,layer)'
p3692
sI194
S'        exec ccode in environment'
p3693
sI195
S'    except HTTP:'
p3694
sI196
S'        raise'
p3695
sI197
S'    except Exception, error:'
p3696
sI198
S'        # XXX Show exception in Wing IDE if running in debugger'
p3697
sI189
S'    try:'
p3698
sI190
S'        if type(code) == types.CodeType:'
p3699
sI191
S'            ccode = code'
p3700
ssS'call'
p3701
S"(code='# coding: utf8\\n\\nfrom gluon.admin import *\\nfrom g...\\n\\nresponse._vars=response._caller(check_version)\\n', environment={'A': <class 'gluon.html.A'>, 'ALLOW_TOGGLE': 'true', 'B': <class 'gluon.html.B'>, 'BEAUTIFY': <class 'gluon.html.BEAUTIFY'>, 'BODY': <class 'gluon.html.BODY'>, 'BR': <class 'gluon.html.BR'>, 'BUTTON': <class 'gluon.html.BUTTON'>, 'CAT': <class 'gluon.html.CAT'>, 'CENTER': <class 'gluon.html.CENTER'>, 'CHECK_VERSION': True, ...}, layer=r'D:\\Workbench\\web2py_src\\applications\\admin\\controllers/default.py')"
p3702
sS'func'
p3703
S'restricted'
p3704
sa(dp3705
g3680
S'D:\\Workbench\\web2py_src\\applications\\admin\\controllers\\default.py'
p3706
sg3682
(dp3707
sg3688
I1225
sg3689
(dp3708
I1216
S'    else:'
p3709
sI1217
S'        return dict(form=T("Disabled"))'
p3710
sI1218
S''
sI1219
S'def reload_routes():'
p3711
sI1220
S'    """ Reload routes.py """'
p3712
sI1221
S'    import gluon.rewrite'
p3713
sI1222
S'    gluon.rewrite.load()'
p3714
sI1223
S"    redirect(URL('site'))"
p3715
sI1214
S'            auth.settings.registration_requires_approval = False'
p3716
sI1215
S'        return dict(form=auth())'
p3717
ssg3701
S'()'
p3718
sg3703
S'<module>'
p3719
sa(dp3720
g3680
S'D:\\Workbench\\web2py_src\\gluon\\globals.py'
p3721
sg3682
(dp3722
S'self'
p3723
S'undefined'
p3724
sS'f'
S'<function check_version>'
p3725
ssg3688
I149
sg3689
(dp3726
I144
S'        self.meta = Storage()      # used by web2py_ajax.html'
p3727
sI145
S'        self.menu = []             # used by the default view layout'
p3728
sI146
S'        self.files = []            # used by web2py_ajax.html'
p3729
sI147
S'        self.generic_patterns = [] # patterns to allow generic views'
p3730
sI148
S'        self._vars = None'
p3731
sI149
S'        self._caller = lambda f: f()'
p3732
sI150
S'        self._view_environment = None'
p3733
sI151
S'        self._custom_commit = None'
p3734
sI152
S'        self._custom_rollback = None'
p3735
sI153
S''
ssg3701
S'(f=<function check_version>)'
p3736
sg3703
S'<lambda>'
p3737
sa(dp3738
g3680
S'D:\\Workbench\\web2py_src\\applications\\admin\\controllers\\default.py'
p3739
sg3682
(dp3740
S'global XML'
p3741
S"<class 'gluon.html.XML'>"
p3742
sS'version_number'
p3743
S"(1, 99, 4, datetime.datetime(2011, 12, 14, 14, 46, 14), 'stable')"
p3744
ssg3688
I105
sg3689
(dp3745
I100
S"        return A(T('web2py is up to date'), _href=WEB2PY_URL)"
p3746
sI101
S'    elif platform.system().lower() in (\'windows\',\'win32\',\'win64\') and os.path.exists("web2py.exe"):'
p3747
sI102
S"        return SPAN('You should upgrade to version %s' % version_number)"
p3748
sI103
S'    else:'
p3749
sI104
S"        return sp_button(URL('upgrade_web2py'), T('upgrade now')) \\"
p3750
sI105
S'          + XML(\' <strong class="upgrade_version">%s</strong>\' % version_number)'
p3751
sI106
S''
sI107
S''
sI108
S'def logout():'
p3752
sI109
S'    """ Logout handler """'
p3753
ssg3701
S'()'
p3754
sg3703
S'check_version'
p3755
sasS'pyver'
p3756
S'Python 2.7.2: C:\\Program Files\\Apache Software Foundation\\Apache2.2\\bin\\httpd.exe'
p3757
sS'session'
p3758
g56
(g57
g58
NtRp3759
(dp3760
g61
(dp3761
sg63
(lp3762
g56
(g65
g58
NtRp3763
(dp3764
g61
(dp3765
g69
I5
ssg70
Nsg63
(lp3766
g56
(g72
g58
NtRp3767
(dp3768
g61
(dp3769
sg70
g3763
sg63
(lp3770
g56
(g77
g58
NtRp3771
(dp3772
g61
(dp3773
g81
g82
ssg70
g3767
sg63
(lp3774
S'authorized'
p3775
asbag56
(g77
g58
NtRp3776
(dp3777
g61
(dp3778
g88
g89
ssg70
g3767
sg63
(lp3779
S':'
asbag56
(g77
g58
NtRp3780
(dp3781
g61
(dp3782
sg70
g3767
sg63
(lp3783
g56
(g57
g58
NtRp3784
(dp3785
g61
(dp3786
g69
I5
ssg70
g3780
sg63
(lp3787
g99
asbasbasbag56
(g72
g58
NtRp3788
(dp3789
g61
(dp3790
sg70
g3763
sg63
(lp3791
g56
(g77
g58
NtRp3792
(dp3793
g61
(dp3794
g81
g82
ssg70
g3788
sg63
(lp3795
S'check_version'
p3796
asbag56
(g77
g58
NtRp3797
(dp3798
g61
(dp3799
g88
g89
ssg70
g3788
sg63
(lp3800
S':'
asbag56
(g77
g58
NtRp3801
(dp3802
g61
(dp3803
sg70
g3788
sg63
(lp3804
g56
(g57
g58
NtRp3805
(dp3806
g61
(dp3807
g69
I5
ssg70
g3801
sg63
(lp3808
g770
asbasbasbag56
(g72
g58
NtRp3809
(dp3810
g61
(dp3811
sg70
g3763
sg63
(lp3812
g56
(g77
g58
NtRp3813
(dp3814
g61
(dp3815
g81
g82
ssg70
g3809
sg63
(lp3816
S'last_time'
p3817
asbag56
(g77
g58
NtRp3818
(dp3819
g61
(dp3820
g88
g89
ssg70
g3809
sg63
(lp3821
S':'
asbag56
(g77
g58
NtRp3822
(dp3823
g61
(dp3824
sg70
g3809
sg63
(lp3825
g56
(g57
g58
NtRp3826
(dp3827
g61
(dp3828
g69
I5
ssg70
g3822
sg63
(lp3829
S'1324181534.145'
p3830
asbasbasbasbasbsS'etype'
p3831
S"<type 'exceptions.TypeError'>"
p3832
sS'date'
p3833
S'Sun Dec 18 12:12:15 2011'
p3834
sS'response'
p3835
g56
(g57
g58
NtRp3836
(dp3837
g61
(dp3838
sg63
(lp3839
g56
(g65
g58
NtRp3840
(dp3841
g61
(dp3842
g69
I5
ssg70
Nsg63
(lp3843
g56
(g72
g58
NtRp3844
(dp3845
g61
(dp3846
sg70
g3840
sg63
(lp3847
g56
(g77
g58
NtRp3848
(dp3849
g61
(dp3850
g81
g82
ssg70
g3844
sg63
(lp3851
g154
asbag56
(g77
g58
NtRp3852
(dp3853
g61
(dp3854
g88
g89
ssg70
g3844
sg63
(lp3855
S':'
asbag56
(g77
g58
NtRp3856
(dp3857
g61
(dp3858
sg70
g3844
sg63
(lp3859
g56
(g57
g58
NtRp3860
(dp3861
g61
(dp3862
g69
I5
ssg70
g3856
sg63
(lp3863
S'<cStringIO.StringO object at 0x038F2820>'
p3864
asbasbasbag56
(g72
g58
NtRp3865
(dp3866
g61
(dp3867
sg70
g3840
sg63
(lp3868
g56
(g77
g58
NtRp3869
(dp3870
g61
(dp3871
g81
g82
ssg70
g3865
sg63
(lp3872
g220
asbag56
(g77
g58
NtRp3873
(dp3874
g61
(dp3875
g88
g89
ssg70
g3865
sg63
(lp3876
S':'
asbag56
(g77
g58
NtRp3877
(dp3878
g61
(dp3879
sg70
g3865
sg63
(lp3880
g56
(g57
g58
NtRp3881
(dp3882
g61
(dp3883
g69
I5
ssg70
g3877
sg63
(lp3884
g56
(g65
g58
NtRp3885
(dp3886
g61
(dp3887
g69
I4
ssg70
Nsg63
(lp3888
g56
(g72
g58
NtRp3889
(dp3890
g61
(dp3891
sg70
g3885
sg63
(lp3892
g56
(g77
g58
NtRp3893
(dp3894
g61
(dp3895
g81
g82
ssg70
g3889
sg63
(lp3896
S'session_id_admin'
p3897
asbag56
(g77
g58
NtRp3898
(dp3899
g61
(dp3900
g88
g89
ssg70
g3889
sg63
(lp3901
S':'
asbag56
(g77
g58
NtRp3902
(dp3903
g61
(dp3904
sg70
g3889
sg63
(lp3905
g56
(g57
g58
NtRp3906
(dp3907
g61
(dp3908
g69
I4
ssg70
g3902
sg63
(lp3909
g56
(g65
g58
NtRp3910
(dp3911
g61
(dp3912
g69
I3
ssg70
Nsg63
(lp3913
g56
(g72
g58
NtRp3914
(dp3915
g61
(dp3916
sg70
g3910
sg63
(lp3917
g56
(g77
g58
NtRp3918
(dp3919
g61
(dp3920
g81
g82
ssg70
g3914
sg63
(lp3921
g270
asbag56
(g77
g58
NtRp3922
(dp3923
g61
(dp3924
g88
g89
ssg70
g3914
sg63
(lp3925
S':'
asbag56
(g77
g58
NtRp3926
(dp3927
g61
(dp3928
sg70
g3914
sg63
(lp3929
g56
(g57
g58
NtRp3930
(dp3931
g61
(dp3932
g69
I3
ssg70
g3926
sg63
(lp3933
S''
asbasbasbag56
(g72
g58
NtRp3934
(dp3935
g61
(dp3936
sg70
g3910
sg63
(lp3937
g56
(g77
g58
NtRp3938
(dp3939
g61
(dp3940
g81
g82
ssg70
g3934
sg63
(lp3941
g291
asbag56
(g77
g58
NtRp3942
(dp3943
g61
(dp3944
g88
g89
ssg70
g3934
sg63
(lp3945
S':'
asbag56
(g77
g58
NtRp3946
(dp3947
g61
(dp3948
sg70
g3934
sg63
(lp3949
g56
(g57
g58
NtRp3950
(dp3951
g61
(dp3952
g69
I3
ssg70
g3946
sg63
(lp3953
S''
asbasbasbag56
(g72
g58
NtRp3954
(dp3955
g61
(dp3956
sg70
g3910
sg63
(lp3957
g56
(g77
g58
NtRp3958
(dp3959
g61
(dp3960
g81
g82
ssg70
g3954
sg63
(lp3961
g312
asbag56
(g77
g58
NtRp3962
(dp3963
g61
(dp3964
g88
g89
ssg70
g3954
sg63
(lp3965
S':'
asbag56
(g77
g58
NtRp3966
(dp3967
g61
(dp3968
sg70
g3954
sg63
(lp3969
g56
(g57
g58
NtRp3970
(dp3971
g61
(dp3972
g69
I3
ssg70
g3966
sg63
(lp3973
S''
asbasbasbag56
(g72
g58
NtRp3974
(dp3975
g61
(dp3976
sg70
g3910
sg63
(lp3977
g56
(g77
g58
NtRp3978
(dp3979
g61
(dp3980
g81
g82
ssg70
g3974
sg63
(lp3981
g333
asbag56
(g77
g58
NtRp3982
(dp3983
g61
(dp3984
g88
g89
ssg70
g3974
sg63
(lp3985
S':'
asbag56
(g77
g58
NtRp3986
(dp3987
g61
(dp3988
sg70
g3974
sg63
(lp3989
g56
(g57
g58
NtRp3990
(dp3991
g61
(dp3992
g69
I3
ssg70
g3986
sg63
(lp3993
S''
asbasbasbag56
(g72
g58
NtRp3994
(dp3995
g61
(dp3996
sg70
g3910
sg63
(lp3997
g56
(g77
g58
NtRp3998
(dp3999
g61
(dp4000
g81
g82
ssg70
g3994
sg63
(lp4001
g354
asbag56
(g77
g58
NtRp4002
(dp4003
g61
(dp4004
g88
g89
ssg70
g3994
sg63
(lp4005
S':'
asbag56
(g77
g58
NtRp4006
(dp4007
g61
(dp4008
sg70
g3994
sg63
(lp4009
g56
(g57
g58
NtRp4010
(dp4011
g61
(dp4012
g69
I3
ssg70
g4006
sg63
(lp4013
S''
asbasbasbag56
(g72
g58
NtRp4014
(dp4015
g61
(dp4016
sg70
g3910
sg63
(lp4017
g56
(g77
g58
NtRp4018
(dp4019
g61
(dp4020
g81
g82
ssg70
g4014
sg63
(lp4021
g375
asbag56
(g77
g58
NtRp4022
(dp4023
g61
(dp4024
g88
g89
ssg70
g4014
sg63
(lp4025
S':'
asbag56
(g77
g58
NtRp4026
(dp4027
g61
(dp4028
sg70
g4014
sg63
(lp4029
g56
(g57
g58
NtRp4030
(dp4031
g61
(dp4032
g69
I3
ssg70
g4026
sg63
(lp4033
S'/'
asbasbasbag56
(g72
g58
NtRp4034
(dp4035
g61
(dp4036
sg70
g3910
sg63
(lp4037
g56
(g77
g58
NtRp4038
(dp4039
g61
(dp4040
g81
g82
ssg70
g4034
sg63
(lp4041
g396
asbag56
(g77
g58
NtRp4042
(dp4043
g61
(dp4044
g88
g89
ssg70
g4034
sg63
(lp4045
S':'
asbag56
(g77
g58
NtRp4046
(dp4047
g61
(dp4048
sg70
g4034
sg63
(lp4049
g56
(g57
g58
NtRp4050
(dp4051
g61
(dp4052
g69
I3
ssg70
g4046
sg63
(lp4053
S''
asbasbasbag56
(g72
g58
NtRp4054
(dp4055
g61
(dp4056
sg70
g3910
sg63
(lp4057
g56
(g77
g58
NtRp4058
(dp4059
g61
(dp4060
g81
g82
ssg70
g4054
sg63
(lp4061
g417
asbag56
(g77
g58
NtRp4062
(dp4063
g61
(dp4064
g88
g89
ssg70
g4054
sg63
(lp4065
S':'
asbag56
(g77
g58
NtRp4066
(dp4067
g61
(dp4068
sg70
g4054
sg63
(lp4069
g56
(g57
g58
NtRp4070
(dp4071
g61
(dp4072
g69
I3
ssg70
g4066
sg63
(lp4073
S''
asbasbasbasbasbasbasbasbasbasbasbag56
(g72
g58
NtRp4074
(dp4075
g61
(dp4076
sg70
g3840
sg63
(lp4077
g56
(g77
g58
NtRp4078
(dp4079
g61
(dp4080
g81
g82
ssg70
g4074
sg63
(lp4081
S'files'
p4082
asbag56
(g77
g58
NtRp4083
(dp4084
g61
(dp4085
g88
g89
ssg70
g4074
sg63
(lp4086
S':'
asbag56
(g77
g58
NtRp4087
(dp4088
g61
(dp4089
sg70
g4074
sg63
(lp4090
g56
(g57
g58
NtRp4091
(dp4092
g61
(dp4093
g69
I5
ssg70
g4087
sg63
(lp4094
g56
(g65
g58
NtRp4095
(dp4096
g61
(dp4097
g69
I4
ssg70
Nsg63
(lp4098
g56
(g72
g58
NtRp4099
(dp4100
g61
(dp4101
sg70
g4095
sg63
(lp4102
g56
(g77
g58
NtRp4103
(dp4104
g61
(dp4105
sg70
g4099
sg63
(lp4106
g56
(g57
g58
NtRp4107
(dp4108
g61
(dp4109
g69
I4
ssg70
g4103
sg63
(lp4110
S'/admin/static/plugin_multiselect/jquery.dimensions.js'
p4111
asbasbasbag56
(g72
g58
NtRp4112
(dp4113
g61
(dp4114
sg70
g4095
sg63
(lp4115
g56
(g77
g58
NtRp4116
(dp4117
g61
(dp4118
sg70
g4112
sg63
(lp4119
g56
(g57
g58
NtRp4120
(dp4121
g61
(dp4122
g69
I4
ssg70
g4116
sg63
(lp4123
S'/admin/static/plugin_multiselect/jquery.multiselect.js'
p4124
asbasbasbag56
(g72
g58
NtRp4125
(dp4126
g61
(dp4127
sg70
g4095
sg63
(lp4128
g56
(g77
g58
NtRp4129
(dp4130
g61
(dp4131
sg70
g4125
sg63
(lp4132
g56
(g57
g58
NtRp4133
(dp4134
g61
(dp4135
g69
I4
ssg70
g4129
sg63
(lp4136
S'/admin/static/plugin_multiselect/jquery.multiselect.css'
p4137
asbasbasbag56
(g72
g58
NtRp4138
(dp4139
g61
(dp4140
sg70
g4095
sg63
(lp4141
g56
(g77
g58
NtRp4142
(dp4143
g61
(dp4144
sg70
g4138
sg63
(lp4145
g56
(g57
g58
NtRp4146
(dp4147
g61
(dp4148
g69
I4
ssg70
g4142
sg63
(lp4149
S'/admin/static/plugin_multiselect/start.js'
p4150
asbasbasbasbasbasbasbag56
(g72
g58
NtRp4151
(dp4152
g61
(dp4153
sg70
g3840
sg63
(lp4154
g56
(g77
g58
NtRp4155
(dp4156
g61
(dp4157
g81
g82
ssg70
g4151
sg63
(lp4158
S'flash'
p4159
asbag56
(g77
g58
NtRp4160
(dp4161
g61
(dp4162
g88
g89
ssg70
g4151
sg63
(lp4163
S':'
asbag56
(g77
g58
NtRp4164
(dp4165
g61
(dp4166
sg70
g4151
sg63
(lp4167
g56
(g57
g58
NtRp4168
(dp4169
g61
(dp4170
g69
I5
ssg70
g4164
sg63
(lp4171
S''
asbasbasbag56
(g72
g58
NtRp4172
(dp4173
g61
(dp4174
sg70
g3840
sg63
(lp4175
g56
(g77
g58
NtRp4176
(dp4177
g61
(dp4178
g81
g82
ssg70
g4172
sg63
(lp4179
S'generic_patterns'
p4180
asbag56
(g77
g58
NtRp4181
(dp4182
g61
(dp4183
g88
g89
ssg70
g4172
sg63
(lp4184
S':'
asbag56
(g77
g58
NtRp4185
(dp4186
g61
(dp4187
sg70
g4172
sg63
(lp4188
g56
(g57
g58
NtRp4189
(dp4190
g61
(dp4191
g69
I5
ssg70
g4185
sg63
(lp4192
g56
(g65
g58
NtRp4193
(dp4194
g61
(dp4195
g69
I4
ssg70
Nsg63
(lp4196
sbasbasbasbag56
(g72
g58
NtRp4197
(dp4198
g61
(dp4199
sg70
g3840
sg63
(lp4200
g56
(g77
g58
NtRp4201
(dp4202
g61
(dp4203
g81
g82
ssg70
g4197
sg63
(lp4204
S'headers'
p4205
asbag56
(g77
g58
NtRp4206
(dp4207
g61
(dp4208
g88
g89
ssg70
g4197
sg63
(lp4209
S':'
asbag56
(g77
g58
NtRp4210
(dp4211
g61
(dp4212
sg70
g4197
sg63
(lp4213
g56
(g57
g58
NtRp4214
(dp4215
g61
(dp4216
g69
I5
ssg70
g4210
sg63
(lp4217
g56
(g65
g58
NtRp4218
(dp4219
g61
(dp4220
g69
I4
ssg70
Nsg63
(lp4221
g56
(g72
g58
NtRp4222
(dp4223
g61
(dp4224
sg70
g4218
sg63
(lp4225
g56
(g77
g58
NtRp4226
(dp4227
g61
(dp4228
g81
g82
ssg70
g4222
sg63
(lp4229
S'Cache-Control'
p4230
asbag56
(g77
g58
NtRp4231
(dp4232
g61
(dp4233
g88
g89
ssg70
g4222
sg63
(lp4234
S':'
asbag56
(g77
g58
NtRp4235
(dp4236
g61
(dp4237
sg70
g4222
sg63
(lp4238
g56
(g57
g58
NtRp4239
(dp4240
g61
(dp4241
g69
I4
ssg70
g4235
sg63
(lp4242
S'no-store, no-cache, must-revalidate, post-check=0, pre-check=0'
p4243
asbasbasbag56
(g72
g58
NtRp4244
(dp4245
g61
(dp4246
sg70
g4218
sg63
(lp4247
g56
(g77
g58
NtRp4248
(dp4249
g61
(dp4250
g81
g82
ssg70
g4244
sg63
(lp4251
S'Content-Type'
p4252
asbag56
(g77
g58
NtRp4253
(dp4254
g61
(dp4255
g88
g89
ssg70
g4244
sg63
(lp4256
S':'
asbag56
(g77
g58
NtRp4257
(dp4258
g61
(dp4259
sg70
g4244
sg63
(lp4260
g56
(g57
g58
NtRp4261
(dp4262
g61
(dp4263
g69
I4
ssg70
g4257
sg63
(lp4264
S'text/html; charset=utf-8'
p4265
asbasbasbag56
(g72
g58
NtRp4266
(dp4267
g61
(dp4268
sg70
g4218
sg63
(lp4269
g56
(g77
g58
NtRp4270
(dp4271
g61
(dp4272
g81
g82
ssg70
g4266
sg63
(lp4273
S'Expires'
p4274
asbag56
(g77
g58
NtRp4275
(dp4276
g61
(dp4277
g88
g89
ssg70
g4266
sg63
(lp4278
S':'
asbag56
(g77
g58
NtRp4279
(dp4280
g61
(dp4281
sg70
g4266
sg63
(lp4282
g56
(g57
g58
NtRp4283
(dp4284
g61
(dp4285
g69
I4
ssg70
g4279
sg63
(lp4286
S'Sun, 18 Dec 2011 04:12:14 GMT'
p4287
asbasbasbag56
(g72
g58
NtRp4288
(dp4289
g61
(dp4290
sg70
g4218
sg63
(lp4291
g56
(g77
g58
NtRp4292
(dp4293
g61
(dp4294
g81
g82
ssg70
g4288
sg63
(lp4295
S'Pragma'
p4296
asbag56
(g77
g58
NtRp4297
(dp4298
g61
(dp4299
g88
g89
ssg70
g4288
sg63
(lp4300
S':'
asbag56
(g77
g58
NtRp4301
(dp4302
g61
(dp4303
sg70
g4288
sg63
(lp4304
g56
(g57
g58
NtRp4305
(dp4306
g61
(dp4307
g69
I4
ssg70
g4301
sg63
(lp4308
S'no-cache'
p4309
asbasbasbag56
(g72
g58
NtRp4310
(dp4311
g61
(dp4312
sg70
g4218
sg63
(lp4313
g56
(g77
g58
NtRp4314
(dp4315
g61
(dp4316
g81
g82
ssg70
g4310
sg63
(lp4317
S'X-Powered-By'
p4318
asbag56
(g77
g58
NtRp4319
(dp4320
g61
(dp4321
g88
g89
ssg70
g4310
sg63
(lp4322
S':'
asbag56
(g77
g58
NtRp4323
(dp4324
g61
(dp4325
sg70
g4310
sg63
(lp4326
g56
(g57
g58
NtRp4327
(dp4328
g61
(dp4329
g69
I4
ssg70
g4323
sg63
(lp4330
S'web2py'
p4331
asbasbasbasbasbasbasbag56
(g72
g58
NtRp4332
(dp4333
g61
(dp4334
sg70
g3840
sg63
(lp4335
g56
(g77
g58
NtRp4336
(dp4337
g61
(dp4338
g81
g82
ssg70
g4332
sg63
(lp4339
S'menu'
p4340
asbag56
(g77
g58
NtRp4341
(dp4342
g61
(dp4343
g88
g89
ssg70
g4332
sg63
(lp4344
S':'
asbag56
(g77
g58
NtRp4345
(dp4346
g61
(dp4347
sg70
g4332
sg63
(lp4348
g56
(g57
g58
NtRp4349
(dp4350
g61
(dp4351
g69
I5
ssg70
g4345
sg63
(lp4352
g56
(g65
g58
NtRp4353
(dp4354
g61
(dp4355
g69
I4
ssg70
Nsg63
(lp4356
g56
(g72
g58
NtRp4357
(dp4358
g61
(dp4359
sg70
g4353
sg63
(lp4360
g56
(g77
g58
NtRp4361
(dp4362
g61
(dp4363
sg70
g4357
sg63
(lp4364
g56
(g57
g58
NtRp4365
(dp4366
g61
(dp4367
g69
I4
ssg70
g4361
sg63
(lp4368
g56
(g65
g58
NtRp4369
(dp4370
g61
(dp4371
g69
I3
ssg70
Nsg63
(lp4372
g56
(g72
g58
NtRp4373
(dp4374
g61
(dp4375
sg70
g4369
sg63
(lp4376
g56
(g77
g58
NtRp4377
(dp4378
g61
(dp4379
sg70
g4373
sg63
(lp4380
g56
(g57
g58
NtRp4381
(dp4382
g61
(dp4383
g69
I3
ssg70
g4377
sg63
(lp4384
cgluon.languages
lazyT_unpickle
p4385
(S's\x06\x00\x00\x00\xe6\x80\xbb\xe7\xab\x99'
tRp4386
asbasbasbag56
(g72
g58
NtRp4387
(dp4388
g61
(dp4389
sg70
g4369
sg63
(lp4390
g56
(g77
g58
NtRp4391
(dp4392
g61
(dp4393
sg70
g4387
sg63
(lp4394
g56
(g57
g58
NtRp4395
(dp4396
g61
(dp4397
g69
I3
ssg70
g4391
sg63
(lp4398
g770
asbasbasbag56
(g72
g58
NtRp4399
(dp4400
g61
(dp4401
sg70
g4369
sg63
(lp4402
g56
(g77
g58
NtRp4403
(dp4404
g61
(dp4405
sg70
g4399
sg63
(lp4406
g56
(g57
g58
NtRp4407
(dp4408
g61
(dp4409
g69
I3
ssg70
g4403
sg63
(lp4410
S'/admin/default/site'
p4411
asbasbasbasbasbasbasbag56
(g72
g58
NtRp4412
(dp4413
g61
(dp4414
sg70
g4353
sg63
(lp4415
g56
(g77
g58
NtRp4416
(dp4417
g61
(dp4418
sg70
g4412
sg63
(lp4419
g56
(g57
g58
NtRp4420
(dp4421
g61
(dp4422
g69
I4
ssg70
g4416
sg63
(lp4423
g56
(g65
g58
NtRp4424
(dp4425
g61
(dp4426
g69
I3
ssg70
Nsg63
(lp4427
g56
(g72
g58
NtRp4428
(dp4429
g61
(dp4430
sg70
g4424
sg63
(lp4431
g56
(g77
g58
NtRp4432
(dp4433
g61
(dp4434
sg70
g4428
sg63
(lp4435
g56
(g57
g58
NtRp4436
(dp4437
g61
(dp4438
g69
I3
ssg70
g4432
sg63
(lp4439
g4385
(S's\x06\x00\x00\x00\xe6\xb3\xa8\xe9\x94\x80'
tRp4440
asbasbasbag56
(g72
g58
NtRp4441
(dp4442
g61
(dp4443
sg70
g4424
sg63
(lp4444
g56
(g77
g58
NtRp4445
(dp4446
g61
(dp4447
sg70
g4441
sg63
(lp4448
g56
(g57
g58
NtRp4449
(dp4450
g61
(dp4451
g69
I3
ssg70
g4445
sg63
(lp4452
g770
asbasbasbag56
(g72
g58
NtRp4453
(dp4454
g61
(dp4455
sg70
g4424
sg63
(lp4456
g56
(g77
g58
NtRp4457
(dp4458
g61
(dp4459
sg70
g4453
sg63
(lp4460
g56
(g57
g58
NtRp4461
(dp4462
g61
(dp4463
g69
I3
ssg70
g4457
sg63
(lp4464
S'/admin/default/logout'
p4465
asbasbasbasbasbasbasbag56
(g72
g58
NtRp4466
(dp4467
g61
(dp4468
sg70
g4353
sg63
(lp4469
g56
(g77
g58
NtRp4470
(dp4471
g61
(dp4472
sg70
g4466
sg63
(lp4473
g56
(g57
g58
NtRp4474
(dp4475
g61
(dp4476
g69
I4
ssg70
g4470
sg63
(lp4477
g56
(g65
g58
NtRp4478
(dp4479
g61
(dp4480
g69
I3
ssg70
Nsg63
(lp4481
g56
(g72
g58
NtRp4482
(dp4483
g61
(dp4484
sg70
g4478
sg63
(lp4485
g56
(g77
g58
NtRp4486
(dp4487
g61
(dp4488
sg70
g4482
sg63
(lp4489
g56
(g57
g58
NtRp4490
(dp4491
g61
(dp4492
g69
I3
ssg70
g4486
sg63
(lp4493
g4385
(S's\x06\x00\x00\x00\xe5\xb8\xae\xe5\x8a\xa9'
tRp4494
asbasbasbag56
(g72
g58
NtRp4495
(dp4496
g61
(dp4497
sg70
g4478
sg63
(lp4498
g56
(g77
g58
NtRp4499
(dp4500
g61
(dp4501
sg70
g4495
sg63
(lp4502
g56
(g57
g58
NtRp4503
(dp4504
g61
(dp4505
g69
I3
ssg70
g4499
sg63
(lp4506
g770
asbasbasbag56
(g72
g58
NtRp4507
(dp4508
g61
(dp4509
sg70
g4478
sg63
(lp4510
g56
(g77
g58
NtRp4511
(dp4512
g61
(dp4513
sg70
g4507
sg63
(lp4514
g56
(g57
g58
NtRp4515
(dp4516
g61
(dp4517
g69
I3
ssg70
g4511
sg63
(lp4518
S'/examples/default/index'
p4519
asbasbasbasbasbasbasbasbasbasbasbag56
(g72
g58
NtRp4520
(dp4521
g61
(dp4522
sg70
g3840
sg63
(lp4523
g56
(g77
g58
NtRp4524
(dp4525
g61
(dp4526
g81
g82
ssg70
g4520
sg63
(lp4527
S'meta'
p4528
asbag56
(g77
g58
NtRp4529
(dp4530
g61
(dp4531
g88
g89
ssg70
g4520
sg63
(lp4532
S':'
asbag56
(g77
g58
NtRp4533
(dp4534
g61
(dp4535
sg70
g4520
sg63
(lp4536
g56
(g57
g58
NtRp4537
(dp4538
g61
(dp4539
g69
I5
ssg70
g4533
sg63
(lp4540
g56
(g65
g58
NtRp4541
(dp4542
g61
(dp4543
g69
I4
ssg70
Nsg63
(lp4544
sbasbasbasbag56
(g72
g58
NtRp4545
(dp4546
g61
(dp4547
sg70
g3840
sg63
(lp4548
g56
(g77
g58
NtRp4549
(dp4550
g61
(dp4551
g81
g82
ssg70
g4545
sg63
(lp4552
S'postprocessing'
p4553
asbag56
(g77
g58
NtRp4554
(dp4555
g61
(dp4556
g88
g89
ssg70
g4545
sg63
(lp4557
S':'
asbag56
(g77
g58
NtRp4558
(dp4559
g61
(dp4560
sg70
g4545
sg63
(lp4561
g56
(g57
g58
NtRp4562
(dp4563
g61
(dp4564
g69
I5
ssg70
g4558
sg63
(lp4565
g56
(g65
g58
NtRp4566
(dp4567
g61
(dp4568
g69
I4
ssg70
Nsg63
(lp4569
sbasbasbasbag56
(g72
g58
NtRp4570
(dp4571
g61
(dp4572
sg70
g3840
sg63
(lp4573
g56
(g77
g58
NtRp4574
(dp4575
g61
(dp4576
g81
g82
ssg70
g4570
sg63
(lp4577
S'session_file'
p4578
asbag56
(g77
g58
NtRp4579
(dp4580
g61
(dp4581
g88
g89
ssg70
g4570
sg63
(lp4582
S':'
asbag56
(g77
g58
NtRp4583
(dp4584
g61
(dp4585
sg70
g4570
sg63
(lp4586
g56
(g57
g58
NtRp4587
(dp4588
g61
(dp4589
g69
I5
ssg70
g4583
sg63
(lp4590
S"<open file 'D:\\Workbench\\web2py_src\\applications\\admin\\sessions\\127.0.0.1-72abd675-70d4-4fd8-8601-dbdefde9533f', mode 'rb+' at 0x0379A390>"
p4591
asbasbasbag56
(g72
g58
NtRp4592
(dp4593
g61
(dp4594
sg70
g3840
sg63
(lp4595
g56
(g77
g58
NtRp4596
(dp4597
g61
(dp4598
g81
g82
ssg70
g4592
sg63
(lp4599
S'session_filename'
p4600
asbag56
(g77
g58
NtRp4601
(dp4602
g61
(dp4603
g88
g89
ssg70
g4592
sg63
(lp4604
S':'
asbag56
(g77
g58
NtRp4605
(dp4606
g61
(dp4607
sg70
g4592
sg63
(lp4608
g56
(g57
g58
NtRp4609
(dp4610
g61
(dp4611
g69
I5
ssg70
g4605
sg63
(lp4612
S'D:\\Workbench\\web2py_src\\applications\\admin\\sessions\\127.0.0.1-72abd675-70d4-4fd8-8601-dbdefde9533f'
p4613
asbasbasbag56
(g72
g58
NtRp4614
(dp4615
g61
(dp4616
sg70
g3840
sg63
(lp4617
g56
(g77
g58
NtRp4618
(dp4619
g61
(dp4620
g81
g82
ssg70
g4614
sg63
(lp4621
S'session_id'
p4622
asbag56
(g77
g58
NtRp4623
(dp4624
g61
(dp4625
g88
g89
ssg70
g4614
sg63
(lp4626
S':'
asbag56
(g77
g58
NtRp4627
(dp4628
g61
(dp4629
sg70
g4614
sg63
(lp4630
g56
(g57
g58
NtRp4631
(dp4632
g61
(dp4633
g69
I5
ssg70
g4627
sg63
(lp4634
S'127.0.0.1-72abd675-70d4-4fd8-8601-dbdefde9533f'
p4635
asbasbasbag56
(g72
g58
NtRp4636
(dp4637
g61
(dp4638
sg70
g3840
sg63
(lp4639
g56
(g77
g58
NtRp4640
(dp4641
g61
(dp4642
g81
g82
ssg70
g4636
sg63
(lp4643
S'session_id_name'
p4644
asbag56
(g77
g58
NtRp4645
(dp4646
g61
(dp4647
g88
g89
ssg70
g4636
sg63
(lp4648
S':'
asbag56
(g77
g58
NtRp4649
(dp4650
g61
(dp4651
sg70
g4636
sg63
(lp4652
g56
(g57
g58
NtRp4653
(dp4654
g61
(dp4655
g69
I5
ssg70
g4649
sg63
(lp4656
g3897
asbasbasbag56
(g72
g58
NtRp4657
(dp4658
g61
(dp4659
sg70
g3840
sg63
(lp4660
g56
(g77
g58
NtRp4661
(dp4662
g61
(dp4663
g81
g82
ssg70
g4657
sg63
(lp4664
S'session_locked'
p4665
asbag56
(g77
g58
NtRp4666
(dp4667
g61
(dp4668
g88
g89
ssg70
g4657
sg63
(lp4669
S':'
asbag56
(g77
g58
NtRp4670
(dp4671
g61
(dp4672
sg70
g4657
sg63
(lp4673
g56
(g57
g58
NtRp4674
(dp4675
g61
(dp4676
g69
I5
ssg70
g4670
sg63
(lp4677
g770
asbasbasbag56
(g72
g58
NtRp4678
(dp4679
g61
(dp4680
sg70
g3840
sg63
(lp4681
g56
(g77
g58
NtRp4682
(dp4683
g61
(dp4684
g81
g82
ssg70
g4678
sg63
(lp4685
S'session_new'
p4686
asbag56
(g77
g58
NtRp4687
(dp4688
g61
(dp4689
g88
g89
ssg70
g4678
sg63
(lp4690
S':'
asbag56
(g77
g58
NtRp4691
(dp4692
g61
(dp4693
sg70
g4678
sg63
(lp4694
g56
(g57
g58
NtRp4695
(dp4696
g61
(dp4697
g69
I5
ssg70
g4691
sg63
(lp4698
g770
asbasbasbag56
(g72
g58
NtRp4699
(dp4700
g61
(dp4701
sg70
g3840
sg63
(lp4702
g56
(g77
g58
NtRp4703
(dp4704
g61
(dp4705
g81
g82
ssg70
g4699
sg63
(lp4706
S'status'
p4707
asbag56
(g77
g58
NtRp4708
(dp4709
g61
(dp4710
g88
g89
ssg70
g4699
sg63
(lp4711
S':'
asbag56
(g77
g58
NtRp4712
(dp4713
g61
(dp4714
sg70
g4699
sg63
(lp4715
g56
(g57
g58
NtRp4716
(dp4717
g61
(dp4718
g69
I5
ssg70
g4712
sg63
(lp4719
S'200'
p4720
asbasbasbag56
(g72
g58
NtRp4721
(dp4722
g61
(dp4723
sg70
g3840
sg63
(lp4724
g56
(g77
g58
NtRp4725
(dp4726
g61
(dp4727
g81
g82
ssg70
g4721
sg63
(lp4728
S'subtitle'
p4729
asbag56
(g77
g58
NtRp4730
(dp4731
g61
(dp4732
g88
g89
ssg70
g4721
sg63
(lp4733
S':'
asbag56
(g77
g58
NtRp4734
(dp4735
g61
(dp4736
sg70
g4721
sg63
(lp4737
g56
(g57
g58
NtRp4738
(dp4739
g61
(dp4740
g69
I5
ssg70
g4734
sg63
(lp4741
S'admin'
p4742
asbasbasbag56
(g72
g58
NtRp4743
(dp4744
g61
(dp4745
sg70
g3840
sg63
(lp4746
g56
(g77
g58
NtRp4747
(dp4748
g61
(dp4749
g81
g82
ssg70
g4743
sg63
(lp4750
S'title'
p4751
asbag56
(g77
g58
NtRp4752
(dp4753
g61
(dp4754
g88
g89
ssg70
g4743
sg63
(lp4755
S':'
asbag56
(g77
g58
NtRp4756
(dp4757
g61
(dp4758
sg70
g4743
sg63
(lp4759
g56
(g57
g58
NtRp4760
(dp4761
g61
(dp4762
g69
I5
ssg70
g4756
sg63
(lp4763
S'check_version '
p4764
asbasbasbag56
(g72
g58
NtRp4765
(dp4766
g61
(dp4767
sg70
g3840
sg63
(lp4768
g56
(g77
g58
NtRp4769
(dp4770
g61
(dp4771
g81
g82
ssg70
g4765
sg63
(lp4772
g2507
asbag56
(g77
g58
NtRp4773
(dp4774
g61
(dp4775
g88
g89
ssg70
g4765
sg63
(lp4776
S':'
asbag56
(g77
g58
NtRp4777
(dp4778
g61
(dp4779
sg70
g4765
sg63
(lp4780
g56
(g57
g58
NtRp4781
(dp4782
g61
(dp4783
g69
I5
ssg70
g4777
sg63
(lp4784
g2520
asbasbasbag56
(g72
g58
NtRp4785
(dp4786
g61
(dp4787
sg70
g3840
sg63
(lp4788
g56
(g77
g58
NtRp4789
(dp4790
g61
(dp4791
g81
g82
ssg70
g4785
sg63
(lp4792
S'view'
p4793
asbag56
(g77
g58
NtRp4794
(dp4795
g61
(dp4796
g88
g89
ssg70
g4785
sg63
(lp4797
S':'
asbag56
(g77
g58
NtRp4798
(dp4799
g61
(dp4800
sg70
g4785
sg63
(lp4801
g56
(g57
g58
NtRp4802
(dp4803
g61
(dp4804
g69
I5
ssg70
g4798
sg63
(lp4805
S'default/check_version.html'
p4806
asbasbasbasbasbsS'locals'
p4807
(dp4808
S'version_number'
p4809
S"(1, 99, 4, datetime.datetime(2011, 12, 14, 14, 46, 14), 'stable')"
p4810
sS'new_version'
p4811
g99
sssS'traceback'
p4812
S'Traceback (most recent call last):\n  File "D:\\Workbench\\web2py_src\\gluon\\restricted.py", line 194, in restricted\n    exec ccode in environment\n  File "D:\\Workbench\\web2py_src\\applications\\admin\\controllers/default.py", line 1225, in <module>\n  File "D:\\Workbench\\web2py_src\\gluon\\globals.py", line 149, in <lambda>\n    self._caller = lambda f: f()\n  File "D:\\Workbench\\web2py_src\\applications\\admin\\controllers/default.py", line 105, in check_version\n    + XML(\' <strong class="upgrade_version">%s</strong>\' % version_number)\nTypeError: not all arguments converted during string formatting\n'
p4813
s.