(dp1
S'output'
p2
S''
sS'layer'
p3
S'D:\\Workbench\\private\\web2py_src\\applications\\examples\\controllers/transform.py'
p4
sS'code'
p5
S"\ndef index():\n    return dict()\n\ndef upload():\n    file = request.vars.myfile.file\n    return 'yes' + file.readlines() if file else None\n\nresponse._vars=response._caller(upload)\n"
p6
sS'snapshot'
p7
(dp8
S'exception'
p9
(dp10
S'__hash__'
p11
S"<method-wrapper '__hash__' of exceptions.TypeError object>"
p12
sS'__setattr__'
p13
S"<method-wrapper '__setattr__' of exceptions.TypeError object>"
p14
sS'__reduce_ex__'
p15
S'<built-in method __reduce_ex__ of exceptions.TypeError object>'
p16
sS'__getslice__'
p17
S"<method-wrapper '__getslice__' of exceptions.TypeError object>"
p18
sS'__getitem__'
p19
S"<method-wrapper '__getitem__' of exceptions.TypeError object>"
p20
sS'__setstate__'
p21
S'<built-in method __setstate__ of exceptions.TypeError object>'
p22
sS'__reduce__'
p23
S'<built-in method __reduce__ of exceptions.TypeError object>'
p24
sS'__str__'
p25
S"<method-wrapper '__str__' of exceptions.TypeError object>"
p26
sS'__format__'
p27
S'<built-in method __format__ of exceptions.TypeError object>'
p28
sS'__getattribute__'
p29
S"<method-wrapper '__getattribute__' of exceptions.TypeError object>"
p30
sS'__class__'
p31
S"<type 'exceptions.TypeError'>"
p32
sS'__unicode__'
p33
S'<built-in method __unicode__ of exceptions.TypeError object>'
p34
sS'__delattr__'
p35
S"<method-wrapper '__delattr__' of exceptions.TypeError object>"
p36
sS'__subclasshook__'
p37
S'<built-in method __subclasshook__ of type object>'
p38
sS'__repr__'
p39
S"<method-wrapper '__repr__' of exceptions.TypeError object>"
p40
sS'args'
p41
S'("cannot concatenate \'str\' and \'list\' objects",)'
p42
sS'__dict__'
p43
S'{}'
p44
sS'__sizeof__'
p45
S'<built-in method __sizeof__ of exceptions.TypeError object>'
p46
sS'__doc__'
p47
S"'Inappropriate argument type.'"
p48
sS'__init__'
p49
S"<method-wrapper '__init__' of exceptions.TypeError object>"
p50
sS'__new__'
p51
S'<built-in method __new__ of type object>'
p52
ssS'evalue'
p53
S"cannot concatenate 'str' and 'list' objects"
p54
sS'request'
p55
ccopy_reg
_reconstructor
p56
(cgluon.html
BEAUTIFY
p57
c__builtin__
object
p58
NtRp59
(dp60
S'attributes'
p61
(dp62
sS'components'
p63
(lp64
g56
(cgluon.html
TABLE
p65
g58
NtRp66
(dp67
g61
(dp68
S'level'
p69
I5
ssS'parent'
p70
Nsg63
(lp71
g56
(cgluon.html
TR
p72
g58
NtRp73
(dp74
g61
(dp75
sg70
g66
sg63
(lp76
g56
(cgluon.html
TD
p77
g58
NtRp78
(dp79
g61
(dp80
S'_style'
p81
S'font-weight:bold;'
p82
ssg70
g73
sg63
(lp83
S'ajax'
p84
asbag56
(g77
g58
NtRp85
(dp86
g61
(dp87
S'_valign'
p88
S'top'
p89
ssg70
g73
sg63
(lp90
S':'
asbag56
(g77
g58
NtRp91
(dp92
g61
(dp93
sg70
g73
sg63
(lp94
g56
(g57
g58
NtRp95
(dp96
g61
(dp97
g69
I5
ssg70
g91
sg63
(lp98
S'False'
p99
asbasbasbag56
(g72
g58
NtRp100
(dp101
g61
(dp102
sg70
g66
sg63
(lp103
g56
(g77
g58
NtRp104
(dp105
g61
(dp106
g81
g82
ssg70
g100
sg63
(lp107
S'application'
p108
asbag56
(g77
g58
NtRp109
(dp110
g61
(dp111
g88
g89
ssg70
g100
sg63
(lp112
S':'
asbag56
(g77
g58
NtRp113
(dp114
g61
(dp115
sg70
g100
sg63
(lp116
g56
(g57
g58
NtRp117
(dp118
g61
(dp119
g69
I5
ssg70
g113
sg63
(lp120
S'examples'
p121
asbasbasbag56
(g72
g58
NtRp122
(dp123
g61
(dp124
sg70
g66
sg63
(lp125
g56
(g77
g58
NtRp126
(dp127
g61
(dp128
g81
g82
ssg70
g122
sg63
(lp129
g41
asbag56
(g77
g58
NtRp130
(dp131
g61
(dp132
g88
g89
ssg70
g122
sg63
(lp133
S':'
asbag56
(g77
g58
NtRp134
(dp135
g61
(dp136
sg70
g122
sg63
(lp137
g56
(g57
g58
NtRp138
(dp139
g61
(dp140
g69
I5
ssg70
g134
sg63
(lp141
g56
(g65
g58
NtRp142
(dp143
g61
(dp144
g69
I4
ssg70
Nsg63
(lp145
sbasbasbasbag56
(g72
g58
NtRp146
(dp147
g61
(dp148
sg70
g66
sg63
(lp149
g56
(g77
g58
NtRp150
(dp151
g61
(dp152
g81
g82
ssg70
g146
sg63
(lp153
S'body'
p154
asbag56
(g77
g58
NtRp155
(dp156
g61
(dp157
g88
g89
ssg70
g146
sg63
(lp158
S':'
asbag56
(g77
g58
NtRp159
(dp160
g61
(dp161
sg70
g146
sg63
(lp162
g56
(g57
g58
NtRp163
(dp164
g61
(dp165
g69
I5
ssg70
g159
sg63
(lp166
S"<open file '<fdopen>', mode 'w+b' at 0x052609C0>"
p167
asbasbasbag56
(g72
g58
NtRp168
(dp169
g61
(dp170
sg70
g66
sg63
(lp171
g56
(g77
g58
NtRp172
(dp173
g61
(dp174
g81
g82
ssg70
g168
sg63
(lp175
S'client'
p176
asbag56
(g77
g58
NtRp177
(dp178
g61
(dp179
g88
g89
ssg70
g168
sg63
(lp180
S':'
asbag56
(g77
g58
NtRp181
(dp182
g61
(dp183
sg70
g168
sg63
(lp184
g56
(g57
g58
NtRp185
(dp186
g61
(dp187
g69
I5
ssg70
g181
sg63
(lp188
S'127.0.0.1'
p189
asbasbasbag56
(g72
g58
NtRp190
(dp191
g61
(dp192
sg70
g66
sg63
(lp193
g56
(g77
g58
NtRp194
(dp195
g61
(dp196
g81
g82
ssg70
g190
sg63
(lp197
S'controller'
p198
asbag56
(g77
g58
NtRp199
(dp200
g61
(dp201
g88
g89
ssg70
g190
sg63
(lp202
S':'
asbag56
(g77
g58
NtRp203
(dp204
g61
(dp205
sg70
g190
sg63
(lp206
g56
(g57
g58
NtRp207
(dp208
g61
(dp209
g69
I5
ssg70
g203
sg63
(lp210
S'transform'
p211
asbasbasbag56
(g72
g58
NtRp212
(dp213
g61
(dp214
sg70
g66
sg63
(lp215
g56
(g77
g58
NtRp216
(dp217
g61
(dp218
g81
g82
ssg70
g212
sg63
(lp219
S'cookies'
p220
asbag56
(g77
g58
NtRp221
(dp222
g61
(dp223
g88
g89
ssg70
g212
sg63
(lp224
S':'
asbag56
(g77
g58
NtRp225
(dp226
g61
(dp227
sg70
g212
sg63
(lp228
g56
(g57
g58
NtRp229
(dp230
g61
(dp231
g69
I5
ssg70
g225
sg63
(lp232
g56
(g65
g58
NtRp233
(dp234
g61
(dp235
g69
I4
ssg70
Nsg63
(lp236
g56
(g72
g58
NtRp237
(dp238
g61
(dp239
sg70
g233
sg63
(lp240
g56
(g77
g58
NtRp241
(dp242
g61
(dp243
g81
g82
ssg70
g237
sg63
(lp244
S'ac'
p245
asbag56
(g77
g58
NtRp246
(dp247
g61
(dp248
g88
g89
ssg70
g237
sg63
(lp249
S':'
asbag56
(g77
g58
NtRp250
(dp251
g61
(dp252
sg70
g237
sg63
(lp253
g56
(g57
g58
NtRp254
(dp255
g61
(dp256
g69
I4
ssg70
g250
sg63
(lp257
g56
(g65
g58
NtRp258
(dp259
g61
(dp260
g69
I3
ssg70
Nsg63
(lp261
g56
(g72
g58
NtRp262
(dp263
g61
(dp264
sg70
g258
sg63
(lp265
g56
(g77
g58
NtRp266
(dp267
g61
(dp268
g81
g82
ssg70
g262
sg63
(lp269
S'comment'
p270
asbag56
(g77
g58
NtRp271
(dp272
g61
(dp273
g88
g89
ssg70
g262
sg63
(lp274
S':'
asbag56
(g77
g58
NtRp275
(dp276
g61
(dp277
sg70
g262
sg63
(lp278
g56
(g57
g58
NtRp279
(dp280
g61
(dp281
g69
I3
ssg70
g275
sg63
(lp282
S''
asbasbasbag56
(g72
g58
NtRp283
(dp284
g61
(dp285
sg70
g258
sg63
(lp286
g56
(g77
g58
NtRp287
(dp288
g61
(dp289
g81
g82
ssg70
g283
sg63
(lp290
S'domain'
p291
asbag56
(g77
g58
NtRp292
(dp293
g61
(dp294
g88
g89
ssg70
g283
sg63
(lp295
S':'
asbag56
(g77
g58
NtRp296
(dp297
g61
(dp298
sg70
g283
sg63
(lp299
g56
(g57
g58
NtRp300
(dp301
g61
(dp302
g69
I3
ssg70
g296
sg63
(lp303
S''
asbasbasbag56
(g72
g58
NtRp304
(dp305
g61
(dp306
sg70
g258
sg63
(lp307
g56
(g77
g58
NtRp308
(dp309
g61
(dp310
g81
g82
ssg70
g304
sg63
(lp311
S'expires'
p312
asbag56
(g77
g58
NtRp313
(dp314
g61
(dp315
g88
g89
ssg70
g304
sg63
(lp316
S':'
asbag56
(g77
g58
NtRp317
(dp318
g61
(dp319
sg70
g304
sg63
(lp320
g56
(g57
g58
NtRp321
(dp322
g61
(dp323
g69
I3
ssg70
g317
sg63
(lp324
S''
asbasbasbag56
(g72
g58
NtRp325
(dp326
g61
(dp327
sg70
g258
sg63
(lp328
g56
(g77
g58
NtRp329
(dp330
g61
(dp331
g81
g82
ssg70
g325
sg63
(lp332
S'httponly'
p333
asbag56
(g77
g58
NtRp334
(dp335
g61
(dp336
g88
g89
ssg70
g325
sg63
(lp337
S':'
asbag56
(g77
g58
NtRp338
(dp339
g61
(dp340
sg70
g325
sg63
(lp341
g56
(g57
g58
NtRp342
(dp343
g61
(dp344
g69
I3
ssg70
g338
sg63
(lp345
S''
asbasbasbag56
(g72
g58
NtRp346
(dp347
g61
(dp348
sg70
g258
sg63
(lp349
g56
(g77
g58
NtRp350
(dp351
g61
(dp352
g81
g82
ssg70
g346
sg63
(lp353
S'max-age'
p354
asbag56
(g77
g58
NtRp355
(dp356
g61
(dp357
g88
g89
ssg70
g346
sg63
(lp358
S':'
asbag56
(g77
g58
NtRp359
(dp360
g61
(dp361
sg70
g346
sg63
(lp362
g56
(g57
g58
NtRp363
(dp364
g61
(dp365
g69
I3
ssg70
g359
sg63
(lp366
S''
asbasbasbag56
(g72
g58
NtRp367
(dp368
g61
(dp369
sg70
g258
sg63
(lp370
g56
(g77
g58
NtRp371
(dp372
g61
(dp373
g81
g82
ssg70
g367
sg63
(lp374
S'path'
p375
asbag56
(g77
g58
NtRp376
(dp377
g61
(dp378
g88
g89
ssg70
g367
sg63
(lp379
S':'
asbag56
(g77
g58
NtRp380
(dp381
g61
(dp382
sg70
g367
sg63
(lp383
g56
(g57
g58
NtRp384
(dp385
g61
(dp386
g69
I3
ssg70
g380
sg63
(lp387
S''
asbasbasbag56
(g72
g58
NtRp388
(dp389
g61
(dp390
sg70
g258
sg63
(lp391
g56
(g77
g58
NtRp392
(dp393
g61
(dp394
g81
g82
ssg70
g388
sg63
(lp395
S'secure'
p396
asbag56
(g77
g58
NtRp397
(dp398
g61
(dp399
g88
g89
ssg70
g388
sg63
(lp400
S':'
asbag56
(g77
g58
NtRp401
(dp402
g61
(dp403
sg70
g388
sg63
(lp404
g56
(g57
g58
NtRp405
(dp406
g61
(dp407
g69
I3
ssg70
g401
sg63
(lp408
S''
asbasbasbag56
(g72
g58
NtRp409
(dp410
g61
(dp411
sg70
g258
sg63
(lp412
g56
(g77
g58
NtRp413
(dp414
g61
(dp415
g81
g82
ssg70
g409
sg63
(lp416
S'version'
p417
asbag56
(g77
g58
NtRp418
(dp419
g61
(dp420
g88
g89
ssg70
g409
sg63
(lp421
S':'
asbag56
(g77
g58
NtRp422
(dp423
g61
(dp424
sg70
g409
sg63
(lp425
g56
(g57
g58
NtRp426
(dp427
g61
(dp428
g69
I3
ssg70
g422
sg63
(lp429
S''
asbasbasbasbasbasbasbag56
(g72
g58
NtRp430
(dp431
g61
(dp432
sg70
g233
sg63
(lp433
g56
(g77
g58
NtRp434
(dp435
g61
(dp436
g81
g82
ssg70
g430
sg63
(lp437
S'euin_cookie'
p438
asbag56
(g77
g58
NtRp439
(dp440
g61
(dp441
g88
g89
ssg70
g430
sg63
(lp442
S':'
asbag56
(g77
g58
NtRp443
(dp444
g61
(dp445
sg70
g430
sg63
(lp446
g56
(g57
g58
NtRp447
(dp448
g61
(dp449
g69
I4
ssg70
g443
sg63
(lp450
g56
(g65
g58
NtRp451
(dp452
g61
(dp453
g69
I3
ssg70
Nsg63
(lp454
g56
(g72
g58
NtRp455
(dp456
g61
(dp457
sg70
g451
sg63
(lp458
g56
(g77
g58
NtRp459
(dp460
g61
(dp461
g81
g82
ssg70
g455
sg63
(lp462
g270
asbag56
(g77
g58
NtRp463
(dp464
g61
(dp465
g88
g89
ssg70
g455
sg63
(lp466
S':'
asbag56
(g77
g58
NtRp467
(dp468
g61
(dp469
sg70
g455
sg63
(lp470
g56
(g57
g58
NtRp471
(dp472
g61
(dp473
g69
I3
ssg70
g467
sg63
(lp474
S''
asbasbasbag56
(g72
g58
NtRp475
(dp476
g61
(dp477
sg70
g451
sg63
(lp478
g56
(g77
g58
NtRp479
(dp480
g61
(dp481
g81
g82
ssg70
g475
sg63
(lp482
g291
asbag56
(g77
g58
NtRp483
(dp484
g61
(dp485
g88
g89
ssg70
g475
sg63
(lp486
S':'
asbag56
(g77
g58
NtRp487
(dp488
g61
(dp489
sg70
g475
sg63
(lp490
g56
(g57
g58
NtRp491
(dp492
g61
(dp493
g69
I3
ssg70
g487
sg63
(lp494
S''
asbasbasbag56
(g72
g58
NtRp495
(dp496
g61
(dp497
sg70
g451
sg63
(lp498
g56
(g77
g58
NtRp499
(dp500
g61
(dp501
g81
g82
ssg70
g495
sg63
(lp502
g312
asbag56
(g77
g58
NtRp503
(dp504
g61
(dp505
g88
g89
ssg70
g495
sg63
(lp506
S':'
asbag56
(g77
g58
NtRp507
(dp508
g61
(dp509
sg70
g495
sg63
(lp510
g56
(g57
g58
NtRp511
(dp512
g61
(dp513
g69
I3
ssg70
g507
sg63
(lp514
S''
asbasbasbag56
(g72
g58
NtRp515
(dp516
g61
(dp517
sg70
g451
sg63
(lp518
g56
(g77
g58
NtRp519
(dp520
g61
(dp521
g81
g82
ssg70
g515
sg63
(lp522
g333
asbag56
(g77
g58
NtRp523
(dp524
g61
(dp525
g88
g89
ssg70
g515
sg63
(lp526
S':'
asbag56
(g77
g58
NtRp527
(dp528
g61
(dp529
sg70
g515
sg63
(lp530
g56
(g57
g58
NtRp531
(dp532
g61
(dp533
g69
I3
ssg70
g527
sg63
(lp534
S''
asbasbasbag56
(g72
g58
NtRp535
(dp536
g61
(dp537
sg70
g451
sg63
(lp538
g56
(g77
g58
NtRp539
(dp540
g61
(dp541
g81
g82
ssg70
g535
sg63
(lp542
g354
asbag56
(g77
g58
NtRp543
(dp544
g61
(dp545
g88
g89
ssg70
g535
sg63
(lp546
S':'
asbag56
(g77
g58
NtRp547
(dp548
g61
(dp549
sg70
g535
sg63
(lp550
g56
(g57
g58
NtRp551
(dp552
g61
(dp553
g69
I3
ssg70
g547
sg63
(lp554
S''
asbasbasbag56
(g72
g58
NtRp555
(dp556
g61
(dp557
sg70
g451
sg63
(lp558
g56
(g77
g58
NtRp559
(dp560
g61
(dp561
g81
g82
ssg70
g555
sg63
(lp562
g375
asbag56
(g77
g58
NtRp563
(dp564
g61
(dp565
g88
g89
ssg70
g555
sg63
(lp566
S':'
asbag56
(g77
g58
NtRp567
(dp568
g61
(dp569
sg70
g555
sg63
(lp570
g56
(g57
g58
NtRp571
(dp572
g61
(dp573
g69
I3
ssg70
g567
sg63
(lp574
S''
asbasbasbag56
(g72
g58
NtRp575
(dp576
g61
(dp577
sg70
g451
sg63
(lp578
g56
(g77
g58
NtRp579
(dp580
g61
(dp581
g81
g82
ssg70
g575
sg63
(lp582
g396
asbag56
(g77
g58
NtRp583
(dp584
g61
(dp585
g88
g89
ssg70
g575
sg63
(lp586
S':'
asbag56
(g77
g58
NtRp587
(dp588
g61
(dp589
sg70
g575
sg63
(lp590
g56
(g57
g58
NtRp591
(dp592
g61
(dp593
g69
I3
ssg70
g587
sg63
(lp594
S''
asbasbasbag56
(g72
g58
NtRp595
(dp596
g61
(dp597
sg70
g451
sg63
(lp598
g56
(g77
g58
NtRp599
(dp600
g61
(dp601
g81
g82
ssg70
g595
sg63
(lp602
g417
asbag56
(g77
g58
NtRp603
(dp604
g61
(dp605
g88
g89
ssg70
g595
sg63
(lp606
S':'
asbag56
(g77
g58
NtRp607
(dp608
g61
(dp609
sg70
g595
sg63
(lp610
g56
(g57
g58
NtRp611
(dp612
g61
(dp613
g69
I3
ssg70
g607
sg63
(lp614
S''
asbasbasbasbasbasbasbag56
(g72
g58
NtRp615
(dp616
g61
(dp617
sg70
g233
sg63
(lp618
g56
(g77
g58
NtRp619
(dp620
g61
(dp621
g81
g82
ssg70
g615
sg63
(lp622
S'o_cookie'
p623
asbag56
(g77
g58
NtRp624
(dp625
g61
(dp626
g88
g89
ssg70
g615
sg63
(lp627
S':'
asbag56
(g77
g58
NtRp628
(dp629
g61
(dp630
sg70
g615
sg63
(lp631
g56
(g57
g58
NtRp632
(dp633
g61
(dp634
g69
I4
ssg70
g628
sg63
(lp635
g56
(g65
g58
NtRp636
(dp637
g61
(dp638
g69
I3
ssg70
Nsg63
(lp639
g56
(g72
g58
NtRp640
(dp641
g61
(dp642
sg70
g636
sg63
(lp643
g56
(g77
g58
NtRp644
(dp645
g61
(dp646
g81
g82
ssg70
g640
sg63
(lp647
g270
asbag56
(g77
g58
NtRp648
(dp649
g61
(dp650
g88
g89
ssg70
g640
sg63
(lp651
S':'
asbag56
(g77
g58
NtRp652
(dp653
g61
(dp654
sg70
g640
sg63
(lp655
g56
(g57
g58
NtRp656
(dp657
g61
(dp658
g69
I3
ssg70
g652
sg63
(lp659
S''
asbasbasbag56
(g72
g58
NtRp660
(dp661
g61
(dp662
sg70
g636
sg63
(lp663
g56
(g77
g58
NtRp664
(dp665
g61
(dp666
g81
g82
ssg70
g660
sg63
(lp667
g291
asbag56
(g77
g58
NtRp668
(dp669
g61
(dp670
g88
g89
ssg70
g660
sg63
(lp671
S':'
asbag56
(g77
g58
NtRp672
(dp673
g61
(dp674
sg70
g660
sg63
(lp675
g56
(g57
g58
NtRp676
(dp677
g61
(dp678
g69
I3
ssg70
g672
sg63
(lp679
S''
asbasbasbag56
(g72
g58
NtRp680
(dp681
g61
(dp682
sg70
g636
sg63
(lp683
g56
(g77
g58
NtRp684
(dp685
g61
(dp686
g81
g82
ssg70
g680
sg63
(lp687
g312
asbag56
(g77
g58
NtRp688
(dp689
g61
(dp690
g88
g89
ssg70
g680
sg63
(lp691
S':'
asbag56
(g77
g58
NtRp692
(dp693
g61
(dp694
sg70
g680
sg63
(lp695
g56
(g57
g58
NtRp696
(dp697
g61
(dp698
g69
I3
ssg70
g692
sg63
(lp699
S''
asbasbasbag56
(g72
g58
NtRp700
(dp701
g61
(dp702
sg70
g636
sg63
(lp703
g56
(g77
g58
NtRp704
(dp705
g61
(dp706
g81
g82
ssg70
g700
sg63
(lp707
g333
asbag56
(g77
g58
NtRp708
(dp709
g61
(dp710
g88
g89
ssg70
g700
sg63
(lp711
S':'
asbag56
(g77
g58
NtRp712
(dp713
g61
(dp714
sg70
g700
sg63
(lp715
g56
(g57
g58
NtRp716
(dp717
g61
(dp718
g69
I3
ssg70
g712
sg63
(lp719
S''
asbasbasbag56
(g72
g58
NtRp720
(dp721
g61
(dp722
sg70
g636
sg63
(lp723
g56
(g77
g58
NtRp724
(dp725
g61
(dp726
g81
g82
ssg70
g720
sg63
(lp727
g354
asbag56
(g77
g58
NtRp728
(dp729
g61
(dp730
g88
g89
ssg70
g720
sg63
(lp731
S':'
asbag56
(g77
g58
NtRp732
(dp733
g61
(dp734
sg70
g720
sg63
(lp735
g56
(g57
g58
NtRp736
(dp737
g61
(dp738
g69
I3
ssg70
g732
sg63
(lp739
S''
asbasbasbag56
(g72
g58
NtRp740
(dp741
g61
(dp742
sg70
g636
sg63
(lp743
g56
(g77
g58
NtRp744
(dp745
g61
(dp746
g81
g82
ssg70
g740
sg63
(lp747
g375
asbag56
(g77
g58
NtRp748
(dp749
g61
(dp750
g88
g89
ssg70
g740
sg63
(lp751
S':'
asbag56
(g77
g58
NtRp752
(dp753
g61
(dp754
sg70
g740
sg63
(lp755
g56
(g57
g58
NtRp756
(dp757
g61
(dp758
g69
I3
ssg70
g752
sg63
(lp759
S''
asbasbasbag56
(g72
g58
NtRp760
(dp761
g61
(dp762
sg70
g636
sg63
(lp763
g56
(g77
g58
NtRp764
(dp765
g61
(dp766
g81
g82
ssg70
g760
sg63
(lp767
g396
asbag56
(g77
g58
NtRp768
(dp769
g61
(dp770
g88
g89
ssg70
g760
sg63
(lp771
S':'
asbag56
(g77
g58
NtRp772
(dp773
g61
(dp774
sg70
g760
sg63
(lp775
g56
(g57
g58
NtRp776
(dp777
g61
(dp778
g69
I3
ssg70
g772
sg63
(lp779
S''
asbasbasbag56
(g72
g58
NtRp780
(dp781
g61
(dp782
sg70
g636
sg63
(lp783
g56
(g77
g58
NtRp784
(dp785
g61
(dp786
g81
g82
ssg70
g780
sg63
(lp787
g417
asbag56
(g77
g58
NtRp788
(dp789
g61
(dp790
g88
g89
ssg70
g780
sg63
(lp791
S':'
asbag56
(g77
g58
NtRp792
(dp793
g61
(dp794
sg70
g780
sg63
(lp795
g56
(g57
g58
NtRp796
(dp797
g61
(dp798
g69
I3
ssg70
g792
sg63
(lp799
S''
asbasbasbasbasbasbasbag56
(g72
g58
NtRp800
(dp801
g61
(dp802
sg70
g233
sg63
(lp803
g56
(g77
g58
NtRp804
(dp805
g61
(dp806
g81
g82
ssg70
g800
sg63
(lp807
S'pgv_flv'
p808
asbag56
(g77
g58
NtRp809
(dp810
g61
(dp811
g88
g89
ssg70
g800
sg63
(lp812
S':'
asbag56
(g77
g58
NtRp813
(dp814
g61
(dp815
sg70
g800
sg63
(lp816
g56
(g57
g58
NtRp817
(dp818
g61
(dp819
g69
I4
ssg70
g813
sg63
(lp820
g56
(g65
g58
NtRp821
(dp822
g61
(dp823
g69
I3
ssg70
Nsg63
(lp824
g56
(g72
g58
NtRp825
(dp826
g61
(dp827
sg70
g821
sg63
(lp828
g56
(g77
g58
NtRp829
(dp830
g61
(dp831
g81
g82
ssg70
g825
sg63
(lp832
g270
asbag56
(g77
g58
NtRp833
(dp834
g61
(dp835
g88
g89
ssg70
g825
sg63
(lp836
S':'
asbag56
(g77
g58
NtRp837
(dp838
g61
(dp839
sg70
g825
sg63
(lp840
g56
(g57
g58
NtRp841
(dp842
g61
(dp843
g69
I3
ssg70
g837
sg63
(lp844
S''
asbasbasbag56
(g72
g58
NtRp845
(dp846
g61
(dp847
sg70
g821
sg63
(lp848
g56
(g77
g58
NtRp849
(dp850
g61
(dp851
g81
g82
ssg70
g845
sg63
(lp852
g291
asbag56
(g77
g58
NtRp853
(dp854
g61
(dp855
g88
g89
ssg70
g845
sg63
(lp856
S':'
asbag56
(g77
g58
NtRp857
(dp858
g61
(dp859
sg70
g845
sg63
(lp860
g56
(g57
g58
NtRp861
(dp862
g61
(dp863
g69
I3
ssg70
g857
sg63
(lp864
S''
asbasbasbag56
(g72
g58
NtRp865
(dp866
g61
(dp867
sg70
g821
sg63
(lp868
g56
(g77
g58
NtRp869
(dp870
g61
(dp871
g81
g82
ssg70
g865
sg63
(lp872
g312
asbag56
(g77
g58
NtRp873
(dp874
g61
(dp875
g88
g89
ssg70
g865
sg63
(lp876
S':'
asbag56
(g77
g58
NtRp877
(dp878
g61
(dp879
sg70
g865
sg63
(lp880
g56
(g57
g58
NtRp881
(dp882
g61
(dp883
g69
I3
ssg70
g877
sg63
(lp884
S''
asbasbasbag56
(g72
g58
NtRp885
(dp886
g61
(dp887
sg70
g821
sg63
(lp888
g56
(g77
g58
NtRp889
(dp890
g61
(dp891
g81
g82
ssg70
g885
sg63
(lp892
g333
asbag56
(g77
g58
NtRp893
(dp894
g61
(dp895
g88
g89
ssg70
g885
sg63
(lp896
S':'
asbag56
(g77
g58
NtRp897
(dp898
g61
(dp899
sg70
g885
sg63
(lp900
g56
(g57
g58
NtRp901
(dp902
g61
(dp903
g69
I3
ssg70
g897
sg63
(lp904
S''
asbasbasbag56
(g72
g58
NtRp905
(dp906
g61
(dp907
sg70
g821
sg63
(lp908
g56
(g77
g58
NtRp909
(dp910
g61
(dp911
g81
g82
ssg70
g905
sg63
(lp912
g354
asbag56
(g77
g58
NtRp913
(dp914
g61
(dp915
g88
g89
ssg70
g905
sg63
(lp916
S':'
asbag56
(g77
g58
NtRp917
(dp918
g61
(dp919
sg70
g905
sg63
(lp920
g56
(g57
g58
NtRp921
(dp922
g61
(dp923
g69
I3
ssg70
g917
sg63
(lp924
S''
asbasbasbag56
(g72
g58
NtRp925
(dp926
g61
(dp927
sg70
g821
sg63
(lp928
g56
(g77
g58
NtRp929
(dp930
g61
(dp931
g81
g82
ssg70
g925
sg63
(lp932
g375
asbag56
(g77
g58
NtRp933
(dp934
g61
(dp935
g88
g89
ssg70
g925
sg63
(lp936
S':'
asbag56
(g77
g58
NtRp937
(dp938
g61
(dp939
sg70
g925
sg63
(lp940
g56
(g57
g58
NtRp941
(dp942
g61
(dp943
g69
I3
ssg70
g937
sg63
(lp944
S''
asbasbasbag56
(g72
g58
NtRp945
(dp946
g61
(dp947
sg70
g821
sg63
(lp948
g56
(g77
g58
NtRp949
(dp950
g61
(dp951
g81
g82
ssg70
g945
sg63
(lp952
g396
asbag56
(g77
g58
NtRp953
(dp954
g61
(dp955
g88
g89
ssg70
g945
sg63
(lp956
S':'
asbag56
(g77
g58
NtRp957
(dp958
g61
(dp959
sg70
g945
sg63
(lp960
g56
(g57
g58
NtRp961
(dp962
g61
(dp963
g69
I3
ssg70
g957
sg63
(lp964
S''
asbasbasbag56
(g72
g58
NtRp965
(dp966
g61
(dp967
sg70
g821
sg63
(lp968
g56
(g77
g58
NtRp969
(dp970
g61
(dp971
g81
g82
ssg70
g965
sg63
(lp972
g417
asbag56
(g77
g58
NtRp973
(dp974
g61
(dp975
g88
g89
ssg70
g965
sg63
(lp976
S':'
asbag56
(g77
g58
NtRp977
(dp978
g61
(dp979
sg70
g965
sg63
(lp980
g56
(g57
g58
NtRp981
(dp982
g61
(dp983
g69
I3
ssg70
g977
sg63
(lp984
S''
asbasbasbasbasbasbasbag56
(g72
g58
NtRp985
(dp986
g61
(dp987
sg70
g233
sg63
(lp988
g56
(g77
g58
NtRp989
(dp990
g61
(dp991
g81
g82
ssg70
g985
sg63
(lp992
S'pgv_pvid'
p993
asbag56
(g77
g58
NtRp994
(dp995
g61
(dp996
g88
g89
ssg70
g985
sg63
(lp997
S':'
asbag56
(g77
g58
NtRp998
(dp999
g61
(dp1000
sg70
g985
sg63
(lp1001
g56
(g57
g58
NtRp1002
(dp1003
g61
(dp1004
g69
I4
ssg70
g998
sg63
(lp1005
g56
(g65
g58
NtRp1006
(dp1007
g61
(dp1008
g69
I3
ssg70
Nsg63
(lp1009
g56
(g72
g58
NtRp1010
(dp1011
g61
(dp1012
sg70
g1006
sg63
(lp1013
g56
(g77
g58
NtRp1014
(dp1015
g61
(dp1016
g81
g82
ssg70
g1010
sg63
(lp1017
g270
asbag56
(g77
g58
NtRp1018
(dp1019
g61
(dp1020
g88
g89
ssg70
g1010
sg63
(lp1021
S':'
asbag56
(g77
g58
NtRp1022
(dp1023
g61
(dp1024
sg70
g1010
sg63
(lp1025
g56
(g57
g58
NtRp1026
(dp1027
g61
(dp1028
g69
I3
ssg70
g1022
sg63
(lp1029
S''
asbasbasbag56
(g72
g58
NtRp1030
(dp1031
g61
(dp1032
sg70
g1006
sg63
(lp1033
g56
(g77
g58
NtRp1034
(dp1035
g61
(dp1036
g81
g82
ssg70
g1030
sg63
(lp1037
g291
asbag56
(g77
g58
NtRp1038
(dp1039
g61
(dp1040
g88
g89
ssg70
g1030
sg63
(lp1041
S':'
asbag56
(g77
g58
NtRp1042
(dp1043
g61
(dp1044
sg70
g1030
sg63
(lp1045
g56
(g57
g58
NtRp1046
(dp1047
g61
(dp1048
g69
I3
ssg70
g1042
sg63
(lp1049
S''
asbasbasbag56
(g72
g58
NtRp1050
(dp1051
g61
(dp1052
sg70
g1006
sg63
(lp1053
g56
(g77
g58
NtRp1054
(dp1055
g61
(dp1056
g81
g82
ssg70
g1050
sg63
(lp1057
g312
asbag56
(g77
g58
NtRp1058
(dp1059
g61
(dp1060
g88
g89
ssg70
g1050
sg63
(lp1061
S':'
asbag56
(g77
g58
NtRp1062
(dp1063
g61
(dp1064
sg70
g1050
sg63
(lp1065
g56
(g57
g58
NtRp1066
(dp1067
g61
(dp1068
g69
I3
ssg70
g1062
sg63
(lp1069
S''
asbasbasbag56
(g72
g58
NtRp1070
(dp1071
g61
(dp1072
sg70
g1006
sg63
(lp1073
g56
(g77
g58
NtRp1074
(dp1075
g61
(dp1076
g81
g82
ssg70
g1070
sg63
(lp1077
g333
asbag56
(g77
g58
NtRp1078
(dp1079
g61
(dp1080
g88
g89
ssg70
g1070
sg63
(lp1081
S':'
asbag56
(g77
g58
NtRp1082
(dp1083
g61
(dp1084
sg70
g1070
sg63
(lp1085
g56
(g57
g58
NtRp1086
(dp1087
g61
(dp1088
g69
I3
ssg70
g1082
sg63
(lp1089
S''
asbasbasbag56
(g72
g58
NtRp1090
(dp1091
g61
(dp1092
sg70
g1006
sg63
(lp1093
g56
(g77
g58
NtRp1094
(dp1095
g61
(dp1096
g81
g82
ssg70
g1090
sg63
(lp1097
g354
asbag56
(g77
g58
NtRp1098
(dp1099
g61
(dp1100
g88
g89
ssg70
g1090
sg63
(lp1101
S':'
asbag56
(g77
g58
NtRp1102
(dp1103
g61
(dp1104
sg70
g1090
sg63
(lp1105
g56
(g57
g58
NtRp1106
(dp1107
g61
(dp1108
g69
I3
ssg70
g1102
sg63
(lp1109
S''
asbasbasbag56
(g72
g58
NtRp1110
(dp1111
g61
(dp1112
sg70
g1006
sg63
(lp1113
g56
(g77
g58
NtRp1114
(dp1115
g61
(dp1116
g81
g82
ssg70
g1110
sg63
(lp1117
g375
asbag56
(g77
g58
NtRp1118
(dp1119
g61
(dp1120
g88
g89
ssg70
g1110
sg63
(lp1121
S':'
asbag56
(g77
g58
NtRp1122
(dp1123
g61
(dp1124
sg70
g1110
sg63
(lp1125
g56
(g57
g58
NtRp1126
(dp1127
g61
(dp1128
g69
I3
ssg70
g1122
sg63
(lp1129
S''
asbasbasbag56
(g72
g58
NtRp1130
(dp1131
g61
(dp1132
sg70
g1006
sg63
(lp1133
g56
(g77
g58
NtRp1134
(dp1135
g61
(dp1136
g81
g82
ssg70
g1130
sg63
(lp1137
g396
asbag56
(g77
g58
NtRp1138
(dp1139
g61
(dp1140
g88
g89
ssg70
g1130
sg63
(lp1141
S':'
asbag56
(g77
g58
NtRp1142
(dp1143
g61
(dp1144
sg70
g1130
sg63
(lp1145
g56
(g57
g58
NtRp1146
(dp1147
g61
(dp1148
g69
I3
ssg70
g1142
sg63
(lp1149
S''
asbasbasbag56
(g72
g58
NtRp1150
(dp1151
g61
(dp1152
sg70
g1006
sg63
(lp1153
g56
(g77
g58
NtRp1154
(dp1155
g61
(dp1156
g81
g82
ssg70
g1150
sg63
(lp1157
g417
asbag56
(g77
g58
NtRp1158
(dp1159
g61
(dp1160
g88
g89
ssg70
g1150
sg63
(lp1161
S':'
asbag56
(g77
g58
NtRp1162
(dp1163
g61
(dp1164
sg70
g1150
sg63
(lp1165
g56
(g57
g58
NtRp1166
(dp1167
g61
(dp1168
g69
I3
ssg70
g1162
sg63
(lp1169
S''
asbasbasbasbasbasbasbag56
(g72
g58
NtRp1170
(dp1171
g61
(dp1172
sg70
g233
sg63
(lp1173
g56
(g77
g58
NtRp1174
(dp1175
g61
(dp1176
g81
g82
ssg70
g1170
sg63
(lp1177
S'pgv_r_cookie'
p1178
asbag56
(g77
g58
NtRp1179
(dp1180
g61
(dp1181
g88
g89
ssg70
g1170
sg63
(lp1182
S':'
asbag56
(g77
g58
NtRp1183
(dp1184
g61
(dp1185
sg70
g1170
sg63
(lp1186
g56
(g57
g58
NtRp1187
(dp1188
g61
(dp1189
g69
I4
ssg70
g1183
sg63
(lp1190
g56
(g65
g58
NtRp1191
(dp1192
g61
(dp1193
g69
I3
ssg70
Nsg63
(lp1194
g56
(g72
g58
NtRp1195
(dp1196
g61
(dp1197
sg70
g1191
sg63
(lp1198
g56
(g77
g58
NtRp1199
(dp1200
g61
(dp1201
g81
g82
ssg70
g1195
sg63
(lp1202
g270
asbag56
(g77
g58
NtRp1203
(dp1204
g61
(dp1205
g88
g89
ssg70
g1195
sg63
(lp1206
S':'
asbag56
(g77
g58
NtRp1207
(dp1208
g61
(dp1209
sg70
g1195
sg63
(lp1210
g56
(g57
g58
NtRp1211
(dp1212
g61
(dp1213
g69
I3
ssg70
g1207
sg63
(lp1214
S''
asbasbasbag56
(g72
g58
NtRp1215
(dp1216
g61
(dp1217
sg70
g1191
sg63
(lp1218
g56
(g77
g58
NtRp1219
(dp1220
g61
(dp1221
g81
g82
ssg70
g1215
sg63
(lp1222
g291
asbag56
(g77
g58
NtRp1223
(dp1224
g61
(dp1225
g88
g89
ssg70
g1215
sg63
(lp1226
S':'
asbag56
(g77
g58
NtRp1227
(dp1228
g61
(dp1229
sg70
g1215
sg63
(lp1230
g56
(g57
g58
NtRp1231
(dp1232
g61
(dp1233
g69
I3
ssg70
g1227
sg63
(lp1234
S''
asbasbasbag56
(g72
g58
NtRp1235
(dp1236
g61
(dp1237
sg70
g1191
sg63
(lp1238
g56
(g77
g58
NtRp1239
(dp1240
g61
(dp1241
g81
g82
ssg70
g1235
sg63
(lp1242
g312
asbag56
(g77
g58
NtRp1243
(dp1244
g61
(dp1245
g88
g89
ssg70
g1235
sg63
(lp1246
S':'
asbag56
(g77
g58
NtRp1247
(dp1248
g61
(dp1249
sg70
g1235
sg63
(lp1250
g56
(g57
g58
NtRp1251
(dp1252
g61
(dp1253
g69
I3
ssg70
g1247
sg63
(lp1254
S''
asbasbasbag56
(g72
g58
NtRp1255
(dp1256
g61
(dp1257
sg70
g1191
sg63
(lp1258
g56
(g77
g58
NtRp1259
(dp1260
g61
(dp1261
g81
g82
ssg70
g1255
sg63
(lp1262
g333
asbag56
(g77
g58
NtRp1263
(dp1264
g61
(dp1265
g88
g89
ssg70
g1255
sg63
(lp1266
S':'
asbag56
(g77
g58
NtRp1267
(dp1268
g61
(dp1269
sg70
g1255
sg63
(lp1270
g56
(g57
g58
NtRp1271
(dp1272
g61
(dp1273
g69
I3
ssg70
g1267
sg63
(lp1274
S''
asbasbasbag56
(g72
g58
NtRp1275
(dp1276
g61
(dp1277
sg70
g1191
sg63
(lp1278
g56
(g77
g58
NtRp1279
(dp1280
g61
(dp1281
g81
g82
ssg70
g1275
sg63
(lp1282
g354
asbag56
(g77
g58
NtRp1283
(dp1284
g61
(dp1285
g88
g89
ssg70
g1275
sg63
(lp1286
S':'
asbag56
(g77
g58
NtRp1287
(dp1288
g61
(dp1289
sg70
g1275
sg63
(lp1290
g56
(g57
g58
NtRp1291
(dp1292
g61
(dp1293
g69
I3
ssg70
g1287
sg63
(lp1294
S''
asbasbasbag56
(g72
g58
NtRp1295
(dp1296
g61
(dp1297
sg70
g1191
sg63
(lp1298
g56
(g77
g58
NtRp1299
(dp1300
g61
(dp1301
g81
g82
ssg70
g1295
sg63
(lp1302
g375
asbag56
(g77
g58
NtRp1303
(dp1304
g61
(dp1305
g88
g89
ssg70
g1295
sg63
(lp1306
S':'
asbag56
(g77
g58
NtRp1307
(dp1308
g61
(dp1309
sg70
g1295
sg63
(lp1310
g56
(g57
g58
NtRp1311
(dp1312
g61
(dp1313
g69
I3
ssg70
g1307
sg63
(lp1314
S''
asbasbasbag56
(g72
g58
NtRp1315
(dp1316
g61
(dp1317
sg70
g1191
sg63
(lp1318
g56
(g77
g58
NtRp1319
(dp1320
g61
(dp1321
g81
g82
ssg70
g1315
sg63
(lp1322
g396
asbag56
(g77
g58
NtRp1323
(dp1324
g61
(dp1325
g88
g89
ssg70
g1315
sg63
(lp1326
S':'
asbag56
(g77
g58
NtRp1327
(dp1328
g61
(dp1329
sg70
g1315
sg63
(lp1330
g56
(g57
g58
NtRp1331
(dp1332
g61
(dp1333
g69
I3
ssg70
g1327
sg63
(lp1334
S''
asbasbasbag56
(g72
g58
NtRp1335
(dp1336
g61
(dp1337
sg70
g1191
sg63
(lp1338
g56
(g77
g58
NtRp1339
(dp1340
g61
(dp1341
g81
g82
ssg70
g1335
sg63
(lp1342
g417
asbag56
(g77
g58
NtRp1343
(dp1344
g61
(dp1345
g88
g89
ssg70
g1335
sg63
(lp1346
S':'
asbag56
(g77
g58
NtRp1347
(dp1348
g61
(dp1349
sg70
g1335
sg63
(lp1350
g56
(g57
g58
NtRp1351
(dp1352
g61
(dp1353
g69
I3
ssg70
g1347
sg63
(lp1354
S''
asbasbasbasbasbasbasbag56
(g72
g58
NtRp1355
(dp1356
g61
(dp1357
sg70
g233
sg63
(lp1358
g56
(g77
g58
NtRp1359
(dp1360
g61
(dp1361
g81
g82
ssg70
g1355
sg63
(lp1362
S'pt2gguin'
p1363
asbag56
(g77
g58
NtRp1364
(dp1365
g61
(dp1366
g88
g89
ssg70
g1355
sg63
(lp1367
S':'
asbag56
(g77
g58
NtRp1368
(dp1369
g61
(dp1370
sg70
g1355
sg63
(lp1371
g56
(g57
g58
NtRp1372
(dp1373
g61
(dp1374
g69
I4
ssg70
g1368
sg63
(lp1375
g56
(g65
g58
NtRp1376
(dp1377
g61
(dp1378
g69
I3
ssg70
Nsg63
(lp1379
g56
(g72
g58
NtRp1380
(dp1381
g61
(dp1382
sg70
g1376
sg63
(lp1383
g56
(g77
g58
NtRp1384
(dp1385
g61
(dp1386
g81
g82
ssg70
g1380
sg63
(lp1387
g270
asbag56
(g77
g58
NtRp1388
(dp1389
g61
(dp1390
g88
g89
ssg70
g1380
sg63
(lp1391
S':'
asbag56
(g77
g58
NtRp1392
(dp1393
g61
(dp1394
sg70
g1380
sg63
(lp1395
g56
(g57
g58
NtRp1396
(dp1397
g61
(dp1398
g69
I3
ssg70
g1392
sg63
(lp1399
S''
asbasbasbag56
(g72
g58
NtRp1400
(dp1401
g61
(dp1402
sg70
g1376
sg63
(lp1403
g56
(g77
g58
NtRp1404
(dp1405
g61
(dp1406
g81
g82
ssg70
g1400
sg63
(lp1407
g291
asbag56
(g77
g58
NtRp1408
(dp1409
g61
(dp1410
g88
g89
ssg70
g1400
sg63
(lp1411
S':'
asbag56
(g77
g58
NtRp1412
(dp1413
g61
(dp1414
sg70
g1400
sg63
(lp1415
g56
(g57
g58
NtRp1416
(dp1417
g61
(dp1418
g69
I3
ssg70
g1412
sg63
(lp1419
S''
asbasbasbag56
(g72
g58
NtRp1420
(dp1421
g61
(dp1422
sg70
g1376
sg63
(lp1423
g56
(g77
g58
NtRp1424
(dp1425
g61
(dp1426
g81
g82
ssg70
g1420
sg63
(lp1427
g312
asbag56
(g77
g58
NtRp1428
(dp1429
g61
(dp1430
g88
g89
ssg70
g1420
sg63
(lp1431
S':'
asbag56
(g77
g58
NtRp1432
(dp1433
g61
(dp1434
sg70
g1420
sg63
(lp1435
g56
(g57
g58
NtRp1436
(dp1437
g61
(dp1438
g69
I3
ssg70
g1432
sg63
(lp1439
S''
asbasbasbag56
(g72
g58
NtRp1440
(dp1441
g61
(dp1442
sg70
g1376
sg63
(lp1443
g56
(g77
g58
NtRp1444
(dp1445
g61
(dp1446
g81
g82
ssg70
g1440
sg63
(lp1447
g333
asbag56
(g77
g58
NtRp1448
(dp1449
g61
(dp1450
g88
g89
ssg70
g1440
sg63
(lp1451
S':'
asbag56
(g77
g58
NtRp1452
(dp1453
g61
(dp1454
sg70
g1440
sg63
(lp1455
g56
(g57
g58
NtRp1456
(dp1457
g61
(dp1458
g69
I3
ssg70
g1452
sg63
(lp1459
S''
asbasbasbag56
(g72
g58
NtRp1460
(dp1461
g61
(dp1462
sg70
g1376
sg63
(lp1463
g56
(g77
g58
NtRp1464
(dp1465
g61
(dp1466
g81
g82
ssg70
g1460
sg63
(lp1467
g354
asbag56
(g77
g58
NtRp1468
(dp1469
g61
(dp1470
g88
g89
ssg70
g1460
sg63
(lp1471
S':'
asbag56
(g77
g58
NtRp1472
(dp1473
g61
(dp1474
sg70
g1460
sg63
(lp1475
g56
(g57
g58
NtRp1476
(dp1477
g61
(dp1478
g69
I3
ssg70
g1472
sg63
(lp1479
S''
asbasbasbag56
(g72
g58
NtRp1480
(dp1481
g61
(dp1482
sg70
g1376
sg63
(lp1483
g56
(g77
g58
NtRp1484
(dp1485
g61
(dp1486
g81
g82
ssg70
g1480
sg63
(lp1487
g375
asbag56
(g77
g58
NtRp1488
(dp1489
g61
(dp1490
g88
g89
ssg70
g1480
sg63
(lp1491
S':'
asbag56
(g77
g58
NtRp1492
(dp1493
g61
(dp1494
sg70
g1480
sg63
(lp1495
g56
(g57
g58
NtRp1496
(dp1497
g61
(dp1498
g69
I3
ssg70
g1492
sg63
(lp1499
S''
asbasbasbag56
(g72
g58
NtRp1500
(dp1501
g61
(dp1502
sg70
g1376
sg63
(lp1503
g56
(g77
g58
NtRp1504
(dp1505
g61
(dp1506
g81
g82
ssg70
g1500
sg63
(lp1507
g396
asbag56
(g77
g58
NtRp1508
(dp1509
g61
(dp1510
g88
g89
ssg70
g1500
sg63
(lp1511
S':'
asbag56
(g77
g58
NtRp1512
(dp1513
g61
(dp1514
sg70
g1500
sg63
(lp1515
g56
(g57
g58
NtRp1516
(dp1517
g61
(dp1518
g69
I3
ssg70
g1512
sg63
(lp1519
S''
asbasbasbag56
(g72
g58
NtRp1520
(dp1521
g61
(dp1522
sg70
g1376
sg63
(lp1523
g56
(g77
g58
NtRp1524
(dp1525
g61
(dp1526
g81
g82
ssg70
g1520
sg63
(lp1527
g417
asbag56
(g77
g58
NtRp1528
(dp1529
g61
(dp1530
g88
g89
ssg70
g1520
sg63
(lp1531
S':'
asbag56
(g77
g58
NtRp1532
(dp1533
g61
(dp1534
sg70
g1520
sg63
(lp1535
g56
(g57
g58
NtRp1536
(dp1537
g61
(dp1538
g69
I3
ssg70
g1532
sg63
(lp1539
S''
asbasbasbasbasbasbasbag56
(g72
g58
NtRp1540
(dp1541
g61
(dp1542
sg70
g233
sg63
(lp1543
g56
(g77
g58
NtRp1544
(dp1545
g61
(dp1546
g81
g82
ssg70
g1540
sg63
(lp1547
S'session_id_admin'
p1548
asbag56
(g77
g58
NtRp1549
(dp1550
g61
(dp1551
g88
g89
ssg70
g1540
sg63
(lp1552
S':'
asbag56
(g77
g58
NtRp1553
(dp1554
g61
(dp1555
sg70
g1540
sg63
(lp1556
g56
(g57
g58
NtRp1557
(dp1558
g61
(dp1559
g69
I4
ssg70
g1553
sg63
(lp1560
g56
(g65
g58
NtRp1561
(dp1562
g61
(dp1563
g69
I3
ssg70
Nsg63
(lp1564
g56
(g72
g58
NtRp1565
(dp1566
g61
(dp1567
sg70
g1561
sg63
(lp1568
g56
(g77
g58
NtRp1569
(dp1570
g61
(dp1571
g81
g82
ssg70
g1565
sg63
(lp1572
g270
asbag56
(g77
g58
NtRp1573
(dp1574
g61
(dp1575
g88
g89
ssg70
g1565
sg63
(lp1576
S':'
asbag56
(g77
g58
NtRp1577
(dp1578
g61
(dp1579
sg70
g1565
sg63
(lp1580
g56
(g57
g58
NtRp1581
(dp1582
g61
(dp1583
g69
I3
ssg70
g1577
sg63
(lp1584
S''
asbasbasbag56
(g72
g58
NtRp1585
(dp1586
g61
(dp1587
sg70
g1561
sg63
(lp1588
g56
(g77
g58
NtRp1589
(dp1590
g61
(dp1591
g81
g82
ssg70
g1585
sg63
(lp1592
g291
asbag56
(g77
g58
NtRp1593
(dp1594
g61
(dp1595
g88
g89
ssg70
g1585
sg63
(lp1596
S':'
asbag56
(g77
g58
NtRp1597
(dp1598
g61
(dp1599
sg70
g1585
sg63
(lp1600
g56
(g57
g58
NtRp1601
(dp1602
g61
(dp1603
g69
I3
ssg70
g1597
sg63
(lp1604
S''
asbasbasbag56
(g72
g58
NtRp1605
(dp1606
g61
(dp1607
sg70
g1561
sg63
(lp1608
g56
(g77
g58
NtRp1609
(dp1610
g61
(dp1611
g81
g82
ssg70
g1605
sg63
(lp1612
g312
asbag56
(g77
g58
NtRp1613
(dp1614
g61
(dp1615
g88
g89
ssg70
g1605
sg63
(lp1616
S':'
asbag56
(g77
g58
NtRp1617
(dp1618
g61
(dp1619
sg70
g1605
sg63
(lp1620
g56
(g57
g58
NtRp1621
(dp1622
g61
(dp1623
g69
I3
ssg70
g1617
sg63
(lp1624
S''
asbasbasbag56
(g72
g58
NtRp1625
(dp1626
g61
(dp1627
sg70
g1561
sg63
(lp1628
g56
(g77
g58
NtRp1629
(dp1630
g61
(dp1631
g81
g82
ssg70
g1625
sg63
(lp1632
g333
asbag56
(g77
g58
NtRp1633
(dp1634
g61
(dp1635
g88
g89
ssg70
g1625
sg63
(lp1636
S':'
asbag56
(g77
g58
NtRp1637
(dp1638
g61
(dp1639
sg70
g1625
sg63
(lp1640
g56
(g57
g58
NtRp1641
(dp1642
g61
(dp1643
g69
I3
ssg70
g1637
sg63
(lp1644
S''
asbasbasbag56
(g72
g58
NtRp1645
(dp1646
g61
(dp1647
sg70
g1561
sg63
(lp1648
g56
(g77
g58
NtRp1649
(dp1650
g61
(dp1651
g81
g82
ssg70
g1645
sg63
(lp1652
g354
asbag56
(g77
g58
NtRp1653
(dp1654
g61
(dp1655
g88
g89
ssg70
g1645
sg63
(lp1656
S':'
asbag56
(g77
g58
NtRp1657
(dp1658
g61
(dp1659
sg70
g1645
sg63
(lp1660
g56
(g57
g58
NtRp1661
(dp1662
g61
(dp1663
g69
I3
ssg70
g1657
sg63
(lp1664
S''
asbasbasbag56
(g72
g58
NtRp1665
(dp1666
g61
(dp1667
sg70
g1561
sg63
(lp1668
g56
(g77
g58
NtRp1669
(dp1670
g61
(dp1671
g81
g82
ssg70
g1665
sg63
(lp1672
g375
asbag56
(g77
g58
NtRp1673
(dp1674
g61
(dp1675
g88
g89
ssg70
g1665
sg63
(lp1676
S':'
asbag56
(g77
g58
NtRp1677
(dp1678
g61
(dp1679
sg70
g1665
sg63
(lp1680
g56
(g57
g58
NtRp1681
(dp1682
g61
(dp1683
g69
I3
ssg70
g1677
sg63
(lp1684
S''
asbasbasbag56
(g72
g58
NtRp1685
(dp1686
g61
(dp1687
sg70
g1561
sg63
(lp1688
g56
(g77
g58
NtRp1689
(dp1690
g61
(dp1691
g81
g82
ssg70
g1685
sg63
(lp1692
g396
asbag56
(g77
g58
NtRp1693
(dp1694
g61
(dp1695
g88
g89
ssg70
g1685
sg63
(lp1696
S':'
asbag56
(g77
g58
NtRp1697
(dp1698
g61
(dp1699
sg70
g1685
sg63
(lp1700
g56
(g57
g58
NtRp1701
(dp1702
g61
(dp1703
g69
I3
ssg70
g1697
sg63
(lp1704
S''
asbasbasbag56
(g72
g58
NtRp1705
(dp1706
g61
(dp1707
sg70
g1561
sg63
(lp1708
g56
(g77
g58
NtRp1709
(dp1710
g61
(dp1711
g81
g82
ssg70
g1705
sg63
(lp1712
g417
asbag56
(g77
g58
NtRp1713
(dp1714
g61
(dp1715
g88
g89
ssg70
g1705
sg63
(lp1716
S':'
asbag56
(g77
g58
NtRp1717
(dp1718
g61
(dp1719
sg70
g1705
sg63
(lp1720
g56
(g57
g58
NtRp1721
(dp1722
g61
(dp1723
g69
I3
ssg70
g1717
sg63
(lp1724
S''
asbasbasbasbasbasbasbag56
(g72
g58
NtRp1725
(dp1726
g61
(dp1727
sg70
g233
sg63
(lp1728
g56
(g77
g58
NtRp1729
(dp1730
g61
(dp1731
g81
g82
ssg70
g1725
sg63
(lp1732
S'session_id_examples'
p1733
asbag56
(g77
g58
NtRp1734
(dp1735
g61
(dp1736
g88
g89
ssg70
g1725
sg63
(lp1737
S':'
asbag56
(g77
g58
NtRp1738
(dp1739
g61
(dp1740
sg70
g1725
sg63
(lp1741
g56
(g57
g58
NtRp1742
(dp1743
g61
(dp1744
g69
I4
ssg70
g1738
sg63
(lp1745
g56
(g65
g58
NtRp1746
(dp1747
g61
(dp1748
g69
I3
ssg70
Nsg63
(lp1749
g56
(g72
g58
NtRp1750
(dp1751
g61
(dp1752
sg70
g1746
sg63
(lp1753
g56
(g77
g58
NtRp1754
(dp1755
g61
(dp1756
g81
g82
ssg70
g1750
sg63
(lp1757
g270
asbag56
(g77
g58
NtRp1758
(dp1759
g61
(dp1760
g88
g89
ssg70
g1750
sg63
(lp1761
S':'
asbag56
(g77
g58
NtRp1762
(dp1763
g61
(dp1764
sg70
g1750
sg63
(lp1765
g56
(g57
g58
NtRp1766
(dp1767
g61
(dp1768
g69
I3
ssg70
g1762
sg63
(lp1769
S''
asbasbasbag56
(g72
g58
NtRp1770
(dp1771
g61
(dp1772
sg70
g1746
sg63
(lp1773
g56
(g77
g58
NtRp1774
(dp1775
g61
(dp1776
g81
g82
ssg70
g1770
sg63
(lp1777
g291
asbag56
(g77
g58
NtRp1778
(dp1779
g61
(dp1780
g88
g89
ssg70
g1770
sg63
(lp1781
S':'
asbag56
(g77
g58
NtRp1782
(dp1783
g61
(dp1784
sg70
g1770
sg63
(lp1785
g56
(g57
g58
NtRp1786
(dp1787
g61
(dp1788
g69
I3
ssg70
g1782
sg63
(lp1789
S''
asbasbasbag56
(g72
g58
NtRp1790
(dp1791
g61
(dp1792
sg70
g1746
sg63
(lp1793
g56
(g77
g58
NtRp1794
(dp1795
g61
(dp1796
g81
g82
ssg70
g1790
sg63
(lp1797
g312
asbag56
(g77
g58
NtRp1798
(dp1799
g61
(dp1800
g88
g89
ssg70
g1790
sg63
(lp1801
S':'
asbag56
(g77
g58
NtRp1802
(dp1803
g61
(dp1804
sg70
g1790
sg63
(lp1805
g56
(g57
g58
NtRp1806
(dp1807
g61
(dp1808
g69
I3
ssg70
g1802
sg63
(lp1809
S''
asbasbasbag56
(g72
g58
NtRp1810
(dp1811
g61
(dp1812
sg70
g1746
sg63
(lp1813
g56
(g77
g58
NtRp1814
(dp1815
g61
(dp1816
g81
g82
ssg70
g1810
sg63
(lp1817
g333
asbag56
(g77
g58
NtRp1818
(dp1819
g61
(dp1820
g88
g89
ssg70
g1810
sg63
(lp1821
S':'
asbag56
(g77
g58
NtRp1822
(dp1823
g61
(dp1824
sg70
g1810
sg63
(lp1825
g56
(g57
g58
NtRp1826
(dp1827
g61
(dp1828
g69
I3
ssg70
g1822
sg63
(lp1829
S''
asbasbasbag56
(g72
g58
NtRp1830
(dp1831
g61
(dp1832
sg70
g1746
sg63
(lp1833
g56
(g77
g58
NtRp1834
(dp1835
g61
(dp1836
g81
g82
ssg70
g1830
sg63
(lp1837
g354
asbag56
(g77
g58
NtRp1838
(dp1839
g61
(dp1840
g88
g89
ssg70
g1830
sg63
(lp1841
S':'
asbag56
(g77
g58
NtRp1842
(dp1843
g61
(dp1844
sg70
g1830
sg63
(lp1845
g56
(g57
g58
NtRp1846
(dp1847
g61
(dp1848
g69
I3
ssg70
g1842
sg63
(lp1849
S''
asbasbasbag56
(g72
g58
NtRp1850
(dp1851
g61
(dp1852
sg70
g1746
sg63
(lp1853
g56
(g77
g58
NtRp1854
(dp1855
g61
(dp1856
g81
g82
ssg70
g1850
sg63
(lp1857
g375
asbag56
(g77
g58
NtRp1858
(dp1859
g61
(dp1860
g88
g89
ssg70
g1850
sg63
(lp1861
S':'
asbag56
(g77
g58
NtRp1862
(dp1863
g61
(dp1864
sg70
g1850
sg63
(lp1865
g56
(g57
g58
NtRp1866
(dp1867
g61
(dp1868
g69
I3
ssg70
g1862
sg63
(lp1869
S''
asbasbasbag56
(g72
g58
NtRp1870
(dp1871
g61
(dp1872
sg70
g1746
sg63
(lp1873
g56
(g77
g58
NtRp1874
(dp1875
g61
(dp1876
g81
g82
ssg70
g1870
sg63
(lp1877
g396
asbag56
(g77
g58
NtRp1878
(dp1879
g61
(dp1880
g88
g89
ssg70
g1870
sg63
(lp1881
S':'
asbag56
(g77
g58
NtRp1882
(dp1883
g61
(dp1884
sg70
g1870
sg63
(lp1885
g56
(g57
g58
NtRp1886
(dp1887
g61
(dp1888
g69
I3
ssg70
g1882
sg63
(lp1889
S''
asbasbasbag56
(g72
g58
NtRp1890
(dp1891
g61
(dp1892
sg70
g1746
sg63
(lp1893
g56
(g77
g58
NtRp1894
(dp1895
g61
(dp1896
g81
g82
ssg70
g1890
sg63
(lp1897
g417
asbag56
(g77
g58
NtRp1898
(dp1899
g61
(dp1900
g88
g89
ssg70
g1890
sg63
(lp1901
S':'
asbag56
(g77
g58
NtRp1902
(dp1903
g61
(dp1904
sg70
g1890
sg63
(lp1905
g56
(g57
g58
NtRp1906
(dp1907
g61
(dp1908
g69
I3
ssg70
g1902
sg63
(lp1909
S''
asbasbasbasbasbasbasbag56
(g72
g58
NtRp1910
(dp1911
g61
(dp1912
sg70
g233
sg63
(lp1913
g56
(g77
g58
NtRp1914
(dp1915
g61
(dp1916
g81
g82
ssg70
g1910
sg63
(lp1917
S'session_id_welcome'
p1918
asbag56
(g77
g58
NtRp1919
(dp1920
g61
(dp1921
g88
g89
ssg70
g1910
sg63
(lp1922
S':'
asbag56
(g77
g58
NtRp1923
(dp1924
g61
(dp1925
sg70
g1910
sg63
(lp1926
g56
(g57
g58
NtRp1927
(dp1928
g61
(dp1929
g69
I4
ssg70
g1923
sg63
(lp1930
g56
(g65
g58
NtRp1931
(dp1932
g61
(dp1933
g69
I3
ssg70
Nsg63
(lp1934
g56
(g72
g58
NtRp1935
(dp1936
g61
(dp1937
sg70
g1931
sg63
(lp1938
g56
(g77
g58
NtRp1939
(dp1940
g61
(dp1941
g81
g82
ssg70
g1935
sg63
(lp1942
g270
asbag56
(g77
g58
NtRp1943
(dp1944
g61
(dp1945
g88
g89
ssg70
g1935
sg63
(lp1946
S':'
asbag56
(g77
g58
NtRp1947
(dp1948
g61
(dp1949
sg70
g1935
sg63
(lp1950
g56
(g57
g58
NtRp1951
(dp1952
g61
(dp1953
g69
I3
ssg70
g1947
sg63
(lp1954
S''
asbasbasbag56
(g72
g58
NtRp1955
(dp1956
g61
(dp1957
sg70
g1931
sg63
(lp1958
g56
(g77
g58
NtRp1959
(dp1960
g61
(dp1961
g81
g82
ssg70
g1955
sg63
(lp1962
g291
asbag56
(g77
g58
NtRp1963
(dp1964
g61
(dp1965
g88
g89
ssg70
g1955
sg63
(lp1966
S':'
asbag56
(g77
g58
NtRp1967
(dp1968
g61
(dp1969
sg70
g1955
sg63
(lp1970
g56
(g57
g58
NtRp1971
(dp1972
g61
(dp1973
g69
I3
ssg70
g1967
sg63
(lp1974
S''
asbasbasbag56
(g72
g58
NtRp1975
(dp1976
g61
(dp1977
sg70
g1931
sg63
(lp1978
g56
(g77
g58
NtRp1979
(dp1980
g61
(dp1981
g81
g82
ssg70
g1975
sg63
(lp1982
g312
asbag56
(g77
g58
NtRp1983
(dp1984
g61
(dp1985
g88
g89
ssg70
g1975
sg63
(lp1986
S':'
asbag56
(g77
g58
NtRp1987
(dp1988
g61
(dp1989
sg70
g1975
sg63
(lp1990
g56
(g57
g58
NtRp1991
(dp1992
g61
(dp1993
g69
I3
ssg70
g1987
sg63
(lp1994
S''
asbasbasbag56
(g72
g58
NtRp1995
(dp1996
g61
(dp1997
sg70
g1931
sg63
(lp1998
g56
(g77
g58
NtRp1999
(dp2000
g61
(dp2001
g81
g82
ssg70
g1995
sg63
(lp2002
g333
asbag56
(g77
g58
NtRp2003
(dp2004
g61
(dp2005
g88
g89
ssg70
g1995
sg63
(lp2006
S':'
asbag56
(g77
g58
NtRp2007
(dp2008
g61
(dp2009
sg70
g1995
sg63
(lp2010
g56
(g57
g58
NtRp2011
(dp2012
g61
(dp2013
g69
I3
ssg70
g2007
sg63
(lp2014
S''
asbasbasbag56
(g72
g58
NtRp2015
(dp2016
g61
(dp2017
sg70
g1931
sg63
(lp2018
g56
(g77
g58
NtRp2019
(dp2020
g61
(dp2021
g81
g82
ssg70
g2015
sg63
(lp2022
g354
asbag56
(g77
g58
NtRp2023
(dp2024
g61
(dp2025
g88
g89
ssg70
g2015
sg63
(lp2026
S':'
asbag56
(g77
g58
NtRp2027
(dp2028
g61
(dp2029
sg70
g2015
sg63
(lp2030
g56
(g57
g58
NtRp2031
(dp2032
g61
(dp2033
g69
I3
ssg70
g2027
sg63
(lp2034
S''
asbasbasbag56
(g72
g58
NtRp2035
(dp2036
g61
(dp2037
sg70
g1931
sg63
(lp2038
g56
(g77
g58
NtRp2039
(dp2040
g61
(dp2041
g81
g82
ssg70
g2035
sg63
(lp2042
g375
asbag56
(g77
g58
NtRp2043
(dp2044
g61
(dp2045
g88
g89
ssg70
g2035
sg63
(lp2046
S':'
asbag56
(g77
g58
NtRp2047
(dp2048
g61
(dp2049
sg70
g2035
sg63
(lp2050
g56
(g57
g58
NtRp2051
(dp2052
g61
(dp2053
g69
I3
ssg70
g2047
sg63
(lp2054
S''
asbasbasbag56
(g72
g58
NtRp2055
(dp2056
g61
(dp2057
sg70
g1931
sg63
(lp2058
g56
(g77
g58
NtRp2059
(dp2060
g61
(dp2061
g81
g82
ssg70
g2055
sg63
(lp2062
g396
asbag56
(g77
g58
NtRp2063
(dp2064
g61
(dp2065
g88
g89
ssg70
g2055
sg63
(lp2066
S':'
asbag56
(g77
g58
NtRp2067
(dp2068
g61
(dp2069
sg70
g2055
sg63
(lp2070
g56
(g57
g58
NtRp2071
(dp2072
g61
(dp2073
g69
I3
ssg70
g2067
sg63
(lp2074
S''
asbasbasbag56
(g72
g58
NtRp2075
(dp2076
g61
(dp2077
sg70
g1931
sg63
(lp2078
g56
(g77
g58
NtRp2079
(dp2080
g61
(dp2081
g81
g82
ssg70
g2075
sg63
(lp2082
g417
asbag56
(g77
g58
NtRp2083
(dp2084
g61
(dp2085
g88
g89
ssg70
g2075
sg63
(lp2086
S':'
asbag56
(g77
g58
NtRp2087
(dp2088
g61
(dp2089
sg70
g2075
sg63
(lp2090
g56
(g57
g58
NtRp2091
(dp2092
g61
(dp2093
g69
I3
ssg70
g2087
sg63
(lp2094
S''
asbasbasbasbasbasbasbag56
(g72
g58
NtRp2095
(dp2096
g61
(dp2097
sg70
g233
sg63
(lp2098
g56
(g77
g58
NtRp2099
(dp2100
g61
(dp2101
g81
g82
ssg70
g2095
sg63
(lp2102
S'uin_cookie'
p2103
asbag56
(g77
g58
NtRp2104
(dp2105
g61
(dp2106
g88
g89
ssg70
g2095
sg63
(lp2107
S':'
asbag56
(g77
g58
NtRp2108
(dp2109
g61
(dp2110
sg70
g2095
sg63
(lp2111
g56
(g57
g58
NtRp2112
(dp2113
g61
(dp2114
g69
I4
ssg70
g2108
sg63
(lp2115
g56
(g65
g58
NtRp2116
(dp2117
g61
(dp2118
g69
I3
ssg70
Nsg63
(lp2119
g56
(g72
g58
NtRp2120
(dp2121
g61
(dp2122
sg70
g2116
sg63
(lp2123
g56
(g77
g58
NtRp2124
(dp2125
g61
(dp2126
g81
g82
ssg70
g2120
sg63
(lp2127
g270
asbag56
(g77
g58
NtRp2128
(dp2129
g61
(dp2130
g88
g89
ssg70
g2120
sg63
(lp2131
S':'
asbag56
(g77
g58
NtRp2132
(dp2133
g61
(dp2134
sg70
g2120
sg63
(lp2135
g56
(g57
g58
NtRp2136
(dp2137
g61
(dp2138
g69
I3
ssg70
g2132
sg63
(lp2139
S''
asbasbasbag56
(g72
g58
NtRp2140
(dp2141
g61
(dp2142
sg70
g2116
sg63
(lp2143
g56
(g77
g58
NtRp2144
(dp2145
g61
(dp2146
g81
g82
ssg70
g2140
sg63
(lp2147
g291
asbag56
(g77
g58
NtRp2148
(dp2149
g61
(dp2150
g88
g89
ssg70
g2140
sg63
(lp2151
S':'
asbag56
(g77
g58
NtRp2152
(dp2153
g61
(dp2154
sg70
g2140
sg63
(lp2155
g56
(g57
g58
NtRp2156
(dp2157
g61
(dp2158
g69
I3
ssg70
g2152
sg63
(lp2159
S''
asbasbasbag56
(g72
g58
NtRp2160
(dp2161
g61
(dp2162
sg70
g2116
sg63
(lp2163
g56
(g77
g58
NtRp2164
(dp2165
g61
(dp2166
g81
g82
ssg70
g2160
sg63
(lp2167
g312
asbag56
(g77
g58
NtRp2168
(dp2169
g61
(dp2170
g88
g89
ssg70
g2160
sg63
(lp2171
S':'
asbag56
(g77
g58
NtRp2172
(dp2173
g61
(dp2174
sg70
g2160
sg63
(lp2175
g56
(g57
g58
NtRp2176
(dp2177
g61
(dp2178
g69
I3
ssg70
g2172
sg63
(lp2179
S''
asbasbasbag56
(g72
g58
NtRp2180
(dp2181
g61
(dp2182
sg70
g2116
sg63
(lp2183
g56
(g77
g58
NtRp2184
(dp2185
g61
(dp2186
g81
g82
ssg70
g2180
sg63
(lp2187
g333
asbag56
(g77
g58
NtRp2188
(dp2189
g61
(dp2190
g88
g89
ssg70
g2180
sg63
(lp2191
S':'
asbag56
(g77
g58
NtRp2192
(dp2193
g61
(dp2194
sg70
g2180
sg63
(lp2195
g56
(g57
g58
NtRp2196
(dp2197
g61
(dp2198
g69
I3
ssg70
g2192
sg63
(lp2199
S''
asbasbasbag56
(g72
g58
NtRp2200
(dp2201
g61
(dp2202
sg70
g2116
sg63
(lp2203
g56
(g77
g58
NtRp2204
(dp2205
g61
(dp2206
g81
g82
ssg70
g2200
sg63
(lp2207
g354
asbag56
(g77
g58
NtRp2208
(dp2209
g61
(dp2210
g88
g89
ssg70
g2200
sg63
(lp2211
S':'
asbag56
(g77
g58
NtRp2212
(dp2213
g61
(dp2214
sg70
g2200
sg63
(lp2215
g56
(g57
g58
NtRp2216
(dp2217
g61
(dp2218
g69
I3
ssg70
g2212
sg63
(lp2219
S''
asbasbasbag56
(g72
g58
NtRp2220
(dp2221
g61
(dp2222
sg70
g2116
sg63
(lp2223
g56
(g77
g58
NtRp2224
(dp2225
g61
(dp2226
g81
g82
ssg70
g2220
sg63
(lp2227
g375
asbag56
(g77
g58
NtRp2228
(dp2229
g61
(dp2230
g88
g89
ssg70
g2220
sg63
(lp2231
S':'
asbag56
(g77
g58
NtRp2232
(dp2233
g61
(dp2234
sg70
g2220
sg63
(lp2235
g56
(g57
g58
NtRp2236
(dp2237
g61
(dp2238
g69
I3
ssg70
g2232
sg63
(lp2239
S''
asbasbasbag56
(g72
g58
NtRp2240
(dp2241
g61
(dp2242
sg70
g2116
sg63
(lp2243
g56
(g77
g58
NtRp2244
(dp2245
g61
(dp2246
g81
g82
ssg70
g2240
sg63
(lp2247
g396
asbag56
(g77
g58
NtRp2248
(dp2249
g61
(dp2250
g88
g89
ssg70
g2240
sg63
(lp2251
S':'
asbag56
(g77
g58
NtRp2252
(dp2253
g61
(dp2254
sg70
g2240
sg63
(lp2255
g56
(g57
g58
NtRp2256
(dp2257
g61
(dp2258
g69
I3
ssg70
g2252
sg63
(lp2259
S''
asbasbasbag56
(g72
g58
NtRp2260
(dp2261
g61
(dp2262
sg70
g2116
sg63
(lp2263
g56
(g77
g58
NtRp2264
(dp2265
g61
(dp2266
g81
g82
ssg70
g2260
sg63
(lp2267
g417
asbag56
(g77
g58
NtRp2268
(dp2269
g61
(dp2270
g88
g89
ssg70
g2260
sg63
(lp2271
S':'
asbag56
(g77
g58
NtRp2272
(dp2273
g61
(dp2274
sg70
g2260
sg63
(lp2275
g56
(g57
g58
NtRp2276
(dp2277
g61
(dp2278
g69
I3
ssg70
g2272
sg63
(lp2279
S''
asbasbasbasbasbasbasbasbasbasbasbag56
(g72
g58
NtRp2280
(dp2281
g61
(dp2282
sg70
g66
sg63
(lp2283
g56
(g77
g58
NtRp2284
(dp2285
g61
(dp2286
g81
g82
ssg70
g2280
sg63
(lp2287
S'env'
p2288
asbag56
(g77
g58
NtRp2289
(dp2290
g61
(dp2291
g88
g89
ssg70
g2280
sg63
(lp2292
S':'
asbag56
(g77
g58
NtRp2293
(dp2294
g61
(dp2295
sg70
g2280
sg63
(lp2296
g56
(g57
g58
NtRp2297
(dp2298
g61
(dp2299
g69
I5
ssg70
g2293
sg63
(lp2300
g56
(g65
g58
NtRp2301
(dp2302
g61
(dp2303
g69
I4
ssg70
Nsg63
(lp2304
g56
(g72
g58
NtRp2305
(dp2306
g61
(dp2307
sg70
g2301
sg63
(lp2308
g56
(g77
g58
NtRp2309
(dp2310
g61
(dp2311
g81
g82
ssg70
g2305
sg63
(lp2312
S'app_folders'
p2313
asbag56
(g77
g58
NtRp2314
(dp2315
g61
(dp2316
g88
g89
ssg70
g2305
sg63
(lp2317
S':'
asbag56
(g77
g58
NtRp2318
(dp2319
g61
(dp2320
sg70
g2305
sg63
(lp2321
g56
(g57
g58
NtRp2322
(dp2323
g61
(dp2324
g69
I4
ssg70
g2318
sg63
(lp2325
S"set(['D:\\\\Workbench\\\\private\\\\web2py_src\\\\applications\\\\welcome\\\\', 'D:\\\\Workbench\\\\private\\\\web2py_src\\\\applications\\\\examples\\\\', 'D:\\\\Workbench\\\\private\\\\web2py_src\\\\applications\\\\admin\\\\'])"
p2326
asbasbasbag56
(g72
g58
NtRp2327
(dp2328
g61
(dp2329
sg70
g2301
sg63
(lp2330
g56
(g77
g58
NtRp2331
(dp2332
g61
(dp2333
g81
g82
ssg70
g2327
sg63
(lp2334
S'applications_parent'
p2335
asbag56
(g77
g58
NtRp2336
(dp2337
g61
(dp2338
g88
g89
ssg70
g2327
sg63
(lp2339
S':'
asbag56
(g77
g58
NtRp2340
(dp2341
g61
(dp2342
sg70
g2327
sg63
(lp2343
g56
(g57
g58
NtRp2344
(dp2345
g61
(dp2346
g69
I4
ssg70
g2340
sg63
(lp2347
S'D:\\Workbench\\private\\web2py_src'
p2348
asbasbasbag56
(g72
g58
NtRp2349
(dp2350
g61
(dp2351
sg70
g2301
sg63
(lp2352
g56
(g77
g58
NtRp2353
(dp2354
g61
(dp2355
g81
g82
ssg70
g2349
sg63
(lp2356
S'comspec'
p2357
asbag56
(g77
g58
NtRp2358
(dp2359
g61
(dp2360
g88
g89
ssg70
g2349
sg63
(lp2361
S':'
asbag56
(g77
g58
NtRp2362
(dp2363
g61
(dp2364
sg70
g2349
sg63
(lp2365
g56
(g57
g58
NtRp2366
(dp2367
g61
(dp2368
g69
I4
ssg70
g2362
sg63
(lp2369
S'C:\\Windows\\system32\\cmd.exe'
p2370
asbasbasbag56
(g72
g58
NtRp2371
(dp2372
g61
(dp2373
sg70
g2301
sg63
(lp2374
g56
(g77
g58
NtRp2375
(dp2376
g61
(dp2377
g81
g82
ssg70
g2371
sg63
(lp2378
S'content_length'
p2379
asbag56
(g77
g58
NtRp2380
(dp2381
g61
(dp2382
g88
g89
ssg70
g2371
sg63
(lp2383
S':'
asbag56
(g77
g58
NtRp2384
(dp2385
g61
(dp2386
sg70
g2371
sg63
(lp2387
g56
(g57
g58
NtRp2388
(dp2389
g61
(dp2390
g69
I4
ssg70
g2384
sg63
(lp2391
S'6975'
p2392
asbasbasbag56
(g72
g58
NtRp2393
(dp2394
g61
(dp2395
sg70
g2301
sg63
(lp2396
g56
(g77
g58
NtRp2397
(dp2398
g61
(dp2399
g81
g82
ssg70
g2393
sg63
(lp2400
S'content_type'
p2401
asbag56
(g77
g58
NtRp2402
(dp2403
g61
(dp2404
g88
g89
ssg70
g2393
sg63
(lp2405
S':'
asbag56
(g77
g58
NtRp2406
(dp2407
g61
(dp2408
sg70
g2393
sg63
(lp2409
g56
(g57
g58
NtRp2410
(dp2411
g61
(dp2412
g69
I4
ssg70
g2406
sg63
(lp2413
S'multipart/form-data; boundary=---------------------------7dc29e23b00c0'
p2414
asbasbasbag56
(g72
g58
NtRp2415
(dp2416
g61
(dp2417
sg70
g2301
sg63
(lp2418
g56
(g77
g58
NtRp2419
(dp2420
g61
(dp2421
g81
g82
ssg70
g2415
sg63
(lp2422
S'db_sessions'
p2423
asbag56
(g77
g58
NtRp2424
(dp2425
g61
(dp2426
g88
g89
ssg70
g2415
sg63
(lp2427
S':'
asbag56
(g77
g58
NtRp2428
(dp2429
g61
(dp2430
sg70
g2415
sg63
(lp2431
g56
(g57
g58
NtRp2432
(dp2433
g61
(dp2434
g69
I4
ssg70
g2428
sg63
(lp2435
S'set([])'
p2436
asbasbasbag56
(g72
g58
NtRp2437
(dp2438
g61
(dp2439
sg70
g2301
sg63
(lp2440
g56
(g77
g58
NtRp2441
(dp2442
g61
(dp2443
g81
g82
ssg70
g2437
sg63
(lp2444
S'debugging'
p2445
asbag56
(g77
g58
NtRp2446
(dp2447
g61
(dp2448
g88
g89
ssg70
g2437
sg63
(lp2449
S':'
asbag56
(g77
g58
NtRp2450
(dp2451
g61
(dp2452
sg70
g2437
sg63
(lp2453
g56
(g57
g58
NtRp2454
(dp2455
g61
(dp2456
g69
I4
ssg70
g2450
sg63
(lp2457
g99
asbasbasbag56
(g72
g58
NtRp2458
(dp2459
g61
(dp2460
sg70
g2301
sg63
(lp2461
g56
(g77
g58
NtRp2462
(dp2463
g61
(dp2464
g81
g82
ssg70
g2458
sg63
(lp2465
S'document_root'
p2466
asbag56
(g77
g58
NtRp2467
(dp2468
g61
(dp2469
g88
g89
ssg70
g2458
sg63
(lp2470
S':'
asbag56
(g77
g58
NtRp2471
(dp2472
g61
(dp2473
sg70
g2458
sg63
(lp2474
g56
(g57
g58
NtRp2475
(dp2476
g61
(dp2477
g69
I4
ssg70
g2471
sg63
(lp2478
S'D:/Workbench/documentroot'
p2479
asbasbasbag56
(g72
g58
NtRp2480
(dp2481
g61
(dp2482
sg70
g2301
sg63
(lp2483
g56
(g77
g58
NtRp2484
(dp2485
g61
(dp2486
g81
g82
ssg70
g2480
sg63
(lp2487
S'gateway_interface'
p2488
asbag56
(g77
g58
NtRp2489
(dp2490
g61
(dp2491
g88
g89
ssg70
g2480
sg63
(lp2492
S':'
asbag56
(g77
g58
NtRp2493
(dp2494
g61
(dp2495
sg70
g2480
sg63
(lp2496
g56
(g57
g58
NtRp2497
(dp2498
g61
(dp2499
g69
I4
ssg70
g2493
sg63
(lp2500
S'CGI/1.1'
p2501
asbasbasbag56
(g72
g58
NtRp2502
(dp2503
g61
(dp2504
sg70
g2301
sg63
(lp2505
g56
(g77
g58
NtRp2506
(dp2507
g61
(dp2508
g81
g82
ssg70
g2502
sg63
(lp2509
S'gluon_parent'
p2510
asbag56
(g77
g58
NtRp2511
(dp2512
g61
(dp2513
g88
g89
ssg70
g2502
sg63
(lp2514
S':'
asbag56
(g77
g58
NtRp2515
(dp2516
g61
(dp2517
sg70
g2502
sg63
(lp2518
g56
(g57
g58
NtRp2519
(dp2520
g61
(dp2521
g69
I4
ssg70
g2515
sg63
(lp2522
g2348
asbasbasbag56
(g72
g58
NtRp2523
(dp2524
g61
(dp2525
sg70
g2301
sg63
(lp2526
g56
(g77
g58
NtRp2527
(dp2528
g61
(dp2529
g81
g82
ssg70
g2523
sg63
(lp2530
S'http_accept'
p2531
asbag56
(g77
g58
NtRp2532
(dp2533
g61
(dp2534
g88
g89
ssg70
g2523
sg63
(lp2535
S':'
asbag56
(g77
g58
NtRp2536
(dp2537
g61
(dp2538
sg70
g2523
sg63
(lp2539
g56
(g57
g58
NtRp2540
(dp2541
g61
(dp2542
g69
I4
ssg70
g2536
sg63
(lp2543
S'text/html, application/xhtml+xml, */*'
p2544
asbasbasbag56
(g72
g58
NtRp2545
(dp2546
g61
(dp2547
sg70
g2301
sg63
(lp2548
g56
(g77
g58
NtRp2549
(dp2550
g61
(dp2551
g81
g82
ssg70
g2545
sg63
(lp2552
S'http_accept_encoding'
p2553
asbag56
(g77
g58
NtRp2554
(dp2555
g61
(dp2556
g88
g89
ssg70
g2545
sg63
(lp2557
S':'
asbag56
(g77
g58
NtRp2558
(dp2559
g61
(dp2560
sg70
g2545
sg63
(lp2561
g56
(g57
g58
NtRp2562
(dp2563
g61
(dp2564
g69
I4
ssg70
g2558
sg63
(lp2565
S'gzip, deflate'
p2566
asbasbasbag56
(g72
g58
NtRp2567
(dp2568
g61
(dp2569
sg70
g2301
sg63
(lp2570
g56
(g77
g58
NtRp2571
(dp2572
g61
(dp2573
g81
g82
ssg70
g2567
sg63
(lp2574
S'http_accept_language'
p2575
asbag56
(g77
g58
NtRp2576
(dp2577
g61
(dp2578
g88
g89
ssg70
g2567
sg63
(lp2579
S':'
asbag56
(g77
g58
NtRp2580
(dp2581
g61
(dp2582
sg70
g2567
sg63
(lp2583
g56
(g57
g58
NtRp2584
(dp2585
g61
(dp2586
g69
I4
ssg70
g2580
sg63
(lp2587
S'zh-CN'
p2588
asbasbasbag56
(g72
g58
NtRp2589
(dp2590
g61
(dp2591
sg70
g2301
sg63
(lp2592
g56
(g77
g58
NtRp2593
(dp2594
g61
(dp2595
g81
g82
ssg70
g2589
sg63
(lp2596
S'http_connection'
p2597
asbag56
(g77
g58
NtRp2598
(dp2599
g61
(dp2600
g88
g89
ssg70
g2589
sg63
(lp2601
S':'
asbag56
(g77
g58
NtRp2602
(dp2603
g61
(dp2604
sg70
g2589
sg63
(lp2605
g56
(g57
g58
NtRp2606
(dp2607
g61
(dp2608
g69
I4
ssg70
g2602
sg63
(lp2609
S'Keep-Alive'
p2610
asbasbasbag56
(g72
g58
NtRp2611
(dp2612
g61
(dp2613
sg70
g2301
sg63
(lp2614
g56
(g77
g58
NtRp2615
(dp2616
g61
(dp2617
g81
g82
ssg70
g2611
sg63
(lp2618
S'http_cookie'
p2619
asbag56
(g77
g58
NtRp2620
(dp2621
g61
(dp2622
g88
g89
ssg70
g2611
sg63
(lp2623
S':'
asbag56
(g77
g58
NtRp2624
(dp2625
g61
(dp2626
sg70
g2611
sg63
(lp2627
g56
(g57
g58
NtRp2628
(dp2629
g61
(dp2630
g69
I4
ssg70
g2624
sg63
(lp2631
S'ac=1,015,; pgv_pvid=4840772432; pt2gguin=o0395865019; pgv_flv=10.0; pgv_r_cookie=1222927619116; o_cookie=395865019; uin_cookie=395865019; euin_cookie=EA253FA02ECB0D137B9FBE38CDEF378C8B36821E9B481E2F; session_id_welcome=127.0.0.1-25468be9-02eb-447f-8357-ae0fe4d82274; session_id_examples=127.0.0.1-b8b8417c-6fa1-4666-abae-9b77d6dd7dc9; session_id_admin=127.0.0.1-5252d98a-914b-48e1-b619-267b784860ee'
p2632
asbasbasbag56
(g72
g58
NtRp2633
(dp2634
g61
(dp2635
sg70
g2301
sg63
(lp2636
g56
(g77
g58
NtRp2637
(dp2638
g61
(dp2639
g81
g82
ssg70
g2633
sg63
(lp2640
S'http_host'
p2641
asbag56
(g77
g58
NtRp2642
(dp2643
g61
(dp2644
g88
g89
ssg70
g2633
sg63
(lp2645
S':'
asbag56
(g77
g58
NtRp2646
(dp2647
g61
(dp2648
sg70
g2633
sg63
(lp2649
g56
(g57
g58
NtRp2650
(dp2651
g61
(dp2652
g69
I4
ssg70
g2646
sg63
(lp2653
S'tgtoolbox.qq.com'
p2654
asbasbasbag56
(g72
g58
NtRp2655
(dp2656
g61
(dp2657
sg70
g2301
sg63
(lp2658
g56
(g77
g58
NtRp2659
(dp2660
g61
(dp2661
g81
g82
ssg70
g2655
sg63
(lp2662
S'http_pragma'
p2663
asbag56
(g77
g58
NtRp2664
(dp2665
g61
(dp2666
g88
g89
ssg70
g2655
sg63
(lp2667
S':'
asbag56
(g77
g58
NtRp2668
(dp2669
g61
(dp2670
sg70
g2655
sg63
(lp2671
g56
(g57
g58
NtRp2672
(dp2673
g61
(dp2674
g69
I4
ssg70
g2668
sg63
(lp2675
S'no-cache'
p2676
asbasbasbag56
(g72
g58
NtRp2677
(dp2678
g61
(dp2679
sg70
g2301
sg63
(lp2680
g56
(g77
g58
NtRp2681
(dp2682
g61
(dp2683
g81
g82
ssg70
g2677
sg63
(lp2684
S'http_referer'
p2685
asbag56
(g77
g58
NtRp2686
(dp2687
g61
(dp2688
g88
g89
ssg70
g2677
sg63
(lp2689
S':'
asbag56
(g77
g58
NtRp2690
(dp2691
g61
(dp2692
sg70
g2677
sg63
(lp2693
g56
(g57
g58
NtRp2694
(dp2695
g61
(dp2696
g69
I4
ssg70
g2690
sg63
(lp2697
S'http://tgtoolbox.qq.com/examples/transform/index'
p2698
asbasbasbag56
(g72
g58
NtRp2699
(dp2700
g61
(dp2701
sg70
g2301
sg63
(lp2702
g56
(g77
g58
NtRp2703
(dp2704
g61
(dp2705
g81
g82
ssg70
g2699
sg63
(lp2706
S'http_user_agent'
p2707
asbag56
(g77
g58
NtRp2708
(dp2709
g61
(dp2710
g88
g89
ssg70
g2699
sg63
(lp2711
S':'
asbag56
(g77
g58
NtRp2712
(dp2713
g61
(dp2714
sg70
g2699
sg63
(lp2715
g56
(g57
g58
NtRp2716
(dp2717
g61
(dp2718
g69
I4
ssg70
g2712
sg63
(lp2719
S'Mozilla/5.0 (compatible; MSIE 9.0; Windows NT 6.1; Trident/5.0)'
p2720
asbasbasbag56
(g72
g58
NtRp2721
(dp2722
g61
(dp2723
sg70
g2301
sg63
(lp2724
g56
(g77
g58
NtRp2725
(dp2726
g61
(dp2727
g81
g82
ssg70
g2721
sg63
(lp2728
S'is_jython'
p2729
asbag56
(g77
g58
NtRp2730
(dp2731
g61
(dp2732
g88
g89
ssg70
g2721
sg63
(lp2733
S':'
asbag56
(g77
g58
NtRp2734
(dp2735
g61
(dp2736
sg70
g2721
sg63
(lp2737
g56
(g57
g58
NtRp2738
(dp2739
g61
(dp2740
g69
I4
ssg70
g2734
sg63
(lp2741
g99
asbasbasbag56
(g72
g58
NtRp2742
(dp2743
g61
(dp2744
sg70
g2301
sg63
(lp2745
g56
(g77
g58
NtRp2746
(dp2747
g61
(dp2748
g81
g82
ssg70
g2742
sg63
(lp2749
S'mod_wsgi_application_group'
p2750
asbag56
(g77
g58
NtRp2751
(dp2752
g61
(dp2753
g88
g89
ssg70
g2742
sg63
(lp2754
S':'
asbag56
(g77
g58
NtRp2755
(dp2756
g61
(dp2757
sg70
g2742
sg63
(lp2758
g56
(g57
g58
NtRp2759
(dp2760
g61
(dp2761
g69
I4
ssg70
g2755
sg63
(lp2762
S'XIAOFTANG-NB.tencent.com|'
p2763
asbasbasbag56
(g72
g58
NtRp2764
(dp2765
g61
(dp2766
sg70
g2301
sg63
(lp2767
g56
(g77
g58
NtRp2768
(dp2769
g61
(dp2770
g81
g82
ssg70
g2764
sg63
(lp2771
S'mod_wsgi_callable_object'
p2772
asbag56
(g77
g58
NtRp2773
(dp2774
g61
(dp2775
g88
g89
ssg70
g2764
sg63
(lp2776
S':'
asbag56
(g77
g58
NtRp2777
(dp2778
g61
(dp2779
sg70
g2764
sg63
(lp2780
g56
(g57
g58
NtRp2781
(dp2782
g61
(dp2783
g69
I4
ssg70
g2777
sg63
(lp2784
S'application'
p2785
asbasbasbag56
(g72
g58
NtRp2786
(dp2787
g61
(dp2788
sg70
g2301
sg63
(lp2789
g56
(g77
g58
NtRp2790
(dp2791
g61
(dp2792
g81
g82
ssg70
g2786
sg63
(lp2793
S'mod_wsgi_handler_script'
p2794
asbag56
(g77
g58
NtRp2795
(dp2796
g61
(dp2797
g88
g89
ssg70
g2786
sg63
(lp2798
S':'
asbag56
(g77
g58
NtRp2799
(dp2800
g61
(dp2801
sg70
g2786
sg63
(lp2802
g56
(g57
g58
NtRp2803
(dp2804
g61
(dp2805
g69
I4
ssg70
g2799
sg63
(lp2806
S''
asbasbasbag56
(g72
g58
NtRp2807
(dp2808
g61
(dp2809
sg70
g2301
sg63
(lp2810
g56
(g77
g58
NtRp2811
(dp2812
g61
(dp2813
g81
g82
ssg70
g2807
sg63
(lp2814
S'mod_wsgi_input_chunked'
p2815
asbag56
(g77
g58
NtRp2816
(dp2817
g61
(dp2818
g88
g89
ssg70
g2807
sg63
(lp2819
S':'
asbag56
(g77
g58
NtRp2820
(dp2821
g61
(dp2822
sg70
g2807
sg63
(lp2823
g56
(g57
g58
NtRp2824
(dp2825
g61
(dp2826
g69
I4
ssg70
g2820
sg63
(lp2827
S'0'
asbasbasbag56
(g72
g58
NtRp2828
(dp2829
g61
(dp2830
sg70
g2301
sg63
(lp2831
g56
(g77
g58
NtRp2832
(dp2833
g61
(dp2834
g81
g82
ssg70
g2828
sg63
(lp2835
S'mod_wsgi_process_group'
p2836
asbag56
(g77
g58
NtRp2837
(dp2838
g61
(dp2839
g88
g89
ssg70
g2828
sg63
(lp2840
S':'
asbag56
(g77
g58
NtRp2841
(dp2842
g61
(dp2843
sg70
g2828
sg63
(lp2844
g56
(g57
g58
NtRp2845
(dp2846
g61
(dp2847
g69
I4
ssg70
g2841
sg63
(lp2848
S''
asbasbasbag56
(g72
g58
NtRp2849
(dp2850
g61
(dp2851
sg70
g2301
sg63
(lp2852
g56
(g77
g58
NtRp2853
(dp2854
g61
(dp2855
g81
g82
ssg70
g2849
sg63
(lp2856
S'mod_wsgi_request_handler'
p2857
asbag56
(g77
g58
NtRp2858
(dp2859
g61
(dp2860
g88
g89
ssg70
g2849
sg63
(lp2861
S':'
asbag56
(g77
g58
NtRp2862
(dp2863
g61
(dp2864
sg70
g2849
sg63
(lp2865
g56
(g57
g58
NtRp2866
(dp2867
g61
(dp2868
g69
I4
ssg70
g2862
sg63
(lp2869
S'wsgi-script'
p2870
asbasbasbag56
(g72
g58
NtRp2871
(dp2872
g61
(dp2873
sg70
g2301
sg63
(lp2874
g56
(g77
g58
NtRp2875
(dp2876
g61
(dp2877
g81
g82
ssg70
g2871
sg63
(lp2878
S'mod_wsgi_script_reloading'
p2879
asbag56
(g77
g58
NtRp2880
(dp2881
g61
(dp2882
g88
g89
ssg70
g2871
sg63
(lp2883
S':'
asbag56
(g77
g58
NtRp2884
(dp2885
g61
(dp2886
sg70
g2871
sg63
(lp2887
g56
(g57
g58
NtRp2888
(dp2889
g61
(dp2890
g69
I4
ssg70
g2884
sg63
(lp2891
S'1'
asbasbasbag56
(g72
g58
NtRp2892
(dp2893
g61
(dp2894
sg70
g2301
sg63
(lp2895
g56
(g77
g58
NtRp2896
(dp2897
g61
(dp2898
g81
g82
ssg70
g2892
sg63
(lp2899
S'mod_wsgi_version'
p2900
asbag56
(g77
g58
NtRp2901
(dp2902
g61
(dp2903
g88
g89
ssg70
g2892
sg63
(lp2904
S':'
asbag56
(g77
g58
NtRp2905
(dp2906
g61
(dp2907
sg70
g2892
sg63
(lp2908
g56
(g57
g58
NtRp2909
(dp2910
g61
(dp2911
g69
I4
ssg70
g2905
sg63
(lp2912
g56
(g65
g58
NtRp2913
(dp2914
g61
(dp2915
g69
I3
ssg70
Nsg63
(lp2916
g56
(g72
g58
NtRp2917
(dp2918
g61
(dp2919
sg70
g2913
sg63
(lp2920
g56
(g77
g58
NtRp2921
(dp2922
g61
(dp2923
sg70
g2917
sg63
(lp2924
g56
(g57
g58
NtRp2925
(dp2926
g61
(dp2927
g69
I3
ssg70
g2921
sg63
(lp2928
S'3'
asbasbasbag56
(g72
g58
NtRp2929
(dp2930
g61
(dp2931
sg70
g2913
sg63
(lp2932
g56
(g77
g58
NtRp2933
(dp2934
g61
(dp2935
sg70
g2929
sg63
(lp2936
g56
(g57
g58
NtRp2937
(dp2938
g61
(dp2939
g69
I3
ssg70
g2933
sg63
(lp2940
S'3'
asbasbasbasbasbasbasbag56
(g72
g58
NtRp2941
(dp2942
g61
(dp2943
sg70
g2301
sg63
(lp2944
g56
(g77
g58
NtRp2945
(dp2946
g61
(dp2947
g81
g82
ssg70
g2941
sg63
(lp2948
S'path_info'
p2949
asbag56
(g77
g58
NtRp2950
(dp2951
g61
(dp2952
g88
g89
ssg70
g2941
sg63
(lp2953
S':'
asbag56
(g77
g58
NtRp2954
(dp2955
g61
(dp2956
sg70
g2941
sg63
(lp2957
g56
(g57
g58
NtRp2958
(dp2959
g61
(dp2960
g69
I4
ssg70
g2954
sg63
(lp2961
S'/examples/transform/upload'
p2962
asbasbasbag56
(g72
g58
NtRp2963
(dp2964
g61
(dp2965
sg70
g2301
sg63
(lp2966
g56
(g77
g58
NtRp2967
(dp2968
g61
(dp2969
g81
g82
ssg70
g2963
sg63
(lp2970
S'path_translated'
p2971
asbag56
(g77
g58
NtRp2972
(dp2973
g61
(dp2974
g88
g89
ssg70
g2963
sg63
(lp2975
S':'
asbag56
(g77
g58
NtRp2976
(dp2977
g61
(dp2978
sg70
g2963
sg63
(lp2979
g56
(g57
g58
NtRp2980
(dp2981
g61
(dp2982
g69
I4
ssg70
g2976
sg63
(lp2983
S'D:\\Workbench\\private\\web2py_src\\wsgihandler.py\\examples\\transform\\upload'
p2984
asbasbasbag56
(g72
g58
NtRp2985
(dp2986
g61
(dp2987
sg70
g2301
sg63
(lp2988
g56
(g77
g58
NtRp2989
(dp2990
g61
(dp2991
g81
g82
ssg70
g2985
sg63
(lp2992
S'pathext'
p2993
asbag56
(g77
g58
NtRp2994
(dp2995
g61
(dp2996
g88
g89
ssg70
g2985
sg63
(lp2997
S':'
asbag56
(g77
g58
NtRp2998
(dp2999
g61
(dp3000
sg70
g2985
sg63
(lp3001
g56
(g57
g58
NtRp3002
(dp3003
g61
(dp3004
g69
I4
ssg70
g2998
sg63
(lp3005
S'.COM;.EXE;.BAT;.CMD;.VBS;.VBE;.JS;.JSE;.WSF;.WSH;.MSC;.py;.pyw'
p3006
asbasbasbag56
(g72
g58
NtRp3007
(dp3008
g61
(dp3009
sg70
g2301
sg63
(lp3010
g56
(g77
g58
NtRp3011
(dp3012
g61
(dp3013
g81
g82
ssg70
g3007
sg63
(lp3014
S'query_string'
p3015
asbag56
(g77
g58
NtRp3016
(dp3017
g61
(dp3018
g88
g89
ssg70
g3007
sg63
(lp3019
S':'
asbag56
(g77
g58
NtRp3020
(dp3021
g61
(dp3022
sg70
g3007
sg63
(lp3023
g56
(g57
g58
NtRp3024
(dp3025
g61
(dp3026
g69
I4
ssg70
g3020
sg63
(lp3027
S''
asbasbasbag56
(g72
g58
NtRp3028
(dp3029
g61
(dp3030
sg70
g2301
sg63
(lp3031
g56
(g77
g58
NtRp3032
(dp3033
g61
(dp3034
g81
g82
ssg70
g3028
sg63
(lp3035
S'remote_addr'
p3036
asbag56
(g77
g58
NtRp3037
(dp3038
g61
(dp3039
g88
g89
ssg70
g3028
sg63
(lp3040
S':'
asbag56
(g77
g58
NtRp3041
(dp3042
g61
(dp3043
sg70
g3028
sg63
(lp3044
g56
(g57
g58
NtRp3045
(dp3046
g61
(dp3047
g69
I4
ssg70
g3041
sg63
(lp3048
g189
asbasbasbag56
(g72
g58
NtRp3049
(dp3050
g61
(dp3051
sg70
g2301
sg63
(lp3052
g56
(g77
g58
NtRp3053
(dp3054
g61
(dp3055
g81
g82
ssg70
g3049
sg63
(lp3056
S'remote_port'
p3057
asbag56
(g77
g58
NtRp3058
(dp3059
g61
(dp3060
g88
g89
ssg70
g3049
sg63
(lp3061
S':'
asbag56
(g77
g58
NtRp3062
(dp3063
g61
(dp3064
sg70
g3049
sg63
(lp3065
g56
(g57
g58
NtRp3066
(dp3067
g61
(dp3068
g69
I4
ssg70
g3062
sg63
(lp3069
S'52782'
p3070
asbasbasbag56
(g72
g58
NtRp3071
(dp3072
g61
(dp3073
sg70
g2301
sg63
(lp3074
g56
(g77
g58
NtRp3075
(dp3076
g61
(dp3077
g81
g82
ssg70
g3071
sg63
(lp3078
S'request_method'
p3079
asbag56
(g77
g58
NtRp3080
(dp3081
g61
(dp3082
g88
g89
ssg70
g3071
sg63
(lp3083
S':'
asbag56
(g77
g58
NtRp3084
(dp3085
g61
(dp3086
sg70
g3071
sg63
(lp3087
g56
(g57
g58
NtRp3088
(dp3089
g61
(dp3090
g69
I4
ssg70
g3084
sg63
(lp3091
S'POST'
p3092
asbasbasbag56
(g72
g58
NtRp3093
(dp3094
g61
(dp3095
sg70
g2301
sg63
(lp3096
g56
(g77
g58
NtRp3097
(dp3098
g61
(dp3099
g81
g82
ssg70
g3093
sg63
(lp3100
S'request_uri'
p3101
asbag56
(g77
g58
NtRp3102
(dp3103
g61
(dp3104
g88
g89
ssg70
g3093
sg63
(lp3105
S':'
asbag56
(g77
g58
NtRp3106
(dp3107
g61
(dp3108
sg70
g3093
sg63
(lp3109
g56
(g57
g58
NtRp3110
(dp3111
g61
(dp3112
g69
I4
ssg70
g3106
sg63
(lp3113
S'/examples/transform/upload'
p3114
asbasbasbag56
(g72
g58
NtRp3115
(dp3116
g61
(dp3117
sg70
g2301
sg63
(lp3118
g56
(g77
g58
NtRp3119
(dp3120
g61
(dp3121
g81
g82
ssg70
g3115
sg63
(lp3122
S'script_filename'
p3123
asbag56
(g77
g58
NtRp3124
(dp3125
g61
(dp3126
g88
g89
ssg70
g3115
sg63
(lp3127
S':'
asbag56
(g77
g58
NtRp3128
(dp3129
g61
(dp3130
sg70
g3115
sg63
(lp3131
g56
(g57
g58
NtRp3132
(dp3133
g61
(dp3134
g69
I4
ssg70
g3128
sg63
(lp3135
S'D:/Workbench/private/web2py_src/wsgihandler.py'
p3136
asbasbasbag56
(g72
g58
NtRp3137
(dp3138
g61
(dp3139
sg70
g2301
sg63
(lp3140
g56
(g77
g58
NtRp3141
(dp3142
g61
(dp3143
g81
g82
ssg70
g3137
sg63
(lp3144
S'script_name'
p3145
asbag56
(g77
g58
NtRp3146
(dp3147
g61
(dp3148
g88
g89
ssg70
g3137
sg63
(lp3149
S':'
asbag56
(g77
g58
NtRp3150
(dp3151
g61
(dp3152
sg70
g3137
sg63
(lp3153
g56
(g57
g58
NtRp3154
(dp3155
g61
(dp3156
g69
I4
ssg70
g3150
sg63
(lp3157
S''
asbasbasbag56
(g72
g58
NtRp3158
(dp3159
g61
(dp3160
sg70
g2301
sg63
(lp3161
g56
(g77
g58
NtRp3162
(dp3163
g61
(dp3164
g81
g82
ssg70
g3158
sg63
(lp3165
S'server_addr'
p3166
asbag56
(g77
g58
NtRp3167
(dp3168
g61
(dp3169
g88
g89
ssg70
g3158
sg63
(lp3170
S':'
asbag56
(g77
g58
NtRp3171
(dp3172
g61
(dp3173
sg70
g3158
sg63
(lp3174
g56
(g57
g58
NtRp3175
(dp3176
g61
(dp3177
g69
I4
ssg70
g3171
sg63
(lp3178
S'127.0.0.1'
p3179
asbasbasbag56
(g72
g58
NtRp3180
(dp3181
g61
(dp3182
sg70
g2301
sg63
(lp3183
g56
(g77
g58
NtRp3184
(dp3185
g61
(dp3186
g81
g82
ssg70
g3180
sg63
(lp3187
S'server_admin'
p3188
asbag56
(g77
g58
NtRp3189
(dp3190
g61
(dp3191
g88
g89
ssg70
g3180
sg63
(lp3192
S':'
asbag56
(g77
g58
NtRp3193
(dp3194
g61
(dp3195
sg70
g3180
sg63
(lp3196
g56
(g57
g58
NtRp3197
(dp3198
g61
(dp3199
g69
I4
ssg70
g3193
sg63
(lp3200
S'admin@tencent.com'
p3201
asbasbasbag56
(g72
g58
NtRp3202
(dp3203
g61
(dp3204
sg70
g2301
sg63
(lp3205
g56
(g77
g58
NtRp3206
(dp3207
g61
(dp3208
g81
g82
ssg70
g3202
sg63
(lp3209
S'server_name'
p3210
asbag56
(g77
g58
NtRp3211
(dp3212
g61
(dp3213
g88
g89
ssg70
g3202
sg63
(lp3214
S':'
asbag56
(g77
g58
NtRp3215
(dp3216
g61
(dp3217
sg70
g3202
sg63
(lp3218
g56
(g57
g58
NtRp3219
(dp3220
g61
(dp3221
g69
I4
ssg70
g3215
sg63
(lp3222
S'tgtoolbox.qq.com'
p3223
asbasbasbag56
(g72
g58
NtRp3224
(dp3225
g61
(dp3226
sg70
g2301
sg63
(lp3227
g56
(g77
g58
NtRp3228
(dp3229
g61
(dp3230
g81
g82
ssg70
g3224
sg63
(lp3231
S'server_port'
p3232
asbag56
(g77
g58
NtRp3233
(dp3234
g61
(dp3235
g88
g89
ssg70
g3224
sg63
(lp3236
S':'
asbag56
(g77
g58
NtRp3237
(dp3238
g61
(dp3239
sg70
g3224
sg63
(lp3240
g56
(g57
g58
NtRp3241
(dp3242
g61
(dp3243
g69
I4
ssg70
g3237
sg63
(lp3244
S'80'
p3245
asbasbasbag56
(g72
g58
NtRp3246
(dp3247
g61
(dp3248
sg70
g2301
sg63
(lp3249
g56
(g77
g58
NtRp3250
(dp3251
g61
(dp3252
g81
g82
ssg70
g3246
sg63
(lp3253
S'server_protocol'
p3254
asbag56
(g77
g58
NtRp3255
(dp3256
g61
(dp3257
g88
g89
ssg70
g3246
sg63
(lp3258
S':'
asbag56
(g77
g58
NtRp3259
(dp3260
g61
(dp3261
sg70
g3246
sg63
(lp3262
g56
(g57
g58
NtRp3263
(dp3264
g61
(dp3265
g69
I4
ssg70
g3259
sg63
(lp3266
S'HTTP/1.1'
p3267
asbasbasbag56
(g72
g58
NtRp3268
(dp3269
g61
(dp3270
sg70
g2301
sg63
(lp3271
g56
(g77
g58
NtRp3272
(dp3273
g61
(dp3274
g81
g82
ssg70
g3268
sg63
(lp3275
S'server_signature'
p3276
asbag56
(g77
g58
NtRp3277
(dp3278
g61
(dp3279
g88
g89
ssg70
g3268
sg63
(lp3280
S':'
asbag56
(g77
g58
NtRp3281
(dp3282
g61
(dp3283
sg70
g3268
sg63
(lp3284
g56
(g57
g58
NtRp3285
(dp3286
g61
(dp3287
g69
I4
ssg70
g3281
sg63
(lp3288
S''
asbasbasbag56
(g72
g58
NtRp3289
(dp3290
g61
(dp3291
sg70
g2301
sg63
(lp3292
g56
(g77
g58
NtRp3293
(dp3294
g61
(dp3295
g81
g82
ssg70
g3289
sg63
(lp3296
S'server_software'
p3297
asbag56
(g77
g58
NtRp3298
(dp3299
g61
(dp3300
g88
g89
ssg70
g3289
sg63
(lp3301
S':'
asbag56
(g77
g58
NtRp3302
(dp3303
g61
(dp3304
sg70
g3289
sg63
(lp3305
g56
(g57
g58
NtRp3306
(dp3307
g61
(dp3308
g69
I4
ssg70
g3302
sg63
(lp3309
S'Apache/2.2.21 (Win32) PHP/5.2.17 mod_wsgi/3.3 Python/2.7.2'
p3310
asbasbasbag56
(g72
g58
NtRp3311
(dp3312
g61
(dp3313
sg70
g2301
sg63
(lp3314
g56
(g77
g58
NtRp3315
(dp3316
g61
(dp3317
g81
g82
ssg70
g3311
sg63
(lp3318
S'systemroot'
p3319
asbag56
(g77
g58
NtRp3320
(dp3321
g61
(dp3322
g88
g89
ssg70
g3311
sg63
(lp3323
S':'
asbag56
(g77
g58
NtRp3324
(dp3325
g61
(dp3326
sg70
g3311
sg63
(lp3327
g56
(g57
g58
NtRp3328
(dp3329
g61
(dp3330
g69
I4
ssg70
g3324
sg63
(lp3331
S'C:\\Windows'
p3332
asbasbasbag56
(g72
g58
NtRp3333
(dp3334
g61
(dp3335
sg70
g2301
sg63
(lp3336
g56
(g77
g58
NtRp3337
(dp3338
g61
(dp3339
g81
g82
ssg70
g3333
sg63
(lp3340
S'web2py_path'
p3341
asbag56
(g77
g58
NtRp3342
(dp3343
g61
(dp3344
g88
g89
ssg70
g3333
sg63
(lp3345
S':'
asbag56
(g77
g58
NtRp3346
(dp3347
g61
(dp3348
sg70
g3333
sg63
(lp3349
g56
(g57
g58
NtRp3350
(dp3351
g61
(dp3352
g69
I4
ssg70
g3346
sg63
(lp3353
g2348
asbasbasbag56
(g72
g58
NtRp3354
(dp3355
g61
(dp3356
sg70
g2301
sg63
(lp3357
g56
(g77
g58
NtRp3358
(dp3359
g61
(dp3360
g81
g82
ssg70
g3354
sg63
(lp3361
S'web2py_version'
p3362
asbag56
(g77
g58
NtRp3363
(dp3364
g61
(dp3365
g88
g89
ssg70
g3354
sg63
(lp3366
S':'
asbag56
(g77
g58
NtRp3367
(dp3368
g61
(dp3369
sg70
g3354
sg63
(lp3370
g56
(g57
g58
NtRp3371
(dp3372
g61
(dp3373
g69
I4
ssg70
g3367
sg63
(lp3374
g56
(g65
g58
NtRp3375
(dp3376
g61
(dp3377
g69
I3
ssg70
Nsg63
(lp3378
g56
(g72
g58
NtRp3379
(dp3380
g61
(dp3381
sg70
g3375
sg63
(lp3382
g56
(g77
g58
NtRp3383
(dp3384
g61
(dp3385
sg70
g3379
sg63
(lp3386
g56
(g57
g58
NtRp3387
(dp3388
g61
(dp3389
g69
I3
ssg70
g3383
sg63
(lp3390
S'1'
asbasbasbag56
(g72
g58
NtRp3391
(dp3392
g61
(dp3393
sg70
g3375
sg63
(lp3394
g56
(g77
g58
NtRp3395
(dp3396
g61
(dp3397
sg70
g3391
sg63
(lp3398
g56
(g57
g58
NtRp3399
(dp3400
g61
(dp3401
g69
I3
ssg70
g3395
sg63
(lp3402
S'99'
p3403
asbasbasbag56
(g72
g58
NtRp3404
(dp3405
g61
(dp3406
sg70
g3375
sg63
(lp3407
g56
(g77
g58
NtRp3408
(dp3409
g61
(dp3410
sg70
g3404
sg63
(lp3411
g56
(g57
g58
NtRp3412
(dp3413
g61
(dp3414
g69
I3
ssg70
g3408
sg63
(lp3415
S'2'
asbasbasbag56
(g72
g58
NtRp3416
(dp3417
g61
(dp3418
sg70
g3375
sg63
(lp3419
g56
(g77
g58
NtRp3420
(dp3421
g61
(dp3422
sg70
g3416
sg63
(lp3423
g56
(g57
g58
NtRp3424
(dp3425
g61
(dp3426
g69
I3
ssg70
g3420
sg63
(lp3427
S'datetime.datetime(2011, 9, 26, 6, 55, 33)'
p3428
asbasbasbag56
(g72
g58
NtRp3429
(dp3430
g61
(dp3431
sg70
g3375
sg63
(lp3432
g56
(g77
g58
NtRp3433
(dp3434
g61
(dp3435
sg70
g3429
sg63
(lp3436
g56
(g57
g58
NtRp3437
(dp3438
g61
(dp3439
g69
I3
ssg70
g3433
sg63
(lp3440
S'stable'
p3441
asbasbasbasbasbasbasbag56
(g72
g58
NtRp3442
(dp3443
g61
(dp3444
sg70
g2301
sg63
(lp3445
g56
(g77
g58
NtRp3446
(dp3447
g61
(dp3448
g81
g82
ssg70
g3442
sg63
(lp3449
S'windir'
p3450
asbag56
(g77
g58
NtRp3451
(dp3452
g61
(dp3453
g88
g89
ssg70
g3442
sg63
(lp3454
S':'
asbag56
(g77
g58
NtRp3455
(dp3456
g61
(dp3457
sg70
g3442
sg63
(lp3458
g56
(g57
g58
NtRp3459
(dp3460
g61
(dp3461
g69
I4
ssg70
g3455
sg63
(lp3462
S'C:\\Windows'
p3463
asbasbasbag56
(g72
g58
NtRp3464
(dp3465
g61
(dp3466
sg70
g2301
sg63
(lp3467
g56
(g77
g58
NtRp3468
(dp3469
g61
(dp3470
g81
g82
ssg70
g3464
sg63
(lp3471
S'wsgi_errors'
p3472
asbag56
(g77
g58
NtRp3473
(dp3474
g61
(dp3475
g88
g89
ssg70
g3464
sg63
(lp3476
S':'
asbag56
(g77
g58
NtRp3477
(dp3478
g61
(dp3479
sg70
g3464
sg63
(lp3480
g56
(g57
g58
NtRp3481
(dp3482
g61
(dp3483
g69
I4
ssg70
g3477
sg63
(lp3484
S'<mod_wsgi.Log object at 0x0412E020>'
p3485
asbasbasbag56
(g72
g58
NtRp3486
(dp3487
g61
(dp3488
sg70
g2301
sg63
(lp3489
g56
(g77
g58
NtRp3490
(dp3491
g61
(dp3492
g81
g82
ssg70
g3486
sg63
(lp3493
S'wsgi_file_wrapper'
p3494
asbag56
(g77
g58
NtRp3495
(dp3496
g61
(dp3497
g88
g89
ssg70
g3486
sg63
(lp3498
S':'
asbag56
(g77
g58
NtRp3499
(dp3500
g61
(dp3501
sg70
g3486
sg63
(lp3502
g56
(g57
g58
NtRp3503
(dp3504
g61
(dp3505
g69
I4
ssg70
g3499
sg63
(lp3506
S'<built-in method file_wrapper of mod_wsgi.Adapter object at 0x037DCCC8>'
p3507
asbasbasbag56
(g72
g58
NtRp3508
(dp3509
g61
(dp3510
sg70
g2301
sg63
(lp3511
g56
(g77
g58
NtRp3512
(dp3513
g61
(dp3514
g81
g82
ssg70
g3508
sg63
(lp3515
S'wsgi_input'
p3516
asbag56
(g77
g58
NtRp3517
(dp3518
g61
(dp3519
g88
g89
ssg70
g3508
sg63
(lp3520
S':'
asbag56
(g77
g58
NtRp3521
(dp3522
g61
(dp3523
sg70
g3508
sg63
(lp3524
g56
(g57
g58
NtRp3525
(dp3526
g61
(dp3527
g69
I4
ssg70
g3521
sg63
(lp3528
S'<mod_wsgi.Input object at 0x05299200>'
p3529
asbasbasbag56
(g72
g58
NtRp3530
(dp3531
g61
(dp3532
sg70
g2301
sg63
(lp3533
g56
(g77
g58
NtRp3534
(dp3535
g61
(dp3536
g81
g82
ssg70
g3530
sg63
(lp3537
S'wsgi_multiprocess'
p3538
asbag56
(g77
g58
NtRp3539
(dp3540
g61
(dp3541
g88
g89
ssg70
g3530
sg63
(lp3542
S':'
asbag56
(g77
g58
NtRp3543
(dp3544
g61
(dp3545
sg70
g3530
sg63
(lp3546
g56
(g57
g58
NtRp3547
(dp3548
g61
(dp3549
g69
I4
ssg70
g3543
sg63
(lp3550
g99
asbasbasbag56
(g72
g58
NtRp3551
(dp3552
g61
(dp3553
sg70
g2301
sg63
(lp3554
g56
(g77
g58
NtRp3555
(dp3556
g61
(dp3557
g81
g82
ssg70
g3551
sg63
(lp3558
S'wsgi_multithread'
p3559
asbag56
(g77
g58
NtRp3560
(dp3561
g61
(dp3562
g88
g89
ssg70
g3551
sg63
(lp3563
S':'
asbag56
(g77
g58
NtRp3564
(dp3565
g61
(dp3566
sg70
g3551
sg63
(lp3567
g56
(g57
g58
NtRp3568
(dp3569
g61
(dp3570
g69
I4
ssg70
g3564
sg63
(lp3571
S'True'
p3572
asbasbasbag56
(g72
g58
NtRp3573
(dp3574
g61
(dp3575
sg70
g2301
sg63
(lp3576
g56
(g77
g58
NtRp3577
(dp3578
g61
(dp3579
g81
g82
ssg70
g3573
sg63
(lp3580
S'wsgi_run_once'
p3581
asbag56
(g77
g58
NtRp3582
(dp3583
g61
(dp3584
g88
g89
ssg70
g3573
sg63
(lp3585
S':'
asbag56
(g77
g58
NtRp3586
(dp3587
g61
(dp3588
sg70
g3573
sg63
(lp3589
g56
(g57
g58
NtRp3590
(dp3591
g61
(dp3592
g69
I4
ssg70
g3586
sg63
(lp3593
g99
asbasbasbag56
(g72
g58
NtRp3594
(dp3595
g61
(dp3596
sg70
g2301
sg63
(lp3597
g56
(g77
g58
NtRp3598
(dp3599
g61
(dp3600
g81
g82
ssg70
g3594
sg63
(lp3601
S'wsgi_url_scheme'
p3602
asbag56
(g77
g58
NtRp3603
(dp3604
g61
(dp3605
g88
g89
ssg70
g3594
sg63
(lp3606
S':'
asbag56
(g77
g58
NtRp3607
(dp3608
g61
(dp3609
sg70
g3594
sg63
(lp3610
g56
(g57
g58
NtRp3611
(dp3612
g61
(dp3613
g69
I4
ssg70
g3607
sg63
(lp3614
S'http'
p3615
asbasbasbag56
(g72
g58
NtRp3616
(dp3617
g61
(dp3618
sg70
g2301
sg63
(lp3619
g56
(g77
g58
NtRp3620
(dp3621
g61
(dp3622
g81
g82
ssg70
g3616
sg63
(lp3623
S'wsgi_version'
p3624
asbag56
(g77
g58
NtRp3625
(dp3626
g61
(dp3627
g88
g89
ssg70
g3616
sg63
(lp3628
S':'
asbag56
(g77
g58
NtRp3629
(dp3630
g61
(dp3631
sg70
g3616
sg63
(lp3632
g56
(g57
g58
NtRp3633
(dp3634
g61
(dp3635
g69
I4
ssg70
g3629
sg63
(lp3636
g56
(g65
g58
NtRp3637
(dp3638
g61
(dp3639
g69
I3
ssg70
Nsg63
(lp3640
g56
(g72
g58
NtRp3641
(dp3642
g61
(dp3643
sg70
g3637
sg63
(lp3644
g56
(g77
g58
NtRp3645
(dp3646
g61
(dp3647
sg70
g3641
sg63
(lp3648
g56
(g57
g58
NtRp3649
(dp3650
g61
(dp3651
g69
I3
ssg70
g3645
sg63
(lp3652
S'1'
asbasbasbag56
(g72
g58
NtRp3653
(dp3654
g61
(dp3655
sg70
g3637
sg63
(lp3656
g56
(g77
g58
NtRp3657
(dp3658
g61
(dp3659
sg70
g3653
sg63
(lp3660
g56
(g57
g58
NtRp3661
(dp3662
g61
(dp3663
g69
I3
ssg70
g3657
sg63
(lp3664
S'1'
asbasbasbasbasbasbasbasbasbasbasbag56
(g72
g58
NtRp3665
(dp3666
g61
(dp3667
sg70
g66
sg63
(lp3668
g56
(g77
g58
NtRp3669
(dp3670
g61
(dp3671
g81
g82
ssg70
g3665
sg63
(lp3672
S'extension'
p3673
asbag56
(g77
g58
NtRp3674
(dp3675
g61
(dp3676
g88
g89
ssg70
g3665
sg63
(lp3677
S':'
asbag56
(g77
g58
NtRp3678
(dp3679
g61
(dp3680
sg70
g3665
sg63
(lp3681
g56
(g57
g58
NtRp3682
(dp3683
g61
(dp3684
g69
I5
ssg70
g3678
sg63
(lp3685
S'html'
p3686
asbasbasbag56
(g72
g58
NtRp3687
(dp3688
g61
(dp3689
sg70
g66
sg63
(lp3690
g56
(g77
g58
NtRp3691
(dp3692
g61
(dp3693
g81
g82
ssg70
g3687
sg63
(lp3694
S'folder'
p3695
asbag56
(g77
g58
NtRp3696
(dp3697
g61
(dp3698
g88
g89
ssg70
g3687
sg63
(lp3699
S':'
asbag56
(g77
g58
NtRp3700
(dp3701
g61
(dp3702
sg70
g3687
sg63
(lp3703
g56
(g57
g58
NtRp3704
(dp3705
g61
(dp3706
g69
I5
ssg70
g3700
sg63
(lp3707
S'D:\\Workbench\\private\\web2py_src\\applications\\examples\\'
p3708
asbasbasbag56
(g72
g58
NtRp3709
(dp3710
g61
(dp3711
sg70
g66
sg63
(lp3712
g56
(g77
g58
NtRp3713
(dp3714
g61
(dp3715
g81
g82
ssg70
g3709
sg63
(lp3716
S'function'
p3717
asbag56
(g77
g58
NtRp3718
(dp3719
g61
(dp3720
g88
g89
ssg70
g3709
sg63
(lp3721
S':'
asbag56
(g77
g58
NtRp3722
(dp3723
g61
(dp3724
sg70
g3709
sg63
(lp3725
g56
(g57
g58
NtRp3726
(dp3727
g61
(dp3728
g69
I5
ssg70
g3722
sg63
(lp3729
S'upload'
p3730
asbasbasbag56
(g72
g58
NtRp3731
(dp3732
g61
(dp3733
sg70
g66
sg63
(lp3734
g56
(g77
g58
NtRp3735
(dp3736
g61
(dp3737
g81
g82
ssg70
g3731
sg63
(lp3738
S'get_vars'
p3739
asbag56
(g77
g58
NtRp3740
(dp3741
g61
(dp3742
g88
g89
ssg70
g3731
sg63
(lp3743
S':'
asbag56
(g77
g58
NtRp3744
(dp3745
g61
(dp3746
sg70
g3731
sg63
(lp3747
g56
(g57
g58
NtRp3748
(dp3749
g61
(dp3750
g69
I5
ssg70
g3744
sg63
(lp3751
g56
(g65
g58
NtRp3752
(dp3753
g61
(dp3754
g69
I4
ssg70
Nsg63
(lp3755
sbasbasbasbag56
(g72
g58
NtRp3756
(dp3757
g61
(dp3758
sg70
g66
sg63
(lp3759
g56
(g77
g58
NtRp3760
(dp3761
g61
(dp3762
g81
g82
ssg70
g3756
sg63
(lp3763
S'global_settings'
p3764
asbag56
(g77
g58
NtRp3765
(dp3766
g61
(dp3767
g88
g89
ssg70
g3756
sg63
(lp3768
S':'
asbag56
(g77
g58
NtRp3769
(dp3770
g61
(dp3771
sg70
g3756
sg63
(lp3772
g56
(g57
g58
NtRp3773
(dp3774
g61
(dp3775
g69
I5
ssg70
g3769
sg63
(lp3776
g56
(g65
g58
NtRp3777
(dp3778
g61
(dp3779
g69
I4
ssg70
Nsg63
(lp3780
g56
(g72
g58
NtRp3781
(dp3782
g61
(dp3783
sg70
g3777
sg63
(lp3784
g56
(g77
g58
NtRp3785
(dp3786
g61
(dp3787
g81
g82
ssg70
g3781
sg63
(lp3788
g2313
asbag56
(g77
g58
NtRp3789
(dp3790
g61
(dp3791
g88
g89
ssg70
g3781
sg63
(lp3792
S':'
asbag56
(g77
g58
NtRp3793
(dp3794
g61
(dp3795
sg70
g3781
sg63
(lp3796
g56
(g57
g58
NtRp3797
(dp3798
g61
(dp3799
g69
I4
ssg70
g3793
sg63
(lp3800
S"set(['D:\\\\Workbench\\\\private\\\\web2py_src\\\\applications\\\\welcome\\\\', 'D:\\\\Workbench\\\\private\\\\web2py_src\\\\applications\\\\examples\\\\', 'D:\\\\Workbench\\\\private\\\\web2py_src\\\\applications\\\\admin\\\\'])"
p3801
asbasbasbag56
(g72
g58
NtRp3802
(dp3803
g61
(dp3804
sg70
g3777
sg63
(lp3805
g56
(g77
g58
NtRp3806
(dp3807
g61
(dp3808
g81
g82
ssg70
g3802
sg63
(lp3809
g2335
asbag56
(g77
g58
NtRp3810
(dp3811
g61
(dp3812
g88
g89
ssg70
g3802
sg63
(lp3813
S':'
asbag56
(g77
g58
NtRp3814
(dp3815
g61
(dp3816
sg70
g3802
sg63
(lp3817
g56
(g57
g58
NtRp3818
(dp3819
g61
(dp3820
g69
I4
ssg70
g3814
sg63
(lp3821
g2348
asbasbasbag56
(g72
g58
NtRp3822
(dp3823
g61
(dp3824
sg70
g3777
sg63
(lp3825
g56
(g77
g58
NtRp3826
(dp3827
g61
(dp3828
g81
g82
ssg70
g3822
sg63
(lp3829
g2423
asbag56
(g77
g58
NtRp3830
(dp3831
g61
(dp3832
g88
g89
ssg70
g3822
sg63
(lp3833
S':'
asbag56
(g77
g58
NtRp3834
(dp3835
g61
(dp3836
sg70
g3822
sg63
(lp3837
g56
(g57
g58
NtRp3838
(dp3839
g61
(dp3840
g69
I4
ssg70
g3834
sg63
(lp3841
S'set([])'
p3842
asbasbasbag56
(g72
g58
NtRp3843
(dp3844
g61
(dp3845
sg70
g3777
sg63
(lp3846
g56
(g77
g58
NtRp3847
(dp3848
g61
(dp3849
g81
g82
ssg70
g3843
sg63
(lp3850
g2445
asbag56
(g77
g58
NtRp3851
(dp3852
g61
(dp3853
g88
g89
ssg70
g3843
sg63
(lp3854
S':'
asbag56
(g77
g58
NtRp3855
(dp3856
g61
(dp3857
sg70
g3843
sg63
(lp3858
g56
(g57
g58
NtRp3859
(dp3860
g61
(dp3861
g69
I4
ssg70
g3855
sg63
(lp3862
g99
asbasbasbag56
(g72
g58
NtRp3863
(dp3864
g61
(dp3865
sg70
g3777
sg63
(lp3866
g56
(g77
g58
NtRp3867
(dp3868
g61
(dp3869
g81
g82
ssg70
g3863
sg63
(lp3870
g2510
asbag56
(g77
g58
NtRp3871
(dp3872
g61
(dp3873
g88
g89
ssg70
g3863
sg63
(lp3874
S':'
asbag56
(g77
g58
NtRp3875
(dp3876
g61
(dp3877
sg70
g3863
sg63
(lp3878
g56
(g57
g58
NtRp3879
(dp3880
g61
(dp3881
g69
I4
ssg70
g3875
sg63
(lp3882
g2348
asbasbasbag56
(g72
g58
NtRp3883
(dp3884
g61
(dp3885
sg70
g3777
sg63
(lp3886
g56
(g77
g58
NtRp3887
(dp3888
g61
(dp3889
g81
g82
ssg70
g3883
sg63
(lp3890
g2729
asbag56
(g77
g58
NtRp3891
(dp3892
g61
(dp3893
g88
g89
ssg70
g3883
sg63
(lp3894
S':'
asbag56
(g77
g58
NtRp3895
(dp3896
g61
(dp3897
sg70
g3883
sg63
(lp3898
g56
(g57
g58
NtRp3899
(dp3900
g61
(dp3901
g69
I4
ssg70
g3895
sg63
(lp3902
g99
asbasbasbag56
(g72
g58
NtRp3903
(dp3904
g61
(dp3905
sg70
g3777
sg63
(lp3906
g56
(g77
g58
NtRp3907
(dp3908
g61
(dp3909
g81
g82
ssg70
g3903
sg63
(lp3910
g3362
asbag56
(g77
g58
NtRp3911
(dp3912
g61
(dp3913
g88
g89
ssg70
g3903
sg63
(lp3914
S':'
asbag56
(g77
g58
NtRp3915
(dp3916
g61
(dp3917
sg70
g3903
sg63
(lp3918
g56
(g57
g58
NtRp3919
(dp3920
g61
(dp3921
g69
I4
ssg70
g3915
sg63
(lp3922
g56
(g65
g58
NtRp3923
(dp3924
g61
(dp3925
g69
I3
ssg70
Nsg63
(lp3926
g56
(g72
g58
NtRp3927
(dp3928
g61
(dp3929
sg70
g3923
sg63
(lp3930
g56
(g77
g58
NtRp3931
(dp3932
g61
(dp3933
sg70
g3927
sg63
(lp3934
g56
(g57
g58
NtRp3935
(dp3936
g61
(dp3937
g69
I3
ssg70
g3931
sg63
(lp3938
S'1'
asbasbasbag56
(g72
g58
NtRp3939
(dp3940
g61
(dp3941
sg70
g3923
sg63
(lp3942
g56
(g77
g58
NtRp3943
(dp3944
g61
(dp3945
sg70
g3939
sg63
(lp3946
g56
(g57
g58
NtRp3947
(dp3948
g61
(dp3949
g69
I3
ssg70
g3943
sg63
(lp3950
S'99'
p3951
asbasbasbag56
(g72
g58
NtRp3952
(dp3953
g61
(dp3954
sg70
g3923
sg63
(lp3955
g56
(g77
g58
NtRp3956
(dp3957
g61
(dp3958
sg70
g3952
sg63
(lp3959
g56
(g57
g58
NtRp3960
(dp3961
g61
(dp3962
g69
I3
ssg70
g3956
sg63
(lp3963
S'2'
asbasbasbag56
(g72
g58
NtRp3964
(dp3965
g61
(dp3966
sg70
g3923
sg63
(lp3967
g56
(g77
g58
NtRp3968
(dp3969
g61
(dp3970
sg70
g3964
sg63
(lp3971
g56
(g57
g58
NtRp3972
(dp3973
g61
(dp3974
g69
I3
ssg70
g3968
sg63
(lp3975
S'datetime.datetime(2011, 9, 26, 6, 55, 33)'
p3976
asbasbasbag56
(g72
g58
NtRp3977
(dp3978
g61
(dp3979
sg70
g3923
sg63
(lp3980
g56
(g77
g58
NtRp3981
(dp3982
g61
(dp3983
sg70
g3977
sg63
(lp3984
g56
(g57
g58
NtRp3985
(dp3986
g61
(dp3987
g69
I3
ssg70
g3981
sg63
(lp3988
g3441
asbasbasbasbasbasbasbasbasbasbasbag56
(g72
g58
NtRp3989
(dp3990
g61
(dp3991
sg70
g66
sg63
(lp3992
g56
(g77
g58
NtRp3993
(dp3994
g61
(dp3995
g81
g82
ssg70
g3989
sg63
(lp3996
S'is_https'
p3997
asbag56
(g77
g58
NtRp3998
(dp3999
g61
(dp4000
g88
g89
ssg70
g3989
sg63
(lp4001
S':'
asbag56
(g77
g58
NtRp4002
(dp4003
g61
(dp4004
sg70
g3989
sg63
(lp4005
g56
(g57
g58
NtRp4006
(dp4007
g61
(dp4008
g69
I5
ssg70
g4002
sg63
(lp4009
g99
asbasbasbag56
(g72
g58
NtRp4010
(dp4011
g61
(dp4012
sg70
g66
sg63
(lp4013
g56
(g77
g58
NtRp4014
(dp4015
g61
(dp4016
g81
g82
ssg70
g4010
sg63
(lp4017
S'is_local'
p4018
asbag56
(g77
g58
NtRp4019
(dp4020
g61
(dp4021
g88
g89
ssg70
g4010
sg63
(lp4022
S':'
asbag56
(g77
g58
NtRp4023
(dp4024
g61
(dp4025
sg70
g4010
sg63
(lp4026
g56
(g57
g58
NtRp4027
(dp4028
g61
(dp4029
g69
I5
ssg70
g4023
sg63
(lp4030
g3572
asbasbasbag56
(g72
g58
NtRp4031
(dp4032
g61
(dp4033
sg70
g66
sg63
(lp4034
g56
(g77
g58
NtRp4035
(dp4036
g61
(dp4037
g81
g82
ssg70
g4031
sg63
(lp4038
S'is_restful'
p4039
asbag56
(g77
g58
NtRp4040
(dp4041
g61
(dp4042
g88
g89
ssg70
g4031
sg63
(lp4043
S':'
asbag56
(g77
g58
NtRp4044
(dp4045
g61
(dp4046
sg70
g4031
sg63
(lp4047
g56
(g57
g58
NtRp4048
(dp4049
g61
(dp4050
g69
I5
ssg70
g4044
sg63
(lp4051
g99
asbasbasbag56
(g72
g58
NtRp4052
(dp4053
g61
(dp4054
sg70
g66
sg63
(lp4055
g56
(g77
g58
NtRp4056
(dp4057
g61
(dp4058
g81
g82
ssg70
g4052
sg63
(lp4059
S'now'
p4060
asbag56
(g77
g58
NtRp4061
(dp4062
g61
(dp4063
g88
g89
ssg70
g4052
sg63
(lp4064
S':'
asbag56
(g77
g58
NtRp4065
(dp4066
g61
(dp4067
sg70
g4052
sg63
(lp4068
g56
(g57
g58
NtRp4069
(dp4070
g61
(dp4071
g69
I5
ssg70
g4065
sg63
(lp4072
S'datetime.datetime(2012, 3, 8, 22, 40, 53, 940000)'
p4073
asbasbasbag56
(g72
g58
NtRp4074
(dp4075
g61
(dp4076
sg70
g66
sg63
(lp4077
g56
(g77
g58
NtRp4078
(dp4079
g61
(dp4080
g81
g82
ssg70
g4074
sg63
(lp4081
S'post_vars'
p4082
asbag56
(g77
g58
NtRp4083
(dp4084
g61
(dp4085
g88
g89
ssg70
g4074
sg63
(lp4086
S':'
asbag56
(g77
g58
NtRp4087
(dp4088
g61
(dp4089
sg70
g4074
sg63
(lp4090
g56
(g57
g58
NtRp4091
(dp4092
g61
(dp4093
g69
I5
ssg70
g4087
sg63
(lp4094
g56
(g65
g58
NtRp4095
(dp4096
g61
(dp4097
g69
I4
ssg70
Nsg63
(lp4098
g56
(g72
g58
NtRp4099
(dp4100
g61
(dp4101
sg70
g4095
sg63
(lp4102
g56
(g77
g58
NtRp4103
(dp4104
g61
(dp4105
g81
g82
ssg70
g4099
sg63
(lp4106
S'myfile'
p4107
asbag56
(g77
g58
NtRp4108
(dp4109
g61
(dp4110
g88
g89
ssg70
g4099
sg63
(lp4111
S':'
asbag56
(g77
g58
NtRp4112
(dp4113
g61
(dp4114
sg70
g4099
sg63
(lp4115
g56
(g57
g58
NtRp4116
(dp4117
g61
(dp4118
g69
I4
ssg70
g4112
sg63
(lp4119
S'FieldStorage object'
p4120
asbasbasbasbasbasbasbag56
(g72
g58
NtRp4121
(dp4122
g61
(dp4123
sg70
g66
sg63
(lp4124
g56
(g77
g58
NtRp4125
(dp4126
g61
(dp4127
g81
g82
ssg70
g4121
sg63
(lp4128
S'url'
p4129
asbag56
(g77
g58
NtRp4130
(dp4131
g61
(dp4132
g88
g89
ssg70
g4121
sg63
(lp4133
S':'
asbag56
(g77
g58
NtRp4134
(dp4135
g61
(dp4136
sg70
g4121
sg63
(lp4137
g56
(g57
g58
NtRp4138
(dp4139
g61
(dp4140
g69
I5
ssg70
g4134
sg63
(lp4141
S'/examples/transform/upload'
p4142
asbasbasbag56
(g72
g58
NtRp4143
(dp4144
g61
(dp4145
sg70
g66
sg63
(lp4146
g56
(g77
g58
NtRp4147
(dp4148
g61
(dp4149
g81
g82
ssg70
g4143
sg63
(lp4150
S'utcnow'
p4151
asbag56
(g77
g58
NtRp4152
(dp4153
g61
(dp4154
g88
g89
ssg70
g4143
sg63
(lp4155
S':'
asbag56
(g77
g58
NtRp4156
(dp4157
g61
(dp4158
sg70
g4143
sg63
(lp4159
g56
(g57
g58
NtRp4160
(dp4161
g61
(dp4162
g69
I5
ssg70
g4156
sg63
(lp4163
S'datetime.datetime(2012, 3, 8, 14, 40, 53, 940000)'
p4164
asbasbasbag56
(g72
g58
NtRp4165
(dp4166
g61
(dp4167
sg70
g66
sg63
(lp4168
g56
(g77
g58
NtRp4169
(dp4170
g61
(dp4171
g81
g82
ssg70
g4165
sg63
(lp4172
S'uuid'
p4173
asbag56
(g77
g58
NtRp4174
(dp4175
g61
(dp4176
g88
g89
ssg70
g4165
sg63
(lp4177
S':'
asbag56
(g77
g58
NtRp4178
(dp4179
g61
(dp4180
sg70
g4165
sg63
(lp4181
g56
(g57
g58
NtRp4182
(dp4183
g61
(dp4184
g69
I5
ssg70
g4178
sg63
(lp4185
S'examples/127.0.0.1.2012-03-08.22-40-53.6b0fad93-777f-4ab6-97c7-0c51bb0c8ffa'
p4186
asbasbasbag56
(g72
g58
NtRp4187
(dp4188
g61
(dp4189
sg70
g66
sg63
(lp4190
g56
(g77
g58
NtRp4191
(dp4192
g61
(dp4193
g81
g82
ssg70
g4187
sg63
(lp4194
S'vars'
p4195
asbag56
(g77
g58
NtRp4196
(dp4197
g61
(dp4198
g88
g89
ssg70
g4187
sg63
(lp4199
S':'
asbag56
(g77
g58
NtRp4200
(dp4201
g61
(dp4202
sg70
g4187
sg63
(lp4203
g56
(g57
g58
NtRp4204
(dp4205
g61
(dp4206
g69
I5
ssg70
g4200
sg63
(lp4207
g56
(g65
g58
NtRp4208
(dp4209
g61
(dp4210
g69
I4
ssg70
Nsg63
(lp4211
g56
(g72
g58
NtRp4212
(dp4213
g61
(dp4214
sg70
g4208
sg63
(lp4215
g56
(g77
g58
NtRp4216
(dp4217
g61
(dp4218
g81
g82
ssg70
g4212
sg63
(lp4219
g4107
asbag56
(g77
g58
NtRp4220
(dp4221
g61
(dp4222
g88
g89
ssg70
g4212
sg63
(lp4223
S':'
asbag56
(g77
g58
NtRp4224
(dp4225
g61
(dp4226
sg70
g4212
sg63
(lp4227
g56
(g57
g58
NtRp4228
(dp4229
g61
(dp4230
g69
I4
ssg70
g4224
sg63
(lp4231
g4120
asbasbasbasbasbasbasbag56
(g72
g58
NtRp4232
(dp4233
g61
(dp4234
sg70
g66
sg63
(lp4235
g56
(g77
g58
NtRp4236
(dp4237
g61
(dp4238
g81
g82
ssg70
g4232
sg63
(lp4239
S'wsgi'
p4240
asbag56
(g77
g58
NtRp4241
(dp4242
g61
(dp4243
g88
g89
ssg70
g4232
sg63
(lp4244
S':'
asbag56
(g77
g58
NtRp4245
(dp4246
g61
(dp4247
sg70
g4232
sg63
(lp4248
g56
(g57
g58
NtRp4249
(dp4250
g61
(dp4251
g69
I5
ssg70
g4245
sg63
(lp4252
g56
(g65
g58
NtRp4253
(dp4254
g61
(dp4255
g69
I4
ssg70
Nsg63
(lp4256
g56
(g72
g58
NtRp4257
(dp4258
g61
(dp4259
sg70
g4253
sg63
(lp4260
g56
(g77
g58
NtRp4261
(dp4262
g61
(dp4263
g81
g82
ssg70
g4257
sg63
(lp4264
S'environ'
p4265
asbag56
(g77
g58
NtRp4266
(dp4267
g61
(dp4268
g88
g89
ssg70
g4257
sg63
(lp4269
S':'
asbag56
(g77
g58
NtRp4270
(dp4271
g61
(dp4272
sg70
g4257
sg63
(lp4273
g56
(g57
g58
NtRp4274
(dp4275
g61
(dp4276
g69
I4
ssg70
g4270
sg63
(lp4277
g56
(g65
g58
NtRp4278
(dp4279
g61
(dp4280
g69
I3
ssg70
Nsg63
(lp4281
g56
(g72
g58
NtRp4282
(dp4283
g61
(dp4284
sg70
g4278
sg63
(lp4285
g56
(g77
g58
NtRp4286
(dp4287
g61
(dp4288
g81
g82
ssg70
g4282
sg63
(lp4289
S'COMSPEC'
p4290
asbag56
(g77
g58
NtRp4291
(dp4292
g61
(dp4293
g88
g89
ssg70
g4282
sg63
(lp4294
S':'
asbag56
(g77
g58
NtRp4295
(dp4296
g61
(dp4297
sg70
g4282
sg63
(lp4298
g56
(g57
g58
NtRp4299
(dp4300
g61
(dp4301
g69
I3
ssg70
g4295
sg63
(lp4302
g2370
asbasbasbag56
(g72
g58
NtRp4303
(dp4304
g61
(dp4305
sg70
g4278
sg63
(lp4306
g56
(g77
g58
NtRp4307
(dp4308
g61
(dp4309
g81
g82
ssg70
g4303
sg63
(lp4310
S'CONTENT_LENGTH'
p4311
asbag56
(g77
g58
NtRp4312
(dp4313
g61
(dp4314
g88
g89
ssg70
g4303
sg63
(lp4315
S':'
asbag56
(g77
g58
NtRp4316
(dp4317
g61
(dp4318
sg70
g4303
sg63
(lp4319
g56
(g57
g58
NtRp4320
(dp4321
g61
(dp4322
g69
I3
ssg70
g4316
sg63
(lp4323
g2392
asbasbasbag56
(g72
g58
NtRp4324
(dp4325
g61
(dp4326
sg70
g4278
sg63
(lp4327
g56
(g77
g58
NtRp4328
(dp4329
g61
(dp4330
g81
g82
ssg70
g4324
sg63
(lp4331
S'CONTENT_TYPE'
p4332
asbag56
(g77
g58
NtRp4333
(dp4334
g61
(dp4335
g88
g89
ssg70
g4324
sg63
(lp4336
S':'
asbag56
(g77
g58
NtRp4337
(dp4338
g61
(dp4339
sg70
g4324
sg63
(lp4340
g56
(g57
g58
NtRp4341
(dp4342
g61
(dp4343
g69
I3
ssg70
g4337
sg63
(lp4344
g2414
asbasbasbag56
(g72
g58
NtRp4345
(dp4346
g61
(dp4347
sg70
g4278
sg63
(lp4348
g56
(g77
g58
NtRp4349
(dp4350
g61
(dp4351
g81
g82
ssg70
g4345
sg63
(lp4352
S'DOCUMENT_ROOT'
p4353
asbag56
(g77
g58
NtRp4354
(dp4355
g61
(dp4356
g88
g89
ssg70
g4345
sg63
(lp4357
S':'
asbag56
(g77
g58
NtRp4358
(dp4359
g61
(dp4360
sg70
g4345
sg63
(lp4361
g56
(g57
g58
NtRp4362
(dp4363
g61
(dp4364
g69
I3
ssg70
g4358
sg63
(lp4365
g2479
asbasbasbag56
(g72
g58
NtRp4366
(dp4367
g61
(dp4368
sg70
g4278
sg63
(lp4369
g56
(g77
g58
NtRp4370
(dp4371
g61
(dp4372
g81
g82
ssg70
g4366
sg63
(lp4373
S'GATEWAY_INTERFACE'
p4374
asbag56
(g77
g58
NtRp4375
(dp4376
g61
(dp4377
g88
g89
ssg70
g4366
sg63
(lp4378
S':'
asbag56
(g77
g58
NtRp4379
(dp4380
g61
(dp4381
sg70
g4366
sg63
(lp4382
g56
(g57
g58
NtRp4383
(dp4384
g61
(dp4385
g69
I3
ssg70
g4379
sg63
(lp4386
g2501
asbasbasbag56
(g72
g58
NtRp4387
(dp4388
g61
(dp4389
sg70
g4278
sg63
(lp4390
g56
(g77
g58
NtRp4391
(dp4392
g61
(dp4393
g81
g82
ssg70
g4387
sg63
(lp4394
S'HTTP_ACCEPT'
p4395
asbag56
(g77
g58
NtRp4396
(dp4397
g61
(dp4398
g88
g89
ssg70
g4387
sg63
(lp4399
S':'
asbag56
(g77
g58
NtRp4400
(dp4401
g61
(dp4402
sg70
g4387
sg63
(lp4403
g56
(g57
g58
NtRp4404
(dp4405
g61
(dp4406
g69
I3
ssg70
g4400
sg63
(lp4407
g2544
asbasbasbag56
(g72
g58
NtRp4408
(dp4409
g61
(dp4410
sg70
g4278
sg63
(lp4411
g56
(g77
g58
NtRp4412
(dp4413
g61
(dp4414
g81
g82
ssg70
g4408
sg63
(lp4415
S'HTTP_ACCEPT_ENCODING'
p4416
asbag56
(g77
g58
NtRp4417
(dp4418
g61
(dp4419
g88
g89
ssg70
g4408
sg63
(lp4420
S':'
asbag56
(g77
g58
NtRp4421
(dp4422
g61
(dp4423
sg70
g4408
sg63
(lp4424
g56
(g57
g58
NtRp4425
(dp4426
g61
(dp4427
g69
I3
ssg70
g4421
sg63
(lp4428
g2566
asbasbasbag56
(g72
g58
NtRp4429
(dp4430
g61
(dp4431
sg70
g4278
sg63
(lp4432
g56
(g77
g58
NtRp4433
(dp4434
g61
(dp4435
g81
g82
ssg70
g4429
sg63
(lp4436
S'HTTP_ACCEPT_LANGUAGE'
p4437
asbag56
(g77
g58
NtRp4438
(dp4439
g61
(dp4440
g88
g89
ssg70
g4429
sg63
(lp4441
S':'
asbag56
(g77
g58
NtRp4442
(dp4443
g61
(dp4444
sg70
g4429
sg63
(lp4445
g56
(g57
g58
NtRp4446
(dp4447
g61
(dp4448
g69
I3
ssg70
g4442
sg63
(lp4449
g2588
asbasbasbag56
(g72
g58
NtRp4450
(dp4451
g61
(dp4452
sg70
g4278
sg63
(lp4453
g56
(g77
g58
NtRp4454
(dp4455
g61
(dp4456
g81
g82
ssg70
g4450
sg63
(lp4457
S'HTTP_CONNECTION'
p4458
asbag56
(g77
g58
NtRp4459
(dp4460
g61
(dp4461
g88
g89
ssg70
g4450
sg63
(lp4462
S':'
asbag56
(g77
g58
NtRp4463
(dp4464
g61
(dp4465
sg70
g4450
sg63
(lp4466
g56
(g57
g58
NtRp4467
(dp4468
g61
(dp4469
g69
I3
ssg70
g4463
sg63
(lp4470
g2610
asbasbasbag56
(g72
g58
NtRp4471
(dp4472
g61
(dp4473
sg70
g4278
sg63
(lp4474
g56
(g77
g58
NtRp4475
(dp4476
g61
(dp4477
g81
g82
ssg70
g4471
sg63
(lp4478
S'HTTP_COOKIE'
p4479
asbag56
(g77
g58
NtRp4480
(dp4481
g61
(dp4482
g88
g89
ssg70
g4471
sg63
(lp4483
S':'
asbag56
(g77
g58
NtRp4484
(dp4485
g61
(dp4486
sg70
g4471
sg63
(lp4487
g56
(g57
g58
NtRp4488
(dp4489
g61
(dp4490
g69
I3
ssg70
g4484
sg63
(lp4491
g2632
asbasbasbag56
(g72
g58
NtRp4492
(dp4493
g61
(dp4494
sg70
g4278
sg63
(lp4495
g56
(g77
g58
NtRp4496
(dp4497
g61
(dp4498
g81
g82
ssg70
g4492
sg63
(lp4499
S'HTTP_HOST'
p4500
asbag56
(g77
g58
NtRp4501
(dp4502
g61
(dp4503
g88
g89
ssg70
g4492
sg63
(lp4504
S':'
asbag56
(g77
g58
NtRp4505
(dp4506
g61
(dp4507
sg70
g4492
sg63
(lp4508
g56
(g57
g58
NtRp4509
(dp4510
g61
(dp4511
g69
I3
ssg70
g4505
sg63
(lp4512
g2654
asbasbasbag56
(g72
g58
NtRp4513
(dp4514
g61
(dp4515
sg70
g4278
sg63
(lp4516
g56
(g77
g58
NtRp4517
(dp4518
g61
(dp4519
g81
g82
ssg70
g4513
sg63
(lp4520
S'HTTP_PRAGMA'
p4521
asbag56
(g77
g58
NtRp4522
(dp4523
g61
(dp4524
g88
g89
ssg70
g4513
sg63
(lp4525
S':'
asbag56
(g77
g58
NtRp4526
(dp4527
g61
(dp4528
sg70
g4513
sg63
(lp4529
g56
(g57
g58
NtRp4530
(dp4531
g61
(dp4532
g69
I3
ssg70
g4526
sg63
(lp4533
g2676
asbasbasbag56
(g72
g58
NtRp4534
(dp4535
g61
(dp4536
sg70
g4278
sg63
(lp4537
g56
(g77
g58
NtRp4538
(dp4539
g61
(dp4540
g81
g82
ssg70
g4534
sg63
(lp4541
S'HTTP_REFERER'
p4542
asbag56
(g77
g58
NtRp4543
(dp4544
g61
(dp4545
g88
g89
ssg70
g4534
sg63
(lp4546
S':'
asbag56
(g77
g58
NtRp4547
(dp4548
g61
(dp4549
sg70
g4534
sg63
(lp4550
g56
(g57
g58
NtRp4551
(dp4552
g61
(dp4553
g69
I3
ssg70
g4547
sg63
(lp4554
g2698
asbasbasbag56
(g72
g58
NtRp4555
(dp4556
g61
(dp4557
sg70
g4278
sg63
(lp4558
g56
(g77
g58
NtRp4559
(dp4560
g61
(dp4561
g81
g82
ssg70
g4555
sg63
(lp4562
S'HTTP_USER_AGENT'
p4563
asbag56
(g77
g58
NtRp4564
(dp4565
g61
(dp4566
g88
g89
ssg70
g4555
sg63
(lp4567
S':'
asbag56
(g77
g58
NtRp4568
(dp4569
g61
(dp4570
sg70
g4555
sg63
(lp4571
g56
(g57
g58
NtRp4572
(dp4573
g61
(dp4574
g69
I3
ssg70
g4568
sg63
(lp4575
g2720
asbasbasbag56
(g72
g58
NtRp4576
(dp4577
g61
(dp4578
sg70
g4278
sg63
(lp4579
g56
(g77
g58
NtRp4580
(dp4581
g61
(dp4582
g81
g82
ssg70
g4576
sg63
(lp4583
S'PATHEXT'
p4584
asbag56
(g77
g58
NtRp4585
(dp4586
g61
(dp4587
g88
g89
ssg70
g4576
sg63
(lp4588
S':'
asbag56
(g77
g58
NtRp4589
(dp4590
g61
(dp4591
sg70
g4576
sg63
(lp4592
g56
(g57
g58
NtRp4593
(dp4594
g61
(dp4595
g69
I3
ssg70
g4589
sg63
(lp4596
g3006
asbasbasbag56
(g72
g58
NtRp4597
(dp4598
g61
(dp4599
sg70
g4278
sg63
(lp4600
g56
(g77
g58
NtRp4601
(dp4602
g61
(dp4603
g81
g82
ssg70
g4597
sg63
(lp4604
S'PATH_INFO'
p4605
asbag56
(g77
g58
NtRp4606
(dp4607
g61
(dp4608
g88
g89
ssg70
g4597
sg63
(lp4609
S':'
asbag56
(g77
g58
NtRp4610
(dp4611
g61
(dp4612
sg70
g4597
sg63
(lp4613
g56
(g57
g58
NtRp4614
(dp4615
g61
(dp4616
g69
I3
ssg70
g4610
sg63
(lp4617
g2962
asbasbasbag56
(g72
g58
NtRp4618
(dp4619
g61
(dp4620
sg70
g4278
sg63
(lp4621
g56
(g77
g58
NtRp4622
(dp4623
g61
(dp4624
g81
g82
ssg70
g4618
sg63
(lp4625
S'PATH_TRANSLATED'
p4626
asbag56
(g77
g58
NtRp4627
(dp4628
g61
(dp4629
g88
g89
ssg70
g4618
sg63
(lp4630
S':'
asbag56
(g77
g58
NtRp4631
(dp4632
g61
(dp4633
sg70
g4618
sg63
(lp4634
g56
(g57
g58
NtRp4635
(dp4636
g61
(dp4637
g69
I3
ssg70
g4631
sg63
(lp4638
g2984
asbasbasbag56
(g72
g58
NtRp4639
(dp4640
g61
(dp4641
sg70
g4278
sg63
(lp4642
g56
(g77
g58
NtRp4643
(dp4644
g61
(dp4645
g81
g82
ssg70
g4639
sg63
(lp4646
S'QUERY_STRING'
p4647
asbag56
(g77
g58
NtRp4648
(dp4649
g61
(dp4650
g88
g89
ssg70
g4639
sg63
(lp4651
S':'
asbag56
(g77
g58
NtRp4652
(dp4653
g61
(dp4654
sg70
g4639
sg63
(lp4655
g56
(g57
g58
NtRp4656
(dp4657
g61
(dp4658
g69
I3
ssg70
g4652
sg63
(lp4659
S''
asbasbasbag56
(g72
g58
NtRp4660
(dp4661
g61
(dp4662
sg70
g4278
sg63
(lp4663
g56
(g77
g58
NtRp4664
(dp4665
g61
(dp4666
g81
g82
ssg70
g4660
sg63
(lp4667
S'REMOTE_ADDR'
p4668
asbag56
(g77
g58
NtRp4669
(dp4670
g61
(dp4671
g88
g89
ssg70
g4660
sg63
(lp4672
S':'
asbag56
(g77
g58
NtRp4673
(dp4674
g61
(dp4675
sg70
g4660
sg63
(lp4676
g56
(g57
g58
NtRp4677
(dp4678
g61
(dp4679
g69
I3
ssg70
g4673
sg63
(lp4680
g189
asbasbasbag56
(g72
g58
NtRp4681
(dp4682
g61
(dp4683
sg70
g4278
sg63
(lp4684
g56
(g77
g58
NtRp4685
(dp4686
g61
(dp4687
g81
g82
ssg70
g4681
sg63
(lp4688
S'REMOTE_PORT'
p4689
asbag56
(g77
g58
NtRp4690
(dp4691
g61
(dp4692
g88
g89
ssg70
g4681
sg63
(lp4693
S':'
asbag56
(g77
g58
NtRp4694
(dp4695
g61
(dp4696
sg70
g4681
sg63
(lp4697
g56
(g57
g58
NtRp4698
(dp4699
g61
(dp4700
g69
I3
ssg70
g4694
sg63
(lp4701
g3070
asbasbasbag56
(g72
g58
NtRp4702
(dp4703
g61
(dp4704
sg70
g4278
sg63
(lp4705
g56
(g77
g58
NtRp4706
(dp4707
g61
(dp4708
g81
g82
ssg70
g4702
sg63
(lp4709
S'REQUEST_METHOD'
p4710
asbag56
(g77
g58
NtRp4711
(dp4712
g61
(dp4713
g88
g89
ssg70
g4702
sg63
(lp4714
S':'
asbag56
(g77
g58
NtRp4715
(dp4716
g61
(dp4717
sg70
g4702
sg63
(lp4718
g56
(g57
g58
NtRp4719
(dp4720
g61
(dp4721
g69
I3
ssg70
g4715
sg63
(lp4722
g3092
asbasbasbag56
(g72
g58
NtRp4723
(dp4724
g61
(dp4725
sg70
g4278
sg63
(lp4726
g56
(g77
g58
NtRp4727
(dp4728
g61
(dp4729
g81
g82
ssg70
g4723
sg63
(lp4730
S'REQUEST_URI'
p4731
asbag56
(g77
g58
NtRp4732
(dp4733
g61
(dp4734
g88
g89
ssg70
g4723
sg63
(lp4735
S':'
asbag56
(g77
g58
NtRp4736
(dp4737
g61
(dp4738
sg70
g4723
sg63
(lp4739
g56
(g57
g58
NtRp4740
(dp4741
g61
(dp4742
g69
I3
ssg70
g4736
sg63
(lp4743
g3114
asbasbasbag56
(g72
g58
NtRp4744
(dp4745
g61
(dp4746
sg70
g4278
sg63
(lp4747
g56
(g77
g58
NtRp4748
(dp4749
g61
(dp4750
g81
g82
ssg70
g4744
sg63
(lp4751
S'SCRIPT_FILENAME'
p4752
asbag56
(g77
g58
NtRp4753
(dp4754
g61
(dp4755
g88
g89
ssg70
g4744
sg63
(lp4756
S':'
asbag56
(g77
g58
NtRp4757
(dp4758
g61
(dp4759
sg70
g4744
sg63
(lp4760
g56
(g57
g58
NtRp4761
(dp4762
g61
(dp4763
g69
I3
ssg70
g4757
sg63
(lp4764
g3136
asbasbasbag56
(g72
g58
NtRp4765
(dp4766
g61
(dp4767
sg70
g4278
sg63
(lp4768
g56
(g77
g58
NtRp4769
(dp4770
g61
(dp4771
g81
g82
ssg70
g4765
sg63
(lp4772
S'SCRIPT_NAME'
p4773
asbag56
(g77
g58
NtRp4774
(dp4775
g61
(dp4776
g88
g89
ssg70
g4765
sg63
(lp4777
S':'
asbag56
(g77
g58
NtRp4778
(dp4779
g61
(dp4780
sg70
g4765
sg63
(lp4781
g56
(g57
g58
NtRp4782
(dp4783
g61
(dp4784
g69
I3
ssg70
g4778
sg63
(lp4785
S''
asbasbasbag56
(g72
g58
NtRp4786
(dp4787
g61
(dp4788
sg70
g4278
sg63
(lp4789
g56
(g77
g58
NtRp4790
(dp4791
g61
(dp4792
g81
g82
ssg70
g4786
sg63
(lp4793
S'SERVER_ADDR'
p4794
asbag56
(g77
g58
NtRp4795
(dp4796
g61
(dp4797
g88
g89
ssg70
g4786
sg63
(lp4798
S':'
asbag56
(g77
g58
NtRp4799
(dp4800
g61
(dp4801
sg70
g4786
sg63
(lp4802
g56
(g57
g58
NtRp4803
(dp4804
g61
(dp4805
g69
I3
ssg70
g4799
sg63
(lp4806
g3179
asbasbasbag56
(g72
g58
NtRp4807
(dp4808
g61
(dp4809
sg70
g4278
sg63
(lp4810
g56
(g77
g58
NtRp4811
(dp4812
g61
(dp4813
g81
g82
ssg70
g4807
sg63
(lp4814
S'SERVER_ADMIN'
p4815
asbag56
(g77
g58
NtRp4816
(dp4817
g61
(dp4818
g88
g89
ssg70
g4807
sg63
(lp4819
S':'
asbag56
(g77
g58
NtRp4820
(dp4821
g61
(dp4822
sg70
g4807
sg63
(lp4823
g56
(g57
g58
NtRp4824
(dp4825
g61
(dp4826
g69
I3
ssg70
g4820
sg63
(lp4827
g3201
asbasbasbag56
(g72
g58
NtRp4828
(dp4829
g61
(dp4830
sg70
g4278
sg63
(lp4831
g56
(g77
g58
NtRp4832
(dp4833
g61
(dp4834
g81
g82
ssg70
g4828
sg63
(lp4835
S'SERVER_NAME'
p4836
asbag56
(g77
g58
NtRp4837
(dp4838
g61
(dp4839
g88
g89
ssg70
g4828
sg63
(lp4840
S':'
asbag56
(g77
g58
NtRp4841
(dp4842
g61
(dp4843
sg70
g4828
sg63
(lp4844
g56
(g57
g58
NtRp4845
(dp4846
g61
(dp4847
g69
I3
ssg70
g4841
sg63
(lp4848
g3223
asbasbasbag56
(g72
g58
NtRp4849
(dp4850
g61
(dp4851
sg70
g4278
sg63
(lp4852
g56
(g77
g58
NtRp4853
(dp4854
g61
(dp4855
g81
g82
ssg70
g4849
sg63
(lp4856
S'SERVER_PORT'
p4857
asbag56
(g77
g58
NtRp4858
(dp4859
g61
(dp4860
g88
g89
ssg70
g4849
sg63
(lp4861
S':'
asbag56
(g77
g58
NtRp4862
(dp4863
g61
(dp4864
sg70
g4849
sg63
(lp4865
g56
(g57
g58
NtRp4866
(dp4867
g61
(dp4868
g69
I3
ssg70
g4862
sg63
(lp4869
g3245
asbasbasbag56
(g72
g58
NtRp4870
(dp4871
g61
(dp4872
sg70
g4278
sg63
(lp4873
g56
(g77
g58
NtRp4874
(dp4875
g61
(dp4876
g81
g82
ssg70
g4870
sg63
(lp4877
S'SERVER_PROTOCOL'
p4878
asbag56
(g77
g58
NtRp4879
(dp4880
g61
(dp4881
g88
g89
ssg70
g4870
sg63
(lp4882
S':'
asbag56
(g77
g58
NtRp4883
(dp4884
g61
(dp4885
sg70
g4870
sg63
(lp4886
g56
(g57
g58
NtRp4887
(dp4888
g61
(dp4889
g69
I3
ssg70
g4883
sg63
(lp4890
g3267
asbasbasbag56
(g72
g58
NtRp4891
(dp4892
g61
(dp4893
sg70
g4278
sg63
(lp4894
g56
(g77
g58
NtRp4895
(dp4896
g61
(dp4897
g81
g82
ssg70
g4891
sg63
(lp4898
S'SERVER_SIGNATURE'
p4899
asbag56
(g77
g58
NtRp4900
(dp4901
g61
(dp4902
g88
g89
ssg70
g4891
sg63
(lp4903
S':'
asbag56
(g77
g58
NtRp4904
(dp4905
g61
(dp4906
sg70
g4891
sg63
(lp4907
g56
(g57
g58
NtRp4908
(dp4909
g61
(dp4910
g69
I3
ssg70
g4904
sg63
(lp4911
S''
asbasbasbag56
(g72
g58
NtRp4912
(dp4913
g61
(dp4914
sg70
g4278
sg63
(lp4915
g56
(g77
g58
NtRp4916
(dp4917
g61
(dp4918
g81
g82
ssg70
g4912
sg63
(lp4919
S'SERVER_SOFTWARE'
p4920
asbag56
(g77
g58
NtRp4921
(dp4922
g61
(dp4923
g88
g89
ssg70
g4912
sg63
(lp4924
S':'
asbag56
(g77
g58
NtRp4925
(dp4926
g61
(dp4927
sg70
g4912
sg63
(lp4928
g56
(g57
g58
NtRp4929
(dp4930
g61
(dp4931
g69
I3
ssg70
g4925
sg63
(lp4932
g3310
asbasbasbag56
(g72
g58
NtRp4933
(dp4934
g61
(dp4935
sg70
g4278
sg63
(lp4936
g56
(g77
g58
NtRp4937
(dp4938
g61
(dp4939
g81
g82
ssg70
g4933
sg63
(lp4940
S'SystemRoot'
p4941
asbag56
(g77
g58
NtRp4942
(dp4943
g61
(dp4944
g88
g89
ssg70
g4933
sg63
(lp4945
S':'
asbag56
(g77
g58
NtRp4946
(dp4947
g61
(dp4948
sg70
g4933
sg63
(lp4949
g56
(g57
g58
NtRp4950
(dp4951
g61
(dp4952
g69
I3
ssg70
g4946
sg63
(lp4953
g3332
asbasbasbag56
(g72
g58
NtRp4954
(dp4955
g61
(dp4956
sg70
g4278
sg63
(lp4957
g56
(g77
g58
NtRp4958
(dp4959
g61
(dp4960
g81
g82
ssg70
g4954
sg63
(lp4961
S'WINDIR'
p4962
asbag56
(g77
g58
NtRp4963
(dp4964
g61
(dp4965
g88
g89
ssg70
g4954
sg63
(lp4966
S':'
asbag56
(g77
g58
NtRp4967
(dp4968
g61
(dp4969
sg70
g4954
sg63
(lp4970
g56
(g57
g58
NtRp4971
(dp4972
g61
(dp4973
g69
I3
ssg70
g4967
sg63
(lp4974
g3463
asbasbasbag56
(g72
g58
NtRp4975
(dp4976
g61
(dp4977
sg70
g4278
sg63
(lp4978
g56
(g77
g58
NtRp4979
(dp4980
g61
(dp4981
g81
g82
ssg70
g4975
sg63
(lp4982
S'mod_wsgi.application_group'
p4983
asbag56
(g77
g58
NtRp4984
(dp4985
g61
(dp4986
g88
g89
ssg70
g4975
sg63
(lp4987
S':'
asbag56
(g77
g58
NtRp4988
(dp4989
g61
(dp4990
sg70
g4975
sg63
(lp4991
g56
(g57
g58
NtRp4992
(dp4993
g61
(dp4994
g69
I3
ssg70
g4988
sg63
(lp4995
g2763
asbasbasbag56
(g72
g58
NtRp4996
(dp4997
g61
(dp4998
sg70
g4278
sg63
(lp4999
g56
(g77
g58
NtRp5000
(dp5001
g61
(dp5002
g81
g82
ssg70
g4996
sg63
(lp5003
S'mod_wsgi.callable_object'
p5004
asbag56
(g77
g58
NtRp5005
(dp5006
g61
(dp5007
g88
g89
ssg70
g4996
sg63
(lp5008
S':'
asbag56
(g77
g58
NtRp5009
(dp5010
g61
(dp5011
sg70
g4996
sg63
(lp5012
g56
(g57
g58
NtRp5013
(dp5014
g61
(dp5015
g69
I3
ssg70
g5009
sg63
(lp5016
g2785
asbasbasbag56
(g72
g58
NtRp5017
(dp5018
g61
(dp5019
sg70
g4278
sg63
(lp5020
g56
(g77
g58
NtRp5021
(dp5022
g61
(dp5023
g81
g82
ssg70
g5017
sg63
(lp5024
S'mod_wsgi.handler_script'
p5025
asbag56
(g77
g58
NtRp5026
(dp5027
g61
(dp5028
g88
g89
ssg70
g5017
sg63
(lp5029
S':'
asbag56
(g77
g58
NtRp5030
(dp5031
g61
(dp5032
sg70
g5017
sg63
(lp5033
g56
(g57
g58
NtRp5034
(dp5035
g61
(dp5036
g69
I3
ssg70
g5030
sg63
(lp5037
S''
asbasbasbag56
(g72
g58
NtRp5038
(dp5039
g61
(dp5040
sg70
g4278
sg63
(lp5041
g56
(g77
g58
NtRp5042
(dp5043
g61
(dp5044
g81
g82
ssg70
g5038
sg63
(lp5045
S'mod_wsgi.input_chunked'
p5046
asbag56
(g77
g58
NtRp5047
(dp5048
g61
(dp5049
g88
g89
ssg70
g5038
sg63
(lp5050
S':'
asbag56
(g77
g58
NtRp5051
(dp5052
g61
(dp5053
sg70
g5038
sg63
(lp5054
g56
(g57
g58
NtRp5055
(dp5056
g61
(dp5057
g69
I3
ssg70
g5051
sg63
(lp5058
S'0'
asbasbasbag56
(g72
g58
NtRp5059
(dp5060
g61
(dp5061
sg70
g4278
sg63
(lp5062
g56
(g77
g58
NtRp5063
(dp5064
g61
(dp5065
g81
g82
ssg70
g5059
sg63
(lp5066
S'mod_wsgi.process_group'
p5067
asbag56
(g77
g58
NtRp5068
(dp5069
g61
(dp5070
g88
g89
ssg70
g5059
sg63
(lp5071
S':'
asbag56
(g77
g58
NtRp5072
(dp5073
g61
(dp5074
sg70
g5059
sg63
(lp5075
g56
(g57
g58
NtRp5076
(dp5077
g61
(dp5078
g69
I3
ssg70
g5072
sg63
(lp5079
S''
asbasbasbag56
(g72
g58
NtRp5080
(dp5081
g61
(dp5082
sg70
g4278
sg63
(lp5083
g56
(g77
g58
NtRp5084
(dp5085
g61
(dp5086
g81
g82
ssg70
g5080
sg63
(lp5087
S'mod_wsgi.request_handler'
p5088
asbag56
(g77
g58
NtRp5089
(dp5090
g61
(dp5091
g88
g89
ssg70
g5080
sg63
(lp5092
S':'
asbag56
(g77
g58
NtRp5093
(dp5094
g61
(dp5095
sg70
g5080
sg63
(lp5096
g56
(g57
g58
NtRp5097
(dp5098
g61
(dp5099
g69
I3
ssg70
g5093
sg63
(lp5100
g2870
asbasbasbag56
(g72
g58
NtRp5101
(dp5102
g61
(dp5103
sg70
g4278
sg63
(lp5104
g56
(g77
g58
NtRp5105
(dp5106
g61
(dp5107
g81
g82
ssg70
g5101
sg63
(lp5108
S'mod_wsgi.script_reloading'
p5109
asbag56
(g77
g58
NtRp5110
(dp5111
g61
(dp5112
g88
g89
ssg70
g5101
sg63
(lp5113
S':'
asbag56
(g77
g58
NtRp5114
(dp5115
g61
(dp5116
sg70
g5101
sg63
(lp5117
g56
(g57
g58
NtRp5118
(dp5119
g61
(dp5120
g69
I3
ssg70
g5114
sg63
(lp5121
S'1'
asbasbasbag56
(g72
g58
NtRp5122
(dp5123
g61
(dp5124
sg70
g4278
sg63
(lp5125
g56
(g77
g58
NtRp5126
(dp5127
g61
(dp5128
g81
g82
ssg70
g5122
sg63
(lp5129
S'mod_wsgi.version'
p5130
asbag56
(g77
g58
NtRp5131
(dp5132
g61
(dp5133
g88
g89
ssg70
g5122
sg63
(lp5134
S':'
asbag56
(g77
g58
NtRp5135
(dp5136
g61
(dp5137
sg70
g5122
sg63
(lp5138
g56
(g57
g58
NtRp5139
(dp5140
g61
(dp5141
g69
I3
ssg70
g5135
sg63
(lp5142
g56
(g65
g58
NtRp5143
(dp5144
g61
(dp5145
g69
I2
ssg70
Nsg63
(lp5146
g56
(g72
g58
NtRp5147
(dp5148
g61
(dp5149
sg70
g5143
sg63
(lp5150
g56
(g77
g58
NtRp5151
(dp5152
g61
(dp5153
sg70
g5147
sg63
(lp5154
g56
(g57
g58
NtRp5155
(dp5156
g61
(dp5157
g69
I2
ssg70
g5151
sg63
(lp5158
S'3'
asbasbasbag56
(g72
g58
NtRp5159
(dp5160
g61
(dp5161
sg70
g5143
sg63
(lp5162
g56
(g77
g58
NtRp5163
(dp5164
g61
(dp5165
sg70
g5159
sg63
(lp5166
g56
(g57
g58
NtRp5167
(dp5168
g61
(dp5169
g69
I2
ssg70
g5163
sg63
(lp5170
S'3'
asbasbasbasbasbasbasbag56
(g72
g58
NtRp5171
(dp5172
g61
(dp5173
sg70
g4278
sg63
(lp5174
g56
(g77
g58
NtRp5175
(dp5176
g61
(dp5177
g81
g82
ssg70
g5171
sg63
(lp5178
S'wsgi.errors'
p5179
asbag56
(g77
g58
NtRp5180
(dp5181
g61
(dp5182
g88
g89
ssg70
g5171
sg63
(lp5183
S':'
asbag56
(g77
g58
NtRp5184
(dp5185
g61
(dp5186
sg70
g5171
sg63
(lp5187
g56
(g57
g58
NtRp5188
(dp5189
g61
(dp5190
g69
I3
ssg70
g5184
sg63
(lp5191
S'<mod_wsgi.Log object at 0x0412E020>'
p5192
asbasbasbag56
(g72
g58
NtRp5193
(dp5194
g61
(dp5195
sg70
g4278
sg63
(lp5196
g56
(g77
g58
NtRp5197
(dp5198
g61
(dp5199
g81
g82
ssg70
g5193
sg63
(lp5200
S'wsgi.file_wrapper'
p5201
asbag56
(g77
g58
NtRp5202
(dp5203
g61
(dp5204
g88
g89
ssg70
g5193
sg63
(lp5205
S':'
asbag56
(g77
g58
NtRp5206
(dp5207
g61
(dp5208
sg70
g5193
sg63
(lp5209
g56
(g57
g58
NtRp5210
(dp5211
g61
(dp5212
g69
I3
ssg70
g5206
sg63
(lp5213
S'<built-in method file_wrapper of mod_wsgi.Adapter object at 0x037DCCC8>'
p5214
asbasbasbag56
(g72
g58
NtRp5215
(dp5216
g61
(dp5217
sg70
g4278
sg63
(lp5218
g56
(g77
g58
NtRp5219
(dp5220
g61
(dp5221
g81
g82
ssg70
g5215
sg63
(lp5222
S'wsgi.input'
p5223
asbag56
(g77
g58
NtRp5224
(dp5225
g61
(dp5226
g88
g89
ssg70
g5215
sg63
(lp5227
S':'
asbag56
(g77
g58
NtRp5228
(dp5229
g61
(dp5230
sg70
g5215
sg63
(lp5231
g56
(g57
g58
NtRp5232
(dp5233
g61
(dp5234
g69
I3
ssg70
g5228
sg63
(lp5235
S"<open file '<fdopen>', mode 'w+b' at 0x052609C0>"
p5236
asbasbasbag56
(g72
g58
NtRp5237
(dp5238
g61
(dp5239
sg70
g4278
sg63
(lp5240
g56
(g77
g58
NtRp5241
(dp5242
g61
(dp5243
g81
g82
ssg70
g5237
sg63
(lp5244
S'wsgi.multiprocess'
p5245
asbag56
(g77
g58
NtRp5246
(dp5247
g61
(dp5248
g88
g89
ssg70
g5237
sg63
(lp5249
S':'
asbag56
(g77
g58
NtRp5250
(dp5251
g61
(dp5252
sg70
g5237
sg63
(lp5253
g56
(g57
g58
NtRp5254
(dp5255
g61
(dp5256
g69
I3
ssg70
g5250
sg63
(lp5257
g99
asbasbasbag56
(g72
g58
NtRp5258
(dp5259
g61
(dp5260
sg70
g4278
sg63
(lp5261
g56
(g77
g58
NtRp5262
(dp5263
g61
(dp5264
g81
g82
ssg70
g5258
sg63
(lp5265
S'wsgi.multithread'
p5266
asbag56
(g77
g58
NtRp5267
(dp5268
g61
(dp5269
g88
g89
ssg70
g5258
sg63
(lp5270
S':'
asbag56
(g77
g58
NtRp5271
(dp5272
g61
(dp5273
sg70
g5258
sg63
(lp5274
g56
(g57
g58
NtRp5275
(dp5276
g61
(dp5277
g69
I3
ssg70
g5271
sg63
(lp5278
g3572
asbasbasbag56
(g72
g58
NtRp5279
(dp5280
g61
(dp5281
sg70
g4278
sg63
(lp5282
g56
(g77
g58
NtRp5283
(dp5284
g61
(dp5285
g81
g82
ssg70
g5279
sg63
(lp5286
S'wsgi.run_once'
p5287
asbag56
(g77
g58
NtRp5288
(dp5289
g61
(dp5290
g88
g89
ssg70
g5279
sg63
(lp5291
S':'
asbag56
(g77
g58
NtRp5292
(dp5293
g61
(dp5294
sg70
g5279
sg63
(lp5295
g56
(g57
g58
NtRp5296
(dp5297
g61
(dp5298
g69
I3
ssg70
g5292
sg63
(lp5299
g99
asbasbasbag56
(g72
g58
NtRp5300
(dp5301
g61
(dp5302
sg70
g4278
sg63
(lp5303
g56
(g77
g58
NtRp5304
(dp5305
g61
(dp5306
g81
g82
ssg70
g5300
sg63
(lp5307
S'wsgi.url_scheme'
p5308
asbag56
(g77
g58
NtRp5309
(dp5310
g61
(dp5311
g88
g89
ssg70
g5300
sg63
(lp5312
S':'
asbag56
(g77
g58
NtRp5313
(dp5314
g61
(dp5315
sg70
g5300
sg63
(lp5316
g56
(g57
g58
NtRp5317
(dp5318
g61
(dp5319
g69
I3
ssg70
g5313
sg63
(lp5320
g3615
asbasbasbag56
(g72
g58
NtRp5321
(dp5322
g61
(dp5323
sg70
g4278
sg63
(lp5324
g56
(g77
g58
NtRp5325
(dp5326
g61
(dp5327
g81
g82
ssg70
g5321
sg63
(lp5328
S'wsgi.version'
p5329
asbag56
(g77
g58
NtRp5330
(dp5331
g61
(dp5332
g88
g89
ssg70
g5321
sg63
(lp5333
S':'
asbag56
(g77
g58
NtRp5334
(dp5335
g61
(dp5336
sg70
g5321
sg63
(lp5337
g56
(g57
g58
NtRp5338
(dp5339
g61
(dp5340
g69
I3
ssg70
g5334
sg63
(lp5341
S'1'
asbasbasbasbasbasbasbasbasbasbasbasbasbsS'frames'
p5342
(lp5343
(dp5344
S'file'
p5345
S'D:\\Workbench\\private\\web2py_src\\gluon\\restricted.py'
p5346
sS'dump'
p5347
(dp5348
S'environment'
p5349
S"{'A': <class 'gluon.html.A'>, 'B': <class 'gluon.html.B'>, 'BEAUTIFY': <class 'gluon.html.BEAUTIFY'>, 'BODY': <class 'gluon.html.BODY'>, 'BR': <class 'gluon.html.BR'>, 'BUTTON': <class 'gluon.html.BUTTON'>, 'CAT': <class 'gluon.html.CAT'>, 'CENTER': <class 'gluon.html.CENTER'>, 'CLEANUP': <class 'gluon.validators.CLEANUP'>, 'CODE': <class 'gluon.html.CODE'>, ...}"
p5350
sS'ccode'
p5351
S'<code object <module> at 04200DA0, file "D:\\Work...tions\\examples\\controllers/transform.py", line 2>'
p5352
ssS'lnum'
p5353
I194
sS'lines'
p5354
(dp5355
I192
S'        else:'
p5356
sI193
S'            ccode = compile2(code,layer)'
p5357
sI194
S'        exec ccode in environment'
p5358
sI195
S'    except HTTP:'
p5359
sI196
S'        raise'
p5360
sI197
S'    except Exception, error:'
p5361
sI198
S'        # XXX Show exception in Wing IDE if running in debugger'
p5362
sI189
S'    try:'
p5363
sI190
S'        if type(code) == types.CodeType:'
p5364
sI191
S'            ccode = code'
p5365
ssS'call'
p5366
S"(code='\\ndef index():\\n    return dict()\\n\\ndef upload():\\n ...se None\\n\\nresponse._vars=response._caller(upload)\\n', environment={'A': <class 'gluon.html.A'>, 'B': <class 'gluon.html.B'>, 'BEAUTIFY': <class 'gluon.html.BEAUTIFY'>, 'BODY': <class 'gluon.html.BODY'>, 'BR': <class 'gluon.html.BR'>, 'BUTTON': <class 'gluon.html.BUTTON'>, 'CAT': <class 'gluon.html.CAT'>, 'CENTER': <class 'gluon.html.CENTER'>, 'CLEANUP': <class 'gluon.validators.CLEANUP'>, 'CODE': <class 'gluon.html.CODE'>, ...}, layer=r'D:\\Workbench\\private\\web2py_src\\applications\\examples\\controllers/transform.py')"
p5367
sS'func'
p5368
S'restricted'
p5369
sa(dp5370
g5345
S'D:\\Workbench\\private\\web2py_src\\applications\\examples\\controllers\\transform.py'
p5371
sg5347
(dp5372
sg5353
I9
sg5354
(dp5373
I1
S''
sI2
S'def index():'
p5374
sI3
S'    return dict()'
p5375
sI4
S''
sI5
S'def upload():'
p5376
sI6
S'    file = request.vars.myfile.file'
p5377
sI7
S"    return 'yes' + file.readlines() if file else None"
p5378
ssg5366
S'()'
p5379
sg5368
S'<module>'
p5380
sa(dp5381
g5345
S'D:\\Workbench\\private\\web2py_src\\gluon\\globals.py'
p5382
sg5347
(dp5383
S'self'
p5384
S'undefined'
p5385
sS'f'
S'<function upload>'
p5386
ssg5353
I149
sg5354
(dp5387
I144
S'        self.meta = Storage()      # used by web2py_ajax.html'
p5388
sI145
S'        self.menu = []             # used by the default view layout'
p5389
sI146
S'        self.files = []            # used by web2py_ajax.html'
p5390
sI147
S'        self.generic_patterns = [] # patterns to allow generic views'
p5391
sI148
S'        self._vars = None'
p5392
sI149
S'        self._caller = lambda f: f()'
p5393
sI150
S'        self._view_environment = None'
p5394
sI151
S'        self._custom_commit = None'
p5395
sI152
S'        self._custom_rollback = None'
p5396
sI153
S''
ssg5366
S'(f=<function upload>)'
p5397
sg5368
S'<lambda>'
p5398
sa(dp5399
g5345
S'D:\\Workbench\\private\\web2py_src\\applications\\examples\\controllers\\transform.py'
p5400
sg5347
(dp5401
sg5353
I7
sg5354
(dp5402
I1
S''
sI2
S'def index():'
p5403
sI3
S'    return dict()'
p5404
sI4
S''
sI5
S'def upload():'
p5405
sI6
S'    file = request.vars.myfile.file'
p5406
sI7
S"    return 'yes' + file.readlines() if file else None"
p5407
ssg5366
S'()'
p5408
sg5368
S'upload'
p5409
sasS'pyver'
p5410
S'Python 2.7.2: C:\\Program Files\\Apache Software Foundation\\Apache2.2\\bin\\httpd.exe'
p5411
sS'session'
p5412
g56
(g57
g58
NtRp5413
(dp5414
g61
(dp5415
sg63
(lp5416
g56
(g65
g58
NtRp5417
(dp5418
g61
(dp5419
g69
I5
ssg70
Nsg63
(lp5420
sbasbsS'etype'
p5421
S"<type 'exceptions.TypeError'>"
p5422
sS'date'
p5423
S'Thu Mar 08 22:40:54 2012'
p5424
sS'response'
p5425
g56
(g57
g58
NtRp5426
(dp5427
g61
(dp5428
sg63
(lp5429
g56
(g65
g58
NtRp5430
(dp5431
g61
(dp5432
g69
I5
ssg70
Nsg63
(lp5433
g56
(g72
g58
NtRp5434
(dp5435
g61
(dp5436
sg70
g5430
sg63
(lp5437
g56
(g77
g58
NtRp5438
(dp5439
g61
(dp5440
g81
g82
ssg70
g5434
sg63
(lp5441
g154
asbag56
(g77
g58
NtRp5442
(dp5443
g61
(dp5444
g88
g89
ssg70
g5434
sg63
(lp5445
S':'
asbag56
(g77
g58
NtRp5446
(dp5447
g61
(dp5448
sg70
g5434
sg63
(lp5449
g56
(g57
g58
NtRp5450
(dp5451
g61
(dp5452
g69
I5
ssg70
g5446
sg63
(lp5453
S'<cStringIO.StringO object at 0x05258A80>'
p5454
asbasbasbag56
(g72
g58
NtRp5455
(dp5456
g61
(dp5457
sg70
g5430
sg63
(lp5458
g56
(g77
g58
NtRp5459
(dp5460
g61
(dp5461
g81
g82
ssg70
g5455
sg63
(lp5462
g220
asbag56
(g77
g58
NtRp5463
(dp5464
g61
(dp5465
g88
g89
ssg70
g5455
sg63
(lp5466
S':'
asbag56
(g77
g58
NtRp5467
(dp5468
g61
(dp5469
sg70
g5455
sg63
(lp5470
g56
(g57
g58
NtRp5471
(dp5472
g61
(dp5473
g69
I5
ssg70
g5467
sg63
(lp5474
g56
(g65
g58
NtRp5475
(dp5476
g61
(dp5477
g69
I4
ssg70
Nsg63
(lp5478
g56
(g72
g58
NtRp5479
(dp5480
g61
(dp5481
sg70
g5475
sg63
(lp5482
g56
(g77
g58
NtRp5483
(dp5484
g61
(dp5485
g81
g82
ssg70
g5479
sg63
(lp5486
S'session_id_examples'
p5487
asbag56
(g77
g58
NtRp5488
(dp5489
g61
(dp5490
g88
g89
ssg70
g5479
sg63
(lp5491
S':'
asbag56
(g77
g58
NtRp5492
(dp5493
g61
(dp5494
sg70
g5479
sg63
(lp5495
g56
(g57
g58
NtRp5496
(dp5497
g61
(dp5498
g69
I4
ssg70
g5492
sg63
(lp5499
g56
(g65
g58
NtRp5500
(dp5501
g61
(dp5502
g69
I3
ssg70
Nsg63
(lp5503
g56
(g72
g58
NtRp5504
(dp5505
g61
(dp5506
sg70
g5500
sg63
(lp5507
g56
(g77
g58
NtRp5508
(dp5509
g61
(dp5510
g81
g82
ssg70
g5504
sg63
(lp5511
g270
asbag56
(g77
g58
NtRp5512
(dp5513
g61
(dp5514
g88
g89
ssg70
g5504
sg63
(lp5515
S':'
asbag56
(g77
g58
NtRp5516
(dp5517
g61
(dp5518
sg70
g5504
sg63
(lp5519
g56
(g57
g58
NtRp5520
(dp5521
g61
(dp5522
g69
I3
ssg70
g5516
sg63
(lp5523
S''
asbasbasbag56
(g72
g58
NtRp5524
(dp5525
g61
(dp5526
sg70
g5500
sg63
(lp5527
g56
(g77
g58
NtRp5528
(dp5529
g61
(dp5530
g81
g82
ssg70
g5524
sg63
(lp5531
g291
asbag56
(g77
g58
NtRp5532
(dp5533
g61
(dp5534
g88
g89
ssg70
g5524
sg63
(lp5535
S':'
asbag56
(g77
g58
NtRp5536
(dp5537
g61
(dp5538
sg70
g5524
sg63
(lp5539
g56
(g57
g58
NtRp5540
(dp5541
g61
(dp5542
g69
I3
ssg70
g5536
sg63
(lp5543
S''
asbasbasbag56
(g72
g58
NtRp5544
(dp5545
g61
(dp5546
sg70
g5500
sg63
(lp5547
g56
(g77
g58
NtRp5548
(dp5549
g61
(dp5550
g81
g82
ssg70
g5544
sg63
(lp5551
g312
asbag56
(g77
g58
NtRp5552
(dp5553
g61
(dp5554
g88
g89
ssg70
g5544
sg63
(lp5555
S':'
asbag56
(g77
g58
NtRp5556
(dp5557
g61
(dp5558
sg70
g5544
sg63
(lp5559
g56
(g57
g58
NtRp5560
(dp5561
g61
(dp5562
g69
I3
ssg70
g5556
sg63
(lp5563
S''
asbasbasbag56
(g72
g58
NtRp5564
(dp5565
g61
(dp5566
sg70
g5500
sg63
(lp5567
g56
(g77
g58
NtRp5568
(dp5569
g61
(dp5570
g81
g82
ssg70
g5564
sg63
(lp5571
g333
asbag56
(g77
g58
NtRp5572
(dp5573
g61
(dp5574
g88
g89
ssg70
g5564
sg63
(lp5575
S':'
asbag56
(g77
g58
NtRp5576
(dp5577
g61
(dp5578
sg70
g5564
sg63
(lp5579
g56
(g57
g58
NtRp5580
(dp5581
g61
(dp5582
g69
I3
ssg70
g5576
sg63
(lp5583
S''
asbasbasbag56
(g72
g58
NtRp5584
(dp5585
g61
(dp5586
sg70
g5500
sg63
(lp5587
g56
(g77
g58
NtRp5588
(dp5589
g61
(dp5590
g81
g82
ssg70
g5584
sg63
(lp5591
g354
asbag56
(g77
g58
NtRp5592
(dp5593
g61
(dp5594
g88
g89
ssg70
g5584
sg63
(lp5595
S':'
asbag56
(g77
g58
NtRp5596
(dp5597
g61
(dp5598
sg70
g5584
sg63
(lp5599
g56
(g57
g58
NtRp5600
(dp5601
g61
(dp5602
g69
I3
ssg70
g5596
sg63
(lp5603
S''
asbasbasbag56
(g72
g58
NtRp5604
(dp5605
g61
(dp5606
sg70
g5500
sg63
(lp5607
g56
(g77
g58
NtRp5608
(dp5609
g61
(dp5610
g81
g82
ssg70
g5604
sg63
(lp5611
g375
asbag56
(g77
g58
NtRp5612
(dp5613
g61
(dp5614
g88
g89
ssg70
g5604
sg63
(lp5615
S':'
asbag56
(g77
g58
NtRp5616
(dp5617
g61
(dp5618
sg70
g5604
sg63
(lp5619
g56
(g57
g58
NtRp5620
(dp5621
g61
(dp5622
g69
I3
ssg70
g5616
sg63
(lp5623
S'/'
asbasbasbag56
(g72
g58
NtRp5624
(dp5625
g61
(dp5626
sg70
g5500
sg63
(lp5627
g56
(g77
g58
NtRp5628
(dp5629
g61
(dp5630
g81
g82
ssg70
g5624
sg63
(lp5631
g396
asbag56
(g77
g58
NtRp5632
(dp5633
g61
(dp5634
g88
g89
ssg70
g5624
sg63
(lp5635
S':'
asbag56
(g77
g58
NtRp5636
(dp5637
g61
(dp5638
sg70
g5624
sg63
(lp5639
g56
(g57
g58
NtRp5640
(dp5641
g61
(dp5642
g69
I3
ssg70
g5636
sg63
(lp5643
S''
asbasbasbag56
(g72
g58
NtRp5644
(dp5645
g61
(dp5646
sg70
g5500
sg63
(lp5647
g56
(g77
g58
NtRp5648
(dp5649
g61
(dp5650
g81
g82
ssg70
g5644
sg63
(lp5651
g417
asbag56
(g77
g58
NtRp5652
(dp5653
g61
(dp5654
g88
g89
ssg70
g5644
sg63
(lp5655
S':'
asbag56
(g77
g58
NtRp5656
(dp5657
g61
(dp5658
sg70
g5644
sg63
(lp5659
g56
(g57
g58
NtRp5660
(dp5661
g61
(dp5662
g69
I3
ssg70
g5656
sg63
(lp5663
S''
asbasbasbasbasbasbasbasbasbasbasbag56
(g72
g58
NtRp5664
(dp5665
g61
(dp5666
sg70
g5430
sg63
(lp5667
g56
(g77
g58
NtRp5668
(dp5669
g61
(dp5670
g81
g82
ssg70
g5664
sg63
(lp5671
S'files'
p5672
asbag56
(g77
g58
NtRp5673
(dp5674
g61
(dp5675
g88
g89
ssg70
g5664
sg63
(lp5676
S':'
asbag56
(g77
g58
NtRp5677
(dp5678
g61
(dp5679
sg70
g5664
sg63
(lp5680
g56
(g57
g58
NtRp5681
(dp5682
g61
(dp5683
g69
I5
ssg70
g5677
sg63
(lp5684
g56
(g65
g58
NtRp5685
(dp5686
g61
(dp5687
g69
I4
ssg70
Nsg63
(lp5688
sbasbasbasbag56
(g72
g58
NtRp5689
(dp5690
g61
(dp5691
sg70
g5430
sg63
(lp5692
g56
(g77
g58
NtRp5693
(dp5694
g61
(dp5695
g81
g82
ssg70
g5689
sg63
(lp5696
S'flash'
p5697
asbag56
(g77
g58
NtRp5698
(dp5699
g61
(dp5700
g88
g89
ssg70
g5689
sg63
(lp5701
S':'
asbag56
(g77
g58
NtRp5702
(dp5703
g61
(dp5704
sg70
g5689
sg63
(lp5705
g56
(g57
g58
NtRp5706
(dp5707
g61
(dp5708
g69
I5
ssg70
g5702
sg63
(lp5709
S''
asbasbasbag56
(g72
g58
NtRp5710
(dp5711
g61
(dp5712
sg70
g5430
sg63
(lp5713
g56
(g77
g58
NtRp5714
(dp5715
g61
(dp5716
g81
g82
ssg70
g5710
sg63
(lp5717
S'generic_patterns'
p5718
asbag56
(g77
g58
NtRp5719
(dp5720
g61
(dp5721
g88
g89
ssg70
g5710
sg63
(lp5722
S':'
asbag56
(g77
g58
NtRp5723
(dp5724
g61
(dp5725
sg70
g5710
sg63
(lp5726
g56
(g57
g58
NtRp5727
(dp5728
g61
(dp5729
g69
I5
ssg70
g5723
sg63
(lp5730
g56
(g65
g58
NtRp5731
(dp5732
g61
(dp5733
g69
I4
ssg70
Nsg63
(lp5734
sbasbasbasbag56
(g72
g58
NtRp5735
(dp5736
g61
(dp5737
sg70
g5430
sg63
(lp5738
g56
(g77
g58
NtRp5739
(dp5740
g61
(dp5741
g81
g82
ssg70
g5735
sg63
(lp5742
S'headers'
p5743
asbag56
(g77
g58
NtRp5744
(dp5745
g61
(dp5746
g88
g89
ssg70
g5735
sg63
(lp5747
S':'
asbag56
(g77
g58
NtRp5748
(dp5749
g61
(dp5750
sg70
g5735
sg63
(lp5751
g56
(g57
g58
NtRp5752
(dp5753
g61
(dp5754
g69
I5
ssg70
g5748
sg63
(lp5755
g56
(g65
g58
NtRp5756
(dp5757
g61
(dp5758
g69
I4
ssg70
Nsg63
(lp5759
g56
(g72
g58
NtRp5760
(dp5761
g61
(dp5762
sg70
g5756
sg63
(lp5763
g56
(g77
g58
NtRp5764
(dp5765
g61
(dp5766
g81
g82
ssg70
g5760
sg63
(lp5767
S'Cache-Control'
p5768
asbag56
(g77
g58
NtRp5769
(dp5770
g61
(dp5771
g88
g89
ssg70
g5760
sg63
(lp5772
S':'
asbag56
(g77
g58
NtRp5773
(dp5774
g61
(dp5775
sg70
g5760
sg63
(lp5776
g56
(g57
g58
NtRp5777
(dp5778
g61
(dp5779
g69
I4
ssg70
g5773
sg63
(lp5780
S'no-store, no-cache, must-revalidate, post-check=0, pre-check=0'
p5781
asbasbasbag56
(g72
g58
NtRp5782
(dp5783
g61
(dp5784
sg70
g5756
sg63
(lp5785
g56
(g77
g58
NtRp5786
(dp5787
g61
(dp5788
g81
g82
ssg70
g5782
sg63
(lp5789
S'Content-Type'
p5790
asbag56
(g77
g58
NtRp5791
(dp5792
g61
(dp5793
g88
g89
ssg70
g5782
sg63
(lp5794
S':'
asbag56
(g77
g58
NtRp5795
(dp5796
g61
(dp5797
sg70
g5782
sg63
(lp5798
g56
(g57
g58
NtRp5799
(dp5800
g61
(dp5801
g69
I4
ssg70
g5795
sg63
(lp5802
S'text/html; charset=utf-8'
p5803
asbasbasbag56
(g72
g58
NtRp5804
(dp5805
g61
(dp5806
sg70
g5756
sg63
(lp5807
g56
(g77
g58
NtRp5808
(dp5809
g61
(dp5810
g81
g82
ssg70
g5804
sg63
(lp5811
S'Expires'
p5812
asbag56
(g77
g58
NtRp5813
(dp5814
g61
(dp5815
g88
g89
ssg70
g5804
sg63
(lp5816
S':'
asbag56
(g77
g58
NtRp5817
(dp5818
g61
(dp5819
sg70
g5804
sg63
(lp5820
g56
(g57
g58
NtRp5821
(dp5822
g61
(dp5823
g69
I4
ssg70
g5817
sg63
(lp5824
S'Thu, 08 Mar 2012 14:40:53 GMT'
p5825
asbasbasbag56
(g72
g58
NtRp5826
(dp5827
g61
(dp5828
sg70
g5756
sg63
(lp5829
g56
(g77
g58
NtRp5830
(dp5831
g61
(dp5832
g81
g82
ssg70
g5826
sg63
(lp5833
S'Pragma'
p5834
asbag56
(g77
g58
NtRp5835
(dp5836
g61
(dp5837
g88
g89
ssg70
g5826
sg63
(lp5838
S':'
asbag56
(g77
g58
NtRp5839
(dp5840
g61
(dp5841
sg70
g5826
sg63
(lp5842
g56
(g57
g58
NtRp5843
(dp5844
g61
(dp5845
g69
I4
ssg70
g5839
sg63
(lp5846
S'no-cache'
p5847
asbasbasbag56
(g72
g58
NtRp5848
(dp5849
g61
(dp5850
sg70
g5756
sg63
(lp5851
g56
(g77
g58
NtRp5852
(dp5853
g61
(dp5854
g81
g82
ssg70
g5848
sg63
(lp5855
S'X-Powered-By'
p5856
asbag56
(g77
g58
NtRp5857
(dp5858
g61
(dp5859
g88
g89
ssg70
g5848
sg63
(lp5860
S':'
asbag56
(g77
g58
NtRp5861
(dp5862
g61
(dp5863
sg70
g5848
sg63
(lp5864
g56
(g57
g58
NtRp5865
(dp5866
g61
(dp5867
g69
I4
ssg70
g5861
sg63
(lp5868
S'web2py'
p5869
asbasbasbasbasbasbasbag56
(g72
g58
NtRp5870
(dp5871
g61
(dp5872
sg70
g5430
sg63
(lp5873
g56
(g77
g58
NtRp5874
(dp5875
g61
(dp5876
g81
g82
ssg70
g5870
sg63
(lp5877
S'menu'
p5878
asbag56
(g77
g58
NtRp5879
(dp5880
g61
(dp5881
g88
g89
ssg70
g5870
sg63
(lp5882
S':'
asbag56
(g77
g58
NtRp5883
(dp5884
g61
(dp5885
sg70
g5870
sg63
(lp5886
g56
(g57
g58
NtRp5887
(dp5888
g61
(dp5889
g69
I5
ssg70
g5883
sg63
(lp5890
g56
(g65
g58
NtRp5891
(dp5892
g61
(dp5893
g69
I4
ssg70
Nsg63
(lp5894
sbasbasbasbag56
(g72
g58
NtRp5895
(dp5896
g61
(dp5897
sg70
g5430
sg63
(lp5898
g56
(g77
g58
NtRp5899
(dp5900
g61
(dp5901
g81
g82
ssg70
g5895
sg63
(lp5902
S'meta'
p5903
asbag56
(g77
g58
NtRp5904
(dp5905
g61
(dp5906
g88
g89
ssg70
g5895
sg63
(lp5907
S':'
asbag56
(g77
g58
NtRp5908
(dp5909
g61
(dp5910
sg70
g5895
sg63
(lp5911
g56
(g57
g58
NtRp5912
(dp5913
g61
(dp5914
g69
I5
ssg70
g5908
sg63
(lp5915
g56
(g65
g58
NtRp5916
(dp5917
g61
(dp5918
g69
I4
ssg70
Nsg63
(lp5919
sbasbasbasbag56
(g72
g58
NtRp5920
(dp5921
g61
(dp5922
sg70
g5430
sg63
(lp5923
g56
(g77
g58
NtRp5924
(dp5925
g61
(dp5926
g81
g82
ssg70
g5920
sg63
(lp5927
S'postprocessing'
p5928
asbag56
(g77
g58
NtRp5929
(dp5930
g61
(dp5931
g88
g89
ssg70
g5920
sg63
(lp5932
S':'
asbag56
(g77
g58
NtRp5933
(dp5934
g61
(dp5935
sg70
g5920
sg63
(lp5936
g56
(g57
g58
NtRp5937
(dp5938
g61
(dp5939
g69
I5
ssg70
g5933
sg63
(lp5940
g56
(g65
g58
NtRp5941
(dp5942
g61
(dp5943
g69
I4
ssg70
Nsg63
(lp5944
sbasbasbasbag56
(g72
g58
NtRp5945
(dp5946
g61
(dp5947
sg70
g5430
sg63
(lp5948
g56
(g77
g58
NtRp5949
(dp5950
g61
(dp5951
g81
g82
ssg70
g5945
sg63
(lp5952
S'session_filename'
p5953
asbag56
(g77
g58
NtRp5954
(dp5955
g61
(dp5956
g88
g89
ssg70
g5945
sg63
(lp5957
S':'
asbag56
(g77
g58
NtRp5958
(dp5959
g61
(dp5960
sg70
g5945
sg63
(lp5961
g56
(g57
g58
NtRp5962
(dp5963
g61
(dp5964
g69
I5
ssg70
g5958
sg63
(lp5965
S'D:\\Workbench\\private\\web2py_src\\applications\\examples\\sessions\\127.0.0.1-4d5f02fc-a126-4828-87ec-b908b2345720'
p5966
asbasbasbag56
(g72
g58
NtRp5967
(dp5968
g61
(dp5969
sg70
g5430
sg63
(lp5970
g56
(g77
g58
NtRp5971
(dp5972
g61
(dp5973
g81
g82
ssg70
g5967
sg63
(lp5974
S'session_id'
p5975
asbag56
(g77
g58
NtRp5976
(dp5977
g61
(dp5978
g88
g89
ssg70
g5967
sg63
(lp5979
S':'
asbag56
(g77
g58
NtRp5980
(dp5981
g61
(dp5982
sg70
g5967
sg63
(lp5983
g56
(g57
g58
NtRp5984
(dp5985
g61
(dp5986
g69
I5
ssg70
g5980
sg63
(lp5987
S'127.0.0.1-4d5f02fc-a126-4828-87ec-b908b2345720'
p5988
asbasbasbag56
(g72
g58
NtRp5989
(dp5990
g61
(dp5991
sg70
g5430
sg63
(lp5992
g56
(g77
g58
NtRp5993
(dp5994
g61
(dp5995
g81
g82
ssg70
g5989
sg63
(lp5996
S'session_id_name'
p5997
asbag56
(g77
g58
NtRp5998
(dp5999
g61
(dp6000
g88
g89
ssg70
g5989
sg63
(lp6001
S':'
asbag56
(g77
g58
NtRp6002
(dp6003
g61
(dp6004
sg70
g5989
sg63
(lp6005
g56
(g57
g58
NtRp6006
(dp6007
g61
(dp6008
g69
I5
ssg70
g6002
sg63
(lp6009
g5487
asbasbasbag56
(g72
g58
NtRp6010
(dp6011
g61
(dp6012
sg70
g5430
sg63
(lp6013
g56
(g77
g58
NtRp6014
(dp6015
g61
(dp6016
g81
g82
ssg70
g6010
sg63
(lp6017
S'session_new'
p6018
asbag56
(g77
g58
NtRp6019
(dp6020
g61
(dp6021
g88
g89
ssg70
g6010
sg63
(lp6022
S':'
asbag56
(g77
g58
NtRp6023
(dp6024
g61
(dp6025
sg70
g6010
sg63
(lp6026
g56
(g57
g58
NtRp6027
(dp6028
g61
(dp6029
g69
I5
ssg70
g6023
sg63
(lp6030
g3572
asbasbasbag56
(g72
g58
NtRp6031
(dp6032
g61
(dp6033
sg70
g5430
sg63
(lp6034
g56
(g77
g58
NtRp6035
(dp6036
g61
(dp6037
g81
g82
ssg70
g6031
sg63
(lp6038
S'status'
p6039
asbag56
(g77
g58
NtRp6040
(dp6041
g61
(dp6042
g88
g89
ssg70
g6031
sg63
(lp6043
S':'
asbag56
(g77
g58
NtRp6044
(dp6045
g61
(dp6046
sg70
g6031
sg63
(lp6047
g56
(g57
g58
NtRp6048
(dp6049
g61
(dp6050
g69
I5
ssg70
g6044
sg63
(lp6051
S'200'
p6052
asbasbasbag56
(g72
g58
NtRp6053
(dp6054
g61
(dp6055
sg70
g5430
sg63
(lp6056
g56
(g77
g58
NtRp6057
(dp6058
g61
(dp6059
g81
g82
ssg70
g6053
sg63
(lp6060
g4173
asbag56
(g77
g58
NtRp6061
(dp6062
g61
(dp6063
g88
g89
ssg70
g6053
sg63
(lp6064
S':'
asbag56
(g77
g58
NtRp6065
(dp6066
g61
(dp6067
sg70
g6053
sg63
(lp6068
g56
(g57
g58
NtRp6069
(dp6070
g61
(dp6071
g69
I5
ssg70
g6065
sg63
(lp6072
g4186
asbasbasbag56
(g72
g58
NtRp6073
(dp6074
g61
(dp6075
sg70
g5430
sg63
(lp6076
g56
(g77
g58
NtRp6077
(dp6078
g61
(dp6079
g81
g82
ssg70
g6073
sg63
(lp6080
S'view'
p6081
asbag56
(g77
g58
NtRp6082
(dp6083
g61
(dp6084
g88
g89
ssg70
g6073
sg63
(lp6085
S':'
asbag56
(g77
g58
NtRp6086
(dp6087
g61
(dp6088
sg70
g6073
sg63
(lp6089
g56
(g57
g58
NtRp6090
(dp6091
g61
(dp6092
g69
I5
ssg70
g6086
sg63
(lp6093
S'transform/upload.html'
p6094
asbasbasbasbasbsS'locals'
p6095
(dp6096
g5345
S"<open file '<fdopen>', mode 'w+b'>"
p6097
sssS'traceback'
p6098
S'Traceback (most recent call last):\n  File "D:\\Workbench\\private\\web2py_src\\gluon\\restricted.py", line 194, in restricted\n    exec ccode in environment\n  File "D:\\Workbench\\private\\web2py_src\\applications\\examples\\controllers/transform.py", line 9, in <module>\n  File "D:\\Workbench\\private\\web2py_src\\gluon\\globals.py", line 149, in <lambda>\n    self._caller = lambda f: f()\n  File "D:\\Workbench\\private\\web2py_src\\applications\\examples\\controllers/transform.py", line 7, in upload\n    return \'yes\' + file.readlines() if file else None\nTypeError: cannot concatenate \'str\' and \'list\' objects\n'
p6099
s.